
runtime:     file format elf32-littlearm


Disassembly of section .text:

402f0400 <_start>:
402f0400:	e59fd050 	ldr	r13, [pc, #80]	; 402f0458 <_start+0x58>
402f0404:	e24d1c01 	sub	r1, r13, #256	; 0x100
402f0408:	e10f3000 	mrs	r3, CPSR
402f040c:	e3a0201b 	mov	r2, #27
402f0410:	e12ff002 	msr	CPSR_fsxc, r2
402f0414:	e1a0d001 	mov	r13, r1
402f0418:	e24d1c01 	sub	r1, r13, #256	; 0x100
402f041c:	e3a02012 	mov	r2, #18
402f0420:	e12ff002 	msr	CPSR_fsxc, r2
402f0424:	e1a0d001 	mov	r13, r1
402f0428:	e24d1c01 	sub	r1, r13, #256	; 0x100
402f042c:	e12ff003 	msr	CPSR_fsxc, r3
402f0430:	e1a03000 	mov	r3, r0
402f0434:	e59f0020 	ldr	r0, [pc, #32]	; 402f045c <_start+0x5c>
402f0438:	e59f1020 	ldr	r1, [pc, #32]	; 402f0460 <_start+0x60>
402f043c:	e0811000 	add	r1, r1, r0
402f0440:	e3a02000 	mov	r2, #0
402f0444:	e1500001 	cmp	r0, r1
402f0448:	b4802004 	strlt	r2, [r0], #4
402f044c:	bafffffc 	blt	402f0444 <_start+0x44>
402f0450:	e1a00003 	mov	r0, r3
402f0454:	ea00004c 	b	402f058c <main>
402f0458:	4030cdfc 	ldrshtmi	r12, [r0], -r12
402f045c:	402f1348 	eormi	r1, r15, r8, asr #6
402f0460:	00000010 	andeq	r0, r0, r0, lsl r0

402f0464 <handler_irq_entry>:
402f0464:	e92d480f 	push	{r0, r1, r2, r3, r11, r14}
402f0468:	e14fb000 	mrs	r11, SPSR
402f046c:	eb00002a 	bl	402f051c <handler_irq>
402f0470:	e59f0110 	ldr	r0, [pc, #272]	; 402f0588 <handler_irq+0x6c>
402f0474:	e3a01001 	mov	r1, #1
402f0478:	e5801048 	str	r1, [r0, #72]	; 0x48
402f047c:	f57ff04f 	dsb	sy
402f0480:	e169f00b 	msr	SPSR_fc, r11
402f0484:	e8bd480f 	pop	{r0, r1, r2, r3, r11, r14}
402f0488:	e25ef004 	subs	r15, r14, #4

402f048c <timer_init>:
402f048c:	e92d4008 	push	{r3, r14}
402f0490:	e3a03000 	mov	r3, #0
402f0494:	e34434e0 	movt	r3, #17632	; 0x44e0
402f0498:	e3a02002 	mov	r2, #2
402f049c:	e3a00003 	mov	r0, #3
402f04a0:	e583207c 	str	r2, [r3, #124]	; 0x7c
402f04a4:	eb0000e9 	bl	402f0850 <leds_set>
402f04a8:	e3a03a0a 	mov	r3, #40960	; 0xa000
402f04ac:	e3443804 	movt	r3, #18436	; 0x4804
402f04b0:	e3a02003 	mov	r2, #3
402f04b4:	e5832038 	str	r2, [r3, #56]	; 0x38
402f04b8:	e8bd8008 	pop	{r3, r15}

402f04bc <sleep>:
402f04bc:	e3a02a0a 	mov	r2, #40960	; 0xa000
402f04c0:	e3442804 	movt	r2, #18436	; 0x4804
402f04c4:	e592103c 	ldr	r1, [r2, #60]	; 0x3c
402f04c8:	e592303c 	ldr	r3, [r2, #60]	; 0x3c
402f04cc:	e0613003 	rsb	r3, r1, r3
402f04d0:	e3530401 	cmp	r3, #16777216	; 0x1000000
402f04d4:	3afffffb 	bcc	402f04c8 <sleep+0xc>
402f04d8:	e12fff1e 	bx	r14

402f04dc <handler_undefined>:
402f04dc:	e92d4008 	push	{r3, r14}
402f04e0:	e1a0100d 	mov	r1, r13
402f04e4:	e3010108 	movw	r0, #4360	; 0x1108
402f04e8:	e344002f 	movt	r0, #16431	; 0x402f
402f04ec:	eb00015f 	bl	402f0a70 <uart_putf>
402f04f0:	e3010110 	movw	r0, #4368	; 0x1110
402f04f4:	e344002f 	movt	r0, #16431	; 0x402f
402f04f8:	e10f1000 	mrs	r1, CPSR
402f04fc:	eb00015b 	bl	402f0a70 <uart_putf>
402f0500:	e3010124 	movw	r0, #4388	; 0x1124
402f0504:	e344002f 	movt	r0, #16431	; 0x402f
402f0508:	e8bd4008 	pop	{r3, r14}
402f050c:	ea000157 	b	402f0a70 <uart_putf>

402f0510 <handler_undefined_entry>:
402f0510:	f96d051b 	srsdb	r13!, #27
402f0514:	ebfffff0 	bl	402f04dc <handler_undefined>
402f0518:	f8bd0a00 	rfeia	r13!

402f051c <handler_irq>:
402f051c:	e3a03000 	mov	r3, #0
402f0520:	e3443820 	movt	r3, #18464	; 0x4820
402f0524:	e5933040 	ldr	r3, [r3, #64]	; 0x40
402f0528:	e3d3207f 	bics	r2, r3, #127	; 0x7f
402f052c:	112fff1e 	bxne	r14
402f0530:	e353004b 	cmp	r3, #75	; 0x4b
402f0534:	112fff1e 	bxne	r14
402f0538:	e3a01a0e 	mov	r1, #57344	; 0xe000
402f053c:	e34414e3 	movt	r1, #17635	; 0x44e3
402f0540:	e5912044 	ldr	r2, [r1, #68]	; 0x44
402f0544:	e3a03a0e 	mov	r3, #57344	; 0xe000
402f0548:	e34434e3 	movt	r3, #17635	; 0x44e3
402f054c:	e3120001 	tst	r2, #1
402f0550:	1afffffa 	bne	402f0540 <handler_irq+0x24>
402f0554:	e5933044 	ldr	r3, [r3, #68]	; 0x44
402f0558:	e3130004 	tst	r3, #4
402f055c:	012fff1e 	bxeq	r14
402f0560:	e3013348 	movw	r3, #4936	; 0x1348
402f0564:	e3a02000 	mov	r2, #0
402f0568:	e344302f 	movt	r3, #16431	; 0x402f
402f056c:	e3442820 	movt	r2, #18464	; 0x4820
402f0570:	e5930000 	ldr	r0, [r3]
402f0574:	e3a01b02 	mov	r1, #2048	; 0x800
402f0578:	e2800001 	add	r0, r0, #1
402f057c:	e5830000 	str	r0, [r3]
402f0580:	e58210d0 	str	r1, [r2, #208]	; 0xd0
402f0584:	e12fff1e 	bx	r14
402f0588:	48200000 	stmdami	r0!, {}	; <UNPREDICTABLE>

402f058c <main>:
402f058c:	e92d41f0 	push	{r4, r5, r6, r7, r8, r14}
402f0590:	e24dd018 	sub	r13, r13, #24
402f0594:	e1a04000 	mov	r4, r0
402f0598:	eb0000a1 	bl	402f0824 <leds_init>
402f059c:	e3a03000 	mov	r3, #0
402f05a0:	e3a02002 	mov	r2, #2
402f05a4:	e34434e0 	movt	r3, #17632	; 0x44e0
402f05a8:	e3a00003 	mov	r0, #3
402f05ac:	e583207c 	str	r2, [r3, #124]	; 0x7c
402f05b0:	eb0000a6 	bl	402f0850 <leds_set>
402f05b4:	e3a03a0a 	mov	r3, #40960	; 0xa000
402f05b8:	e3443804 	movt	r3, #18436	; 0x4804
402f05bc:	e3a02003 	mov	r2, #3
402f05c0:	e5832038 	str	r2, [r3, #56]	; 0x38
402f05c4:	eb0000d6 	bl	402f0924 <uart_init>
402f05c8:	e3010148 	movw	r0, #4424	; 0x1148
402f05cc:	e344002f 	movt	r0, #16431	; 0x402f
402f05d0:	eb000126 	bl	402f0a70 <uart_putf>
402f05d4:	e3010158 	movw	r0, #4440	; 0x1158
402f05d8:	e344002f 	movt	r0, #16431	; 0x402f
402f05dc:	ee101f10 	mrc	15, 0, r1, cr0, cr0, {0}
402f05e0:	eb000122 	bl	402f0a70 <uart_putf>
402f05e4:	e3010110 	movw	r0, #4368	; 0x1110
402f05e8:	e10f5000 	mrs	r5, CPSR
402f05ec:	e344002f 	movt	r0, #16431	; 0x402f
402f05f0:	e1a01005 	mov	r1, r5
402f05f4:	eb00011d 	bl	402f0a70 <uart_putf>
402f05f8:	e3c51080 	bic	r1, r5, #128	; 0x80
402f05fc:	e129f001 	msr	CPSR_fc, r1
402f0600:	e3010110 	movw	r0, #4368	; 0x1110
402f0604:	e3a05000 	mov	r5, #0
402f0608:	e344002f 	movt	r0, #16431	; 0x402f
402f060c:	e34454e1 	movt	r5, #17633	; 0x44e1
402f0610:	eb000116 	bl	402f0a70 <uart_putf>
402f0614:	e3a03a2b 	mov	r3, #176128	; 0x2b000
402f0618:	e3010170 	movw	r0, #4464	; 0x1170
402f061c:	e5931ffc 	ldr	r1, [r3, #4092]	; 0xffc
402f0620:	e344002f 	movt	r0, #16431	; 0x402f
402f0624:	eb000111 	bl	402f0a70 <uart_putf>
402f0628:	e3010188 	movw	r0, #4488	; 0x1188
402f062c:	e5951040 	ldr	r1, [r5, #64]	; 0x40
402f0630:	e344002f 	movt	r0, #16431	; 0x402f
402f0634:	eb00010d 	bl	402f0a70 <uart_putf>
402f0638:	e5952040 	ldr	r2, [r5, #64]	; 0x40
402f063c:	e3013338 	movw	r3, #4920	; 0x1338
402f0640:	e30101a0 	movw	r0, #4512	; 0x11a0
402f0644:	e7e12b52 	ubfx	r2, r2, #22, #2
402f0648:	e344302f 	movt	r3, #16431	; 0x402f
402f064c:	e344002f 	movt	r0, #16431	; 0x402f
402f0650:	e7931102 	ldr	r1, [r3, r2, lsl #2]
402f0654:	eb000105 	bl	402f0a70 <uart_putf>
402f0658:	e30101b8 	movw	r0, #4536	; 0x11b8
402f065c:	e894000e 	ldm	r4, {r1, r2, r3}
402f0660:	e344002f 	movt	r0, #16431	; 0x402f
402f0664:	eb000101 	bl	402f0a70 <uart_putf>
402f0668:	e5d4c009 	ldrb	r12, [r4, #9]
402f066c:	e30101c4 	movw	r0, #4548	; 0x11c4
402f0670:	e5942004 	ldr	r2, [r4, #4]
402f0674:	e5d43008 	ldrb	r3, [r4, #8]
402f0678:	e1a01004 	mov	r1, r4
402f067c:	e344002f 	movt	r0, #16431	; 0x402f
402f0680:	e58dc000 	str	r12, [r13]
402f0684:	eb0000f9 	bl	402f0a70 <uart_putf>
402f0688:	e301334c 	movw	r3, #4940	; 0x134c
402f068c:	e344302f 	movt	r3, #16431	; 0x402f
402f0690:	e3a0c903 	mov	r12, #49152	; 0xc000
402f0694:	e8930007 	ldm	r3, {r0, r1, r2}
402f0698:	e344c030 	movt	r12, #16432	; 0x4030
402f069c:	e300e510 	movw	r14, #1296	; 0x510
402f06a0:	e3003464 	movw	r3, #1124	; 0x464
402f06a4:	e344302f 	movt	r3, #16431	; 0x402f
402f06a8:	e344e02f 	movt	r14, #16431	; 0x402f
402f06ac:	e8840007 	stm	r4, {r0, r1, r2}
402f06b0:	e30101fc 	movw	r0, #4604	; 0x11fc
402f06b4:	e58cee24 	str	r14, [r12, #3620]	; 0xe24
402f06b8:	e344002f 	movt	r0, #16431	; 0x402f
402f06bc:	e58c3e38 	str	r3, [r12, #3640]	; 0xe38
402f06c0:	eb0000ea 	bl	402f0a70 <uart_putf>
402f06c4:	eb0001ea 	bl	402f0e74 <config_ddr_x>
402f06c8:	e3010214 	movw	r0, #4628	; 0x1214
402f06cc:	e344002f 	movt	r0, #16431	; 0x402f
402f06d0:	eb0000e6 	bl	402f0a70 <uart_putf>
402f06d4:	e3010228 	movw	r0, #4648	; 0x1228
402f06d8:	e3a0220a 	mov	r2, #-1610612736	; 0xa0000000
402f06dc:	e344002f 	movt	r0, #16431	; 0x402f
402f06e0:	e3a01102 	mov	r1, #-2147483648	; 0x80000000
402f06e4:	eb0000e1 	bl	402f0a70 <uart_putf>
402f06e8:	e3010250 	movw	r0, #4688	; 0x1250
402f06ec:	e344002f 	movt	r0, #16431	; 0x402f
402f06f0:	eb0000de 	bl	402f0a70 <uart_putf>
402f06f4:	e3a02000 	mov	r2, #0
402f06f8:	e3a03102 	mov	r3, #-2147483648	; 0x80000000
402f06fc:	e4832004 	str	r2, [r3], #4
402f0700:	e353020a 	cmp	r3, #-1610612736	; 0xa0000000
402f0704:	e2822001 	add	r2, r2, #1
402f0708:	1afffffb 	bne	402f06fc <main+0x170>
402f070c:	e3010260 	movw	r0, #4704	; 0x1260
402f0710:	e3a04000 	mov	r4, #0
402f0714:	e344002f 	movt	r0, #16431	; 0x402f
402f0718:	eb0000d4 	bl	402f0a70 <uart_putf>
402f071c:	e3a03102 	mov	r3, #-2147483648	; 0x80000000
402f0720:	e1a05003 	mov	r5, r3
402f0724:	e4932004 	ldr	r2, [r3], #4
402f0728:	e1520004 	cmp	r2, r4
402f072c:	0a000031 	beq	402f07f8 <main+0x26c>
402f0730:	e3010274 	movw	r0, #4724	; 0x1274
402f0734:	e344002f 	movt	r0, #16431	; 0x402f
402f0738:	eb0000cc 	bl	402f0a70 <uart_putf>
402f073c:	e3010288 	movw	r0, #4744	; 0x1288
402f0740:	e344002f 	movt	r0, #16431	; 0x402f
402f0744:	e1a01005 	mov	r1, r5
402f0748:	eb0000c8 	bl	402f0a70 <uart_putf>
402f074c:	e301029c 	movw	r0, #4764	; 0x129c
402f0750:	e1a01004 	mov	r1, r4
402f0754:	e344002f 	movt	r0, #16431	; 0x402f
402f0758:	eb0000c4 	bl	402f0a70 <uart_putf>
402f075c:	e30102b0 	movw	r0, #4784	; 0x12b0
402f0760:	e5951000 	ldr	r1, [r5]
402f0764:	e344002f 	movt	r0, #16431	; 0x402f
402f0768:	eb0000c0 	bl	402f0a70 <uart_putf>
402f076c:	e30102d8 	movw	r0, #4824	; 0x12d8
402f0770:	e344002f 	movt	r0, #16431	; 0x402f
402f0774:	eb0000bd 	bl	402f0a70 <uart_putf>
402f0778:	e3016348 	movw	r6, #4936	; 0x1348
402f077c:	e3a04a0e 	mov	r4, #57344	; 0xe000
402f0780:	eb00003c 	bl	402f0878 <rtc_init>
402f0784:	e344602f 	movt	r6, #16431	; 0x402f
402f0788:	eb000057 	bl	402f08ec <rtc_irq>
402f078c:	e34444e3 	movt	r4, #17635	; 0x44e3
402f0790:	e3a03000 	mov	r3, #0
402f0794:	e3a07001 	mov	r7, #1
402f0798:	e2030003 	and	r0, r3, #3
402f079c:	e2835001 	add	r5, r3, #1
402f07a0:	e1a00017 	lsl	r0, r7, r0
402f07a4:	eb000029 	bl	402f0850 <leds_set>
402f07a8:	e5941000 	ldr	r1, [r4]
402f07ac:	e5943004 	ldr	r3, [r4, #4]
402f07b0:	e30102ec 	movw	r0, #4844	; 0x12ec
402f07b4:	e5942008 	ldr	r2, [r4, #8]
402f07b8:	e7e28251 	ubfx	r8, r1, #4, #3
402f07bc:	e596c000 	ldr	r12, [r6]
402f07c0:	e203e00f 	and	r14, r3, #15
402f07c4:	e58d5010 	str	r5, [r13, #16]
402f07c8:	e7e23253 	ubfx	r3, r3, #4, #3
402f07cc:	e58de000 	str	r14, [r13]
402f07d0:	e344002f 	movt	r0, #16431	; 0x402f
402f07d4:	e201e00f 	and	r14, r1, #15
402f07d8:	e58d8004 	str	r8, [r13, #4]
402f07dc:	e7e11252 	ubfx	r1, r2, #4, #2
402f07e0:	e58de008 	str	r14, [r13, #8]
402f07e4:	e202200f 	and	r2, r2, #15
402f07e8:	e58dc00c 	str	r12, [r13, #12]
402f07ec:	eb00009f 	bl	402f0a70 <uart_putf>
402f07f0:	e1a03005 	mov	r3, r5
402f07f4:	eaffffe7 	b	402f0798 <main+0x20c>
402f07f8:	e2844001 	add	r4, r4, #1
402f07fc:	e3540302 	cmp	r4, #134217728	; 0x8000000
402f0800:	1affffc6 	bne	402f0720 <main+0x194>
402f0804:	e3a02020 	mov	r2, #32
402f0808:	e34a2000 	movt	r2, #40960	; 0xa000
402f080c:	e1530002 	cmp	r3, r2
402f0810:	0affffd5 	beq	402f076c <main+0x1e0>
402f0814:	e30102c4 	movw	r0, #4804	; 0x12c4
402f0818:	e344002f 	movt	r0, #16431	; 0x402f
402f081c:	eb000093 	bl	402f0a70 <uart_putf>
402f0820:	eaffffd4 	b	402f0778 <main+0x1ec>

402f0824 <leds_init>:
402f0824:	e3a02000 	mov	r2, #0
402f0828:	e3a03903 	mov	r3, #49152	; 0xc000
402f082c:	e34424e0 	movt	r2, #17632	; 0x44e0
402f0830:	e3443804 	movt	r3, #18436	; 0x4804
402f0834:	e3a01002 	mov	r1, #2
402f0838:	e3401004 	movt	r1, #4
402f083c:	e58210ac 	str	r1, [r2, #172]	; 0xac
402f0840:	e5932134 	ldr	r2, [r3, #308]	; 0x134
402f0844:	e3c2261e 	bic	r2, r2, #31457280	; 0x1e00000
402f0848:	e5832134 	str	r2, [r3, #308]	; 0x134
402f084c:	e12fff1e 	bx	r14

402f0850 <leds_set>:
402f0850:	e200200f 	and	r2, r0, #15
402f0854:	e3a03903 	mov	r3, #49152	; 0xc000
402f0858:	e1e00000 	mvn	r0, r0
402f085c:	e200000f 	and	r0, r0, #15
402f0860:	e3443804 	movt	r3, #18436	; 0x4804
402f0864:	e1a02a82 	lsl	r2, r2, #21
402f0868:	e1a00a80 	lsl	r0, r0, #21
402f086c:	e5832194 	str	r2, [r3, #404]	; 0x194
402f0870:	e5830190 	str	r0, [r3, #400]	; 0x190
402f0874:	e12fff1e 	bx	r14

402f0878 <rtc_init>:
402f0878:	e3a01000 	mov	r1, #0
402f087c:	e3a02903 	mov	r2, #49152	; 0xc000
402f0880:	e3a03a0e 	mov	r3, #57344	; 0xe000
402f0884:	e3442804 	movt	r2, #18436	; 0x4804
402f0888:	e34434e3 	movt	r3, #17635	; 0x44e3
402f088c:	e34414e0 	movt	r1, #17632	; 0x44e0
402f0890:	e300cb13 	movw	r12, #2835	; 0xb13
402f0894:	e30f01e0 	movw	r0, #61920	; 0xf1e0
402f0898:	e92d4030 	push	{r4, r5, r14}
402f089c:	e348c3e7 	movt	r12, #33767	; 0x83e7
402f08a0:	e3a0e002 	mov	r14, #2
402f08a4:	e3a05602 	mov	r5, #2097152	; 0x200000
402f08a8:	e581e804 	str	r14, [r1, #2052]	; 0x804
402f08ac:	e3a04507 	mov	r4, #29360128	; 0x1c00000
402f08b0:	e5825194 	str	r5, [r2, #404]	; 0x194
402f08b4:	e34905a4 	movt	r0, #38308	; 0x95a4
402f08b8:	e5824190 	str	r4, [r2, #400]	; 0x190
402f08bc:	e3a05501 	mov	r5, #4194304	; 0x400000
402f08c0:	e581e800 	str	r14, [r1, #2048]	; 0x800
402f08c4:	e3a0461a 	mov	r4, #27262976	; 0x1a00000
402f08c8:	e5825194 	str	r5, [r2, #404]	; 0x194
402f08cc:	e3a01001 	mov	r1, #1
402f08d0:	e5824190 	str	r4, [r2, #400]	; 0x190
402f08d4:	e3a02048 	mov	r2, #72	; 0x48
402f08d8:	e583c06c 	str	r12, [r3, #108]	; 0x6c
402f08dc:	e5830070 	str	r0, [r3, #112]	; 0x70
402f08e0:	e5831040 	str	r1, [r3, #64]	; 0x40
402f08e4:	e5832054 	str	r2, [r3, #84]	; 0x54
402f08e8:	e8bd8030 	pop	{r4, r5, r15}

402f08ec <rtc_irq>:
402f08ec:	e3a01a0e 	mov	r1, #57344	; 0xe000
402f08f0:	e34414e3 	movt	r1, #17635	; 0x44e3
402f08f4:	e5912044 	ldr	r2, [r1, #68]	; 0x44
402f08f8:	e3a03a0e 	mov	r3, #57344	; 0xe000
402f08fc:	e34434e3 	movt	r3, #17635	; 0x44e3
402f0900:	e3120001 	tst	r2, #1
402f0904:	1afffffa 	bne	402f08f4 <rtc_irq+0x8>
402f0908:	e3a02000 	mov	r2, #0
402f090c:	e3a01004 	mov	r1, #4
402f0910:	e3442820 	movt	r2, #18464	; 0x4820
402f0914:	e5831048 	str	r1, [r3, #72]	; 0x48
402f0918:	e3a03b02 	mov	r3, #2048	; 0x800
402f091c:	e58230c8 	str	r3, [r2, #200]	; 0xc8
402f0920:	e12fff1e 	bx	r14

402f0924 <uart_init>:
402f0924:	e3a02000 	mov	r2, #0
402f0928:	e3a00030 	mov	r0, #48	; 0x30
402f092c:	e1a03002 	mov	r3, r2
402f0930:	e34424e1 	movt	r2, #17633	; 0x44e1
402f0934:	e34434e0 	movt	r3, #17632	; 0x44e0
402f0938:	e3a01000 	mov	r1, #0
402f093c:	e52de004 	push	{r14}		; (str r14, [r13, #-4]!)
402f0940:	e5820970 	str	r0, [r2, #2416]	; 0x970
402f0944:	e3a00903 	mov	r0, #49152	; 0xc000
402f0948:	e5821974 	str	r1, [r2, #2420]	; 0x974
402f094c:	e3a02a09 	mov	r2, #36864	; 0x9000
402f0950:	e593e400 	ldr	r14, [r3, #1024]	; 0x400
402f0954:	e34424e0 	movt	r2, #17632	; 0x44e0
402f0958:	e593111c 	ldr	r1, [r3, #284]	; 0x11c
402f095c:	e3440804 	movt	r0, #18436	; 0x4804
402f0960:	e593c4b4 	ldr	r12, [r3, #1204]	; 0x4b4
402f0964:	e3cee003 	bic	r14, r14, #3
402f0968:	e3c11003 	bic	r1, r1, #3
402f096c:	e38ee002 	orr	r14, r14, #2
402f0970:	e3ccc003 	bic	r12, r12, #3
402f0974:	e583e400 	str	r14, [r3, #1024]	; 0x400
402f0978:	e3811002 	orr	r1, r1, #2
402f097c:	e38cc002 	orr	r12, r12, #2
402f0980:	e583111c 	str	r1, [r3, #284]	; 0x11c
402f0984:	e3a0160e 	mov	r1, #14680064	; 0xe00000
402f0988:	e583c4b4 	str	r12, [r3, #1204]	; 0x4b4
402f098c:	e3a03401 	mov	r3, #16777216	; 0x1000000
402f0990:	e5801194 	str	r1, [r0, #404]	; 0x194
402f0994:	e1a01002 	mov	r1, r2
402f0998:	e5803190 	str	r3, [r0, #400]	; 0x190
402f099c:	e5923054 	ldr	r3, [r2, #84]	; 0x54
402f09a0:	e3833002 	orr	r3, r3, #2
402f09a4:	e5823054 	str	r3, [r2, #84]	; 0x54
402f09a8:	e5912058 	ldr	r2, [r1, #88]	; 0x58
402f09ac:	e3a03a09 	mov	r3, #36864	; 0x9000
402f09b0:	e34434e0 	movt	r3, #17632	; 0x44e0
402f09b4:	e3120001 	tst	r2, #1
402f09b8:	0afffffa 	beq	402f09a8 <uart_init+0x84>
402f09bc:	e5932054 	ldr	r2, [r3, #84]	; 0x54
402f09c0:	e1a01003 	mov	r1, r3
402f09c4:	e3822008 	orr	r2, r2, #8
402f09c8:	e5832054 	str	r2, [r3, #84]	; 0x54
402f09cc:	e5d12014 	ldrb	r2, [r1, #20]
402f09d0:	e3a03a09 	mov	r3, #36864	; 0x9000
402f09d4:	e34434e0 	movt	r3, #17632	; 0x44e0
402f09d8:	e3120040 	tst	r2, #64	; 0x40
402f09dc:	0afffffa 	beq	402f09cc <uart_init+0xa8>
402f09e0:	e3a02000 	mov	r2, #0
402f09e4:	e3a01003 	mov	r1, #3
402f09e8:	e5c32004 	strb	r2, [r3, #4]
402f09ec:	e3a0c007 	mov	r12, #7
402f09f0:	e3e0007c 	mvn	r0, #124	; 0x7c
402f09f4:	e5c3c020 	strb	r12, [r3, #32]
402f09f8:	e3a0e01a 	mov	r14, #26
402f09fc:	e5c3000c 	strb	r0, [r3, #12]
402f0a00:	e5c32000 	strb	r2, [r3]
402f0a04:	e5c32004 	strb	r2, [r3, #4]
402f0a08:	e5c3100c 	strb	r1, [r3, #12]
402f0a0c:	e5c31010 	strb	r1, [r3, #16]
402f0a10:	e5c3c008 	strb	r12, [r3, #8]
402f0a14:	e5c3000c 	strb	r0, [r3, #12]
402f0a18:	e5c3e000 	strb	r14, [r3]
402f0a1c:	e5c32004 	strb	r2, [r3, #4]
402f0a20:	e5c3100c 	strb	r1, [r3, #12]
402f0a24:	e5c32020 	strb	r2, [r3, #32]
402f0a28:	e49df004 	pop	{r15}		; (ldr r15, [r13], #4)

402f0a2c <uart_putc>:
402f0a2c:	e350000a 	cmp	r0, #10
402f0a30:	e92d4010 	push	{r4, r14}
402f0a34:	e1a04000 	mov	r4, r0
402f0a38:	0a000009 	beq	402f0a64 <uart_putc+0x38>
402f0a3c:	e3a01a09 	mov	r1, #36864	; 0x9000
402f0a40:	e34414e0 	movt	r1, #17632	; 0x44e0
402f0a44:	e5d12014 	ldrb	r2, [r1, #20]
402f0a48:	e3a03a09 	mov	r3, #36864	; 0x9000
402f0a4c:	e34434e0 	movt	r3, #17632	; 0x44e0
402f0a50:	e3120020 	tst	r2, #32
402f0a54:	0afffffa 	beq	402f0a44 <uart_putc+0x18>
402f0a58:	e6ef4074 	uxtb	r4, r4
402f0a5c:	e5c34000 	strb	r4, [r3]
402f0a60:	e8bd8010 	pop	{r4, r15}
402f0a64:	e3a0000d 	mov	r0, #13
402f0a68:	ebffffef 	bl	402f0a2c <uart_putc>
402f0a6c:	eafffff2 	b	402f0a3c <uart_putc+0x10>

402f0a70 <uart_putf>:
402f0a70:	e92d000f 	push	{r0, r1, r2, r3}
402f0a74:	e92d4ff0 	push	{r4, r5, r6, r7, r8, r9, r10, r11, r14}
402f0a78:	e28db020 	add	r11, r13, #32
402f0a7c:	e24dd014 	sub	r13, r13, #20
402f0a80:	e59b6004 	ldr	r6, [r11, #4]
402f0a84:	e3064667 	movw	r4, #26215	; 0x6667
402f0a88:	e28b8008 	add	r8, r11, #8
402f0a8c:	e24b5026 	sub	r5, r11, #38	; 0x26
402f0a90:	e24b7025 	sub	r7, r11, #37	; 0x25
402f0a94:	e3464666 	movt	r4, #26214	; 0x6666
402f0a98:	e5d60000 	ldrb	r0, [r6]
402f0a9c:	e3500000 	cmp	r0, #0
402f0aa0:	0a00002c 	beq	402f0b58 <uart_putf+0xe8>
402f0aa4:	e3500025 	cmp	r0, #37	; 0x25
402f0aa8:	1a000056 	bne	402f0c08 <uart_putf+0x198>
402f0aac:	e5d63001 	ldrb	r3, [r6, #1]
402f0ab0:	e2866002 	add	r6, r6, #2
402f0ab4:	e2433063 	sub	r3, r3, #99	; 0x63
402f0ab8:	e3530015 	cmp	r3, #21
402f0abc:	979ff103 	ldrls	r15, [r15, r3, lsl #2]
402f0ac0:	ea00004d 	b	402f0bfc <uart_putf+0x18c>
402f0ac4:	402f0be8 	eormi	r0, r15, r8, ror #23
402f0ac8:	402f0b90 	mlami	r15, r0, r11, r0	; <UNPREDICTABLE>
402f0acc:	402f0bfc 	strdmi	r0, [r15], -r12	; <UNPREDICTABLE>
402f0ad0:	402f0bfc 	strdmi	r0, [r15], -r12	; <UNPREDICTABLE>
402f0ad4:	402f0bfc 	strdmi	r0, [r15], -r12	; <UNPREDICTABLE>
402f0ad8:	402f0bfc 	strdmi	r0, [r15], -r12	; <UNPREDICTABLE>
402f0adc:	402f0b90 	mlami	r15, r0, r11, r0	; <UNPREDICTABLE>
402f0ae0:	402f0bfc 	strdmi	r0, [r15], -r12	; <UNPREDICTABLE>
402f0ae4:	402f0bfc 	strdmi	r0, [r15], -r12	; <UNPREDICTABLE>
402f0ae8:	402f0bfc 	strdmi	r0, [r15], -r12	; <UNPREDICTABLE>
402f0aec:	402f0bfc 	strdmi	r0, [r15], -r12	; <UNPREDICTABLE>
402f0af0:	402f0bfc 	strdmi	r0, [r15], -r12	; <UNPREDICTABLE>
402f0af4:	402f0bfc 	strdmi	r0, [r15], -r12	; <UNPREDICTABLE>
402f0af8:	402f0bfc 	strdmi	r0, [r15], -r12	; <UNPREDICTABLE>
402f0afc:	402f0bfc 	strdmi	r0, [r15], -r12	; <UNPREDICTABLE>
402f0b00:	402f0bfc 	strdmi	r0, [r15], -r12	; <UNPREDICTABLE>
402f0b04:	402f0b68 	eormi	r0, r15, r8, ror #22
402f0b08:	402f0bfc 	strdmi	r0, [r15], -r12	; <UNPREDICTABLE>
402f0b0c:	402f0bfc 	strdmi	r0, [r15], -r12	; <UNPREDICTABLE>
402f0b10:	402f0bfc 	strdmi	r0, [r15], -r12	; <UNPREDICTABLE>
402f0b14:	402f0bfc 	strdmi	r0, [r15], -r12	; <UNPREDICTABLE>
402f0b18:	402f0b1c 	eormi	r0, r15, r12, lsl r11	; <UNPREDICTABLE>
402f0b1c:	e598a000 	ldr	r10, [r8]
402f0b20:	e2888004 	add	r8, r8, #4
402f0b24:	e3a0901c 	mov	r9, #28
402f0b28:	e1a0395a 	asr	r3, r10, r9
402f0b2c:	e2499004 	sub	r9, r9, #4
402f0b30:	e203300f 	and	r3, r3, #15
402f0b34:	e3530009 	cmp	r3, #9
402f0b38:	e2830030 	add	r0, r3, #48	; 0x30
402f0b3c:	c2830037 	addgt	r0, r3, #55	; 0x37
402f0b40:	ebffffb9 	bl	402f0a2c <uart_putc>
402f0b44:	e3790004 	cmn	r9, #4
402f0b48:	1afffff6 	bne	402f0b28 <uart_putf+0xb8>
402f0b4c:	e5d60000 	ldrb	r0, [r6]
402f0b50:	e3500000 	cmp	r0, #0
402f0b54:	1affffd2 	bne	402f0aa4 <uart_putf+0x34>
402f0b58:	e24bd020 	sub	r13, r11, #32
402f0b5c:	e8bd4ff0 	pop	{r4, r5, r6, r7, r8, r9, r10, r11, r14}
402f0b60:	e28dd010 	add	r13, r13, #16
402f0b64:	e12fff1e 	bx	r14
402f0b68:	e5989000 	ldr	r9, [r8]
402f0b6c:	e2888004 	add	r8, r8, #4
402f0b70:	e5d90000 	ldrb	r0, [r9]
402f0b74:	e3500000 	cmp	r0, #0
402f0b78:	0affffc6 	beq	402f0a98 <uart_putf+0x28>
402f0b7c:	ebffffaa 	bl	402f0a2c <uart_putc>
402f0b80:	e5f90001 	ldrb	r0, [r9, #1]!
402f0b84:	e3500000 	cmp	r0, #0
402f0b88:	1afffffb 	bne	402f0b7c <uart_putf+0x10c>
402f0b8c:	eaffffc1 	b	402f0a98 <uart_putf+0x28>
402f0b90:	e5982000 	ldr	r2, [r8]
402f0b94:	e2888004 	add	r8, r8, #4
402f0b98:	e1a01005 	mov	r1, r5
402f0b9c:	e0c03294 	smull	r3, r0, r4, r2
402f0ba0:	e1a03fc2 	asr	r3, r2, #31
402f0ba4:	e1a09001 	mov	r9, r1
402f0ba8:	e0633140 	rsb	r3, r3, r0, asr #2
402f0bac:	e0830103 	add	r0, r3, r3, lsl #2
402f0bb0:	e0420080 	sub	r0, r2, r0, lsl #1
402f0bb4:	e2532000 	subs	r2, r3, #0
402f0bb8:	e2800030 	add	r0, r0, #48	; 0x30
402f0bbc:	e6ef0070 	uxtb	r0, r0
402f0bc0:	e4410001 	strb	r0, [r1], #-1
402f0bc4:	1afffff4 	bne	402f0b9c <uart_putf+0x12c>
402f0bc8:	e1590007 	cmp	r9, r7
402f0bcc:	3a000001 	bcc	402f0bd8 <uart_putf+0x168>
402f0bd0:	eaffffb0 	b	402f0a98 <uart_putf+0x28>
402f0bd4:	e5f90001 	ldrb	r0, [r9, #1]!
402f0bd8:	ebffff93 	bl	402f0a2c <uart_putc>
402f0bdc:	e1590005 	cmp	r9, r5
402f0be0:	1afffffb 	bne	402f0bd4 <uart_putf+0x164>
402f0be4:	eaffffab 	b	402f0a98 <uart_putf+0x28>
402f0be8:	e2889004 	add	r9, r8, #4
402f0bec:	e5980000 	ldr	r0, [r8]
402f0bf0:	ebffff8d 	bl	402f0a2c <uart_putc>
402f0bf4:	e1a08009 	mov	r8, r9
402f0bf8:	eaffffa6 	b	402f0a98 <uart_putf+0x28>
402f0bfc:	e3a0003f 	mov	r0, #63	; 0x3f
402f0c00:	ebffff89 	bl	402f0a2c <uart_putc>
402f0c04:	eaffffa3 	b	402f0a98 <uart_putf+0x28>
402f0c08:	e2866001 	add	r6, r6, #1
402f0c0c:	ebffff86 	bl	402f0a2c <uart_putc>
402f0c10:	eaffffa0 	b	402f0a98 <uart_putf+0x28>

402f0c14 <enable_emif_clocks_x>:
402f0c14:	e3a03000 	mov	r3, #0
402f0c18:	e3a02002 	mov	r2, #2
402f0c1c:	e34434e0 	movt	r3, #17632	; 0x44e0
402f0c20:	e58320d0 	str	r2, [r3, #208]	; 0xd0
402f0c24:	e5832028 	str	r2, [r3, #40]	; 0x28
402f0c28:	e12fff1e 	bx	r14

402f0c2c <ddr_pll_config_x>:
402f0c2c:	e92d40f8 	push	{r3, r4, r5, r6, r7, r14}
402f0c30:	e301032c 	movw	r0, #4908	; 0x132c
402f0c34:	e3a04000 	mov	r4, #0
402f0c38:	e344002f 	movt	r0, #16431	; 0x402f
402f0c3c:	e34444e0 	movt	r4, #17632	; 0x44e0
402f0c40:	e3a01064 	mov	r1, #100	; 0x64
402f0c44:	ebffff89 	bl	402f0a70 <uart_putf>
402f0c48:	e5945494 	ldr	r5, [r4, #1172]	; 0x494
402f0c4c:	e301032c 	movw	r0, #4908	; 0x132c
402f0c50:	e3a01065 	mov	r1, #101	; 0x65
402f0c54:	e3c55007 	bic	r5, r5, #7
402f0c58:	e344002f 	movt	r0, #16431	; 0x402f
402f0c5c:	e3853004 	orr	r3, r5, #4
402f0c60:	e5843494 	str	r3, [r4, #1172]	; 0x494
402f0c64:	e5947440 	ldr	r7, [r4, #1088]	; 0x440
402f0c68:	e59464a0 	ldr	r6, [r4, #1184]	; 0x4a0
402f0c6c:	ebffff7f 	bl	402f0a70 <uart_putf>
402f0c70:	e5943434 	ldr	r3, [r4, #1076]	; 0x434
402f0c74:	e3130c01 	tst	r3, #256	; 0x100
402f0c78:	0a000021 	beq	402f0d04 <ddr_pll_config_x+0xd8>
402f0c7c:	e301032c 	movw	r0, #4908	; 0x132c
402f0c80:	e3a01066 	mov	r1, #102	; 0x66
402f0c84:	e344002f 	movt	r0, #16431	; 0x402f
402f0c88:	e3c6601f 	bic	r6, r6, #31
402f0c8c:	ebffff77 	bl	402f0a70 <uart_putf>
402f0c90:	e1a039a7 	lsr	r3, r7, #19
402f0c94:	e301032c 	movw	r0, #4908	; 0x132c
402f0c98:	e3a01067 	mov	r1, #103	; 0x67
402f0c9c:	e1a03983 	lsl	r3, r3, #19
402f0ca0:	e344002f 	movt	r0, #16431	; 0x402f
402f0ca4:	e3833a19 	orr	r3, r3, #102400	; 0x19000
402f0ca8:	e3866001 	orr	r6, r6, #1
402f0cac:	e3833017 	orr	r3, r3, #23
402f0cb0:	e5843440 	str	r3, [r4, #1088]	; 0x440
402f0cb4:	ebffff6d 	bl	402f0a70 <uart_putf>
402f0cb8:	e301032c 	movw	r0, #4908	; 0x132c
402f0cbc:	e344002f 	movt	r0, #16431	; 0x402f
402f0cc0:	e3a01068 	mov	r1, #104	; 0x68
402f0cc4:	e58464a0 	str	r6, [r4, #1184]	; 0x4a0
402f0cc8:	e3855007 	orr	r5, r5, #7
402f0ccc:	ebffff67 	bl	402f0a70 <uart_putf>
402f0cd0:	e301032c 	movw	r0, #4908	; 0x132c
402f0cd4:	e344002f 	movt	r0, #16431	; 0x402f
402f0cd8:	e5845494 	str	r5, [r4, #1172]	; 0x494
402f0cdc:	e3a01069 	mov	r1, #105	; 0x69
402f0ce0:	ebffff62 	bl	402f0a70 <uart_putf>
402f0ce4:	e5943434 	ldr	r3, [r4, #1076]	; 0x434
402f0ce8:	e3130001 	tst	r3, #1
402f0cec:	0a000005 	beq	402f0d08 <ddr_pll_config_x+0xdc>
402f0cf0:	e301032c 	movw	r0, #4908	; 0x132c
402f0cf4:	e3a0106a 	mov	r1, #106	; 0x6a
402f0cf8:	e344002f 	movt	r0, #16431	; 0x402f
402f0cfc:	e8bd40f8 	pop	{r3, r4, r5, r6, r7, r14}
402f0d00:	eaffff5a 	b	402f0a70 <uart_putf>
402f0d04:	eafffffe 	b	402f0d04 <ddr_pll_config_x+0xd8>
402f0d08:	eafffffe 	b	402f0d08 <ddr_pll_config_x+0xdc>

402f0d0c <config_cmd_ctrl_x>:
402f0d0c:	e3a03a02 	mov	r3, #8192	; 0x2000
402f0d10:	e3a00080 	mov	r0, #128	; 0x80
402f0d14:	e34434e1 	movt	r3, #17633	; 0x44e1
402f0d18:	e3a01001 	mov	r1, #1
402f0d1c:	e3a02000 	mov	r2, #0
402f0d20:	e583001c 	str	r0, [r3, #28]
402f0d24:	e5830050 	str	r0, [r3, #80]	; 0x50
402f0d28:	e5830084 	str	r0, [r3, #132]	; 0x84
402f0d2c:	e5831028 	str	r1, [r3, #40]	; 0x28
402f0d30:	e583105c 	str	r1, [r3, #92]	; 0x5c
402f0d34:	e5831090 	str	r1, [r3, #144]	; 0x90
402f0d38:	e583202c 	str	r2, [r3, #44]	; 0x2c
402f0d3c:	e5832060 	str	r2, [r3, #96]	; 0x60
402f0d40:	e5832094 	str	r2, [r3, #148]	; 0x94
402f0d44:	e12fff1e 	bx	r14

402f0d48 <config_ddr_data_x_0>:
402f0d48:	e3a03a02 	mov	r3, #8192	; 0x2000
402f0d4c:	e3a02038 	mov	r2, #56	; 0x38
402f0d50:	e34434e1 	movt	r3, #17633	; 0x44e1
402f0d54:	e3a01044 	mov	r1, #68	; 0x44
402f0d58:	e58320c8 	str	r2, [r3, #200]	; 0xc8
402f0d5c:	e3a02094 	mov	r2, #148	; 0x94
402f0d60:	e58310dc 	str	r1, [r3, #220]	; 0xdc
402f0d64:	e3a0107d 	mov	r1, #125	; 0x7d
402f0d68:	e5832108 	str	r2, [r3, #264]	; 0x108
402f0d6c:	e3a02000 	mov	r2, #0
402f0d70:	e5831120 	str	r1, [r3, #288]	; 0x120
402f0d74:	e58320f0 	str	r2, [r3, #240]	; 0xf0
402f0d78:	e58320fc 	str	r2, [r3, #252]	; 0xfc
402f0d7c:	e5832134 	str	r2, [r3, #308]	; 0x134
402f0d80:	e5832138 	str	r2, [r3, #312]	; 0x138
402f0d84:	e12fff1e 	bx	r14

402f0d88 <config_ddr_data_x_1>:
402f0d88:	e3a03a02 	mov	r3, #8192	; 0x2000
402f0d8c:	e3a02038 	mov	r2, #56	; 0x38
402f0d90:	e34434e1 	movt	r3, #17633	; 0x44e1
402f0d94:	e3a01044 	mov	r1, #68	; 0x44
402f0d98:	e583216c 	str	r2, [r3, #364]	; 0x16c
402f0d9c:	e3a02094 	mov	r2, #148	; 0x94
402f0da0:	e5831180 	str	r1, [r3, #384]	; 0x180
402f0da4:	e3a0107d 	mov	r1, #125	; 0x7d
402f0da8:	e58321ac 	str	r2, [r3, #428]	; 0x1ac
402f0dac:	e3a02000 	mov	r2, #0
402f0db0:	e58311c4 	str	r1, [r3, #452]	; 0x1c4
402f0db4:	e5832194 	str	r2, [r3, #404]	; 0x194
402f0db8:	e58321a0 	str	r2, [r3, #416]	; 0x1a0
402f0dbc:	e58321d8 	str	r2, [r3, #472]	; 0x1d8
402f0dc0:	e58321dc 	str	r2, [r3, #476]	; 0x1dc
402f0dc4:	e12fff1e 	bx	r14

402f0dc8 <config_io_ctrl_x>:
402f0dc8:	e3a03a01 	mov	r3, #4096	; 0x1000
402f0dcc:	e300218b 	movw	r2, #395	; 0x18b
402f0dd0:	e34434e1 	movt	r3, #17633	; 0x44e1
402f0dd4:	e5832408 	str	r2, [r3, #1032]	; 0x408
402f0dd8:	e583240c 	str	r2, [r3, #1036]	; 0x40c
402f0ddc:	e5832410 	str	r2, [r3, #1040]	; 0x410
402f0de0:	e5832444 	str	r2, [r3, #1092]	; 0x444
402f0de4:	e5832448 	str	r2, [r3, #1096]	; 0x448
402f0de8:	e12fff1e 	bx	r14

402f0dec <config_ddr_phy_x>:
402f0dec:	e3a02313 	mov	r2, #1275068416	; 0x4c000000
402f0df0:	e3a03007 	mov	r3, #7
402f0df4:	e3403010 	movt	r3, #16
402f0df8:	e58230e4 	str	r3, [r2, #228]	; 0xe4
402f0dfc:	e58230e8 	str	r3, [r2, #232]	; 0xe8
402f0e00:	e12fff1e 	bx	r14

402f0e04 <set_sdram_timings_x>:
402f0e04:	e3a03313 	mov	r3, #1275068416	; 0x4c000000
402f0e08:	e30d04db 	movw	r0, #54491	; 0xd4db
402f0e0c:	e3071fda 	movw	r1, #32730	; 0x7fda
402f0e10:	e308267f 	movw	r2, #34431	; 0x867f
402f0e14:	e3400aaa 	movt	r0, #2730	; 0xaaa
402f0e18:	e342166b 	movt	r1, #9835	; 0x266b
402f0e1c:	e345201f 	movt	r2, #20511	; 0x501f
402f0e20:	e5830018 	str	r0, [r3, #24]
402f0e24:	e583001c 	str	r0, [r3, #28]
402f0e28:	e5831020 	str	r1, [r3, #32]
402f0e2c:	e5831024 	str	r1, [r3, #36]	; 0x24
402f0e30:	e5832028 	str	r2, [r3, #40]	; 0x28
402f0e34:	e583202c 	str	r2, [r3, #44]	; 0x2c
402f0e38:	e12fff1e 	bx	r14

402f0e3c <config_sdram_x>:
402f0e3c:	e3a00000 	mov	r0, #0
402f0e40:	e3a03313 	mov	r3, #1275068416	; 0x4c000000
402f0e44:	e3041be4 	movw	r1, #19428	; 0x4be4
402f0e48:	e34404e1 	movt	r0, #17633	; 0x44e1
402f0e4c:	e3052332 	movw	r2, #21298	; 0x5332
402f0e50:	e3451007 	movt	r1, #20487	; 0x5007
402f0e54:	e34621c0 	movt	r2, #25024	; 0x61c0
402f0e58:	e58310c8 	str	r1, [r3, #200]	; 0xc8
402f0e5c:	e5802110 	str	r2, [r0, #272]	; 0x110
402f0e60:	e3a01ec3 	mov	r1, #3120	; 0xc30
402f0e64:	e5832008 	str	r2, [r3, #8]
402f0e68:	e5831010 	str	r1, [r3, #16]
402f0e6c:	e5831014 	str	r1, [r3, #20]
402f0e70:	e12fff1e 	bx	r14

402f0e74 <config_ddr_x>:
402f0e74:	e301032c 	movw	r0, #4908	; 0x132c
402f0e78:	e3a01001 	mov	r1, #1
402f0e7c:	e92d4ff0 	push	{r4, r5, r6, r7, r8, r9, r10, r11, r14}
402f0e80:	e344002f 	movt	r0, #16431	; 0x402f
402f0e84:	e24dd00c 	sub	r13, r13, #12
402f0e88:	e3a07000 	mov	r7, #0
402f0e8c:	ebfffef7 	bl	402f0a70 <uart_putf>
402f0e90:	e1a03007 	mov	r3, r7
402f0e94:	e34434e0 	movt	r3, #17632	; 0x44e0
402f0e98:	e301032c 	movw	r0, #4908	; 0x132c
402f0e9c:	e3a01002 	mov	r1, #2
402f0ea0:	e344002f 	movt	r0, #16431	; 0x402f
402f0ea4:	e58310d0 	str	r1, [r3, #208]	; 0xd0
402f0ea8:	e34474e1 	movt	r7, #17633	; 0x44e1
402f0eac:	e5831028 	str	r1, [r3, #40]	; 0x28
402f0eb0:	ebfffeee 	bl	402f0a70 <uart_putf>
402f0eb4:	ebffff5c 	bl	402f0c2c <ddr_pll_config_x>
402f0eb8:	e301032c 	movw	r0, #4908	; 0x132c
402f0ebc:	e344002f 	movt	r0, #16431	; 0x402f
402f0ec0:	e3a01003 	mov	r1, #3
402f0ec4:	ebfffee9 	bl	402f0a70 <uart_putf>
402f0ec8:	e301032c 	movw	r0, #4908	; 0x132c
402f0ecc:	e344002f 	movt	r0, #16431	; 0x402f
402f0ed0:	e3a010c8 	mov	r1, #200	; 0xc8
402f0ed4:	ebfffee5 	bl	402f0a70 <uart_putf>
402f0ed8:	e5973e0c 	ldr	r3, [r7, #3596]	; 0xe0c
402f0edc:	e301032c 	movw	r0, #4908	; 0x132c
402f0ee0:	e3a010c9 	mov	r1, #201	; 0xc9
402f0ee4:	e3833040 	orr	r3, r3, #64	; 0x40
402f0ee8:	e344002f 	movt	r0, #16431	; 0x402f
402f0eec:	e5873e0c 	str	r3, [r7, #3596]	; 0xe0c
402f0ef0:	ebfffede 	bl	402f0a70 <uart_putf>
402f0ef4:	e5973e0c 	ldr	r3, [r7, #3596]	; 0xe0c
402f0ef8:	e301032c 	movw	r0, #4908	; 0x132c
402f0efc:	e3a010ca 	mov	r1, #202	; 0xca
402f0f00:	e3c33001 	bic	r3, r3, #1
402f0f04:	e344002f 	movt	r0, #16431	; 0x402f
402f0f08:	e5873e0c 	str	r3, [r7, #3596]	; 0xe0c
402f0f0c:	ebfffed7 	bl	402f0a70 <uart_putf>
402f0f10:	e5973e0c 	ldr	r3, [r7, #3596]	; 0xe0c
402f0f14:	e301032c 	movw	r0, #4908	; 0x132c
402f0f18:	e3a010cb 	mov	r1, #203	; 0xcb
402f0f1c:	e3833001 	orr	r3, r3, #1
402f0f20:	e344002f 	movt	r0, #16431	; 0x402f
402f0f24:	e5873e0c 	str	r3, [r7, #3596]	; 0xe0c
402f0f28:	ebfffed0 	bl	402f0a70 <uart_putf>
402f0f2c:	e5973e0c 	ldr	r3, [r7, #3596]	; 0xe0c
402f0f30:	e3130020 	tst	r3, #32
402f0f34:	0a000072 	beq	402f1104 <config_ddr_x+0x290>
402f0f38:	e301032c 	movw	r0, #4908	; 0x132c
402f0f3c:	e3a010cc 	mov	r1, #204	; 0xcc
402f0f40:	e344002f 	movt	r0, #16431	; 0x402f
402f0f44:	e3a04a02 	mov	r4, #8192	; 0x2000
402f0f48:	ebfffec8 	bl	402f0a70 <uart_putf>
402f0f4c:	e301032c 	movw	r0, #4908	; 0x132c
402f0f50:	e344002f 	movt	r0, #16431	; 0x402f
402f0f54:	e3a01004 	mov	r1, #4
402f0f58:	e34444e1 	movt	r4, #17633	; 0x44e1
402f0f5c:	ebfffec3 	bl	402f0a70 <uart_putf>
402f0f60:	e301032c 	movw	r0, #4908	; 0x132c
402f0f64:	e3a06000 	mov	r6, #0
402f0f68:	e3a0c001 	mov	r12, #1
402f0f6c:	e3a03080 	mov	r3, #128	; 0x80
402f0f70:	e584c028 	str	r12, [r4, #40]	; 0x28
402f0f74:	e344002f 	movt	r0, #16431	; 0x402f
402f0f78:	e584c05c 	str	r12, [r4, #92]	; 0x5c
402f0f7c:	e3a01005 	mov	r1, #5
402f0f80:	e584c090 	str	r12, [r4, #144]	; 0x90
402f0f84:	e3a0b038 	mov	r11, #56	; 0x38
402f0f88:	e584301c 	str	r3, [r4, #28]
402f0f8c:	e3a0a044 	mov	r10, #68	; 0x44
402f0f90:	e5843050 	str	r3, [r4, #80]	; 0x50
402f0f94:	e3a09094 	mov	r9, #148	; 0x94
402f0f98:	e5843084 	str	r3, [r4, #132]	; 0x84
402f0f9c:	e3a08a01 	mov	r8, #4096	; 0x1000
402f0fa0:	e584602c 	str	r6, [r4, #44]	; 0x2c
402f0fa4:	e34484e1 	movt	r8, #17633	; 0x44e1
402f0fa8:	e5846060 	str	r6, [r4, #96]	; 0x60
402f0fac:	e3a05313 	mov	r5, #1275068416	; 0x4c000000
402f0fb0:	e5846094 	str	r6, [r4, #148]	; 0x94
402f0fb4:	e58dc004 	str	r12, [r13, #4]
402f0fb8:	ebfffeac 	bl	402f0a70 <uart_putf>
402f0fbc:	e301032c 	movw	r0, #4908	; 0x132c
402f0fc0:	e3a0307d 	mov	r3, #125	; 0x7d
402f0fc4:	e58460f0 	str	r6, [r4, #240]	; 0xf0
402f0fc8:	e344002f 	movt	r0, #16431	; 0x402f
402f0fcc:	e5843120 	str	r3, [r4, #288]	; 0x120
402f0fd0:	e3a01006 	mov	r1, #6
402f0fd4:	e58460fc 	str	r6, [r4, #252]	; 0xfc
402f0fd8:	e5846134 	str	r6, [r4, #308]	; 0x134
402f0fdc:	e5846138 	str	r6, [r4, #312]	; 0x138
402f0fe0:	e584b0c8 	str	r11, [r4, #200]	; 0xc8
402f0fe4:	e584a0dc 	str	r10, [r4, #220]	; 0xdc
402f0fe8:	e5849108 	str	r9, [r4, #264]	; 0x108
402f0fec:	ebfffe9f 	bl	402f0a70 <uart_putf>
402f0ff0:	e301032c 	movw	r0, #4908	; 0x132c
402f0ff4:	e3a0307d 	mov	r3, #125	; 0x7d
402f0ff8:	e584b16c 	str	r11, [r4, #364]	; 0x16c
402f0ffc:	e58431c4 	str	r3, [r4, #452]	; 0x1c4
402f1000:	e344002f 	movt	r0, #16431	; 0x402f
402f1004:	e584a180 	str	r10, [r4, #384]	; 0x180
402f1008:	e3a01007 	mov	r1, #7
402f100c:	e5846194 	str	r6, [r4, #404]	; 0x194
402f1010:	e58461a0 	str	r6, [r4, #416]	; 0x1a0
402f1014:	e58491ac 	str	r9, [r4, #428]	; 0x1ac
402f1018:	e58461d8 	str	r6, [r4, #472]	; 0x1d8
402f101c:	e58461dc 	str	r6, [r4, #476]	; 0x1dc
402f1020:	ebfffe92 	bl	402f0a70 <uart_putf>
402f1024:	e301032c 	movw	r0, #4908	; 0x132c
402f1028:	e300218b 	movw	r2, #395	; 0x18b
402f102c:	e344002f 	movt	r0, #16431	; 0x402f
402f1030:	e5882408 	str	r2, [r8, #1032]	; 0x408
402f1034:	e3a01008 	mov	r1, #8
402f1038:	e588240c 	str	r2, [r8, #1036]	; 0x40c
402f103c:	e5882410 	str	r2, [r8, #1040]	; 0x410
402f1040:	e5882444 	str	r2, [r8, #1092]	; 0x444
402f1044:	e5882448 	str	r2, [r8, #1096]	; 0x448
402f1048:	ebfffe88 	bl	402f0a70 <uart_putf>
402f104c:	e59dc004 	ldr	r12, [r13, #4]
402f1050:	e301032c 	movw	r0, #4908	; 0x132c
402f1054:	e3a01009 	mov	r1, #9
402f1058:	e344002f 	movt	r0, #16431	; 0x402f
402f105c:	e588c31c 	str	r12, [r8, #796]	; 0x31c
402f1060:	ebfffe82 	bl	402f0a70 <uart_putf>
402f1064:	e3a03007 	mov	r3, #7
402f1068:	e301032c 	movw	r0, #4908	; 0x132c
402f106c:	e3403010 	movt	r3, #16
402f1070:	e344002f 	movt	r0, #16431	; 0x402f
402f1074:	e58530e4 	str	r3, [r5, #228]	; 0xe4
402f1078:	e58530e8 	str	r3, [r5, #232]	; 0xe8
402f107c:	e3a0100a 	mov	r1, #10
402f1080:	ebfffe7a 	bl	402f0a70 <uart_putf>
402f1084:	e30d14db 	movw	r1, #54491	; 0xd4db
402f1088:	e3072fda 	movw	r2, #32730	; 0x7fda
402f108c:	e308367f 	movw	r3, #34431	; 0x867f
402f1090:	e301032c 	movw	r0, #4908	; 0x132c
402f1094:	e342266b 	movt	r2, #9835	; 0x266b
402f1098:	e345301f 	movt	r3, #20511	; 0x501f
402f109c:	e3401aaa 	movt	r1, #2730	; 0xaaa
402f10a0:	e5852020 	str	r2, [r5, #32]
402f10a4:	e344002f 	movt	r0, #16431	; 0x402f
402f10a8:	e5851018 	str	r1, [r5, #24]
402f10ac:	e585101c 	str	r1, [r5, #28]
402f10b0:	e3a0100b 	mov	r1, #11
402f10b4:	e5852024 	str	r2, [r5, #36]	; 0x24
402f10b8:	e5853028 	str	r3, [r5, #40]	; 0x28
402f10bc:	e585302c 	str	r3, [r5, #44]	; 0x2c
402f10c0:	ebfffe6a 	bl	402f0a70 <uart_putf>
402f10c4:	e3042be4 	movw	r2, #19428	; 0x4be4
402f10c8:	e3053332 	movw	r3, #21298	; 0x5332
402f10cc:	e301032c 	movw	r0, #4908	; 0x132c
402f10d0:	e34631c0 	movt	r3, #25024	; 0x61c0
402f10d4:	e3452007 	movt	r2, #20487	; 0x5007
402f10d8:	e344002f 	movt	r0, #16431	; 0x402f
402f10dc:	e58520c8 	str	r2, [r5, #200]	; 0xc8
402f10e0:	e3a0100c 	mov	r1, #12
402f10e4:	e5873110 	str	r3, [r7, #272]	; 0x110
402f10e8:	e3a02ec3 	mov	r2, #3120	; 0xc30
402f10ec:	e5853008 	str	r3, [r5, #8]
402f10f0:	e5852010 	str	r2, [r5, #16]
402f10f4:	e5852014 	str	r2, [r5, #20]
402f10f8:	e28dd00c 	add	r13, r13, #12
402f10fc:	e8bd4ff0 	pop	{r4, r5, r6, r7, r8, r9, r10, r11, r14}
402f1100:	eafffe5a 	b	402f0a70 <uart_putf>
402f1104:	eafffffe 	b	402f1104 <config_ddr_x+0x290>

Disassembly of section .rodata.str1.4:

402f1108 <.rodata.str1.4>:
402f1108:	25207073 	strcs	r7, [r0, #-115]!	; 0x73
402f110c:	00000a78 	andeq	r0, r0, r8, ror r10
402f1110:	52535043 	subspl	r5, r3, #67	; 0x43
402f1114:	67657220 	strbvs	r7, [r5, -r0, lsr #4]!
402f1118:	65747369 	ldrbvs	r7, [r4, #-873]!	; 0x369
402f111c:	78252072 	stmdavc	r5!, {r1, r4, r5, r6, r13}
402f1120:	0000000a 	andeq	r0, r0, r10
402f1124:	65646e75 	strbvs	r6, [r4, #-3701]!	; 0xe75
402f1128:	656e6966 	strbvs	r6, [r14, #-2406]!	; 0x966
402f112c:	6e692064 	cdpvs	0, 6, cr2, cr9, cr4, {3}
402f1130:	75727473 	ldrbvc	r7, [r2, #-1139]!	; 0x473
402f1134:	6f697463 	svcvs	0x00697463
402f1138:	73202c6e 	teqvc	r0, #28160	; 0x6e00
402f113c:	7070696b 	rsbsvc	r6, r0, r11, ror #18
402f1140:	0a676e69 	beq	41cccaec <__bss_end__+0x19db794>
402f1144:	00000000 	andeq	r0, r0, r0
402f1148:	6f420a0a 	svcvs	0x00420a0a
402f114c:	6e69746f 	cdpvs	4, 6, cr7, cr9, cr15, {3}
402f1150:	2e2e2e67 	cdpcs	14, 2, cr2, cr14, cr7, {3}
402f1154:	0000000a 	andeq	r0, r0, r10
402f1158:	6e69616d 	powvsez	f6, f1, #5.0
402f115c:	20646920 	rsbcs	r6, r4, r0, lsr #18
402f1160:	69676572 	stmdbvs	r7!, {r1, r4, r5, r6, r8, r10, r13, r14}^
402f1164:	72657473 	rsbvc	r7, r5, #1929379840	; 0x73000000
402f1168:	0a782520 	beq	420fa5f0 <__bss_end__+0x1e09298>
402f116c:	00000000 	andeq	r0, r0, r0
402f1170:	206d6f72 	rsbcs	r6, r13, r2, ror r15
402f1174:	65646f63 	strbvs	r6, [r4, #-3939]!	; 0xf63
402f1178:	72657620 	rsbvc	r7, r5, #32, 12	; 0x2000000
402f117c:	6e6f6973 	mcrvs	9, 3, r6, cr15, cr3, {3}
402f1180:	25783020 	ldrbcs	r3, [r8, #-32]!
402f1184:	00000a78 	andeq	r0, r0, r8, ror r10
402f1188:	746e6f63 	strbtvc	r6, [r14], #-3939	; 0xf63
402f118c:	5f6c6f72 	svcpl	0x006c6f72
402f1190:	74617473 	strbtvc	r7, [r1], #-1139	; 0x473
402f1194:	30207375 	eorcc	r7, r0, r5, ror r3
402f1198:	0a782578 	beq	420fa780 <__bss_end__+0x1e09428>
402f119c:	00000000 	andeq	r0, r0, r0
402f11a0:	73797263 	cmnvc	r9, #805306374	; 0x30000006
402f11a4:	206c6174 	rsbcs	r6, r12, r4, ror r1
402f11a8:	71657266 	cmnvc	r5, r6, ror #4
402f11ac:	20732520 	rsbscs	r2, r3, r0, lsr #10
402f11b0:	0a7a484d 	beq	421832ec <__bss_end__+0x1e91f94>
402f11b4:	00000000 	andeq	r0, r0, r0
402f11b8:	3020726c 	eorcc	r7, r0, r12, ror #4
402f11bc:	0a782578 	beq	420fa7a4 <__bss_end__+0x1e0944c>
402f11c0:	00000000 	andeq	r0, r0, r0
402f11c4:	746f6f62 	strbtvc	r6, [pc], #-3938	; 402f11cc <__data_rom_start__+0xc4>
402f11c8:	20676663 	rsbcs	r6, r7, r3, ror #12
402f11cc:	78257830 	stmdavc	r5!, {r4, r5, r11, r12, r13, r14}
402f11d0:	6564200a 	strbvs	r2, [r4, #-10]!
402f11d4:	20206373 	eorcs	r6, r0, r3, ror r3
402f11d8:	7830203a 	ldmdavc	r0!, {r1, r3, r4, r5, r13}
402f11dc:	200a7825 	andcs	r7, r10, r5, lsr #16
402f11e0:	69766564 	ldmdbvs	r6!, {r2, r5, r6, r8, r10, r13, r14}^
402f11e4:	203a6563 	eorscs	r6, r10, r3, ror #10
402f11e8:	78257830 	stmdavc	r5!, {r4, r5, r11, r12, r13, r14}
402f11ec:	6572200a 	ldrbvs	r2, [r2, #-10]!
402f11f0:	6e6f7361 	cdpvs	3, 6, cr7, cr15, cr1, {3}
402f11f4:	7830203a 	ldmdavc	r0!, {r1, r3, r4, r5, r13}
402f11f8:	000a7825 	andeq	r7, r10, r5, lsr #16
402f11fc:	666e6f63 	strbtvs	r6, [r14], -r3, ror #30
402f1200:	645f6769 	ldrbvs	r6, [pc], #-1897	; 402f1208 <__data_rom_start__+0x100>
402f1204:	785f7264 	ldmdavc	r15, {r2, r5, r6, r9, r12, r13, r14}^	; <UNPREDICTABLE>
402f1208:	746e6520 	strbtvc	r6, [r14], #-1312	; 0x520
402f120c:	2e2e7265 	cdpcs	2, 2, cr7, cr14, cr5, {3}
402f1210:	00000a2e 	andeq	r0, r0, r14, lsr #20
402f1214:	666e6f63 	strbtvs	r6, [r14], -r3, ror #30
402f1218:	645f6769 	ldrbvs	r6, [pc], #-1897	; 402f1220 <__data_rom_start__+0x118>
402f121c:	785f7264 	ldmdavc	r15, {r2, r5, r6, r9, r12, r13, r14}^	; <UNPREDICTABLE>
402f1220:	69786520 	ldmdbvs	r8!, {r5, r8, r10, r13, r14}^
402f1224:	00000a74 	andeq	r0, r0, r4, ror r10
402f1228:	72617473 	rsbvc	r7, r1, #1929379840	; 0x73000000
402f122c:	44442074 	strbmi	r2, [r4], #-116	; 0x74
402f1230:	72203352 	eorvc	r3, r0, #1207959553	; 0x48000001
402f1234:	74206d61 	strtvc	r6, [r0], #-3425	; 0xd61
402f1238:	2c747365 	ldclcs	3, cr7, [r4], #-404	; 0xfffffe6c
402f123c:	6f726620 	svcvs	0x00726620
402f1240:	7830206d 	ldmdavc	r0!, {r0, r2, r3, r5, r6, r13}
402f1244:	74207825 	strtvc	r7, [r0], #-2085	; 0x825
402f1248:	7830206f 	ldmdavc	r0!, {r0, r1, r2, r3, r5, r6, r13}
402f124c:	000a7825 	andeq	r7, r10, r5, lsr #16
402f1250:	20202020 	eorcs	r2, r0, r0, lsr #32
402f1254:	74697277 	strbtvc	r7, [r9], #-631	; 0x277
402f1258:	2e676e69 	cdpcs	14, 6, cr6, cr7, cr9, {3}
402f125c:	000a2e2e 	andeq	r2, r10, r14, lsr #28
402f1260:	20202020 	eorcs	r2, r0, r0, lsr #32
402f1264:	63656863 	cmnvs	r5, #6488064	; 0x630000
402f1268:	676e696b 	strbvs	r6, [r14, -r11, ror #18]!
402f126c:	0a2e2e2e 	beq	40e7cb2c <__bss_end__+0xb8b7d4>
402f1270:	00000000 	andeq	r0, r0, r0
402f1274:	206d656d 	rsbcs	r6, r13, r13, ror #10
402f1278:	63656863 	cmnvs	r5, #6488064	; 0x630000
402f127c:	7265206b 	rsbvc	r2, r5, #107	; 0x6b
402f1280:	0a726f72 	beq	41f8d050 <__bss_end__+0x1c9bcf8>
402f1284:	00000000 	andeq	r0, r0, r0
402f1288:	20202020 	eorcs	r2, r0, r0, lsr #32
402f128c:	72646461 	rsbvc	r6, r4, #1627389952	; 0x61000000
402f1290:	20737365 	rsbscs	r7, r3, r5, ror #6
402f1294:	7830203a 	ldmdavc	r0!, {r1, r3, r4, r5, r13}
402f1298:	000a7825 	andeq	r7, r10, r5, lsr #16
402f129c:	20202020 	eorcs	r2, r0, r0, lsr #32
402f12a0:	65707865 	ldrbvs	r7, [r0, #-2149]!	; 0x865
402f12a4:	64657463 	strbtvs	r7, [r5], #-1123	; 0x463
402f12a8:	7830203a 	ldmdavc	r0!, {r1, r3, r4, r5, r13}
402f12ac:	000a7825 	andeq	r7, r10, r5, lsr #16
402f12b0:	20202020 	eorcs	r2, r0, r0, lsr #32
402f12b4:	75746361 	ldrbvc	r6, [r4, #-865]!	; 0x361
402f12b8:	20206c61 	eorcs	r6, r0, r1, ror #24
402f12bc:	7830203a 	ldmdavc	r0!, {r1, r3, r4, r5, r13}
402f12c0:	000a7825 	andeq	r7, r10, r5, lsr #16
402f12c4:	33524444 	cmpcc	r2, #68, 8	; 0x44000000
402f12c8:	6d617220 	sfmvs	f7, 2, [r1, #-128]!	; 0xffffff80
402f12cc:	73657420 	cmnvc	r5, #32, 8	; 0x20000000
402f12d0:	4b4f2074 	blmi	416b94a8 <__bss_end__+0x13c8150>
402f12d4:	0000000a 	andeq	r0, r0, r10
402f12d8:	33524444 	cmpcc	r2, #68, 8	; 0x44000000
402f12dc:	6d617220 	sfmvs	f7, 2, [r1, #-128]!	; 0xffffff80
402f12e0:	73657420 	cmnvc	r5, #32, 8	; 0x20000000
402f12e4:	41462074 	hvcmi	25092	; 0x6204
402f12e8:	000a4c49 	andeq	r4, r10, r9, asr #24
402f12ec:	6d69740d 	cfstrdvs	mvd7, [r9, #-52]!	; 0xffffffcc
402f12f0:	64252065 	strtvs	r2, [r5], #-101	; 0x65
402f12f4:	253a6425 	ldrcs	r6, [r10, #-1061]!	; 0x425
402f12f8:	3a642564 	bcc	41bfa890 <__bss_end__+0x1909538>
402f12fc:	64256425 	strtvs	r6, [r5], #-1061	; 0x425
402f1300:	71726920 	cmnvc	r2, r0, lsr #18
402f1304:	756f635f 	strbvc	r6, [pc, #-863]!	; 402f0fad <config_ddr_x+0x139>
402f1308:	5f3a746e 	svcpl	0x003a746e
402f130c:	205f6425 	subscs	r6, r15, r5, lsr #8
402f1310:	64253a69 	strtvs	r3, [r5], #-2665	; 0xa69
402f1314:	00000000 	andeq	r0, r0, r0
402f1318:	322e3931 	eorcc	r3, r14, #802816	; 0xc4000
402f131c:	00000000 	andeq	r0, r0, r0
402f1320:	00003432 	andeq	r3, r0, r2, lsr r4
402f1324:	00003532 	andeq	r3, r0, r2, lsr r5
402f1328:	00003632 	andeq	r3, r0, r2, lsr r6
402f132c:	55424544 	strbpl	r4, [r2, #-1348]	; 0x544
402f1330:	0a692547 	beq	41d3a854 <__bss_end__+0x1a494fc>
402f1334:	00000000 	andeq	r0, r0, r0

Disassembly of section .data:

402f1338 <CRYSTAL_FREQS>:
402f1338:	402f1318 	eormi	r1, r15, r8, lsl r3	; <UNPREDICTABLE>
402f133c:	402f1320 	eormi	r1, r15, r0, lsr #6
402f1340:	402f1324 	eormi	r1, r15, r4, lsr #6
402f1344:	402f1328 	eormi	r1, r15, r8, lsr #6

Disassembly of section .bss:

402f1348 <__bss_start__>:
402f1348:	00000000 	andeq	r0, r0, r0

402f134c <Empty_params>:
	...

Disassembly of section .ARM.attributes:

00000000 <.ARM.attributes>:
   0:	00003841 	andeq	r3, r0, r1, asr #16
   4:	61656100 	cmnvs	r5, r0, lsl #2
   8:	01006962 	tsteq	r0, r2, ror #18
   c:	0000002e 	andeq	r0, r0, r14, lsr #32
  10:	726f4305 	rsbvc	r4, r15, #335544320	; 0x14000000
  14:	2d786574 	cfldr64cs	mvdx6, [r8, #-464]!	; 0xfffffe30
  18:	06003841 	streq	r3, [r0], -r1, asr #16
  1c:	0841070a 	stmdaeq	r1, {r1, r3, r8, r9, r10}^
  20:	0a020901 	beq	8242c <STACK_SIZE+0x8232c>
  24:	14041204 	strne	r1, [r4], #-516	; 0x204
  28:	17011501 	strne	r1, [r1, -r1, lsl #10]
  2c:	1a011803 	bne	46040 <STACK_SIZE+0x45f40>
  30:	1c031b02 	stcne	11, cr1, [r3], {2}
  34:	44012201 	strmi	r2, [r1], #-513	; 0x201
  38:	Address 0x0000000000000038 is out of bounds.


Disassembly of section .comment:

00000000 <.comment>:
   0:	3a434347 	bcc	10d0d24 <STACK_SIZE+0x10d0c24>
   4:	62552820 	subsvs	r2, r5, #32, 16	; 0x200000
   8:	75746e75 	ldrbvc	r6, [r4, #-3701]!	; 0xe75
   c:	6e694c2f 	cdpvs	12, 6, cr4, cr9, cr15, {1}
  10:	206f7261 	rsbcs	r7, r15, r1, ror #4
  14:	2e382e34 	mrccs	14, 1, r2, cr8, cr4, {1}
  18:	75322d34 	ldrvc	r2, [r2, #-3380]!	; 0xd34
  1c:	746e7562 	strbtvc	r7, [r14], #-1378	; 0x562
  20:	317e3175 	cmncc	r14, r5, ror r1
  24:	34302e34 	ldrtcc	r2, [r0], #-3636	; 0xe34
  28:	2029312e 	eorcs	r3, r9, r14, lsr #2
  2c:	2e382e34 	mrccs	14, 1, r2, cr8, cr4, {1}
  30:	Address 0x0000000000000030 is out of bounds.

