
obj/main.elf:     file format elf32-littlearm


Disassembly of section .text:

80000000 <_start>:
80000000:	e10f0000 	mrs	r0, CPSR
80000004:	e3c0001f 	bic	r0, r0, #31
80000008:	e3800013 	orr	r0, r0, #19
8000000c:	e38000c0 	orr	r0, r0, #192	; 0xc0
80000010:	e129f000 	msr	CPSR_fc, r0
80000014:	ee110f50 	mrc	15, 0, r0, cr1, cr0, {2}
80000018:	e380060f 	orr	r0, r0, #15728640	; 0xf00000
8000001c:	ee010f50 	mcr	15, 0, r0, cr1, cr0, {2}
80000020:	f57ff06f 	isb	sy
80000024:	e3a00101 	mov	r0, #1073741824	; 0x40000000
80000028:	eee80a10 	vmsr	fpexc, r0
8000002c:	e59fd004 	ldr	sp, [pc, #4]	; 80000038 <.loop+0x4>
80000030:	eb000091 	bl	8000027c <_main>

80000034 <.loop>:
80000034:	eafffffe 	b	80000034 <.loop>
80000038:	4030cdfc 	ldrshtmi	ip, [r0], -ip

8000003c <LED_init>:
#include "gpio.h"
#include "clock.h"
void LED_init(void)
{
8000003c:	e52db004 	push	{fp}		; (str fp, [sp, #-4]!)
80000040:	e28db000 	add	fp, sp, #0
80000044:	e24dd00c 	sub	sp, sp, #12
	volatile unsigned int ra;

	PUT32(CM_PER_BASE+CM_PER_GPIO1, 1<<18 | 2);
80000048:	e3a030ac 	mov	r3, #172	; 0xac
8000004c:	e34434e0 	movt	r3, #17632	; 0x44e0
80000050:	e3a02002 	mov	r2, #2
80000054:	e3402004 	movt	r2, #4
80000058:	e5832000 	str	r2, [r3]
	ra = GET32(GPIO1_BASE+GPIO_OE);
8000005c:	e30c3134 	movw	r3, #49460	; 0xc134
80000060:	e3443804 	movt	r3, #18436	; 0x4804
80000064:	e5933000 	ldr	r3, [r3]
80000068:	e50b3008 	str	r3, [fp, #-8]
	ra &= ~(1<<21);
8000006c:	e51b3008 	ldr	r3, [fp, #-8]
80000070:	e3c33602 	bic	r3, r3, #2097152	; 0x200000
80000074:	e50b3008 	str	r3, [fp, #-8]
	PUT32(GPIO1_BASE+GPIO_OE, ra);
80000078:	e30c3134 	movw	r3, #49460	; 0xc134
8000007c:	e3443804 	movt	r3, #18436	; 0x4804
80000080:	e51b2008 	ldr	r2, [fp, #-8]
80000084:	e5832000 	str	r2, [r3]

	PUT32(GPIO1_BASE+GPIO_SETDATAOUT, 1<<21);
80000088:	e30c3194 	movw	r3, #49556	; 0xc194
8000008c:	e3443804 	movt	r3, #18436	; 0x4804
80000090:	e3a02602 	mov	r2, #2097152	; 0x200000
80000094:	e5832000 	str	r2, [r3]
}
80000098:	e24bd000 	sub	sp, fp, #0
8000009c:	e49db004 	pop	{fp}		; (ldr fp, [sp], #4)
800000a0:	e12fff1e 	bx	lr

800000a4 <CM_SetClk>:
#include "clock.h"

void CM_SetClk(CLK_MODULE_t module, CM_PER_REG reg, unsigned int value)
{
800000a4:	e52db004 	push	{fp}		; (str fp, [sp, #-4]!)
800000a8:	e28db000 	add	fp, sp, #0
800000ac:	e24dd014 	sub	sp, sp, #20
800000b0:	e50b0008 	str	r0, [fp, #-8]
800000b4:	e1a03001 	mov	r3, r1
800000b8:	e50b2010 	str	r2, [fp, #-16]
800000bc:	e14b30ba 	strh	r3, [fp, #-10]
	PUT32(module+reg, value);
800000c0:	e15b20ba 	ldrh	r2, [fp, #-10]
800000c4:	e51b3008 	ldr	r3, [fp, #-8]
800000c8:	e0823003 	add	r3, r2, r3
800000cc:	e1a02003 	mov	r2, r3
800000d0:	e51b3010 	ldr	r3, [fp, #-16]
800000d4:	e5823000 	str	r3, [r2]
}
800000d8:	e24bd000 	sub	sp, fp, #0
800000dc:	e49db004 	pop	{fp}		; (ldr fp, [sp], #4)
800000e0:	e12fff1e 	bx	lr

800000e4 <CM_GetClk>:

unsigned int CM_GetClk(CLK_MODULE_t module, CM_PER_REG reg)
{
800000e4:	e52db004 	push	{fp}		; (str fp, [sp, #-4]!)
800000e8:	e28db000 	add	fp, sp, #0
800000ec:	e24dd00c 	sub	sp, sp, #12
800000f0:	e50b0008 	str	r0, [fp, #-8]
800000f4:	e1a03001 	mov	r3, r1
800000f8:	e14b30ba 	strh	r3, [fp, #-10]
	return GET32(module+reg);
800000fc:	e15b20ba 	ldrh	r2, [fp, #-10]
80000100:	e51b3008 	ldr	r3, [fp, #-8]
80000104:	e0823003 	add	r3, r2, r3
80000108:	e5933000 	ldr	r3, [r3]
}
8000010c:	e1a00003 	mov	r0, r3
80000110:	e24bd000 	sub	sp, fp, #0
80000114:	e49db004 	pop	{fp}		; (ldr fp, [sp], #4)
80000118:	e12fff1e 	bx	lr

8000011c <Init_UART0_Clk>:
/*
}
*/

void Init_UART0_Clk()
{
8000011c:	e52db004 	push	{fp}		; (str fp, [sp, #-4]!)
80000120:	e28db000 	add	fp, sp, #0
	HW_REG_MODBITS(CM_WKUP + CM_WKUP_CLKSTCTRL, 0x3, 0x2);				//0x2 = SW_WKUP
80000124:	e3a03b01 	mov	r3, #1024	; 0x400
80000128:	e34434e0 	movt	r3, #17632	; 0x44e0
8000012c:	e3a02b01 	mov	r2, #1024	; 0x400
80000130:	e34424e0 	movt	r2, #17632	; 0x44e0
80000134:	e5922000 	ldr	r2, [r2]
80000138:	e3c22003 	bic	r2, r2, #3
8000013c:	e3822002 	orr	r2, r2, #2
80000140:	e5832000 	str	r2, [r3]
	HW_REG_MODBITS(CM_PER + CM_PER_L4HS_CLKSTCTRL, 0x3, 0x2);			//0x2 = SW_WKUP
80000144:	e3a03f47 	mov	r3, #284	; 0x11c
80000148:	e34434e0 	movt	r3, #17632	; 0x44e0
8000014c:	e3a02f47 	mov	r2, #284	; 0x11c
80000150:	e34424e0 	movt	r2, #17632	; 0x44e0
80000154:	e5922000 	ldr	r2, [r2]
80000158:	e3c22003 	bic	r2, r2, #3
8000015c:	e3822002 	orr	r2, r2, #2
80000160:	e5832000 	str	r2, [r3]
	HW_REG_MODBITS(CM_WKUP + CM_WKUP_UART0_CLKCTRL, 0x3, 0x2);			//0x2 = SW_WKUP
80000164:	e30034b4 	movw	r3, #1204	; 0x4b4
80000168:	e34434e0 	movt	r3, #17632	; 0x44e0
8000016c:	e30024b4 	movw	r2, #1204	; 0x4b4
80000170:	e34424e0 	movt	r2, #17632	; 0x44e0
80000174:	e5922000 	ldr	r2, [r2]
80000178:	e3c22003 	bic	r2, r2, #3
8000017c:	e3822002 	orr	r2, r2, #2
80000180:	e5832000 	str	r2, [r3]
}
80000184:	e24bd000 	sub	sp, fp, #0
80000188:	e49db004 	pop	{fp}		; (ldr fp, [sp], #4)
8000018c:	e12fff1e 	bx	lr

80000190 <CM_setCtrlModule>:
#include "control_module.h"

void CM_setCtrlModule(CONTROL_MODULE_REG_t module, unsigned int value)
{
80000190:	e52db004 	push	{fp}		; (str fp, [sp, #-4]!)
80000194:	e28db000 	add	fp, sp, #0
80000198:	e24dd00c 	sub	sp, sp, #12
8000019c:	e1a03000 	mov	r3, r0
800001a0:	e50b100c 	str	r1, [fp, #-12]
800001a4:	e14b30b6 	strh	r3, [fp, #-6]

	PUT32(CONTROL_MODULE_REGISTER_BASE + module, value);
800001a8:	e15b30b6 	ldrh	r3, [fp, #-6]
800001ac:	e2833311 	add	r3, r3, #1140850688	; 0x44000000
800001b0:	e28338e1 	add	r3, r3, #14745600	; 0xe10000
800001b4:	e1a02003 	mov	r2, r3
800001b8:	e51b300c 	ldr	r3, [fp, #-12]
800001bc:	e5823000 	str	r3, [r2]
}
800001c0:	e24bd000 	sub	sp, fp, #0
800001c4:	e49db004 	pop	{fp}		; (ldr fp, [sp], #4)
800001c8:	e12fff1e 	bx	lr

800001cc <CM_getCtrlModule>:

unsigned int CM_getCtrlModule(CONTROL_MODULE_REG_t module)
{
800001cc:	e52db004 	push	{fp}		; (str fp, [sp, #-4]!)
800001d0:	e28db000 	add	fp, sp, #0
800001d4:	e24dd00c 	sub	sp, sp, #12
800001d8:	e1a03000 	mov	r3, r0
800001dc:	e14b30b6 	strh	r3, [fp, #-6]
	return GET32(CONTROL_MODULE_REGISTER_BASE + module);
800001e0:	e15b30b6 	ldrh	r3, [fp, #-6]
800001e4:	e2833311 	add	r3, r3, #1140850688	; 0x44000000
800001e8:	e28338e1 	add	r3, r3, #14745600	; 0xe10000
800001ec:	e5933000 	ldr	r3, [r3]
}
800001f0:	e1a00003 	mov	r0, r3
800001f4:	e24bd000 	sub	sp, fp, #0
800001f8:	e49db004 	pop	{fp}		; (ldr fp, [sp], #4)
800001fc:	e12fff1e 	bx	lr

80000200 <PAD_setMode>:

void PAD_setMode(CONTROL_MODULE_REG_t module, unsigned int mode)
{
80000200:	e92d4800 	push	{fp, lr}
80000204:	e28db004 	add	fp, sp, #4
80000208:	e24dd010 	sub	sp, sp, #16
8000020c:	e1a03000 	mov	r3, r0
80000210:	e50b1014 	str	r1, [fp, #-20]
80000214:	e14b30be 	strh	r3, [fp, #-14]
	unsigned int temp = CM_getCtrlModule(0);
80000218:	e3a00000 	mov	r0, #0
8000021c:	ebffffea 	bl	800001cc <CM_getCtrlModule>
80000220:	e50b0008 	str	r0, [fp, #-8]
	temp &= ~(0b111);    // turn down MUXMODE
80000224:	e51b3008 	ldr	r3, [fp, #-8]
80000228:	e3c33007 	bic	r3, r3, #7
8000022c:	e50b3008 	str	r3, [fp, #-8]
	temp |= mode;        // set new MUXMODE
80000230:	e51b2008 	ldr	r2, [fp, #-8]
80000234:	e51b3014 	ldr	r3, [fp, #-20]
80000238:	e1823003 	orr	r3, r2, r3
8000023c:	e50b3008 	str	r3, [fp, #-8]
	CM_setCtrlModule(module, temp);
80000240:	e15b30be 	ldrh	r3, [fp, #-14]
80000244:	e1a00003 	mov	r0, r3
80000248:	e51b1008 	ldr	r1, [fp, #-8]
8000024c:	ebffffcf 	bl	80000190 <CM_setCtrlModule>


}
80000250:	e24bd004 	sub	sp, fp, #4
80000254:	e8bd8800 	pop	{fp, pc}

80000258 <Uart0_Mux>:




void Uart0_Mux()
{
80000258:	e92d4800 	push	{fp, lr}
8000025c:	e28db004 	add	fp, sp, #4

	CM_setCtrlModule(CM_conf_uart0_rxd, (1 << 4) | (1 << 5));		//Rx muxing
80000260:	e3a00e97 	mov	r0, #2416	; 0x970
80000264:	e3a01030 	mov	r1, #48	; 0x30
80000268:	ebffffc8 	bl	80000190 <CM_setCtrlModule>
	CM_setCtrlModule(CM_conf_uart0_txd,0);					//tx muxing
8000026c:	e3000974 	movw	r0, #2420	; 0x974
80000270:	e3a01000 	mov	r1, #0
80000274:	ebffffc5 	bl	80000190 <CM_setCtrlModule>
/*
	PAD_setMode(CM_conf_uart0_txd, 0);
	PAD_setMode(CM_conf_uart0_rxd, 0);
*/
}
80000278:	e8bd8800 	pop	{fp, pc}

8000027c <_main>:
#include "gpio.h"

extern unsigned short int value;

void _main(void)
{
8000027c:	e92d4800 	push	{fp, lr}
80000280:	e28db004 	add	fp, sp, #4
	LED_init();
80000284:	ebffff6c 	bl	8000003c <LED_init>

	UART_init(115200,STOP1,PARITY_NONE,FLOW_OFF);
80000288:	e3a00cc2 	mov	r0, #49664	; 0xc200
8000028c:	e3400001 	movt	r0, #1
80000290:	e3a01000 	mov	r1, #0
80000294:	e3a02000 	mov	r2, #0
80000298:	e3a03000 	mov	r3, #0
8000029c:	eb0000a3 	bl	80000530 <UART_init>
	UART_putC('\n');
800002a0:	e3a0000a 	mov	r0, #10
800002a4:	eb0000b4 	bl	8000057c <UART_putC>
	UART_putString("Uart init done : ");
800002a8:	e3000c64 	movw	r0, #3172	; 0xc64
800002ac:	e3480000 	movt	r0, #32768	; 0x8000
800002b0:	eb0000db 	bl	80000624 <UART_putString>
	UART_putString("Hi shashi\n");
800002b4:	e3000c78 	movw	r0, #3192	; 0xc78
800002b8:	e3480000 	movt	r0, #32768	; 0x8000
800002bc:	eb0000d8 	bl	80000624 <UART_putString>
	UART_putString("Uart init done : ");
800002c0:	e3000c64 	movw	r0, #3172	; 0xc64
800002c4:	e3480000 	movt	r0, #32768	; 0x8000
800002c8:	eb0000d5 	bl	80000624 <UART_putString>
	UART_putString("Hi dabba\n\n");
800002cc:	e3000c84 	movw	r0, #3204	; 0xc84
800002d0:	e3480000 	movt	r0, #32768	; 0x8000
800002d4:	eb0000d2 	bl	80000624 <UART_putString>
		UART_putString("Enter a character : ");
		UART_putC(UART_getC());
		UART_putC('\n');
	}
*/
}
800002d8:	e8bd8800 	pop	{fp, pc}
800002dc:	00000000 	andeq	r0, r0, r0

800002e0 <GPIO_init>:
#include "control_module.h"
#include "string.h"

unsigned short int value = 0;
void GPIO_init()
{
800002e0:	e92d4800 	push	{fp, lr}
800002e4:	e28db004 	add	fp, sp, #4
800002e8:	e24dd008 	sub	sp, sp, #8
	unsigned int setting = (1<<18) | (0x2<<0);
800002ec:	e3a03002 	mov	r3, #2
800002f0:	e3403004 	movt	r3, #4
800002f4:	e50b3008 	str	r3, [fp, #-8]
	CM_SetClk(CM_PER, CM_PER_GPIO1_CLKCTRL, setting);
800002f8:	e3a00000 	mov	r0, #0
800002fc:	e34404e0 	movt	r0, #17632	; 0x44e0
80000300:	e3a010ac 	mov	r1, #172	; 0xac
80000304:	e51b2008 	ldr	r2, [fp, #-8]
80000308:	ebffff65 	bl	800000a4 <CM_SetClk>
	while((CM_GetClk(CM_PER, CM_PER_GPIO1_CLKCTRL) & (0x3<<16)) != 0);
8000030c:	e1a00000 	nop			; (mov r0, r0)
80000310:	e3a00000 	mov	r0, #0
80000314:	e34404e0 	movt	r0, #17632	; 0x44e0
80000318:	e3a010ac 	mov	r1, #172	; 0xac
8000031c:	ebffff70 	bl	800000e4 <CM_GetClk>
80000320:	e1a03000 	mov	r3, r0
80000324:	e2033803 	and	r3, r3, #196608	; 0x30000
80000328:	e3530000 	cmp	r3, #0
8000032c:	1afffff7 	bne	80000310 <GPIO_init+0x30>

}
80000330:	e24bd004 	sub	sp, fp, #4
80000334:	e8bd8800 	pop	{fp, pc}

80000338 <Uart0_Reset>:
/* 
 * UART procedure described in 19.4 UART/IrDA/CIR Basic Programming Model
 */

void Uart0_Reset(unsigned int baudrate) 
{
80000338:	e52db004 	push	{fp}		; (str fp, [sp, #-4]!)
8000033c:	e28db000 	add	fp, sp, #0
80000340:	e24dd01c 	sub	sp, sp, #28
80000344:	e50b0018 	str	r0, [fp, #-24]
	/** UART reset --> setting SYSC[1] */
	unsigned int temp = GET32(UART0+SYSC);
80000348:	e3093054 	movw	r3, #36948	; 0x9054
8000034c:	e34434e0 	movt	r3, #17632	; 0x44e0
80000350:	e5933000 	ldr	r3, [r3]
80000354:	e50b3008 	str	r3, [fp, #-8]
	temp |= 0x2;
80000358:	e51b3008 	ldr	r3, [fp, #-8]
8000035c:	e3833002 	orr	r3, r3, #2
80000360:	e50b3008 	str	r3, [fp, #-8]
	PUT32(UART0+SYSC, temp);		
80000364:	e3093054 	movw	r3, #36948	; 0x9054
80000368:	e34434e0 	movt	r3, #17632	; 0x44e0
8000036c:	e51b2008 	ldr	r2, [fp, #-8]
80000370:	e5832000 	str	r2, [r3]
	while (((GET32(UART0+SYSS)) & 0x1) == 0);		/* Wait till reset is complete */
80000374:	e1a00000 	nop			; (mov r0, r0)
80000378:	e3093058 	movw	r3, #36952	; 0x9058
8000037c:	e34434e0 	movt	r3, #17632	; 0x44e0
80000380:	e5933000 	ldr	r3, [r3]
80000384:	e2033001 	and	r3, r3, #1
80000388:	e3530000 	cmp	r3, #0
8000038c:	0afffff9 	beq	80000378 <Uart0_Reset+0x40>
	temp = GET8(UART0+SYSC);
80000390:	e3093054 	movw	r3, #36948	; 0x9054
80000394:	e34434e0 	movt	r3, #17632	; 0x44e0
80000398:	e5d33000 	ldrb	r3, [r3]
8000039c:	e6ef3073 	uxtb	r3, r3
800003a0:	e50b3008 	str	r3, [fp, #-8]
	temp |= (0x1 << 0x3);
800003a4:	e51b3008 	ldr	r3, [fp, #-8]
800003a8:	e3833008 	orr	r3, r3, #8
800003ac:	e50b3008 	str	r3, [fp, #-8]
	PUT8(UART0+SYSC, temp);					/* No idle/Wakeup capability is enabled */
800003b0:	e3093054 	movw	r3, #36948	; 0x9054
800003b4:	e34434e0 	movt	r3, #17632	; 0x44e0
800003b8:	e51b2008 	ldr	r2, [fp, #-8]
800003bc:	e6ef2072 	uxtb	r2, r2
800003c0:	e5c32000 	strb	r2, [r3]

	/* Check below condition is necessary ??*/
	while(!(GET32(UART0+LSR) & 0x40));    		// Transmitter hold (TX	FIFO) and shift	registers are empty
800003c4:	e1a00000 	nop			; (mov r0, r0)
800003c8:	e3093014 	movw	r3, #36884	; 0x9014
800003cc:	e34434e0 	movt	r3, #17632	; 0x44e0
800003d0:	e5933000 	ldr	r3, [r3]
800003d4:	e2033040 	and	r3, r3, #64	; 0x40
800003d8:	e3530000 	cmp	r3, #0
800003dc:	0afffff9 	beq	800003c8 <Uart0_Reset+0x90>

	/* UART Interrupt Enable Register */
	PUT8(UART0+IER, 0);					//Disable uart interrupts
800003e0:	e3093004 	movw	r3, #36868	; 0x9004
800003e4:	e34434e0 	movt	r3, #17632	; 0x44e0
800003e8:	e3a02000 	mov	r2, #0
800003ec:	e5c32000 	strb	r2, [r3]
	PUT8(UART0+MDR1,0x7);        				/* Disable modeselect (default) 19.5.1.19*/
800003f0:	e3093020 	movw	r3, #36896	; 0x9020
800003f4:	e34434e0 	movt	r3, #17632	; 0x44e0
800003f8:	e3a02007 	mov	r2, #7
800003fc:	e5c32000 	strb	r2, [r3]
	PUT8(UART0+LCR,~(0x7C));    // divisor latch enable, access DLL DHL, set uart as 8bit
80000400:	e309300c 	movw	r3, #36876	; 0x900c
80000404:	e34434e0 	movt	r3, #17632	; 0x44e0
80000408:	e3e0207c 	mvn	r2, #124	; 0x7c
8000040c:	e5c32000 	strb	r2, [r3]

	value = GET8(UART0+LCR);
80000410:	e309300c 	movw	r3, #36876	; 0x900c
80000414:	e34434e0 	movt	r3, #17632	; 0x44e0
80000418:	e5d33000 	ldrb	r3, [r3]
8000041c:	e6ef3073 	uxtb	r3, r3
80000420:	e6ff2073 	uxth	r2, r3
80000424:	e3003c90 	movw	r3, #3216	; 0xc90
80000428:	e3483000 	movt	r3, #32768	; 0x8000
8000042c:	e1c320b0 	strh	r2, [r3]
	PUT8(UART0+RHR,0);          // DLL = 0
80000430:	e3a03a09 	mov	r3, #36864	; 0x9000
80000434:	e34434e0 	movt	r3, #17632	; 0x44e0
80000438:	e3a02000 	mov	r2, #0
8000043c:	e5c32000 	strb	r2, [r3]
	PUT8(UART0+IER,0);          // DHL = 0
80000440:	e3093004 	movw	r3, #36868	; 0x9004
80000444:	e34434e0 	movt	r3, #17632	; 0x44e0
80000448:	e3a02000 	mov	r2, #0
8000044c:	e5c32000 	strb	r2, [r3]
	PUT8(UART0+LCR,0x3);        // set uart as 8bit
80000450:	e309300c 	movw	r3, #36876	; 0x900c
80000454:	e34434e0 	movt	r3, #17632	; 0x44e0
80000458:	e3a02003 	mov	r2, #3
8000045c:	e5c32000 	strb	r2, [r3]
	PUT8(UART0+MCR,0x3);        // force /rts & /drt to active (low) (?!)
80000460:	e3093010 	movw	r3, #36880	; 0x9010
80000464:	e34434e0 	movt	r3, #17632	; 0x44e0
80000468:	e3a02003 	mov	r2, #3
8000046c:	e5c32000 	strb	r2, [r3]
	PUT8(UART0+FCR,0x7);        // clear rx&tx FIFOs, and enables them (each 64 bytes deep)
80000470:	e3093008 	movw	r3, #36872	; 0x9008
80000474:	e34434e0 	movt	r3, #17632	; 0x44e0
80000478:	e3a02007 	mov	r2, #7
8000047c:	e5c32000 	strb	r2, [r3]
	  1 . UART 16x mode: Divisor value = Operating frequency/(16x baud rate) , Operating frequency = 48 MHz	 
	  2 . For 115200/16x speed DLL = 0x00, DLH = 0x1A
	  3 . The divisor latches high register(DLH) with the DLL register stores the 14-bit divisor for generation
	      of the baud clock in the baud rate generator
	  */
	float div = 48000000.0/(16.0*(float)baudrate);
80000480:	e51b3018 	ldr	r3, [fp, #-24]
80000484:	ee073a90 	vmov	s15, r3
80000488:	eef87a67 	vcvt.f32.u32	s15, s15
8000048c:	eef70ae7 	vcvt.f64.f32	d16, s15
80000490:	eef31b00 	vmov.f64	d17, #48	; 0x30
80000494:	ee600ba1 	vmul.f64	d16, d16, d17
80000498:	eddf1b22 	vldr	d17, [pc, #136]	; 80000528 <Uart0_Reset+0x1f0>
8000049c:	eec10ba0 	vdiv.f64	d16, d17, d16
800004a0:	eef77be0 	vcvt.f32.f64	s15, d16
800004a4:	ed4b7a03 	vstr	s15, [fp, #-12]
	unsigned int intdiv = (unsigned int) div; 
800004a8:	ed5b7a03 	vldr	s15, [fp, #-12]
800004ac:	eefc7ae7 	vcvt.u32.f32	s15, s15
800004b0:	ee173a90 	vmov	r3, s15
800004b4:	e50b3010 	str	r3, [fp, #-16]
	PUT8(UART0+LCR,~(0x7C));    		   /* divisor latch enable, access DLL DHL, set uart as 8bit*/
800004b8:	e309300c 	movw	r3, #36876	; 0x900c
800004bc:	e34434e0 	movt	r3, #17632	; 0x44e0
800004c0:	e3e0207c 	mvn	r2, #124	; 0x7c
800004c4:	e5c32000 	strb	r2, [r3]
	PUT8(UART0+RHR,intdiv&0xFF);          	   /* DLL = 26 */
800004c8:	e3a03a09 	mov	r3, #36864	; 0x9000
800004cc:	e34434e0 	movt	r3, #17632	; 0x44e0
800004d0:	e51b2010 	ldr	r2, [fp, #-16]
800004d4:	e6ef2072 	uxtb	r2, r2
800004d8:	e5c32000 	strb	r2, [r3]
	PUT8(UART0+IER,(intdiv>>8)&0x3F);          /* DHL = 0  IER now DLH*/
800004dc:	e3093004 	movw	r3, #36868	; 0x9004
800004e0:	e34434e0 	movt	r3, #17632	; 0x44e0
800004e4:	e51b2010 	ldr	r2, [fp, #-16]
800004e8:	e1a02422 	lsr	r2, r2, #8
800004ec:	e6ef2072 	uxtb	r2, r2
800004f0:	e202203f 	and	r2, r2, #63	; 0x3f
800004f4:	e6ef2072 	uxtb	r2, r2
800004f8:	e5c32000 	strb	r2, [r3]

	PUT8(UART0+LCR,0x3);        // set uart as 8 bit
800004fc:	e309300c 	movw	r3, #36876	; 0x900c
80000500:	e34434e0 	movt	r3, #17632	; 0x44e0
80000504:	e3a02003 	mov	r2, #3
80000508:	e5c32000 	strb	r2, [r3]
	PUT8(UART0+MDR1,0);          // uart 16x oversampling
8000050c:	e3093020 	movw	r3, #36896	; 0x9020
80000510:	e34434e0 	movt	r3, #17632	; 0x44e0
80000514:	e3a02000 	mov	r2, #0
80000518:	e5c32000 	strb	r2, [r3]

}
8000051c:	e24bd000 	sub	sp, fp, #0
80000520:	e49db004 	pop	{fp}		; (ldr fp, [sp], #4)
80000524:	e12fff1e 	bx	lr
80000528:	00000000 	andeq	r0, r0, r0
8000052c:	4186e360 	orrmi	lr, r6, r0, ror #6

80000530 <UART_init>:

void UART_init(unsigned int baudrate, STOP_BIT_t stopBit, PARITY_BIT_t parity, FLOW_t flowControl) 
{
80000530:	e92d4800 	push	{fp, lr}
80000534:	e28db004 	add	fp, sp, #4
80000538:	e24dd008 	sub	sp, sp, #8
8000053c:	e50b0008 	str	r0, [fp, #-8]
80000540:	e1a00001 	mov	r0, r1
80000544:	e1a01002 	mov	r1, r2
80000548:	e1a02003 	mov	r2, r3
8000054c:	e1a03000 	mov	r3, r0
80000550:	e54b3009 	strb	r3, [fp, #-9]
80000554:	e1a03001 	mov	r3, r1
80000558:	e54b300a 	strb	r3, [fp, #-10]
8000055c:	e1a03002 	mov	r3, r2
80000560:	e54b300b 	strb	r3, [fp, #-11]
	//UART mux config
	Uart0_Mux();
80000564:	ebffff3b 	bl	80000258 <Uart0_Mux>

	//Init clock and muxing of pins
	Init_UART0_Clk();
80000568:	ebfffeeb 	bl	8000011c <Init_UART0_Clk>

	//Uart soft reset
	Uart0_Reset(baudrate);
8000056c:	e51b0008 	ldr	r0, [fp, #-8]
80000570:	ebffff70 	bl	80000338 <Uart0_Reset>
}
80000574:	e24bd004 	sub	sp, fp, #4
80000578:	e8bd8800 	pop	{fp, pc}

8000057c <UART_putC>:

void UART_putC( char c)
{
8000057c:	e92d4800 	push	{fp, lr}
80000580:	e28db004 	add	fp, sp, #4
80000584:	e24dd008 	sub	sp, sp, #8
80000588:	e1a03000 	mov	r3, r0
8000058c:	e54b3005 	strb	r3, [fp, #-5]
	if (c == '\n')
80000590:	e55b3005 	ldrb	r3, [fp, #-5]
80000594:	e353000a 	cmp	r3, #10
80000598:	1a000001 	bne	800005a4 <UART_putC+0x28>
		UART_putC('\r');
8000059c:	e3a0000d 	mov	r0, #13
800005a0:	ebfffff5 	bl	8000057c <UART_putC>

	while((GET8(UART0+LSR)&0x20) != 0x20)	/* wait until txfifo is empty (check exact bit is set) */ 
800005a4:	e1a00000 	nop			; (mov r0, r0)
800005a8:	e3093014 	movw	r3, #36884	; 0x9014
800005ac:	e34434e0 	movt	r3, #17632	; 0x44e0
800005b0:	e5d33000 	ldrb	r3, [r3]
800005b4:	e6ef3073 	uxtb	r3, r3
800005b8:	e2033020 	and	r3, r3, #32
800005bc:	e3530000 	cmp	r3, #0
800005c0:	0afffff8 	beq	800005a8 <UART_putC+0x2c>
		;

	PUT8(UART0 +RHR,c);
800005c4:	e3a03a09 	mov	r3, #36864	; 0x9000
800005c8:	e34434e0 	movt	r3, #17632	; 0x44e0
800005cc:	e55b2005 	ldrb	r2, [fp, #-5]
800005d0:	e5c32000 	strb	r2, [r3]
}
800005d4:	e24bd004 	sub	sp, fp, #4
800005d8:	e8bd8800 	pop	{fp, pc}

800005dc <UART_getC>:
char UART_getC()
{
800005dc:	e52db004 	push	{fp}		; (str fp, [sp, #-4]!)
800005e0:	e28db000 	add	fp, sp, #0
	while((GET8(UART0+LSR)&0x1) == 0);     //wait for a character to be in the rx fifo
800005e4:	e1a00000 	nop			; (mov r0, r0)
800005e8:	e3093014 	movw	r3, #36884	; 0x9014
800005ec:	e34434e0 	movt	r3, #17632	; 0x44e0
800005f0:	e5d33000 	ldrb	r3, [r3]
800005f4:	e6ef3073 	uxtb	r3, r3
800005f8:	e2033001 	and	r3, r3, #1
800005fc:	e3530000 	cmp	r3, #0
80000600:	0afffff8 	beq	800005e8 <UART_getC+0xc>
	return GET8(UART0+RHR);
80000604:	e3a03a09 	mov	r3, #36864	; 0x9000
80000608:	e34434e0 	movt	r3, #17632	; 0x44e0
8000060c:	e5d33000 	ldrb	r3, [r3]
80000610:	e6ef3073 	uxtb	r3, r3
}
80000614:	e1a00003 	mov	r0, r3
80000618:	e24bd000 	sub	sp, fp, #0
8000061c:	e49db004 	pop	{fp}		; (ldr fp, [sp], #4)
80000620:	e12fff1e 	bx	lr

80000624 <UART_putString>:

int UART_putString(char *str)
{
80000624:	e92d4800 	push	{fp, lr}
80000628:	e28db004 	add	fp, sp, #4
8000062c:	e24dd010 	sub	sp, sp, #16
80000630:	e50b0010 	str	r0, [fp, #-16]
   int length = strlen(str);
80000634:	e51b0010 	ldr	r0, [fp, #-16]
80000638:	eb00005a 	bl	800007a8 <strlen>
8000063c:	e1a03000 	mov	r3, r0
80000640:	e50b300c 	str	r3, [fp, #-12]
   for(int i = 0; i < length; i++)
80000644:	e3a03000 	mov	r3, #0
80000648:	e50b3008 	str	r3, [fp, #-8]
8000064c:	ea000008 	b	80000674 <UART_putString+0x50>
   {
      UART_putC(str[i]);
80000650:	e51b3008 	ldr	r3, [fp, #-8]
80000654:	e51b2010 	ldr	r2, [fp, #-16]
80000658:	e0823003 	add	r3, r2, r3
8000065c:	e5d33000 	ldrb	r3, [r3]
80000660:	e1a00003 	mov	r0, r3
80000664:	ebffffc4 	bl	8000057c <UART_putC>
}

int UART_putString(char *str)
{
   int length = strlen(str);
   for(int i = 0; i < length; i++)
80000668:	e51b3008 	ldr	r3, [fp, #-8]
8000066c:	e2833001 	add	r3, r3, #1
80000670:	e50b3008 	str	r3, [fp, #-8]
80000674:	e51b2008 	ldr	r2, [fp, #-8]
80000678:	e51b300c 	ldr	r3, [fp, #-12]
8000067c:	e1520003 	cmp	r2, r3
80000680:	bafffff2 	blt	80000650 <UART_putString+0x2c>
   {
      UART_putC(str[i]);
   }
   return length;
80000684:	e51b300c 	ldr	r3, [fp, #-12]
}
80000688:	e1a00003 	mov	r0, r3
8000068c:	e24bd004 	sub	sp, fp, #4
80000690:	e8bd8800 	pop	{fp, pc}

80000694 <UART_getString>:

int UART_getString(char *buf)
{
80000694:	e92d4810 	push	{r4, fp, lr}
80000698:	e28db008 	add	fp, sp, #8
8000069c:	e24dd014 	sub	sp, sp, #20
800006a0:	e50b0018 	str	r0, [fp, #-24]
   int length = strlen(buf);
800006a4:	e51b0018 	ldr	r0, [fp, #-24]
800006a8:	eb00003e 	bl	800007a8 <strlen>
800006ac:	e1a03000 	mov	r3, r0
800006b0:	e50b3014 	str	r3, [fp, #-20]
   for(int i = 0; i < length; i ++)
800006b4:	e3a03000 	mov	r3, #0
800006b8:	e50b3010 	str	r3, [fp, #-16]
800006bc:	ea000008 	b	800006e4 <UART_getString+0x50>
   {
      buf[i] = UART_getC();
800006c0:	e51b3010 	ldr	r3, [fp, #-16]
800006c4:	e51b2018 	ldr	r2, [fp, #-24]
800006c8:	e0824003 	add	r4, r2, r3
800006cc:	ebffffc2 	bl	800005dc <UART_getC>
800006d0:	e1a03000 	mov	r3, r0
800006d4:	e5c43000 	strb	r3, [r4]
}

int UART_getString(char *buf)
{
   int length = strlen(buf);
   for(int i = 0; i < length; i ++)
800006d8:	e51b3010 	ldr	r3, [fp, #-16]
800006dc:	e2833001 	add	r3, r3, #1
800006e0:	e50b3010 	str	r3, [fp, #-16]
800006e4:	e51b2010 	ldr	r2, [fp, #-16]
800006e8:	e51b3014 	ldr	r3, [fp, #-20]
800006ec:	e1520003 	cmp	r2, r3
800006f0:	bafffff2 	blt	800006c0 <UART_getString+0x2c>
   {
      buf[i] = UART_getC();
   }
   return length;
800006f4:	e51b3014 	ldr	r3, [fp, #-20]
}
800006f8:	e1a00003 	mov	r0, r3
800006fc:	e24bd008 	sub	sp, fp, #8
80000700:	e8bd8810 	pop	{r4, fp, pc}

80000704 <memcmp>:
   void *memmove (void *, const void *, int)
   void *memset (void *, int, int)
   void *memchr (const void *, int, int)
 */
int memcmp (const void *dst, const void *src, int n) 
{
80000704:	e52db004 	push	{fp}		; (str fp, [sp, #-4]!)
80000708:	e28db000 	add	fp, sp, #0
8000070c:	e24dd01c 	sub	sp, sp, #28
80000710:	e50b0010 	str	r0, [fp, #-16]
80000714:	e50b1014 	str	r1, [fp, #-20]
80000718:	e50b2018 	str	r2, [fp, #-24]
	const char *a = dst;
8000071c:	e51b3010 	ldr	r3, [fp, #-16]
80000720:	e50b3008 	str	r3, [fp, #-8]
	const char *b = src;
80000724:	e51b3014 	ldr	r3, [fp, #-20]
80000728:	e50b300c 	str	r3, [fp, #-12]
	if (!n)
8000072c:	e51b3018 	ldr	r3, [fp, #-24]
80000730:	e3530000 	cmp	r3, #0
80000734:	1a000001 	bne	80000740 <memcmp+0x3c>
		return 0;
80000738:	e3a03000 	mov	r3, #0
8000073c:	ea000015 	b	80000798 <memcmp+0x94>

	while ((n-- > 0) && (*a++ == *b++))
80000740:	e1a00000 	nop			; (mov r0, r0)
80000744:	e51b3018 	ldr	r3, [fp, #-24]
80000748:	e2432001 	sub	r2, r3, #1
8000074c:	e50b2018 	str	r2, [fp, #-24]
80000750:	e3530000 	cmp	r3, #0
80000754:	da000009 	ble	80000780 <memcmp+0x7c>
80000758:	e51b3008 	ldr	r3, [fp, #-8]
8000075c:	e2832001 	add	r2, r3, #1
80000760:	e50b2008 	str	r2, [fp, #-8]
80000764:	e5d32000 	ldrb	r2, [r3]
80000768:	e51b300c 	ldr	r3, [fp, #-12]
8000076c:	e2831001 	add	r1, r3, #1
80000770:	e50b100c 	str	r1, [fp, #-12]
80000774:	e5d33000 	ldrb	r3, [r3]
80000778:	e1520003 	cmp	r2, r3
8000077c:	0afffff0 	beq	80000744 <memcmp+0x40>
		;
	
	return (*a - *b);
80000780:	e51b3008 	ldr	r3, [fp, #-8]
80000784:	e5d33000 	ldrb	r3, [r3]
80000788:	e1a02003 	mov	r2, r3
8000078c:	e51b300c 	ldr	r3, [fp, #-12]
80000790:	e5d33000 	ldrb	r3, [r3]
80000794:	e0633002 	rsb	r3, r3, r2
}
80000798:	e1a00003 	mov	r0, r3
8000079c:	e24bd000 	sub	sp, fp, #0
800007a0:	e49db004 	pop	{fp}		; (ldr fp, [sp], #4)
800007a4:	e12fff1e 	bx	lr

800007a8 <strlen>:
int strlen (const char *str)
{ 
800007a8:	e52db004 	push	{fp}		; (str fp, [sp, #-4]!)
800007ac:	e28db000 	add	fp, sp, #0
800007b0:	e24dd014 	sub	sp, sp, #20
800007b4:	e50b0010 	str	r0, [fp, #-16]
	int i = 0;
800007b8:	e3a03000 	mov	r3, #0
800007bc:	e50b3008 	str	r3, [fp, #-8]
	while(*(str+i) !='\0') 
800007c0:	ea000002 	b	800007d0 <strlen+0x28>
		i++;
800007c4:	e51b3008 	ldr	r3, [fp, #-8]
800007c8:	e2833001 	add	r3, r3, #1
800007cc:	e50b3008 	str	r3, [fp, #-8]
	return (*a - *b);
}
int strlen (const char *str)
{ 
	int i = 0;
	while(*(str+i) !='\0') 
800007d0:	e51b3008 	ldr	r3, [fp, #-8]
800007d4:	e51b2010 	ldr	r2, [fp, #-16]
800007d8:	e0823003 	add	r3, r2, r3
800007dc:	e5d33000 	ldrb	r3, [r3]
800007e0:	e3530000 	cmp	r3, #0
800007e4:	1afffff6 	bne	800007c4 <strlen+0x1c>
		i++;
	return i;
800007e8:	e51b3008 	ldr	r3, [fp, #-8]
}
800007ec:	e1a00003 	mov	r0, r3
800007f0:	e24bd000 	sub	sp, fp, #0
800007f4:	e49db004 	pop	{fp}		; (ldr fp, [sp], #4)
800007f8:	e12fff1e 	bx	lr

800007fc <strcpy>:

char *strcpy (char *dst, const char *src) 
{
800007fc:	e52db004 	push	{fp}		; (str fp, [sp, #-4]!)
80000800:	e28db000 	add	fp, sp, #0
80000804:	e24dd014 	sub	sp, sp, #20
80000808:	e50b0010 	str	r0, [fp, #-16]
8000080c:	e50b1014 	str	r1, [fp, #-20]
	char *d = dst;
80000810:	e51b3010 	ldr	r3, [fp, #-16]
80000814:	e50b3008 	str	r3, [fp, #-8]
	while ((*dst++ = *src++));
80000818:	e1a00000 	nop			; (mov r0, r0)
8000081c:	e51b3010 	ldr	r3, [fp, #-16]
80000820:	e2832001 	add	r2, r3, #1
80000824:	e50b2010 	str	r2, [fp, #-16]
80000828:	e51b2014 	ldr	r2, [fp, #-20]
8000082c:	e2821001 	add	r1, r2, #1
80000830:	e50b1014 	str	r1, [fp, #-20]
80000834:	e5d22000 	ldrb	r2, [r2]
80000838:	e5c32000 	strb	r2, [r3]
8000083c:	e5d33000 	ldrb	r3, [r3]
80000840:	e3530000 	cmp	r3, #0
80000844:	1afffff4 	bne	8000081c <strcpy+0x20>
	return d;
80000848:	e51b3008 	ldr	r3, [fp, #-8]
}
8000084c:	e1a00003 	mov	r0, r3
80000850:	e24bd000 	sub	sp, fp, #0
80000854:	e49db004 	pop	{fp}		; (ldr fp, [sp], #4)
80000858:	e12fff1e 	bx	lr

8000085c <strncpy>:


char *strncpy (char *dst, const char *src, int n)
{
8000085c:	e52db004 	push	{fp}		; (str fp, [sp, #-4]!)
80000860:	e28db000 	add	fp, sp, #0
80000864:	e24dd01c 	sub	sp, sp, #28
80000868:	e50b0010 	str	r0, [fp, #-16]
8000086c:	e50b1014 	str	r1, [fp, #-20]
80000870:	e50b2018 	str	r2, [fp, #-24]
	char *d = dst;
80000874:	e51b3010 	ldr	r3, [fp, #-16]
80000878:	e50b3008 	str	r3, [fp, #-8]
	while ((n-- > 0) && (*dst++ = *src++) );
8000087c:	e1a00000 	nop			; (mov r0, r0)
80000880:	e51b3018 	ldr	r3, [fp, #-24]
80000884:	e2432001 	sub	r2, r3, #1
80000888:	e50b2018 	str	r2, [fp, #-24]
8000088c:	e3530000 	cmp	r3, #0
80000890:	da00000a 	ble	800008c0 <strncpy+0x64>
80000894:	e51b3010 	ldr	r3, [fp, #-16]
80000898:	e2832001 	add	r2, r3, #1
8000089c:	e50b2010 	str	r2, [fp, #-16]
800008a0:	e51b2014 	ldr	r2, [fp, #-20]
800008a4:	e2821001 	add	r1, r2, #1
800008a8:	e50b1014 	str	r1, [fp, #-20]
800008ac:	e5d22000 	ldrb	r2, [r2]
800008b0:	e5c32000 	strb	r2, [r3]
800008b4:	e5d33000 	ldrb	r3, [r3]
800008b8:	e3530000 	cmp	r3, #0
800008bc:	1affffef 	bne	80000880 <strncpy+0x24>
	while (n > 0) {
800008c0:	ea000007 	b	800008e4 <strncpy+0x88>
		*dst++ = '\0';
800008c4:	e51b3010 	ldr	r3, [fp, #-16]
800008c8:	e2832001 	add	r2, r3, #1
800008cc:	e50b2010 	str	r2, [fp, #-16]
800008d0:	e3a02000 	mov	r2, #0
800008d4:	e5c32000 	strb	r2, [r3]
		n--;
800008d8:	e51b3018 	ldr	r3, [fp, #-24]
800008dc:	e2433001 	sub	r3, r3, #1
800008e0:	e50b3018 	str	r3, [fp, #-24]

char *strncpy (char *dst, const char *src, int n)
{
	char *d = dst;
	while ((n-- > 0) && (*dst++ = *src++) );
	while (n > 0) {
800008e4:	e51b3018 	ldr	r3, [fp, #-24]
800008e8:	e3530000 	cmp	r3, #0
800008ec:	cafffff4 	bgt	800008c4 <strncpy+0x68>
		*dst++ = '\0';
		n--;
	}
	return d;
800008f0:	e51b3008 	ldr	r3, [fp, #-8]
}
800008f4:	e1a00003 	mov	r0, r3
800008f8:	e24bd000 	sub	sp, fp, #0
800008fc:	e49db004 	pop	{fp}		; (ldr fp, [sp], #4)
80000900:	e12fff1e 	bx	lr

80000904 <strcat>:
char *strcat (char *dst, const char *src) 
{
80000904:	e92d4800 	push	{fp, lr}
80000908:	e28db004 	add	fp, sp, #4
8000090c:	e24dd010 	sub	sp, sp, #16
80000910:	e50b0010 	str	r0, [fp, #-16]
80000914:	e50b1014 	str	r1, [fp, #-20]
	int i = strlen(dst);
80000918:	e51b0010 	ldr	r0, [fp, #-16]
8000091c:	ebffffa1 	bl	800007a8 <strlen>
80000920:	e50b0008 	str	r0, [fp, #-8]
	while ((*(dst + i++) = (*src++)));
80000924:	e1a00000 	nop			; (mov r0, r0)
80000928:	e51b3008 	ldr	r3, [fp, #-8]
8000092c:	e2832001 	add	r2, r3, #1
80000930:	e50b2008 	str	r2, [fp, #-8]
80000934:	e1a02003 	mov	r2, r3
80000938:	e51b3010 	ldr	r3, [fp, #-16]
8000093c:	e0833002 	add	r3, r3, r2
80000940:	e51b2014 	ldr	r2, [fp, #-20]
80000944:	e2821001 	add	r1, r2, #1
80000948:	e50b1014 	str	r1, [fp, #-20]
8000094c:	e5d22000 	ldrb	r2, [r2]
80000950:	e5c32000 	strb	r2, [r3]
80000954:	e5d33000 	ldrb	r3, [r3]
80000958:	e3530000 	cmp	r3, #0
8000095c:	1afffff1 	bne	80000928 <strcat+0x24>

	return dst;
80000960:	e51b3010 	ldr	r3, [fp, #-16]
}
80000964:	e1a00003 	mov	r0, r3
80000968:	e24bd004 	sub	sp, fp, #4
8000096c:	e8bd8800 	pop	{fp, pc}

80000970 <strncat>:
char *strncat (char *dst, const char *src, int n)
{
80000970:	e92d4800 	push	{fp, lr}
80000974:	e28db004 	add	fp, sp, #4
80000978:	e24dd018 	sub	sp, sp, #24
8000097c:	e50b0010 	str	r0, [fp, #-16]
80000980:	e50b1014 	str	r1, [fp, #-20]
80000984:	e50b2018 	str	r2, [fp, #-24]
	int i = strlen(dst);
80000988:	e51b0010 	ldr	r0, [fp, #-16]
8000098c:	ebffff85 	bl	800007a8 <strlen>
80000990:	e50b0008 	str	r0, [fp, #-8]
	while ((n-- > 0) && (*(dst+i++) = (*src++)));
80000994:	e1a00000 	nop			; (mov r0, r0)
80000998:	e51b3018 	ldr	r3, [fp, #-24]
8000099c:	e2432001 	sub	r2, r3, #1
800009a0:	e50b2018 	str	r2, [fp, #-24]
800009a4:	e3530000 	cmp	r3, #0
800009a8:	da00000d 	ble	800009e4 <strncat+0x74>
800009ac:	e51b3008 	ldr	r3, [fp, #-8]
800009b0:	e2832001 	add	r2, r3, #1
800009b4:	e50b2008 	str	r2, [fp, #-8]
800009b8:	e1a02003 	mov	r2, r3
800009bc:	e51b3010 	ldr	r3, [fp, #-16]
800009c0:	e0833002 	add	r3, r3, r2
800009c4:	e51b2014 	ldr	r2, [fp, #-20]
800009c8:	e2821001 	add	r1, r2, #1
800009cc:	e50b1014 	str	r1, [fp, #-20]
800009d0:	e5d22000 	ldrb	r2, [r2]
800009d4:	e5c32000 	strb	r2, [r3]
800009d8:	e5d33000 	ldrb	r3, [r3]
800009dc:	e3530000 	cmp	r3, #0
800009e0:	1affffec 	bne	80000998 <strncat+0x28>
	while (n > 0) {
800009e4:	ea00000a 	b	80000a14 <strncat+0xa4>
		*(dst + i++) = '\0';
800009e8:	e51b3008 	ldr	r3, [fp, #-8]
800009ec:	e2832001 	add	r2, r3, #1
800009f0:	e50b2008 	str	r2, [fp, #-8]
800009f4:	e1a02003 	mov	r2, r3
800009f8:	e51b3010 	ldr	r3, [fp, #-16]
800009fc:	e0833002 	add	r3, r3, r2
80000a00:	e3a02000 	mov	r2, #0
80000a04:	e5c32000 	strb	r2, [r3]
		n--;
80000a08:	e51b3018 	ldr	r3, [fp, #-24]
80000a0c:	e2433001 	sub	r3, r3, #1
80000a10:	e50b3018 	str	r3, [fp, #-24]
}
char *strncat (char *dst, const char *src, int n)
{
	int i = strlen(dst);
	while ((n-- > 0) && (*(dst+i++) = (*src++)));
	while (n > 0) {
80000a14:	e51b3018 	ldr	r3, [fp, #-24]
80000a18:	e3530000 	cmp	r3, #0
80000a1c:	cafffff1 	bgt	800009e8 <strncat+0x78>
		*(dst + i++) = '\0';
		n--;
	}		
	return dst;
80000a20:	e51b3010 	ldr	r3, [fp, #-16]

}
80000a24:	e1a00003 	mov	r0, r3
80000a28:	e24bd004 	sub	sp, fp, #4
80000a2c:	e8bd8800 	pop	{fp, pc}

80000a30 <strcmp>:

int strcmp (char const* dst, const char *src)
{
80000a30:	e52db004 	push	{fp}		; (str fp, [sp, #-4]!)
80000a34:	e28db000 	add	fp, sp, #0
80000a38:	e24dd00c 	sub	sp, sp, #12
80000a3c:	e50b0008 	str	r0, [fp, #-8]
80000a40:	e50b100c 	str	r1, [fp, #-12]
	while ( *dst && *src) {
80000a44:	ea00000c 	b	80000a7c <strcmp+0x4c>
		if (*dst != *src)
80000a48:	e51b3008 	ldr	r3, [fp, #-8]
80000a4c:	e5d32000 	ldrb	r2, [r3]
80000a50:	e51b300c 	ldr	r3, [fp, #-12]
80000a54:	e5d33000 	ldrb	r3, [r3]
80000a58:	e1520003 	cmp	r2, r3
80000a5c:	0a000000 	beq	80000a64 <strcmp+0x34>
			break;
80000a60:	ea00000d 	b	80000a9c <strcmp+0x6c>
		dst++;
80000a64:	e51b3008 	ldr	r3, [fp, #-8]
80000a68:	e2833001 	add	r3, r3, #1
80000a6c:	e50b3008 	str	r3, [fp, #-8]
		src++;
80000a70:	e51b300c 	ldr	r3, [fp, #-12]
80000a74:	e2833001 	add	r3, r3, #1
80000a78:	e50b300c 	str	r3, [fp, #-12]

}

int strcmp (char const* dst, const char *src)
{
	while ( *dst && *src) {
80000a7c:	e51b3008 	ldr	r3, [fp, #-8]
80000a80:	e5d33000 	ldrb	r3, [r3]
80000a84:	e3530000 	cmp	r3, #0
80000a88:	0a000003 	beq	80000a9c <strcmp+0x6c>
80000a8c:	e51b300c 	ldr	r3, [fp, #-12]
80000a90:	e5d33000 	ldrb	r3, [r3]
80000a94:	e3530000 	cmp	r3, #0
80000a98:	1affffea 	bne	80000a48 <strcmp+0x18>
		if (*dst != *src)
			break;
		dst++;
		src++;
	}
	return (*dst - *src);
80000a9c:	e51b3008 	ldr	r3, [fp, #-8]
80000aa0:	e5d33000 	ldrb	r3, [r3]
80000aa4:	e1a02003 	mov	r2, r3
80000aa8:	e51b300c 	ldr	r3, [fp, #-12]
80000aac:	e5d33000 	ldrb	r3, [r3]
80000ab0:	e0633002 	rsb	r3, r3, r2

}
80000ab4:	e1a00003 	mov	r0, r3
80000ab8:	e24bd000 	sub	sp, fp, #0
80000abc:	e49db004 	pop	{fp}		; (ldr fp, [sp], #4)
80000ac0:	e12fff1e 	bx	lr

80000ac4 <strncmp>:


int strncmp (char const *dst, const char *src, int n)
{  
80000ac4:	e52db004 	push	{fp}		; (str fp, [sp, #-4]!)
80000ac8:	e28db000 	add	fp, sp, #0
80000acc:	e24dd014 	sub	sp, sp, #20
80000ad0:	e50b0008 	str	r0, [fp, #-8]
80000ad4:	e50b100c 	str	r1, [fp, #-12]
80000ad8:	e50b2010 	str	r2, [fp, #-16]

	while ( *dst && *src && n > 0) {
80000adc:	ea00000f 	b	80000b20 <strncmp+0x5c>
		if (*dst != *src)
80000ae0:	e51b3008 	ldr	r3, [fp, #-8]
80000ae4:	e5d32000 	ldrb	r2, [r3]
80000ae8:	e51b300c 	ldr	r3, [fp, #-12]
80000aec:	e5d33000 	ldrb	r3, [r3]
80000af0:	e1520003 	cmp	r2, r3
80000af4:	0a000000 	beq	80000afc <strncmp+0x38>
			break;
80000af8:	ea000013 	b	80000b4c <strncmp+0x88>
		dst++;
80000afc:	e51b3008 	ldr	r3, [fp, #-8]
80000b00:	e2833001 	add	r3, r3, #1
80000b04:	e50b3008 	str	r3, [fp, #-8]
		src++;
80000b08:	e51b300c 	ldr	r3, [fp, #-12]
80000b0c:	e2833001 	add	r3, r3, #1
80000b10:	e50b300c 	str	r3, [fp, #-12]
		n--;
80000b14:	e51b3010 	ldr	r3, [fp, #-16]
80000b18:	e2433001 	sub	r3, r3, #1
80000b1c:	e50b3010 	str	r3, [fp, #-16]


int strncmp (char const *dst, const char *src, int n)
{  

	while ( *dst && *src && n > 0) {
80000b20:	e51b3008 	ldr	r3, [fp, #-8]
80000b24:	e5d33000 	ldrb	r3, [r3]
80000b28:	e3530000 	cmp	r3, #0
80000b2c:	0a000006 	beq	80000b4c <strncmp+0x88>
80000b30:	e51b300c 	ldr	r3, [fp, #-12]
80000b34:	e5d33000 	ldrb	r3, [r3]
80000b38:	e3530000 	cmp	r3, #0
80000b3c:	0a000002 	beq	80000b4c <strncmp+0x88>
80000b40:	e51b3010 	ldr	r3, [fp, #-16]
80000b44:	e3530000 	cmp	r3, #0
80000b48:	caffffe4 	bgt	80000ae0 <strncmp+0x1c>
			break;
		dst++;
		src++;
		n--;
	}
	return (*dst - *src);
80000b4c:	e51b3008 	ldr	r3, [fp, #-8]
80000b50:	e5d33000 	ldrb	r3, [r3]
80000b54:	e1a02003 	mov	r2, r3
80000b58:	e51b300c 	ldr	r3, [fp, #-12]
80000b5c:	e5d33000 	ldrb	r3, [r3]
80000b60:	e0633002 	rsb	r3, r3, r2
}
80000b64:	e1a00003 	mov	r0, r3
80000b68:	e24bd000 	sub	sp, fp, #0
80000b6c:	e49db004 	pop	{fp}		; (ldr fp, [sp], #4)
80000b70:	e12fff1e 	bx	lr

80000b74 <strchr>:
char *strchr (char const *ptr, int c) 
{
80000b74:	e52db004 	push	{fp}		; (str fp, [sp, #-4]!)
80000b78:	e28db000 	add	fp, sp, #0
80000b7c:	e24dd014 	sub	sp, sp, #20
80000b80:	e50b0010 	str	r0, [fp, #-16]
80000b84:	e50b1014 	str	r1, [fp, #-20]
	char s = (char)c;
80000b88:	e51b3014 	ldr	r3, [fp, #-20]
80000b8c:	e54b3005 	strb	r3, [fp, #-5]
	while ( (*ptr != '\0') && (*ptr != s))
80000b90:	ea000002 	b	80000ba0 <strchr+0x2c>
	{
		ptr++;
80000b94:	e51b3010 	ldr	r3, [fp, #-16]
80000b98:	e2833001 	add	r3, r3, #1
80000b9c:	e50b3010 	str	r3, [fp, #-16]
	return (*dst - *src);
}
char *strchr (char const *ptr, int c) 
{
	char s = (char)c;
	while ( (*ptr != '\0') && (*ptr != s))
80000ba0:	e51b3010 	ldr	r3, [fp, #-16]
80000ba4:	e5d33000 	ldrb	r3, [r3]
80000ba8:	e3530000 	cmp	r3, #0
80000bac:	0a000004 	beq	80000bc4 <strchr+0x50>
80000bb0:	e51b3010 	ldr	r3, [fp, #-16]
80000bb4:	e5d33000 	ldrb	r3, [r3]
80000bb8:	e55b2005 	ldrb	r2, [fp, #-5]
80000bbc:	e1520003 	cmp	r2, r3
80000bc0:	1afffff3 	bne	80000b94 <strchr+0x20>
	{
		ptr++;
	}
	return (*ptr == '\0' ? NULL : (char *)ptr);
80000bc4:	e51b3010 	ldr	r3, [fp, #-16]
80000bc8:	e5d33000 	ldrb	r3, [r3]
80000bcc:	e3530000 	cmp	r3, #0
80000bd0:	0a000001 	beq	80000bdc <strchr+0x68>
80000bd4:	e51b3010 	ldr	r3, [fp, #-16]
80000bd8:	ea000000 	b	80000be0 <strchr+0x6c>
80000bdc:	e3a03000 	mov	r3, #0
}
80000be0:	e1a00003 	mov	r0, r3
80000be4:	e24bd000 	sub	sp, fp, #0
80000be8:	e49db004 	pop	{fp}		; (ldr fp, [sp], #4)
80000bec:	e12fff1e 	bx	lr

80000bf0 <strrchr>:
char *strrchr (char const *ptr, int c)
{
80000bf0:	e52db004 	push	{fp}		; (str fp, [sp, #-4]!)
80000bf4:	e28db000 	add	fp, sp, #0
80000bf8:	e24dd014 	sub	sp, sp, #20
80000bfc:	e50b0010 	str	r0, [fp, #-16]
80000c00:	e50b1014 	str	r1, [fp, #-20]
	char *temp = NULL;
80000c04:	e3a03000 	mov	r3, #0
80000c08:	e50b3008 	str	r3, [fp, #-8]
	char s = (char) c;
80000c0c:	e51b3014 	ldr	r3, [fp, #-20]
80000c10:	e54b3009 	strb	r3, [fp, #-9]
	while (*ptr != '\0') {
80000c14:	ea000009 	b	80000c40 <strrchr+0x50>
		if (*ptr == s)
80000c18:	e51b3010 	ldr	r3, [fp, #-16]
80000c1c:	e5d33000 	ldrb	r3, [r3]
80000c20:	e55b2009 	ldrb	r2, [fp, #-9]
80000c24:	e1520003 	cmp	r2, r3
80000c28:	1a000001 	bne	80000c34 <strrchr+0x44>
			temp = (char *)ptr;
80000c2c:	e51b3010 	ldr	r3, [fp, #-16]
80000c30:	e50b3008 	str	r3, [fp, #-8]
		ptr++;
80000c34:	e51b3010 	ldr	r3, [fp, #-16]
80000c38:	e2833001 	add	r3, r3, #1
80000c3c:	e50b3010 	str	r3, [fp, #-16]
}
char *strrchr (char const *ptr, int c)
{
	char *temp = NULL;
	char s = (char) c;
	while (*ptr != '\0') {
80000c40:	e51b3010 	ldr	r3, [fp, #-16]
80000c44:	e5d33000 	ldrb	r3, [r3]
80000c48:	e3530000 	cmp	r3, #0
80000c4c:	1afffff1 	bne	80000c18 <strrchr+0x28>
		if (*ptr == s)
			temp = (char *)ptr;
		ptr++;
	}
	return temp;
80000c50:	e51b3008 	ldr	r3, [fp, #-8]
}
80000c54:	e1a00003 	mov	r0, r3
80000c58:	e24bd000 	sub	sp, fp, #0
80000c5c:	e49db004 	pop	{fp}		; (ldr fp, [sp], #4)
80000c60:	e12fff1e 	bx	lr

Disassembly of section .rodata:

80000c64 <.LC0>:
80000c64:	74726155 	ldrbtvc	r6, [r2], #-341	; 0x155
80000c68:	696e6920 	stmdbvs	lr!, {r5, r8, fp, sp, lr}^
80000c6c:	6f642074 	svcvs	0x00642074
80000c70:	3a20656e 	bcc	8081a230 <value+0x8195a0>
80000c74:	00000020 	andeq	r0, r0, r0, lsr #32

80000c78 <.LC1>:
80000c78:	73206948 			; <UNDEFINED> instruction: 0x73206948
80000c7c:	68736168 	ldmdavs	r3!, {r3, r5, r6, r8, sp, lr}^
80000c80:	00000a69 	andeq	r0, r0, r9, ror #20

80000c84 <.LC2>:
80000c84:	64206948 	strtvs	r6, [r0], #-2376	; 0x948
80000c88:	61626261 	cmnvs	r2, r1, ror #4
80000c8c:	Address 0x0000000080000c8c is out of bounds.


Disassembly of section .bss:

80000c90 <value>:
	...

Disassembly of section .ARM.attributes:

00000000 <.ARM.attributes>:
   0:	00003841 	andeq	r3, r0, r1, asr #16
   4:	61656100 	cmnvs	r5, r0, lsl #2
   8:	01006962 	tsteq	r0, r2, ror #18
   c:	0000002e 	andeq	r0, r0, lr, lsr #32
  10:	726f4305 	rsbvc	r4, pc, #335544320	; 0x14000000
  14:	2d786574 	cfldr64cs	mvdx6, [r8, #-464]!	; 0xfffffe30
  18:	06003841 	streq	r3, [r0], -r1, asr #16
  1c:	0841070a 	stmdaeq	r1, {r1, r3, r8, r9, sl}^
  20:	0a020901 	beq	8242c <_start-0x7ff7dbd4>
  24:	12010c03 	andne	r0, r1, #768	; 0x300
  28:	15011404 	strne	r1, [r1, #-1028]	; 0x404
  2c:	18031701 	stmdane	r3, {r0, r8, r9, sl, ip}
  30:	1c011a01 	stcne	10, cr1, [r1], {1}
  34:	44012201 	strmi	r2, [r1], #-513	; 0x201
  38:	Address 0x0000000000000038 is out of bounds.


Disassembly of section .comment:

00000000 <.comment>:
   0:	3a434347 	bcc	10d0d24 <_start-0x7ef2f2dc>
   4:	4e472820 	cdpmi	8, 4, cr2, cr7, cr0, {1}
   8:	6f542055 	svcvs	0x00542055
   c:	20736c6f 	rsbscs	r6, r3, pc, ror #24
  10:	20726f66 	rsbscs	r6, r2, r6, ror #30
  14:	204d5241 	subcs	r5, sp, r1, asr #4
  18:	65626d45 	strbvs	r6, [r2, #-3397]!	; 0xd45
  1c:	64656464 	strbtvs	r6, [r5], #-1124	; 0x464
  20:	6f725020 	svcvs	0x00725020
  24:	73736563 	cmnvc	r3, #415236096	; 0x18c00000
  28:	2973726f 	ldmdbcs	r3!, {r0, r1, r2, r3, r5, r6, r9, ip, sp, lr}^
  2c:	392e3420 	stmdbcc	lr!, {r5, sl, ip, sp}
  30:	3220332e 	eorcc	r3, r0, #-1207959552	; 0xb8000000
  34:	30353130 	eorscc	r3, r5, r0, lsr r1
  38:	20393235 	eorscs	r3, r9, r5, lsr r2
  3c:	6c657228 	sfmvs	f7, 2, [r5], #-160	; 0xffffff60
  40:	65736165 	ldrbvs	r6, [r3, #-357]!	; 0x165
  44:	415b2029 	cmpmi	fp, r9, lsr #32
  48:	652f4d52 	strvs	r4, [pc, #-3410]!	; fffff2fe <value+0x7fffe66e>
  4c:	6465626d 	strbtvs	r6, [r5], #-621	; 0x26d
  50:	2d646564 	cfstr64cs	mvdx6, [r4, #-400]!	; 0xfffffe70
  54:	2d395f34 	ldccs	15, cr5, [r9, #-208]!	; 0xffffff30
  58:	6e617262 	cdpvs	2, 6, cr7, cr1, cr2, {3}
  5c:	72206863 	eorvc	r6, r0, #6488064	; 0x630000
  60:	73697665 	cmnvc	r9, #105906176	; 0x6500000
  64:	206e6f69 	rsbcs	r6, lr, r9, ror #30
  68:	39373232 	ldmdbcc	r7!, {r1, r4, r5, r9, ip, sp}
  6c:	005d3737 	subseq	r3, sp, r7, lsr r7

Disassembly of section .debug_info:

00000000 <.debug_info>:
       0:	0000007f 	andeq	r0, r0, pc, ror r0
       4:	00000004 	andeq	r0, r0, r4
       8:	01040000 	mrseq	r0, (UNDEF: 4)
       c:	00000082 	andeq	r0, r0, r2, lsl #1
      10:	00002f01 	andeq	r2, r0, r1, lsl #30
      14:	00004400 	andeq	r4, r0, r0, lsl #8
      18:	00003c00 	andeq	r3, r0, r0, lsl #24
      1c:	00006880 	andeq	r6, r0, r0, lsl #17
      20:	00000000 	andeq	r0, r0, r0
      24:	001c0200 	andseq	r0, ip, r0, lsl #4
      28:	04020000 	streq	r0, [r2], #-0
      2c:	00000030 	andeq	r0, r0, r0, lsr r0
      30:	7b070403 	blvc	1c1044 <_start-0x7fe3efbc>
      34:	0300001c 	movweq	r0, #28
      38:	00090702 	andeq	r0, r9, r2, lsl #14
      3c:	01030000 	mrseq	r0, (UNDEF: 3)
      40:	00003608 	andeq	r3, r0, r8, lsl #12
      44:	05040400 	streq	r0, [r4, #-1024]	; 0x400
      48:	00746e69 	rsbseq	r6, r4, r9, ror #28
      4c:	25050203 	strcs	r0, [r5, #-515]	; 0x203
      50:	03000000 	movweq	r0, #0
      54:	003f0801 	eorseq	r0, pc, r1, lsl #16
      58:	00050000 	andeq	r0, r5, r0
      5c:	01000000 	mrseq	r0, (UNDEF: 0)
      60:	00003c03 	andeq	r3, r0, r3, lsl #24
      64:	00006880 	andeq	r6, r0, r0, lsl #17
      68:	7d9c0100 	ldfvcs	f0, [ip]
      6c:	06000000 	streq	r0, [r0], -r0
      70:	01006172 	tsteq	r0, r2, ror r1
      74:	00007d05 	andeq	r7, r0, r5, lsl #26
      78:	74910200 	ldrvc	r0, [r1], #512	; 0x200
      7c:	00300700 	eorseq	r0, r0, r0, lsl #14
      80:	5d000000 	stcpl	0, cr0, [r0, #-0]
      84:	04000004 	streq	r0, [r0], #-4
      88:	00006700 	andeq	r6, r0, r0, lsl #14
      8c:	82010400 	andhi	r0, r1, #0, 8
      90:	01000000 	mrseq	r0, (UNDEF: 0)
      94:	000009ae 	andeq	r0, r0, lr, lsr #19
      98:	00000044 	andeq	r0, r0, r4, asr #32
      9c:	800000a4 	andhi	r0, r0, r4, lsr #1
      a0:	000000ec 	andeq	r0, r0, ip, ror #1
      a4:	00000045 	andeq	r0, r0, r5, asr #32
      a8:	00001c02 	andeq	r1, r0, r2, lsl #24
      ac:	30040200 	andcc	r0, r4, r0, lsl #4
      b0:	03000000 	movweq	r0, #0
      b4:	1c7b0704 	ldclne	7, cr0, [fp], #-16
      b8:	02030000 	andeq	r0, r3, #0
      bc:	00000907 	andeq	r0, r0, r7, lsl #18
      c0:	08010300 	stmdaeq	r1, {r8, r9}
      c4:	00000036 	andeq	r0, r0, r6, lsr r0
      c8:	69050404 	stmdbvs	r5, {r2, sl}
      cc:	0300746e 	movweq	r7, #1134	; 0x46e
      d0:	00250502 	eoreq	r0, r5, r2, lsl #10
      d4:	01030000 	mrseq	r0, (UNDEF: 3)
      d8:	00003f08 	andeq	r3, r0, r8, lsl #30
      dc:	03040500 	movweq	r0, #17664	; 0x4500
      e0:	0000b30b 	andeq	fp, r0, fp, lsl #6
      e4:	06790600 	ldrbteq	r0, [r9], -r0, lsl #12
      e8:	80800000 	addhi	r0, r0, r0
      ec:	0604a780 	streq	sl, [r4], -r0, lsl #15
      f0:	000006ef 	andeq	r0, r0, pc, ror #13
      f4:	a7808880 	strge	r8, [r0, r0, lsl #17]
      f8:	07c50604 	strbeq	r0, [r5, r4, lsl #12]
      fc:	8a800000 	bhi	fe000104 <value+0x7dfff474>
     100:	0604a780 	streq	sl, [r4], -r0, lsl #15
     104:	000008d7 	ldrdeq	r0, [r0], -r7
     108:	a7808c80 	strge	r8, [r0, r0, lsl #25]
     10c:	08cd0604 	stmiaeq	sp, {r2, r9, sl}^
     110:	8e800000 	cdphi	0, 8, cr0, cr0, cr0, {0}
     114:	0604a780 	streq	sl, [r4], -r0, lsl #15
     118:	000002e6 	andeq	r0, r0, r6, ror #5
     11c:	a7809080 	strge	r9, [r0, r0, lsl #1]
     120:	09270604 	stmdbeq	r7!, {r2, r9, sl}
     124:	92800000 	addls	r0, r0, #0
     128:	0604a780 	streq	sl, [r4], -r0, lsl #15
     12c:	000006c7 	andeq	r0, r0, r7, asr #13
     130:	a7809480 	strge	r9, [r0, r0, lsl #9]
     134:	3c020004 	stccc	0, cr0, [r2], {4}
     138:	0300000b 	movweq	r0, #11
     13c:	00005a14 	andeq	r5, r0, r4, lsl sl
     140:	03020500 	movweq	r0, #9472	; 0x2500
     144:	0003ce1c 	andeq	ip, r3, ip, lsl lr
     148:	07e20600 	strbeq	r0, [r2, r0, lsl #12]!
     14c:	06000000 	streq	r0, [r0], -r0
     150:	0000061f 	andeq	r0, r0, pc, lsl r6
     154:	01990604 	orrseq	r0, r9, r4, lsl #12
     158:	06080000 	streq	r0, [r8], -r0
     15c:	00000105 	andeq	r0, r0, r5, lsl #2
     160:	0532060c 	ldreq	r0, [r2, #-1548]!	; 0x60c
     164:	06140000 	ldreq	r0, [r4], -r0
     168:	00000891 	muleq	r0, r1, r8
     16c:	069b0618 			; <UNDEFINED> instruction: 0x069b0618
     170:	061c0000 	ldreq	r0, [ip], -r0
     174:	00000184 	andeq	r0, r0, r4, lsl #3
     178:	078a0624 	streq	r0, [sl, r4, lsr #12]
     17c:	06280000 	strteq	r0, [r8], -r0
     180:	0000087a 	andeq	r0, r0, sl, ror r8
     184:	09f2062c 	ldmibeq	r2!, {r2, r3, r5, r9, sl}^
     188:	06300000 	ldrteq	r0, [r0], -r0
     18c:	00000119 	andeq	r0, r0, r9, lsl r1
     190:	01d90634 	bicseq	r0, r9, r4, lsr r6
     194:	06380000 	ldrteq	r0, [r8], -r0
     198:	000002ed 	andeq	r0, r0, sp, ror #5
     19c:	079e063c 			; <UNDEFINED> instruction: 0x079e063c
     1a0:	00c00000 	sbceq	r0, r0, r0
     1a4:	00039a06 	andeq	r9, r3, r6, lsl #20
     1a8:	0600c400 	streq	ip, [r0], -r0, lsl #8
     1ac:	00000315 	andeq	r0, r0, r5, lsl r3
     1b0:	2f0600c8 	svccs	0x000600c8
     1b4:	cc000001 	stcgt	0, cr0, [r0], {1}
     1b8:	04b40600 	ldrteq	r0, [r4], #1536	; 0x600
     1bc:	00d00000 	sbcseq	r0, r0, r0
     1c0:	00060b06 	andeq	r0, r6, r6, lsl #22
     1c4:	0600e000 	streq	lr, [r0], -r0
     1c8:	000002d2 	ldrdeq	r0, [r0], -r2
     1cc:	6e0600e4 	cdpvs	0, 0, cr0, cr6, cr4, {7}
     1d0:	e8000001 	stmda	r0, {r0}
     1d4:	0a670600 	beq	19c19dc <_start-0x7e63e624>
     1d8:	00ec0000 	rsceq	r0, ip, r0
     1dc:	000b1006 	andeq	r1, fp, r6
     1e0:	0600f000 	streq	pc, [r0], -r0
     1e4:	000003ae 	andeq	r0, r0, lr, lsr #7
     1e8:	590600f4 	stmdbpl	r6, {r2, r4, r5, r6, r7}
     1ec:	f8000001 			; <UNDEFINED> instruction: 0xf8000001
     1f0:	05650600 	strbeq	r0, [r5, #-1536]!	; 0x600
     1f4:	00fc0000 	rscseq	r0, ip, r0
     1f8:	00035506 	andeq	r5, r3, r6, lsl #10
     1fc:	06018000 	streq	r8, [r1], -r0
     200:	000003c3 	andeq	r0, r0, r3, asr #7
     204:	47060184 	strmi	r0, [r6, -r4, lsl #3]
     208:	88000004 	stmdahi	r0, {r2}
     20c:	074a0601 	strbeq	r0, [sl, -r1, lsl #12]
     210:	01ac0000 			; <UNDEFINED> instruction: 0x01ac0000
     214:	00077506 	andeq	r7, r7, r6, lsl #10
     218:	0601b000 	streq	fp, [r1], -r0
     21c:	000007cd 	andeq	r0, r0, sp, asr #15
     220:	670601b4 			; <UNDEFINED> instruction: 0x670601b4
     224:	bc000002 	stclt	0, cr0, [r0], {2}
     228:	02bd0601 	adcseq	r0, sp, #1048576	; 0x100000
     22c:	01c00000 	biceq	r0, r0, r0
     230:	0004da06 	andeq	sp, r4, r6, lsl #20
     234:	0601c400 	streq	ip, [r1], -r0, lsl #8
     238:	00000ae1 	andeq	r0, r0, r1, ror #21
     23c:	840601cc 	strhi	r0, [r6], #-460	; 0x1cc
     240:	d0000009 	andle	r0, r0, r9
     244:	04ef0601 	strbteq	r0, [pc], #1537	; 24c <_start-0x7ffffdb4>
     248:	01d40000 	bicseq	r0, r4, r0
     24c:	0005c806 	andeq	ip, r5, r6, lsl #16
     250:	0601d800 	streq	sp, [r1], -r0, lsl #16
     254:	00000af8 	strdeq	r0, [r0], -r8
     258:	c80601dc 	stmdagt	r6, {r2, r3, r4, r6, r7, r8}
     25c:	e0000004 	and	r0, r0, r4
     260:	033d0601 	teqeq	sp, #1048576	; 0x100000
     264:	01e40000 	mvneq	r0, r0
     268:	00071e06 	andeq	r1, r7, r6, lsl #28
     26c:	0601e800 	streq	lr, [r1], -r0, lsl #16
     270:	0000049e 	muleq	r0, lr, r4
     274:	060601ec 	streq	r0, [r6], -ip, ror #3
     278:	f0000005 			; <UNDEFINED> instruction: 0xf0000005
     27c:	036b0601 	cmneq	fp, #1048576	; 0x100000
     280:	01f40000 	mvnseq	r0, r0
     284:	0003d906 	andeq	sp, r3, r6, lsl #18
     288:	0601f800 	streq	pc, [r1], -r0, lsl #16
     28c:	000007f8 	strdeq	r0, [r0], -r8
     290:	650601fc 	strvs	r0, [r6, #-508]	; 0x1fc
     294:	80000008 	andhi	r0, r0, r8
     298:	03ed0602 	mvneq	r0, #2097152	; 0x200000
     29c:	028c0000 	addeq	r0, ip, #0
     2a0:	0006af06 	andeq	sl, r6, r6, lsl #30
     2a4:	06029000 	streq	r9, [r2], -r0
     2a8:	00000143 	andeq	r0, r0, r3, asr #2
     2ac:	5b06029c 	blpl	180d24 <_start-0x7fe7f2dc>
     2b0:	a0000009 	andge	r0, r0, r9
     2b4:	0a060602 	beq	181ac4 <_start-0x7fe7e53c>
     2b8:	02ac0000 	adceq	r0, ip, #0
     2bc:	00059606 	andeq	r9, r5, r6, lsl #12
     2c0:	0602b000 	streq	fp, [r2], -r0
     2c4:	00000a4d 	andeq	r0, r0, sp, asr #20
     2c8:	de0602c0 	cdple	2, 0, cr0, cr6, cr0, {6}
     2cc:	c4000008 	strgt	r0, [r0], #-8
     2d0:	0a370602 	beq	dc1ae0 <_start-0x7f23e520>
     2d4:	02c80000 	sbceq	r0, r8, #0
     2d8:	00027b06 	andeq	r7, r2, r6, lsl #22
     2dc:	0602cc00 	streq	ip, [r2], -r0, lsl #24
     2e0:	00000680 	andeq	r0, r0, r0, lsl #13
     2e4:	b60602d0 			; <UNDEFINED> instruction: 0xb60602d0
     2e8:	00000009 	andeq	r0, r0, r9
     2ec:	00047106 	andeq	r7, r4, r6, lsl #2
     2f0:	1c060400 	cfstrsne	mvf0, [r6], {-0}
     2f4:	08000005 	stmdaeq	r0, {r0, r2}
     2f8:	000b2506 	andeq	r2, fp, r6, lsl #10
     2fc:	db060c00 	blle	183304 <_start-0x7fe7ccfc>
     300:	10000009 	andne	r0, r0, r9
     304:	00090f06 	andeq	r0, r9, r6, lsl #30
     308:	22061400 	andcs	r1, r6, #0, 8
     30c:	18000008 	stmdane	r0, {r3}
     310:	00096f06 	andeq	r6, r9, r6, lsl #30
     314:	a5061c00 	strge	r1, [r6, #-3072]	; 0xc00
     318:	20000008 	andcs	r0, r0, r8
     31c:	00057b06 	andeq	r7, r5, r6, lsl #22
     320:	7f062400 	svcvc	0x00062400
     324:	28000003 	stmdacs	r0, {r0, r1}
     328:	00099b06 	andeq	r9, r9, r6, lsl #22
     32c:	0d062c00 	stceq	12, cr2, [r6, #-0]
     330:	30000008 	andcc	r0, r0, r8
     334:	00020a06 	andeq	r0, r2, r6, lsl #20
     338:	f4063400 	vst3.8	{d3-d5}, [r6], r0
     33c:	38000008 	stmdacc	r0, {r3}
     340:	0001af06 	andeq	sl, r1, r6, lsl #30
     344:	36063c00 	strcc	r3, [r6], -r0, lsl #24
     348:	c0000008 	andgt	r0, r0, r8
     34c:	0a7c0600 	beq	1f01b54 <_start-0x7e0fe4ac>
     350:	00c40000 	sbceq	r0, r4, r0
     354:	00045d06 	andeq	r5, r4, r6, lsl #26
     358:	0600c800 	streq	ip, [r0], -r0, lsl #16
     35c:	000001ee 	andeq	r0, r0, lr, ror #3
     360:	c50600cc 	strgt	r0, [r6, #-204]	; 0xcc
     364:	d000000a 	andle	r0, r0, sl
     368:	06650600 	strbteq	r0, [r5], -r0, lsl #12
     36c:	00d40000 	sbcseq	r0, r4, r0
     370:	00029406 	andeq	r9, r2, r6, lsl #8
     374:	0600d800 	streq	sp, [r0], -r0, lsl #16
     378:	000006f7 	strdeq	r0, [r0], -r7
     37c:	490600dc 	stmdbmi	r6, {r2, r3, r4, r6, r7}
     380:	e0000005 	and	r0, r0, r5
     384:	08490600 	stmdaeq	r9, {r9, sl}^
     388:	00e40000 	rsceq	r0, r4, r0
     38c:	00030106 	andeq	r0, r3, r6, lsl #2
     390:	0600e800 	streq	lr, [r0], -r0, lsl #16
     394:	0000021d 	andeq	r0, r0, sp, lsl r2
     398:	0b0600ec 	bleq	180750 <_start-0x7fe7f8b0>
     39c:	f0000007 			; <UNDEFINED> instruction: 0xf0000007
     3a0:	02460600 	subeq	r0, r6, #0, 12
     3a4:	00f40000 	rscseq	r0, r4, r0
     3a8:	000a9206 	andeq	r9, sl, r6, lsl #4
     3ac:	0600f800 	streq	pc, [r0], -r0, lsl #16
     3b0:	0000075f 	andeq	r0, r0, pc, asr r7
     3b4:	290600fc 	stmdbcs	r6, {r2, r3, r4, r5, r6, r7}
     3b8:	80000003 	andhi	r0, r0, r3
     3bc:	02320601 	eorseq	r0, r2, #1048576	; 0x100000
     3c0:	01840000 	orreq	r0, r4, r0
     3c4:	0007b106 	andeq	fp, r7, r6, lsl #2
     3c8:	06018800 	streq	r8, [r1], -r0, lsl #16
     3cc:	00000736 	andeq	r0, r0, r6, lsr r7
     3d0:	2806018c 	stmdacs	r6, {r2, r3, r7, r8}
     3d4:	90000004 	andls	r0, r0, r4
     3d8:	06340601 	ldrteq	r0, [r4], -r1, lsl #12
     3dc:	01940000 	orrseq	r0, r4, r0
     3e0:	0008b806 	andeq	fp, r8, r6, lsl #16
     3e4:	06019800 	streq	r9, [r1], -r0, lsl #16
     3e8:	000005f5 	strdeq	r0, [r0], -r5
     3ec:	5e06019c 	mcrpl	1, 0, r0, cr6, cr12, {4}
     3f0:	a000000b 	andge	r0, r0, fp
     3f4:	09470601 	stmdbeq	r7, {r0, r9, sl}^
     3f8:	01a40000 			; <UNDEFINED> instruction: 0x01a40000
     3fc:	0002aa06 	andeq	sl, r2, r6, lsl #20
     400:	0601a800 	streq	sl, [r1], -r0, lsl #16
     404:	000009c8 	andeq	r0, r0, r8, asr #19
     408:	100601ac 	andne	r0, r6, ip, lsr #3
     40c:	b0000004 	andlt	r0, r0, r4
     410:	05df0601 	ldrbeq	r0, [pc, #1537]	; a19 <_start-0x7ffff5e7>
     414:	01b40000 			; <UNDEFINED> instruction: 0x01b40000
     418:	000b4906 	andeq	r4, fp, r6, lsl #18
     41c:	0601b800 	streq	fp, [r1], -r0, lsl #16
     420:	00000aad 	andeq	r0, r0, sp, lsr #21
     424:	ab0601bc 	blge	180b1c <_start-0x7fe7f4e4>
     428:	c0000005 	andgt	r0, r0, r5
     42c:	0a200601 	beq	801c38 <_start-0x7f7fe3c8>
     430:	01c40000 	biceq	r0, r4, r0
     434:	00064806 	andeq	r4, r6, r6, lsl #16
     438:	0601c800 	streq	ip, [r1], -r0, lsl #16
     43c:	0000092e 	andeq	r0, r0, lr, lsr #18
     440:	890601cc 	stmdbhi	r6, {r2, r3, r6, r7, r8}
     444:	d4000004 	strle	r0, [r0], #-4
     448:	06db0601 	ldrbeq	r0, [fp], r1, lsl #12
     44c:	01d80000 	bicseq	r0, r8, r0
     450:	04050200 	streq	r0, [r5], #-512	; 0x200
     454:	93030000 	movwls	r0, #12288	; 0x3000
     458:	000000be 	strheq	r0, [r0], -lr
     45c:	00043d07 	andeq	r3, r4, r7, lsl #26
     460:	a4030100 	strge	r0, [r3], #-256	; 0x100
     464:	40800000 	addmi	r0, r0, r0
     468:	01000000 	mrseq	r0, (UNDEF: 0)
     46c:	0004199c 	muleq	r4, ip, r9
     470:	17f10800 	ldrbne	r0, [r1, r0, lsl #16]!
     474:	03010000 	movweq	r0, #4096	; 0x1000
     478:	000000b3 	strheq	r0, [r0], -r3
     47c:	09749102 	ldmdbeq	r4!, {r1, r8, ip, pc}^
     480:	00676572 	rsbeq	r6, r7, r2, ror r5
     484:	03ce0301 	biceq	r0, lr, #67108864	; 0x4000000
     488:	91020000 	mrsls	r0, (UNDEF: 2)
     48c:	02610872 	rsbeq	r0, r1, #7471104	; 0x720000
     490:	03010000 	movweq	r0, #4096	; 0x1000
     494:	00000030 	andeq	r0, r0, r0, lsr r0
     498:	006c9102 	rsbeq	r9, ip, r2, lsl #2
     49c:	0006d10a 	andeq	sp, r6, sl, lsl #2
     4a0:	30080100 	andcc	r0, r8, r0, lsl #2
     4a4:	e4000000 	str	r0, [r0], #-0
     4a8:	38800000 	stmcc	r0, {}	; <UNPREDICTABLE>
     4ac:	01000000 	mrseq	r0, (UNDEF: 0)
     4b0:	00044f9c 	muleq	r4, ip, pc	; <UNPREDICTABLE>
     4b4:	17f10800 	ldrbne	r0, [r1, r0, lsl #16]!
     4b8:	08010000 	stmdaeq	r1, {}	; <UNPREDICTABLE>
     4bc:	000000b3 	strheq	r0, [r0], -r3
     4c0:	09749102 	ldmdbeq	r4!, {r1, r8, ip, pc}^
     4c4:	00676572 	rsbeq	r6, r7, r2, ror r5
     4c8:	03ce0801 	biceq	r0, lr, #65536	; 0x10000
     4cc:	91020000 	mrsls	r0, (UNDEF: 2)
     4d0:	ca0b0072 	bgt	2c06a0 <_start-0x7fd3f960>
     4d4:	01000001 	tsteq	r0, r1
     4d8:	00011c2f 	andeq	r1, r1, pc, lsr #24
     4dc:	00007480 	andeq	r7, r0, r0, lsl #9
     4e0:	009c0100 	addseq	r0, ip, r0, lsl #2
     4e4:	00000702 	andeq	r0, r0, r2, lsl #14
     4e8:	011e0004 	tsteq	lr, r4
     4ec:	01040000 	mrseq	r0, (UNDEF: 4)
     4f0:	00000082 	andeq	r0, r0, r2, lsl #1
     4f4:	000c1101 	andeq	r1, ip, r1, lsl #2
     4f8:	00004400 	andeq	r4, r0, r0, lsl #8
     4fc:	00019000 	andeq	r9, r1, r0
     500:	0000ec80 	andeq	lr, r0, r0, lsl #25
     504:	00009c00 	andeq	r9, r0, r0, lsl #24
     508:	001c0200 	andseq	r0, ip, r0, lsl #4
     50c:	04020000 	streq	r0, [r2], #-0
     510:	00000030 	andeq	r0, r0, r0, lsr r0
     514:	7b070403 	blvc	1c1528 <_start-0x7fe3ead8>
     518:	0300001c 	movweq	r0, #28
     51c:	00090702 	andeq	r0, r9, r2, lsl #14
     520:	01030000 	mrseq	r0, (UNDEF: 3)
     524:	00003608 	andeq	r3, r0, r8, lsl #12
     528:	05040400 	streq	r0, [r4, #-1024]	; 0x400
     52c:	00746e69 	rsbseq	r6, r4, r9, ror #28
     530:	25050203 	strcs	r0, [r5, #-515]	; 0x203
     534:	03000000 	movweq	r0, #0
     538:	003f0801 	eorseq	r0, pc, r1, lsl #16
     53c:	02050000 	andeq	r0, r5, #0
     540:	064f0903 	strbeq	r0, [pc], -r3, lsl #18
     544:	e6060000 	str	r0, [r6], -r0
     548:	00000017 	andeq	r0, r0, r7, lsl r0
     54c:	0013c906 	andseq	ip, r3, r6, lsl #18
     550:	2a060400 	bcs	181558 <_start-0x7fe7eaa8>
     554:	10000019 	andne	r0, r0, r9, lsl r0
     558:	001ad406 	andseq	sp, sl, r6, lsl #8
     55c:	0600c000 	streq	ip, [r0], -r0
     560:	00001b4f 	andeq	r1, r0, pc, asr #22
     564:	f2060290 	vqsub.s8	d0, d22, d0
     568:	9c000011 	stcls	0, cr0, [r0], {17}
     56c:	1b1c0608 	blne	701d94 <_start-0x7f8fe26c>
     570:	08a80000 	stmiaeq	r8!, {}	; <UNPREDICTABLE>
     574:	000ffa06 	andeq	pc, pc, r6, lsl #20
     578:	0608ac00 	streq	sl, [r8], -r0, lsl #24
     57c:	00001781 	andeq	r1, r0, r1, lsl #15
     580:	aa0608c4 	bge	182898 <_start-0x7fe7d768>
     584:	c800000d 	stmdagt	r0, {r0, r2, r3}
     588:	127c0608 	rsbsne	r0, ip, #8, 12	; 0x800000
     58c:	08cc0000 	stmiaeq	ip, {}^	; <UNPREDICTABLE>
     590:	001a3606 	andseq	r3, sl, r6, lsl #12
     594:	0608d800 	streq	sp, [r8], -r0, lsl #16
     598:	00001599 	muleq	r0, r9, r5
     59c:	f40608e8 	vst2.<illegal width 64>	{d0-d1}, [r6 :128], r8
     5a0:	f0000010 			; <UNDEFINED> instruction: 0xf0000010
     5a4:	0fb10608 	svceq	0x00b10608
     5a8:	0a8c0000 	beq	fe3005b0 <value+0x7e2ff920>
     5ac:	0017fd06 	andseq	pc, r7, r6, lsl #26
     5b0:	060c8000 	streq	r8, [ip], -r0
     5b4:	000017d7 	ldrdeq	r1, [r0], -r7
     5b8:	c7060c84 	strgt	r0, [r6, -r4, lsl #25]
     5bc:	8800000f 	stmdahi	r0, {r0, r1, r2, r3}
     5c0:	180a060c 	stmdane	sl, {r2, r3, r9, sl}
     5c4:	0c8c0000 	stceq	0, cr0, [ip], {0}
     5c8:	0019f206 	andseq	pc, r9, r6, lsl #4
     5cc:	060c9000 	streq	r9, [ip], -r0
     5d0:	000012b3 			; <UNDEFINED> instruction: 0x000012b3
     5d4:	83060c94 	movwhi	r0, #27796	; 0x6c94
     5d8:	a0000019 	andge	r0, r0, r9, lsl r0
     5dc:	181d060c 	ldmdane	sp, {r2, r3, r9, sl}
     5e0:	0ca40000 	stceq	0, cr0, [r4]
     5e4:	00199006 	andseq	r9, r9, r6
     5e8:	060ca800 	streq	sl, [ip], -r0, lsl #16
     5ec:	00001829 	andeq	r1, r0, r9, lsr #16
     5f0:	a7060cac 	strge	r0, [r6, -ip, lsr #25]
     5f4:	b0000013 	andlt	r0, r0, r3, lsl r0
     5f8:	1b41060c 	blne	1041e30 <_start-0x7efbe1d0>
     5fc:	0cb40000 	ldceq	0, cr0, [r4]
     600:	00124706 	andseq	r4, r2, r6, lsl #14
     604:	060cb800 	streq	fp, [ip], -r0, lsl #16
     608:	000012e6 	andeq	r1, r0, r6, ror #5
     60c:	86060cbc 			; <UNDEFINED> instruction: 0x86060cbc
     610:	c4000016 	strgt	r0, [r0], #-22
     614:	19bd060c 	ldmibne	sp!, {r2, r3, r9, sl}
     618:	0cc80000 	stcleq	0, cr0, [r8], {0}
     61c:	00176006 	andseq	r6, r7, r6
     620:	060cd000 	streq	sp, [ip], -r0
     624:	00000c4e 	andeq	r0, r0, lr, asr #24
     628:	06060ce4 	streq	r0, [r6], -r4, ror #25
     62c:	f000000e 			; <UNDEFINED> instruction: 0xf000000e
     630:	14ac060c 	strtne	r0, [ip], #1548	; 0x60c
     634:	0cf40000 	ldcleq	0, cr0, [r4]
     638:	0010a006 	andseq	sl, r0, r6
     63c:	060d9000 	streq	r9, [sp], -r0
     640:	000010b5 	strheq	r1, [r0], -r5
     644:	ca060d94 	bgt	183c9c <_start-0x7fe7c364>
     648:	98000010 	stmdals	r0, {r4}
     64c:	10df060d 	sbcsne	r0, pc, sp, lsl #12
     650:	0d9c0000 	ldceq	0, cr0, [ip]
     654:	000f3b06 	andeq	r3, pc, r6, lsl #22
     658:	060da000 	streq	sl, [sp], -r0
     65c:	00001332 	andeq	r1, r0, r2, lsr r3
     660:	92060da4 	andls	r0, r6, #164, 26	; 0x2900
     664:	a8000013 	stmdage	r0, {r0, r1, r4}
     668:	1208060d 	andne	r0, r8, #13631488	; 0xd00000
     66c:	0ef00000 	cdpeq	0, 15, cr0, cr0, cr0, {0}
     670:	00140806 	andseq	r0, r4, r6, lsl #16
     674:	060ef400 	streq	pc, [lr], -r0, lsl #8
     678:	00001848 	andeq	r1, r0, r8, asr #16
     67c:	e2060ef8 	and	r0, r6, #248, 28	; 0xf80
     680:	fc000015 	stc2	0, cr0, [r0], {21}
     684:	1268060e 	rsbne	r0, r8, #14680064	; 0xe00000
     688:	0fb80000 	svceq	0x00b80000
     68c:	00148406 	andseq	r8, r4, r6, lsl #8
     690:	060fbc00 	streq	fp, [pc], -r0, lsl #24
     694:	00000e6a 	andeq	r0, r0, sl, ror #28
     698:	9d060fd0 	stcls	15, cr0, [r6, #-832]	; 0xfffffcc0
     69c:	f4000019 	vst4.8	{d0-d3}, [r0 :64], r9
     6a0:	0c6d060f 	stcleq	6, cr0, [sp], #-60	; 0xffffffc4
     6a4:	0ffc0000 	svceq	0x00fc0000
     6a8:	000cc306 	andeq	ip, ip, r6, lsl #6
     6ac:	06108000 	ldreq	r8, [r0], -r0
     6b0:	00000cd4 	ldrdeq	r0, [r0], -r4
     6b4:	e5061084 	str	r1, [r6, #-132]	; 0x84
     6b8:	8800000c 	stmdahi	r0, {r2, r3}
     6bc:	0cf60610 	ldcleq	6, cr0, [r6], #64	; 0x40
     6c0:	108c0000 	addne	r0, ip, r0
     6c4:	000d0706 	andeq	r0, sp, r6, lsl #14
     6c8:	06109000 	ldreq	r9, [r0], -r0
     6cc:	00000d18 	andeq	r0, r0, r8, lsl sp
     6d0:	29061094 	stmdbcs	r6, {r2, r4, r7, ip}
     6d4:	9800000d 	stmdals	r0, {r0, r2, r3}
     6d8:	0d3a0610 	ldceq	6, cr0, [sl, #-64]!	; 0xffffffc0
     6dc:	109c0000 	addsne	r0, ip, r0
     6e0:	000d4b06 	andeq	r4, sp, r6, lsl #22
     6e4:	0610a000 	ldreq	sl, [r0], -r0
     6e8:	00000d5c 	andeq	r0, r0, ip, asr sp
     6ec:	b00610a4 	andlt	r1, r6, r4, lsr #1
     6f0:	a800001a 	stmdage	r0, {r1, r3, r4}
     6f4:	1ac20610 	bne	ff081f3c <value+0x7f0812ac>
     6f8:	10ac0000 	adcne	r0, ip, r0
     6fc:	001a7306 	andseq	r7, sl, r6, lsl #6
     700:	0610b000 	ldreq	fp, [r0], -r0
     704:	00001ae6 	andeq	r1, r0, r6, ror #21
     708:	f80610b4 			; <UNDEFINED> instruction: 0xf80610b4
     70c:	b800001a 	stmdalt	r0, {r1, r3, r4}
     710:	1b0a0610 	blne	281f58 <_start-0x7fd7e0a8>
     714:	10bc0000 	adcsne	r0, ip, r0
     718:	000b7106 	andeq	r7, fp, r6, lsl #2
     71c:	0610c000 	ldreq	ip, [r0], -r0
     720:	00000b81 	andeq	r0, r0, r1, lsl #23
     724:	910610c4 	smlabtls	r6, r4, r0, r1
     728:	c800000b 	stmdagt	r0, {r0, r1, r3}
     72c:	0ba10610 	bleq	fe841f74 <value+0x7e8412e4>
     730:	10cc0000 	sbcne	r0, ip, r0
     734:	000bb106 	andeq	fp, fp, r6, lsl #2
     738:	0610d000 	ldreq	sp, [r0], -r0
     73c:	00000bc1 	andeq	r0, r0, r1, asr #23
     740:	d10610d4 	ldrdle	r1, [r6, -r4]
     744:	d800000b 	stmdale	r0, {r0, r1, r3}
     748:	0be10610 	bleq	ff841f90 <value+0x7f841300>
     74c:	10dc0000 	sbcsne	r0, ip, r0
     750:	000bf106 	andeq	pc, fp, r6, lsl #2
     754:	0610e000 	ldreq	lr, [r0], -r0
     758:	00000c01 	andeq	r0, r0, r1, lsl #24
     75c:	b70610e4 	strlt	r1, [r6, -r4, ror #1]
     760:	e8000011 	stmda	r0, {r0, r4}
     764:	11c80610 	bicne	r0, r8, r0, lsl r6
     768:	10ec0000 	rscne	r0, ip, r0
     76c:	000cb006 	andeq	fp, ip, r6
     770:	0610f000 	ldreq	pc, [r0], -r0
     774:	00001106 	andeq	r1, r0, r6, lsl #2
     778:	080610f4 	stmdaeq	r6, {r2, r4, r5, r6, r7, ip}
     77c:	f8000017 			; <UNDEFINED> instruction: 0xf8000017
     780:	11a50610 			; <UNDEFINED> instruction: 0x11a50610
     784:	10fc0000 	rscsne	r0, ip, r0
     788:	000c7a06 	andeq	r7, ip, r6, lsl #20
     78c:	06118000 	ldreq	r8, [r1], -r0
     790:	00000c8c 	andeq	r0, r0, ip, lsl #25
     794:	9e061184 	adflsd	f1, f6, f4
     798:	8800000c 	stmdahi	r0, {r2, r3}
     79c:	16750611 			; <UNDEFINED> instruction: 0x16750611
     7a0:	118c0000 	orrne	r0, ip, r0
     7a4:	000f8606 	andeq	r8, pc, r6, lsl #12
     7a8:	06119000 	ldreq	r9, [r1], -r0
     7ac:	000016ab 	andeq	r1, r0, fp, lsr #13
     7b0:	94061194 	strls	r1, [r6], #-404	; 0x194
     7b4:	98000011 	stmdals	r0, {r0, r4}
     7b8:	135a0611 	cmpne	sl, #17825792	; 0x1100000
     7bc:	119c0000 	orrsne	r0, ip, r0
     7c0:	000eab06 	andeq	sl, lr, r6, lsl #22
     7c4:	0611a000 	ldreq	sl, [r1], -r0
     7c8:	00000ebd 			; <UNDEFINED> instruction: 0x00000ebd
     7cc:	cf0611a4 	svcgt	0x000611a4
     7d0:	a800000e 	stmdage	r0, {r1, r2, r3}
     7d4:	0ee10611 	mcreq	6, 7, r0, cr1, cr1, {0}
     7d8:	11ac0000 			; <UNDEFINED> instruction: 0x11ac0000
     7dc:	000ef306 	andeq	pc, lr, r6, lsl #6
     7e0:	0611b000 	ldreq	fp, [r1], -r0
     7e4:	00000f05 	andeq	r0, r0, r5, lsl #30
     7e8:	170611b4 			; <UNDEFINED> instruction: 0x170611b4
     7ec:	b800000f 	stmdalt	r0, {r0, r1, r2, r3}
     7f0:	0f290611 	svceq	0x00290611
     7f4:	11bc0000 			; <UNDEFINED> instruction: 0x11bc0000
     7f8:	00193f06 	andseq	r3, r9, r6, lsl #30
     7fc:	0611c000 	ldreq	ip, [r1], -r0
     800:	00000f48 	andeq	r0, r0, r8, asr #30
     804:	ba0611c4 	blt	184f1c <_start-0x7fe7b0e4>
     808:	c800000d 	stmdagt	r0, {r0, r2, r3}
     80c:	0dcd0611 	stcleq	6, cr0, [sp, #68]	; 0x44
     810:	11cc0000 	bicne	r0, ip, r0
     814:	000de006 	andeq	lr, sp, r6
     818:	0611d000 	ldreq	sp, [r1], -r0
     81c:	00000df3 	strdeq	r0, [r0], -r3
     820:	350611d4 	strcc	r1, [r6, #-468]	; 0x1d4
     824:	d8000018 	stmdale	r0, {r3, r4}
     828:	0e140611 	mrceq	6, 0, r0, cr4, cr1, {0}
     82c:	11dc0000 	bicsne	r0, ip, r0
     830:	001b6c06 	andseq	r6, fp, r6, lsl #24
     834:	0611e000 	ldreq	lr, [r1], -r0
     838:	00001587 	andeq	r1, r0, r7, lsl #11
     83c:	3a0611e4 	bcc	184fd4 <_start-0x7fe7b02c>
     840:	e8000010 	stmda	r0, {r4}
     844:	13db0611 	bicsne	r0, fp, #17825792	; 0x1100000
     848:	11ec0000 	mvnne	r0, r0
     84c:	00153f06 	andseq	r3, r5, r6, lsl #30
     850:	0611f000 	ldreq	pc, [r1], -r0
     854:	0000152d 	andeq	r1, r0, sp, lsr #10
     858:	8e0611f4 	mcrhi	1, 0, r1, cr6, cr4, {7}
     85c:	f8000010 			; <UNDEFINED> instruction: 0xf8000010
     860:	107c0611 	rsbsne	r0, ip, r1, lsl r6
     864:	11fc0000 	mvnsne	r0, r0
     868:	00115106 	andseq	r5, r1, r6, lsl #2
     86c:	06128000 	ldreq	r8, [r2], -r0
     870:	000012bf 			; <UNDEFINED> instruction: 0x000012bf
     874:	a6061284 	strge	r1, [r6], -r4, lsl #5
     878:	88000015 	stmdahi	r0, {r0, r2, r4}
     87c:	0c220612 	stceq	6, cr0, [r2], #-72	; 0xffffffb8
     880:	128c0000 	addne	r0, ip, #0
     884:	00151a06 	andseq	r1, r5, r6, lsl #20
     888:	06129000 	ldreq	r9, [r2], -r0
     88c:	00001951 	andeq	r1, r0, r1, asr r9
     890:	07061294 			; <UNDEFINED> instruction: 0x07061294
     894:	98000013 	stmdals	r0, {r0, r1, r4}
     898:	16f60612 	usatne	r0, #22, r2, lsl #12
     89c:	129c0000 	addsne	r0, ip, #0
     8a0:	0016e406 	andseq	lr, r6, r6, lsl #8
     8a4:	0612a000 	ldreq	sl, [r2], -r0
     8a8:	000016d2 	ldrdeq	r1, [r0], -r2
     8ac:	c00612a4 	andgt	r1, r6, r4, lsr #5
     8b0:	a8000016 	stmdage	r0, {r1, r2, r4}
     8b4:	0fe60612 	svceq	0x00e60612
     8b8:	12ac0000 	adcne	r0, ip, #0
     8bc:	00149806 	andseq	r9, r4, r6, lsl #16
     8c0:	0612b000 	ldreq	fp, [r2], -r0
     8c4:	000019fd 	strdeq	r1, [r0], -sp
     8c8:	480612b4 	stmdami	r6, {r2, r4, r5, r7, r9, ip}
     8cc:	b8000013 	stmdalt	r0, {r0, r1, r4}
     8d0:	19e00612 	stmibne	r0!, {r1, r4, r9, sl}^
     8d4:	12bc0000 	adcsne	r0, ip, #0
     8d8:	0019ce06 	andseq	ip, r9, r6, lsl #28
     8dc:	0612c000 	ldreq	ip, [r2], -r0
     8e0:	00001a85 	andeq	r1, r0, r5, lsl #21
     8e4:	1b0612c4 	blne	1853fc <_start-0x7fe7ac04>
     8e8:	c8000014 	stmdagt	r0, {r2, r4}
     8ec:	0fda0612 	svceq	0x00da0612
     8f0:	12cc0000 	sbcne	r0, ip, #0
     8f4:	00173906 	andseq	r3, r7, r6, lsl #18
     8f8:	0612d000 	ldreq	sp, [r2], -r0
     8fc:	000018da 	ldrdeq	r1, [r0], -sl
     900:	7e0612d4 	mcrvc	2, 0, r1, cr6, cr4, {6}
     904:	d800001b 	stmdale	r0, {r0, r1, r3, r4}
     908:	13700612 	cmnne	r0, #18874368	; 0x1200000
     90c:	12dc0000 	sbcsne	r0, ip, #0
     910:	00138106 	andseq	r8, r3, r6, lsl #2
     914:	0612e000 	ldreq	lr, [r2], -r0
     918:	00000d86 	andeq	r0, r0, r6, lsl #27
     91c:	700612e4 	andvc	r1, r6, r4, ror #5
     920:	e8000019 	stmda	r0, {r0, r3, r4}
     924:	0f5a0612 	svceq	0x005a0612
     928:	12ec0000 	rscne	r0, ip, #0
     92c:	00150806 	andseq	r0, r5, r6, lsl #16
     930:	0612f000 	ldreq	pc, [r2], -r0
     934:	00001648 	andeq	r1, r0, r8, asr #12
     938:	2e0612f4 	mcrcs	2, 0, r1, cr6, cr4, {7}
     93c:	f800001b 			; <UNDEFINED> instruction: 0xf800001b
     940:	112d0612 			; <UNDEFINED> instruction: 0x112d0612
     944:	12fc0000 	rscsne	r0, ip, #0
     948:	00160c06 	andseq	r0, r6, r6, lsl #24
     94c:	06138000 	ldreq	r8, [r3], -r0
     950:	0000121b 	andeq	r1, r0, fp, lsl r2
     954:	9a061384 	bls	18576c <_start-0x7fe7a894>
     958:	8800001b 	stmdahi	r0, {r0, r1, r3, r4}
     95c:	19ac0613 	stmibne	ip!, {r0, r1, r4, r9, sl}
     960:	138c0000 	orrne	r0, ip, #0
     964:	001a9b06 	andseq	r9, sl, r6, lsl #22
     968:	06139000 	ldreq	r9, [r3], -r0
     96c:	000012a0 	andeq	r1, r0, r0, lsr #5
     970:	02061394 	andeq	r1, r6, #148, 6	; 0x50000002
     974:	98000019 	stmdals	r0, {r0, r3, r4}
     978:	15710613 	ldrbne	r0, [r1, #-1555]!	; 0x613
     97c:	139c0000 	orrsne	r0, ip, #0
     980:	001a5e06 	andseq	r5, sl, r6, lsl #28
     984:	0613a000 	ldreq	sl, [r3], -r0
     988:	00001255 	andeq	r1, r0, r5, asr r2
     98c:	160613a4 	strne	r1, [r6], -r4, lsr #7
     990:	a8000019 	stmdage	r0, {r0, r3, r4}
     994:	15b70613 	ldrne	r0, [r7, #1555]!	; 0x613
     998:	13ac0000 			; <UNDEFINED> instruction: 0x13ac0000
     99c:	00187406 	andseq	r7, r8, r6, lsl #8
     9a0:	0613b000 	ldreq	fp, [r3], -r0
     9a4:	0000188d 	andeq	r1, r0, sp, lsl #17
     9a8:	400613b4 			; <UNDEFINED> instruction: 0x400613b4
     9ac:	b8000011 	stmdalt	r0, {r0, r4}
     9b0:	0e270613 	mcreq	6, 1, r0, cr7, cr3, {0}
     9b4:	13c00000 	bicne	r0, r0, #0
     9b8:	00116206 	andseq	r6, r1, r6, lsl #4
     9bc:	0613d000 	ldreq	sp, [r3], -r0
     9c0:	00001a0f 	andeq	r1, r0, pc, lsl #20
     9c4:	8e0613d4 	mcrhi	3, 0, r1, cr6, cr4, {6}
     9c8:	d800001b 	stmdale	r0, {r0, r1, r3, r4}
     9cc:	19640613 	stmdbne	r4!, {r0, r1, r4, r9, sl}^
     9d0:	13dc0000 	bicsne	r0, ip, #0
     9d4:	00144006 	andseq	r4, r4, r6
     9d8:	0613e000 	ldreq	lr, [r3], -r0
     9dc:	0000100b 	andeq	r1, r0, fp
     9e0:	180613e4 	stmdane	r6, {r2, r5, r6, r7, r8, r9, ip}
     9e4:	e8000010 	stmda	r0, {r4}
     9e8:	12d00613 	sbcsne	r0, r0, #19922944	; 0x1300000
     9ec:	13f80000 	mvnsne	r0, #0
     9f0:	00111706 	andseq	r1, r1, r6, lsl #14
     9f4:	0613fc00 	ldreq	pc, [r3], -r0, lsl #24
     9f8:	000012f4 	strdeq	r1, [r0], -r4
     9fc:	4b061480 	blmi	185c04 <_start-0x7fe7a3fc>
     a00:	84000010 	strhi	r0, [r0], #-16
     a04:	17980614 			; <UNDEFINED> instruction: 0x17980614
     a08:	149c0000 	ldrne	r0, [ip], #0
     a0c:	00169606 	andseq	r9, r6, r6, lsl #12
     a10:	0614b400 	ldreq	fp, [r4], -r0, lsl #8
     a14:	000014f0 	strdeq	r1, [r0], -r0
     a18:	8c061c80 	stchi	12, cr1, [r6], {128}	; 0x80
     a1c:	84000012 	strhi	r0, [r0], #-18
     a20:	1a4d061c 	bne	1342298 <_start-0x7ecbdd68>
     a24:	1c8c0000 	stcne	0, cr0, [ip], {0}
     a28:	00171a06 	andseq	r1, r7, r6, lsl #20
     a2c:	061c9400 	ldreq	r9, [ip], -r0, lsl #8
     a30:	00000d6d 	andeq	r0, r0, sp, ror #26
     a34:	a6061f90 			; <UNDEFINED> instruction: 0xa6061f90
     a38:	94000018 	strls	r0, [r0], #-24
     a3c:	122d061f 	eorne	r0, sp, #32505856	; 0x1f00000
     a40:	1f980000 	svcne	0x00980000
     a44:	0014d506 	andseq	sp, r4, r6, lsl #10
     a48:	061f9c00 	ldreq	r9, [pc], -r0, lsl #24
     a4c:	00000e4f 	andeq	r0, r0, pc, asr #28
     a50:	33061fa0 	movwcc	r1, #28576	; 0x6fa0
     a54:	a400000c 	strge	r0, [r0], #-12
     a58:	1551061f 	ldrbne	r0, [r1, #-1567]	; 0x61f
     a5c:	1fa80000 	svcne	0x00a80000
     a60:	00106106 	andseq	r6, r0, r6, lsl #2
     a64:	061fac00 	ldreq	sl, [pc], -r0, lsl #24
     a68:	000014ba 			; <UNDEFINED> instruction: 0x000014ba
     a6c:	34061fb0 	strcc	r1, [r6], #-4016	; 0xfb0
     a70:	b400000e 	strlt	r0, [r0], #-14
     a74:	1469061f 	strbtne	r0, [r9], #-1567	; 0x61f
     a78:	1fb80000 	svcne	0x00b80000
     a7c:	001bab06 	andseq	sl, fp, r6, lsl #22
     a80:	061fbc00 	ldreq	fp, [pc], -r0, lsl #24
     a84:	000018bf 			; <UNDEFINED> instruction: 0x000018bf
     a88:	4e061fc0 	cdpmi	15, 0, cr1, cr6, cr0, {6}
     a8c:	c4000014 	strgt	r0, [r0], #-20
     a90:	165a061f 			; <UNDEFINED> instruction: 0x165a061f
     a94:	1fc80000 	svcne	0x00c80000
     a98:	001a1b06 	andseq	r1, sl, r6, lsl #22
     a9c:	061fcc00 	ldreq	ip, [pc], -r0, lsl #24
     aa0:	00000e76 	andeq	r0, r0, r6, ror lr
     aa4:	f2061fd0 	vrecps.f32	<illegal reg q0.5>, q11, q0
     aa8:	d4000013 	strle	r0, [r0], #-19
     aac:	117f061f 	cmnne	pc, pc, lsl r6	; <UNPREDICTABLE>
     ab0:	1fd80000 	svcne	0x00d80000
     ab4:	000e8d06 	andeq	r8, lr, r6, lsl #26
     ab8:	06208000 	strteq	r8, [r0], -r0
     abc:	0000185b 	andeq	r1, r0, fp, asr r8
     ac0:	cd062698 	stcgt	6, cr2, [r6, #-608]	; 0xfffffda0
     ac4:	9c000015 	stcls	0, cr0, [r0], {21}
     ac8:	172c0626 	strne	r0, [ip, -r6, lsr #12]!
     acc:	26a00000 	strtcs	r0, [r0], r0
     ad0:	0013b506 	andseq	fp, r3, r6, lsl #10
     ad4:	0626a400 	strteq	sl, [r6], -r0, lsl #8
     ad8:	0000174b 	andeq	r1, r0, fp, asr #14
     adc:	f70626a8 			; <UNDEFINED> instruction: 0xf70626a8
     ae0:	ac000015 	stcge	0, cr0, [r0], {21}
     ae4:	176c0626 	strbne	r0, [ip, -r6, lsr #12]!
     ae8:	26b00000 	ldrtcs	r0, [r0], r0
     aec:	00161e06 	andseq	r1, r6, r6, lsl #28
     af0:	0626b400 	strteq	fp, [r6], -r0, lsl #8
     af4:	00001633 	andeq	r1, r0, r3, lsr r6
     af8:	ad0626b8 	stcge	6, cr2, [r6, #-736]	; 0xfffffd20
     afc:	bc000017 	stclt	0, cr0, [r0], {23}
     b00:	17c20626 	strbne	r0, [r2, r6, lsr #12]
     b04:	26c00000 	strbcs	r0, [r0], r0
     b08:	000f9c06 	andeq	r9, pc, r6, lsl #24
     b0c:	0626c400 	strteq	ip, [r6], -r0, lsl #8
     b10:	000018ea 	andeq	r1, r0, sl, ror #17
     b14:	28062884 	stmdacs	r6, {r2, r7, fp, sp}
     b18:	88000014 	stmdahi	r0, {r2, r4}
     b1c:	131a0628 	tstne	sl, #40, 12	; 0x2800000
     b20:	288c0000 	stmcs	ip, {}	; <UNPREDICTABLE>
     b24:	0011d906 	andseq	sp, r1, r6, lsl #18
     b28:	0628c000 	strteq	ip, [r8], -r0
     b2c:	00000f6d 	andeq	r0, r0, sp, ror #30
     b30:	020028c4 	andeq	r2, r0, #196, 16	; 0xc40000
     b34:	00001025 	andeq	r1, r0, r5, lsr #32
     b38:	005ae303 	subseq	lr, sl, r3, lsl #6
     b3c:	5c070000 	stcpl	0, cr0, [r7], {-0}
     b40:	0100000c 	tsteq	r0, ip
     b44:	00019003 	andeq	r9, r1, r3
     b48:	00003c80 	andeq	r3, r0, r0, lsl #25
     b4c:	8c9c0100 	ldfhis	f0, [ip], {0}
     b50:	08000006 	stmdaeq	r0, {r1, r2}
     b54:	000017f1 	strdeq	r1, [r0], -r1	; <UNPREDICTABLE>
     b58:	064f0301 	strbeq	r0, [pc], -r1, lsl #6
     b5c:	91020000 	mrsls	r0, (UNDEF: 2)
     b60:	02610876 	rsbeq	r0, r1, #7733248	; 0x760000
     b64:	03010000 	movweq	r0, #4096	; 0x1000
     b68:	00000030 	andeq	r0, r0, r0, lsr r0
     b6c:	00709102 	rsbseq	r9, r0, r2, lsl #2
     b70:	00116e09 	andseq	r6, r1, r9, lsl #28
     b74:	30090100 	andcc	r0, r9, r0, lsl #2
     b78:	cc000000 	stcgt	0, cr0, [r0], {-0}
     b7c:	34800001 	strcc	r0, [r0], #1
     b80:	01000000 	mrseq	r0, (UNDEF: 0)
     b84:	0006b49c 	muleq	r6, ip, r4
     b88:	17f10800 	ldrbne	r0, [r1, r0, lsl #16]!
     b8c:	09010000 	stmdbeq	r1, {}	; <UNPREDICTABLE>
     b90:	0000064f 	andeq	r0, r0, pc, asr #12
     b94:	00769102 	rsbseq	r9, r6, r2, lsl #2
     b98:	000e9f0a 	andeq	r9, lr, sl, lsl #30
     b9c:	000e0100 	andeq	r0, lr, r0, lsl #2
     ba0:	58800002 	stmpl	r0, {r1}
     ba4:	01000000 	mrseq	r0, (UNDEF: 0)
     ba8:	0006f49c 	muleq	r6, ip, r4
     bac:	17f10800 	ldrbne	r0, [r1, r0, lsl #16]!
     bb0:	0e010000 	cdpeq	0, 0, cr0, cr1, cr0, {0}
     bb4:	0000064f 	andeq	r0, r0, pc, asr #12
     bb8:	086e9102 	stmdaeq	lr!, {r1, r8, ip, pc}^
     bbc:	000017f8 	strdeq	r1, [r0], -r8
     bc0:	00300e01 	eorseq	r0, r0, r1, lsl #28
     bc4:	91020000 	mrsls	r0, (UNDEF: 2)
     bc8:	156c0b68 	strbne	r0, [ip, #-2920]!	; 0xb68
     bcc:	10010000 	andne	r0, r1, r0
     bd0:	00000030 	andeq	r0, r0, r0, lsr r0
     bd4:	00749102 	rsbseq	r9, r4, r2, lsl #2
     bd8:	000da00c 	andeq	sl, sp, ip
     bdc:	581d0100 	ldmdapl	sp, {r8}
     be0:	24800002 	strcs	r0, [r0], #2
     be4:	01000000 	mrseq	r0, (UNDEF: 0)
     be8:	00a8009c 	umlaleq	r0, r8, ip, r0
     bec:	00040000 	andeq	r0, r4, r0
     bf0:	000001ef 	andeq	r0, r0, pc, ror #3
     bf4:	00820104 	addeq	r0, r2, r4, lsl #2
     bf8:	cc010000 	stcgt	0, cr0, [r1], {-0}
     bfc:	4400001b 	strmi	r0, [r0], #-27
     c00:	7c000000 	stcvc	0, cr0, [r0], {-0}
     c04:	60800002 	addvs	r0, r0, r2
     c08:	08000000 	stmdaeq	r0, {}	; <UNPREDICTABLE>
     c0c:	02000001 	andeq	r0, r0, #1
     c10:	1c7b0704 	ldclne	7, cr0, [fp], #-16
     c14:	02020000 	andeq	r0, r2, #0
     c18:	00000907 	andeq	r0, r0, r7, lsl #18
     c1c:	08010200 	stmdaeq	r1, {r9}
     c20:	00000036 	andeq	r0, r0, r6, lsr r0
     c24:	69050403 	stmdbvs	r5, {r0, r1, sl}
     c28:	0200746e 	andeq	r7, r0, #1845493760	; 0x6e000000
     c2c:	00250502 	eoreq	r0, r5, r2, lsl #10
     c30:	01020000 	mrseq	r0, (UNDEF: 2)
     c34:	00003f08 	andeq	r3, r0, r8, lsl #30
     c38:	02010400 	andeq	r0, r1, #0, 8
     c3c:	0000640a 	andeq	r6, r0, sl, lsl #8
     c40:	1bdf0500 	blne	ff7c2048 <value+0x7f7c13b8>
     c44:	05000000 	streq	r0, [r0, #-0]
     c48:	00001bf4 	strdeq	r1, [r0], -r4
     c4c:	01040001 	tsteq	r4, r1
     c50:	007f1302 	rsbseq	r1, pc, r2, lsl #6
     c54:	0f050000 	svceq	0x00050000
     c58:	0000001c 	andeq	r0, r0, ip, lsl r0
     c5c:	001bd305 	andseq	sp, fp, r5, lsl #6
     c60:	fc050100 	stc2	1, cr0, [r5], {-0}
     c64:	0200001b 	andeq	r0, r0, #27
     c68:	02010400 	andeq	r0, r1, #0, 8
     c6c:	00009a20 	andeq	r9, r0, r0, lsr #20
     c70:	1be80500 	blne	ffa02078 <value+0x7fa013e8>
     c74:	05000000 	streq	r0, [r0, #-0]
     c78:	00001c07 	andeq	r1, r0, r7, lsl #24
     c7c:	1bee0501 	blne	ffb82088 <value+0x7fb813f8>
     c80:	00020000 	andeq	r0, r2, r0
     c84:	001bc606 	andseq	ip, fp, r6, lsl #12
     c88:	7c090100 	stfvcs	f0, [r9], {-0}
     c8c:	60800002 	addvs	r0, r0, r2
     c90:	01000000 	mrseq	r0, (UNDEF: 0)
     c94:	0710009c 			; <UNDEFINED> instruction: 0x0710009c
     c98:	00040000 	andeq	r0, r4, r0
     c9c:	00000247 	andeq	r0, r0, r7, asr #4
     ca0:	00820104 	addeq	r0, r2, r4, lsl #2
     ca4:	4a010000 	bmi	40cac <_start-0x7ffbf354>
     ca8:	4400001c 	strmi	r0, [r0], #-28
     cac:	e0000000 	and	r0, r0, r0
     cb0:	24800002 	strcs	r0, [r0], #2
     cb4:	61000004 	tstvs	r0, r4
     cb8:	02000001 	andeq	r0, r0, #1
     cbc:	0000001c 	andeq	r0, r0, ip, lsl r0
     cc0:	00300402 	eorseq	r0, r0, r2, lsl #8
     cc4:	04030000 	streq	r0, [r3], #-0
     cc8:	001c7b07 	andseq	r7, ip, r7, lsl #22
     ccc:	07020300 	streq	r0, [r2, -r0, lsl #6]
     cd0:	00000009 	andeq	r0, r0, r9
     cd4:	001cd402 	andseq	sp, ip, r2, lsl #8
     cd8:	49060200 	stmdbmi	r6, {r9}
     cdc:	03000000 	movweq	r0, #0
     ce0:	00360801 	eorseq	r0, r6, r1, lsl #16
     ce4:	04040000 	streq	r0, [r4], #-0
     ce8:	746e6905 	strbtvc	r6, [lr], #-2309	; 0x905
     cec:	05020300 	streq	r0, [r2, #-768]	; 0x300
     cf0:	00000025 	andeq	r0, r0, r5, lsr #32
     cf4:	3f080103 	svccc	0x00080103
     cf8:	05000000 	streq	r0, [r0, #-0]
     cfc:	67120301 	ldrvs	r0, [r2, -r1, lsl #6]
     d00:	06000001 	streq	r0, [r0], -r1
     d04:	00524852 	subseq	r4, r2, r2, asr r8
     d08:	48540600 	ldmdami	r4, {r9, sl}^
     d0c:	06000052 			; <UNDEFINED> instruction: 0x06000052
     d10:	00524549 	subseq	r4, r2, r9, asr #10
     d14:	49490604 	stmdbmi	r9, {r2, r9, sl}^
     d18:	06080052 			; <UNDEFINED> instruction: 0x06080052
     d1c:	00524346 	subseq	r4, r2, r6, asr #6
     d20:	434c0608 	movtmi	r0, #50696	; 0xc608
     d24:	060c0052 			; <UNDEFINED> instruction: 0x060c0052
     d28:	0052434d 	subseq	r4, r2, sp, asr #6
     d2c:	534c0610 	movtpl	r0, #50704	; 0xc610
     d30:	06140052 			; <UNDEFINED> instruction: 0x06140052
     d34:	0052534d 	subseq	r5, r2, sp, asr #6
     d38:	43540618 	cmpmi	r4, #24, 12	; 0x1800000
     d3c:	06180052 			; <UNDEFINED> instruction: 0x06180052
     d40:	00525053 	subseq	r5, r2, r3, asr r0
     d44:	4c54061c 	mrrcmi	6, 1, r0, r4, cr12
     d48:	071c0052 			; <UNDEFINED> instruction: 0x071c0052
     d4c:	00001cc5 	andeq	r1, r0, r5, asr #25
     d50:	1cca0720 	stclne	7, cr0, [sl], {32}
     d54:	07240000 	streq	r0, [r4, -r0]!
     d58:	00001c3a 	andeq	r1, r0, sl, lsr ip
     d5c:	1cae0728 	stcne	7, cr0, [lr], #160	; 0xa0
     d60:	07280000 	streq	r0, [r8, -r0]!
     d64:	00001d61 	andeq	r1, r0, r1, ror #26
     d68:	1ca8072c 	stcne	7, cr0, [r8], #176	; 0xb0
     d6c:	072c0000 	streq	r0, [ip, -r0]!
     d70:	00001d51 	andeq	r1, r0, r1, asr sp
     d74:	1d960730 	ldcne	7, cr0, [r6, #192]	; 0xc0
     d78:	07300000 	ldreq	r0, [r0, -r0]!
     d7c:	00001d4a 	andeq	r1, r0, sl, asr #26
     d80:	1d900734 	ldcne	7, cr0, [r0, #208]	; 0xd0
     d84:	06340000 	ldrteq	r0, [r4], -r0
     d88:	00524c42 	subseq	r4, r2, r2, asr #24
     d8c:	1c340738 	ldcne	7, cr0, [r4], #-224	; 0xffffff20
     d90:	063c0000 	ldrteq	r0, [ip], -r0
     d94:	00524353 	subseq	r4, r2, r3, asr r3
     d98:	530600c0 	movwpl	r0, #24768	; 0x60c0
     d9c:	c4005253 	strgt	r5, [r0], #-595	; 0x253
     da0:	1cfe0700 	ldclne	7, cr0, [lr]
     da4:	00c80000 	sbceq	r0, r8, r0
     da8:	52564d06 	subspl	r4, r6, #384	; 0x180
     dac:	0700d000 	streq	sp, [r0, -r0]
     db0:	00001ca3 	andeq	r1, r0, r3, lsr #25
     db4:	b40700d4 	strlt	r0, [r7], #-212	; 0xd4
     db8:	d800001c 	stmdale	r0, {r2, r3, r4}
     dbc:	45570600 	ldrbmi	r0, [r7, #-1536]	; 0x600
     dc0:	00dc0052 	sbcseq	r0, ip, r2, asr r0
     dc4:	001cc007 	andseq	ip, ip, r7
     dc8:	0700e000 	streq	lr, [r0, -r0]
     dcc:	00001d03 	andeq	r1, r0, r3, lsl #26
     dd0:	290700e4 	stmdbcs	r7, {r2, r5, r6, r7}
     dd4:	e800001c 	stmda	r0, {r2, r3, r4}
     dd8:	1cdc0700 	ldclne	7, cr0, [ip], {0}
     ddc:	00ec0000 	rsceq	r0, ip, r0
     de0:	001c1b07 	andseq	r1, ip, r7, lsl #22
     de4:	0700f000 	streq	pc, [r0, -r0]
     de8:	00001cf5 	strdeq	r1, [r0], -r5
     dec:	cf0700f4 	svcgt	0x000700f4
     df0:	8000001c 	andhi	r0, r0, ip, lsl r0
     df4:	1cef0701 	stclne	7, cr0, [pc], #4	; e00 <_start-0x7ffff200>
     df8:	01840000 	orreq	r0, r4, r0
     dfc:	04010500 	streq	r0, [r1], #-1280	; 0x500
     e00:	00017c0a 	andeq	r7, r1, sl, lsl #24
     e04:	1bdf0700 	blne	ff7c2a0c <value+0x7f7c1d7c>
     e08:	07000000 	streq	r0, [r0, -r0]
     e0c:	00001bf4 	strdeq	r1, [r0], -r4
     e10:	74020001 	strvc	r0, [r2], #-1
     e14:	0400001d 	streq	r0, [r0], #-29
     e18:	0001670d 	andeq	r6, r1, sp, lsl #14
     e1c:	04010500 	streq	r0, [r1], #-1280	; 0x500
     e20:	0001a213 	andeq	sl, r1, r3, lsl r2
     e24:	1c0f0700 	stcne	7, cr0, [pc], {-0}
     e28:	07000000 	streq	r0, [r0, -r0]
     e2c:	00001bd3 	ldrdeq	r1, [r0], -r3
     e30:	1bfc0701 	blne	fff02a3c <value+0x7ff01dac>
     e34:	00020000 	andeq	r0, r2, r0
     e38:	001d8302 	andseq	r8, sp, r2, lsl #6
     e3c:	87170400 	ldrhi	r0, [r7, -r0, lsl #8]
     e40:	05000001 	streq	r0, [r0, #-1]
     e44:	c8200401 	stmdagt	r0!, {r0, sl}
     e48:	07000001 	streq	r0, [r0, -r1]
     e4c:	00001be8 	andeq	r1, r0, r8, ror #23
     e50:	1c070700 	stcne	7, cr0, [r7], {-0}
     e54:	07010000 	streq	r0, [r1, -r0]
     e58:	00001bee 	andeq	r1, r0, lr, ror #23
     e5c:	2e020002 	cdpcs	0, 0, cr0, cr2, cr2, {0}
     e60:	0400001d 	streq	r0, [r0], #-29
     e64:	0001ad24 	andeq	sl, r1, r4, lsr #26
     e68:	05040500 	streq	r0, [r4, #-1280]	; 0x500
     e6c:	00022c0b 	andeq	r2, r2, fp, lsl #24
     e70:	06790700 	ldrbteq	r0, [r9], -r0, lsl #14
     e74:	80800000 	addhi	r0, r0, r0
     e78:	0704a780 	streq	sl, [r4, -r0, lsl #15]
     e7c:	000006ef 	andeq	r0, r0, pc, ror #13
     e80:	a7808880 	strge	r8, [r0, r0, lsl #17]
     e84:	07c50704 	strbeq	r0, [r5, r4, lsl #14]
     e88:	8a800000 	bhi	fe000e90 <value+0x7e000200>
     e8c:	0704a780 	streq	sl, [r4, -r0, lsl #15]
     e90:	000008d7 	ldrdeq	r0, [r0], -r7
     e94:	a7808c80 	strge	r8, [r0, r0, lsl #25]
     e98:	08cd0704 	stmiaeq	sp, {r2, r8, r9, sl}^
     e9c:	8e800000 	cdphi	0, 8, cr0, cr0, cr0, {0}
     ea0:	0704a780 	streq	sl, [r4, -r0, lsl #15]
     ea4:	000002e6 	andeq	r0, r0, r6, ror #5
     ea8:	a7809080 	strge	r9, [r0, r0, lsl #1]
     eac:	09270704 	stmdbeq	r7!, {r2, r8, r9, sl}
     eb0:	92800000 	addls	r0, r0, #0
     eb4:	0704a780 	streq	sl, [r4, -r0, lsl #15]
     eb8:	000006c7 	andeq	r0, r0, r7, asr #13
     ebc:	a7809480 	strge	r9, [r0, r0, lsl #9]
     ec0:	02050004 	andeq	r0, r5, #4
     ec4:	053c1c05 	ldreq	r1, [ip, #-3077]!	; 0xc05
     ec8:	e2070000 	and	r0, r7, #0
     ecc:	00000007 	andeq	r0, r0, r7
     ed0:	00061f07 	andeq	r1, r6, r7, lsl #30
     ed4:	99070400 	stmdbls	r7, {sl}
     ed8:	08000001 	stmdaeq	r0, {r0}
     edc:	00010507 	andeq	r0, r1, r7, lsl #10
     ee0:	32070c00 	andcc	r0, r7, #0, 24
     ee4:	14000005 	strne	r0, [r0], #-5
     ee8:	00089107 	andeq	r9, r8, r7, lsl #2
     eec:	9b071800 	blls	1c6ef4 <_start-0x7fe3910c>
     ef0:	1c000006 	stcne	0, cr0, [r0], {6}
     ef4:	00018407 	andeq	r8, r1, r7, lsl #8
     ef8:	8a072400 	bhi	1c9f00 <_start-0x7fe36100>
     efc:	28000007 	stmdacs	r0, {r0, r1, r2}
     f00:	00087a07 	andeq	r7, r8, r7, lsl #20
     f04:	f2072c00 			; <UNDEFINED> instruction: 0xf2072c00
     f08:	30000009 	andcc	r0, r0, r9
     f0c:	00011907 	andeq	r1, r1, r7, lsl #18
     f10:	d9073400 	stmdble	r7, {sl, ip, sp}
     f14:	38000001 	stmdacc	r0, {r0}
     f18:	0002ed07 	andeq	lr, r2, r7, lsl #26
     f1c:	9e073c00 	cdpls	12, 0, cr3, cr7, cr0, {0}
     f20:	c0000007 	andgt	r0, r0, r7
     f24:	039a0700 	orrseq	r0, sl, #0, 14
     f28:	00c40000 	sbceq	r0, r4, r0
     f2c:	00031507 	andeq	r1, r3, r7, lsl #10
     f30:	0700c800 	streq	ip, [r0, -r0, lsl #16]
     f34:	0000012f 	andeq	r0, r0, pc, lsr #2
     f38:	b40700cc 	strlt	r0, [r7], #-204	; 0xcc
     f3c:	d0000004 	andle	r0, r0, r4
     f40:	060b0700 	streq	r0, [fp], -r0, lsl #14
     f44:	00e00000 	rsceq	r0, r0, r0
     f48:	0002d207 	andeq	sp, r2, r7, lsl #4
     f4c:	0700e400 	streq	lr, [r0, -r0, lsl #8]
     f50:	0000016e 	andeq	r0, r0, lr, ror #2
     f54:	670700e8 	strvs	r0, [r7, -r8, ror #1]
     f58:	ec00000a 	stc	0, cr0, [r0], {10}
     f5c:	0b100700 	bleq	402b64 <_start-0x7fbfd49c>
     f60:	00f00000 	rscseq	r0, r0, r0
     f64:	0003ae07 	andeq	sl, r3, r7, lsl #28
     f68:	0700f400 	streq	pc, [r0, -r0, lsl #8]
     f6c:	00000159 	andeq	r0, r0, r9, asr r1
     f70:	650700f8 	strvs	r0, [r7, #-248]	; 0xf8
     f74:	fc000005 	stc2	0, cr0, [r0], {5}
     f78:	03550700 	cmpeq	r5, #0, 14
     f7c:	01800000 	orreq	r0, r0, r0
     f80:	0003c307 	andeq	ip, r3, r7, lsl #6
     f84:	07018400 	streq	r8, [r1, -r0, lsl #8]
     f88:	00000447 	andeq	r0, r0, r7, asr #8
     f8c:	4a070188 	bmi	1c15b4 <_start-0x7fe3ea4c>
     f90:	ac000007 	stcge	0, cr0, [r0], {7}
     f94:	07750701 	ldrbeq	r0, [r5, -r1, lsl #14]!
     f98:	01b00000 	movseq	r0, r0
     f9c:	0007cd07 	andeq	ip, r7, r7, lsl #26
     fa0:	0701b400 	streq	fp, [r1, -r0, lsl #8]
     fa4:	00000267 	andeq	r0, r0, r7, ror #4
     fa8:	bd0701bc 	stflts	f0, [r7, #-752]	; 0xfffffd10
     fac:	c0000002 	andgt	r0, r0, r2
     fb0:	04da0701 	ldrbeq	r0, [sl], #1793	; 0x701
     fb4:	01c40000 	biceq	r0, r4, r0
     fb8:	000ae107 	andeq	lr, sl, r7, lsl #2
     fbc:	0701cc00 	streq	ip, [r1, -r0, lsl #24]
     fc0:	00000984 	andeq	r0, r0, r4, lsl #19
     fc4:	ef0701d0 	svc	0x000701d0
     fc8:	d4000004 	strle	r0, [r0], #-4
     fcc:	05c80701 	strbeq	r0, [r8, #1793]	; 0x701
     fd0:	01d80000 	bicseq	r0, r8, r0
     fd4:	000af807 	andeq	pc, sl, r7, lsl #16
     fd8:	0701dc00 	streq	sp, [r1, -r0, lsl #24]
     fdc:	000004c8 	andeq	r0, r0, r8, asr #9
     fe0:	3d0701e0 	stfccs	f0, [r7, #-896]	; 0xfffffc80
     fe4:	e4000003 	str	r0, [r0], #-3
     fe8:	071e0701 	ldreq	r0, [lr, -r1, lsl #14]
     fec:	01e80000 	mvneq	r0, r0
     ff0:	00049e07 	andeq	r9, r4, r7, lsl #28
     ff4:	0701ec00 	streq	lr, [r1, -r0, lsl #24]
     ff8:	00000506 	andeq	r0, r0, r6, lsl #10
     ffc:	6b0701f0 	blvs	1c17c4 <_start-0x7fe3e83c>
    1000:	f4000003 	vst4.8	{d0-d3}, [r0], r3
    1004:	03d90701 	bicseq	r0, r9, #262144	; 0x40000
    1008:	01f80000 	mvnseq	r0, r0
    100c:	0007f807 	andeq	pc, r7, r7, lsl #16
    1010:	0701fc00 	streq	pc, [r1, -r0, lsl #24]
    1014:	00000865 	andeq	r0, r0, r5, ror #16
    1018:	ed070280 	sfm	f0, 4, [r7, #-512]	; 0xfffffe00
    101c:	8c000003 	stchi	0, cr0, [r0], {3}
    1020:	06af0702 	strteq	r0, [pc], r2, lsl #14
    1024:	02900000 	addseq	r0, r0, #0
    1028:	00014307 	andeq	r4, r1, r7, lsl #6
    102c:	07029c00 	streq	r9, [r2, -r0, lsl #24]
    1030:	0000095b 	andeq	r0, r0, fp, asr r9
    1034:	060702a0 	streq	r0, [r7], -r0, lsr #5
    1038:	ac00000a 	stcge	0, cr0, [r0], {10}
    103c:	05960702 	ldreq	r0, [r6, #1794]	; 0x702
    1040:	02b00000 	adcseq	r0, r0, #0
    1044:	000a4d07 	andeq	r4, sl, r7, lsl #26
    1048:	0702c000 	streq	ip, [r2, -r0]
    104c:	000008de 	ldrdeq	r0, [r0], -lr
    1050:	370702c4 	strcc	r0, [r7, -r4, asr #5]
    1054:	c800000a 	stmdagt	r0, {r1, r3}
    1058:	027b0702 	rsbseq	r0, fp, #524288	; 0x80000
    105c:	02cc0000 	sbceq	r0, ip, #0
    1060:	00068007 	andeq	r8, r6, r7
    1064:	0702d000 	streq	sp, [r2, -r0]
    1068:	000009b6 			; <UNDEFINED> instruction: 0x000009b6
    106c:	04710700 	ldrbteq	r0, [r1], #-1792	; 0x700
    1070:	07040000 	streq	r0, [r4, -r0]
    1074:	0000051c 	andeq	r0, r0, ip, lsl r5
    1078:	0b250708 	bleq	942ca0 <_start-0x7f6bd360>
    107c:	070c0000 	streq	r0, [ip, -r0]
    1080:	000009db 	ldrdeq	r0, [r0], -fp
    1084:	090f0710 	stmdbeq	pc, {r4, r8, r9, sl}	; <UNPREDICTABLE>
    1088:	07140000 	ldreq	r0, [r4, -r0]
    108c:	00000822 	andeq	r0, r0, r2, lsr #16
    1090:	096f0718 	stmdbeq	pc!, {r3, r4, r8, r9, sl}^	; <UNPREDICTABLE>
    1094:	071c0000 	ldreq	r0, [ip, -r0]
    1098:	000008a5 	andeq	r0, r0, r5, lsr #17
    109c:	057b0720 	ldrbeq	r0, [fp, #-1824]!	; 0x720
    10a0:	07240000 	streq	r0, [r4, -r0]!
    10a4:	0000037f 	andeq	r0, r0, pc, ror r3
    10a8:	099b0728 	ldmibeq	fp, {r3, r5, r8, r9, sl}
    10ac:	072c0000 	streq	r0, [ip, -r0]!
    10b0:	0000080d 	andeq	r0, r0, sp, lsl #16
    10b4:	020a0730 	andeq	r0, sl, #48, 14	; 0xc00000
    10b8:	07340000 	ldreq	r0, [r4, -r0]!
    10bc:	000008f4 	strdeq	r0, [r0], -r4
    10c0:	01af0738 			; <UNDEFINED> instruction: 0x01af0738
    10c4:	073c0000 	ldreq	r0, [ip, -r0]!
    10c8:	00000836 	andeq	r0, r0, r6, lsr r8
    10cc:	7c0700c0 	stcvc	0, cr0, [r7], {192}	; 0xc0
    10d0:	c400000a 	strgt	r0, [r0], #-10
    10d4:	045d0700 	ldrbeq	r0, [sp], #-1792	; 0x700
    10d8:	00c80000 	sbceq	r0, r8, r0
    10dc:	0001ee07 	andeq	lr, r1, r7, lsl #28
    10e0:	0700cc00 	streq	ip, [r0, -r0, lsl #24]
    10e4:	00000ac5 	andeq	r0, r0, r5, asr #21
    10e8:	650700d0 	strvs	r0, [r7, #-208]	; 0xd0
    10ec:	d4000006 	strle	r0, [r0], #-6
    10f0:	02940700 	addseq	r0, r4, #0, 14
    10f4:	00d80000 	sbcseq	r0, r8, r0
    10f8:	0006f707 	andeq	pc, r6, r7, lsl #14
    10fc:	0700dc00 	streq	sp, [r0, -r0, lsl #24]
    1100:	00000549 	andeq	r0, r0, r9, asr #10
    1104:	490700e0 	stmdbmi	r7, {r5, r6, r7}
    1108:	e4000008 	str	r0, [r0], #-8
    110c:	03010700 	movweq	r0, #5888	; 0x1700
    1110:	00e80000 	rsceq	r0, r8, r0
    1114:	00021d07 	andeq	r1, r2, r7, lsl #26
    1118:	0700ec00 	streq	lr, [r0, -r0, lsl #24]
    111c:	0000070b 	andeq	r0, r0, fp, lsl #14
    1120:	460700f0 			; <UNDEFINED> instruction: 0x460700f0
    1124:	f4000002 	vst4.8	{d0-d3}, [r0], r2
    1128:	0a920700 	beq	fe482d30 <value+0x7e4820a0>
    112c:	00f80000 	rscseq	r0, r8, r0
    1130:	00075f07 	andeq	r5, r7, r7, lsl #30
    1134:	0700fc00 	streq	pc, [r0, -r0, lsl #24]
    1138:	00000329 	andeq	r0, r0, r9, lsr #6
    113c:	32070180 	andcc	r0, r7, #128, 2
    1140:	84000002 	strhi	r0, [r0], #-2
    1144:	07b10701 	ldreq	r0, [r1, r1, lsl #14]!
    1148:	01880000 	orreq	r0, r8, r0
    114c:	00073607 	andeq	r3, r7, r7, lsl #12
    1150:	07018c00 	streq	r8, [r1, -r0, lsl #24]
    1154:	00000428 	andeq	r0, r0, r8, lsr #8
    1158:	34070190 	strcc	r0, [r7], #-400	; 0x190
    115c:	94000006 	strls	r0, [r0], #-6
    1160:	08b80701 	ldmeq	r8!, {r0, r8, r9, sl}
    1164:	01980000 	orrseq	r0, r8, r0
    1168:	0005f507 	andeq	pc, r5, r7, lsl #10
    116c:	07019c00 	streq	r9, [r1, -r0, lsl #24]
    1170:	00000b5e 	andeq	r0, r0, lr, asr fp
    1174:	470701a0 	strmi	r0, [r7, -r0, lsr #3]
    1178:	a4000009 	strge	r0, [r0], #-9
    117c:	02aa0701 	adceq	r0, sl, #262144	; 0x40000
    1180:	01a80000 			; <UNDEFINED> instruction: 0x01a80000
    1184:	0009c807 	andeq	ip, r9, r7, lsl #16
    1188:	0701ac00 	streq	sl, [r1, -r0, lsl #24]
    118c:	00000410 	andeq	r0, r0, r0, lsl r4
    1190:	df0701b0 	svcle	0x000701b0
    1194:	b4000005 	strlt	r0, [r0], #-5
    1198:	0b490701 	bleq	1242da4 <_start-0x7edbd25c>
    119c:	01b80000 			; <UNDEFINED> instruction: 0x01b80000
    11a0:	000aad07 	andeq	sl, sl, r7, lsl #26
    11a4:	0701bc00 	streq	fp, [r1, -r0, lsl #24]
    11a8:	000005ab 	andeq	r0, r0, fp, lsr #11
    11ac:	200701c0 	andcs	r0, r7, r0, asr #3
    11b0:	c400000a 	strgt	r0, [r0], #-10
    11b4:	06480701 	strbeq	r0, [r8], -r1, lsl #14
    11b8:	01c80000 	biceq	r0, r8, r0
    11bc:	00092e07 	andeq	r2, r9, r7, lsl #28
    11c0:	0701cc00 	streq	ip, [r1, -r0, lsl #24]
    11c4:	00000489 	andeq	r0, r0, r9, lsl #9
    11c8:	db0701d4 	blle	1c1920 <_start-0x7fe3e6e0>
    11cc:	d8000006 	stmdale	r0, {r1, r2}
    11d0:	01030001 	tsteq	r3, r1
    11d4:	00003806 	andeq	r3, r0, r6, lsl #16
    11d8:	05040300 	streq	r0, [r4, #-768]	; 0x300
    11dc:	00001ce6 	andeq	r1, r0, r6, ror #25
    11e0:	76070403 	strvc	r0, [r7], -r3, lsl #8
    11e4:	0300001c 	movweq	r0, #28
    11e8:	1ce10508 	cfstr64ne	mvdx0, [r1], #32
    11ec:	08030000 	stmdaeq	r3, {}	; <UNPREDICTABLE>
    11f0:	001c7107 	andseq	r7, ip, r7, lsl #2
    11f4:	07040300 	streq	r0, [r4, -r0, lsl #6]
    11f8:	00001d58 	andeq	r1, r0, r8, asr sp
    11fc:	005e0408 	subseq	r0, lr, r8, lsl #8
    1200:	40090000 	andmi	r0, r9, r0
    1204:	0100001c 	tsteq	r0, ip, lsl r0
    1208:	0002e008 	andeq	lr, r2, r8
    120c:	00005880 	andeq	r5, r0, r0, lsl #17
    1210:	909c0100 	addsls	r0, ip, r0, lsl #2
    1214:	0a000005 	beq	1230 <_start-0x7fffedd0>
    1218:	00001c63 	andeq	r1, r0, r3, ror #24
    121c:	00300a01 	eorseq	r0, r0, r1, lsl #20
    1220:	91020000 	mrsls	r0, (UNDEF: 2)
    1224:	880b0074 	stmdahi	fp, {r2, r4, r5, r6}
    1228:	0100001c 	tsteq	r0, ip, lsl r0
    122c:	00033813 	andeq	r3, r3, r3, lsl r8
    1230:	0001f880 	andeq	pc, r1, r0, lsl #17
    1234:	de9c0100 	fmllee	f0, f4, f0
    1238:	0c000005 	stceq	0, cr0, [r0], {5}
    123c:	00001c20 	andeq	r1, r0, r0, lsr #24
    1240:	00301301 	eorseq	r1, r0, r1, lsl #6
    1244:	91020000 	mrsls	r0, (UNDEF: 2)
    1248:	156c0a64 	strbne	r0, [ip, #-2660]!	; 0xa64
    124c:	16010000 	strne	r0, [r1], -r0
    1250:	00000030 	andeq	r0, r0, r0, lsr r0
    1254:	0d749102 	ldfeqp	f1, [r4, #-8]!
    1258:	00766964 	rsbseq	r6, r6, r4, ror #18
    125c:	05de3301 	ldrbeq	r3, [lr, #769]	; 0x301
    1260:	91020000 	mrsls	r0, (UNDEF: 2)
    1264:	1cb90a70 	vldmiane	r9!, {s0-s111}
    1268:	34010000 	strcc	r0, [r1], #-0
    126c:	00000030 	andeq	r0, r0, r0, lsr r0
    1270:	006c9102 	rsbeq	r9, ip, r2, lsl #2
    1274:	6b040403 	blvs	102288 <_start-0x7fefdd78>
    1278:	0e00001c 	mcreq	0, 0, r0, cr0, cr12, {0}
    127c:	00001d40 	andeq	r1, r0, r0, asr #26
    1280:	05303e01 	ldreq	r3, [r0, #-3585]!	; 0xe01
    1284:	004c8000 	subeq	r8, ip, r0
    1288:	9c010000 	stcls	0, cr0, [r1], {-0}
    128c:	00000633 	andeq	r0, r0, r3, lsr r6
    1290:	001c200c 	andseq	r2, ip, ip
    1294:	303e0100 	eorscc	r0, lr, r0, lsl #2
    1298:	02000000 	andeq	r0, r0, #0
    129c:	7b0c7491 	blvc	31e4e8 <_start-0x7fce1b18>
    12a0:	0100001d 	tsteq	r0, sp, lsl r0
    12a4:	0001c83e 	andeq	ip, r1, lr, lsr r8
    12a8:	73910200 	orrsvc	r0, r1, #0, 4
    12ac:	001d270c 	andseq	r2, sp, ip, lsl #14
    12b0:	a23e0100 	eorsge	r0, lr, #0, 2
    12b4:	02000001 	andeq	r0, r0, #1
    12b8:	680c7291 	stmdavs	ip, {r0, r4, r7, r9, ip, sp, lr}
    12bc:	0100001d 	tsteq	r0, sp, lsl r0
    12c0:	00017c3e 	andeq	r7, r1, lr, lsr ip
    12c4:	71910200 	orrsvc	r0, r1, r0, lsl #4
    12c8:	1c590e00 	mrrcne	14, 0, r0, r9, cr0
    12cc:	4a010000 	bmi	412d4 <_start-0x7ffbed2c>
    12d0:	8000057c 	andhi	r0, r0, ip, ror r5
    12d4:	00000060 	andeq	r0, r0, r0, rrx
    12d8:	06559c01 	ldrbeq	r9, [r5], -r1, lsl #24
    12dc:	630f0000 	movwvs	r0, #61440	; 0xf000
    12e0:	5e4a0100 	dvfple	f0, f2, f0
    12e4:	02000000 	andeq	r0, r0, #0
    12e8:	10007791 	mulne	r0, r1, r7
    12ec:	00001d1d 	andeq	r1, r0, sp, lsl sp
    12f0:	005e5401 	subseq	r5, lr, r1, lsl #8
    12f4:	05dc0000 	ldrbeq	r0, [ip]
    12f8:	00488000 	subeq	r8, r8, r0
    12fc:	9c010000 	stcls	0, cr0, [r1], {-0}
    1300:	001d0e11 	andseq	r0, sp, r1, lsl lr
    1304:	505a0100 	subspl	r0, sl, r0, lsl #2
    1308:	24000000 	strcs	r0, [r0], #-0
    130c:	70800006 	addvc	r0, r0, r6
    1310:	01000000 	mrseq	r0, (UNDEF: 0)
    1314:	0006b69c 	muleq	r6, ip, r6
    1318:	74730f00 	ldrbtvc	r0, [r3], #-3840	; 0xf00
    131c:	5a010072 	bpl	414ec <_start-0x7ffbeb14>
    1320:	00000566 	andeq	r0, r0, r6, ror #10
    1324:	0a6c9102 	beq	1b25734 <_start-0x7e4da8cc>
    1328:	00001d39 	andeq	r1, r0, r9, lsr sp
    132c:	00505c01 	subseq	r5, r0, r1, lsl #24
    1330:	91020000 	mrsls	r0, (UNDEF: 2)
    1334:	06441270 			; <UNDEFINED> instruction: 0x06441270
    1338:	00408000 	subeq	r8, r0, r0
    133c:	690d0000 	stmdbvs	sp, {}	; <UNPREDICTABLE>
    1340:	505d0100 	subspl	r0, sp, r0, lsl #2
    1344:	02000000 	andeq	r0, r0, #0
    1348:	00007491 	muleq	r0, r1, r4
    134c:	001c9411 	andseq	r9, ip, r1, lsl r4
    1350:	50640100 	rsbpl	r0, r4, r0, lsl #2
    1354:	94000000 	strls	r0, [r0], #-0
    1358:	70800006 	addvc	r0, r0, r6
    135c:	01000000 	mrseq	r0, (UNDEF: 0)
    1360:	0007029c 	muleq	r7, ip, r2
    1364:	75620f00 	strbvc	r0, [r2, #-3840]!	; 0xf00
    1368:	64010066 	strvs	r0, [r1], #-102	; 0x66
    136c:	00000566 	andeq	r0, r0, r6, ror #10
    1370:	0a649102 	beq	1925780 <_start-0x7e6da880>
    1374:	00001d39 	andeq	r1, r0, r9, lsr sp
    1378:	00506601 	subseq	r6, r0, r1, lsl #12
    137c:	91020000 	mrsls	r0, (UNDEF: 2)
    1380:	06b41268 	ldrteq	r1, [r4], r8, ror #4
    1384:	00408000 	subeq	r8, r0, r0
    1388:	690d0000 	stmdbvs	sp, {}	; <UNPREDICTABLE>
    138c:	50670100 	rsbpl	r0, r7, r0, lsl #2
    1390:	02000000 	andeq	r0, r0, #0
    1394:	00006c91 	muleq	r0, r1, ip
    1398:	00026113 	andeq	r6, r2, r3, lsl r1
    139c:	37070100 	strcc	r0, [r7, -r0, lsl #2]
    13a0:	05000000 	streq	r0, [r0, #-0]
    13a4:	000c9003 	andeq	r9, ip, r3
    13a8:	02f80080 	rscseq	r0, r8, #128	; 0x80
    13ac:	00040000 	andeq	r0, r4, r0
    13b0:	0000037c 	andeq	r0, r0, ip, ror r3
    13b4:	00820104 	addeq	r0, r2, r4, lsl #2
    13b8:	b1010000 	mrslt	r0, (UNDEF: 1)
    13bc:	dd00001d 	stcle	0, cr0, [r0, #-116]	; 0xffffff8c
    13c0:	0400001d 	streq	r0, [r0], #-29
    13c4:	60800007 	addvs	r0, r0, r7
    13c8:	54000005 	strpl	r0, [r0], #-5
    13cc:	02000002 	andeq	r0, r0, #2
    13d0:	00001daa 	andeq	r1, r0, sl, lsr #27
    13d4:	007f0a01 	rsbseq	r0, pc, r1, lsl #20
    13d8:	07040000 	streq	r0, [r4, -r0]
    13dc:	00a48000 	adceq	r8, r4, r0
    13e0:	9c010000 	stcls	0, cr0, [r1], {-0}
    13e4:	0000007f 	andeq	r0, r0, pc, ror r0
    13e8:	74736403 	ldrbtvc	r6, [r3], #-1027	; 0x403
    13ec:	860a0100 	strhi	r0, [sl], -r0, lsl #2
    13f0:	02000000 	andeq	r0, r0, #0
    13f4:	73036c91 	movwvc	r6, #15505	; 0x3c91
    13f8:	01006372 	tsteq	r0, r2, ror r3
    13fc:	0000860a 	andeq	r8, r0, sl, lsl #12
    1400:	68910200 	ldmvs	r1, {r9}
    1404:	01006e03 	tsteq	r0, r3, lsl #28
    1408:	00007f0a 	andeq	r7, r0, sl, lsl #30
    140c:	64910200 	ldrvs	r0, [r1], #512	; 0x200
    1410:	01006104 	tsteq	r0, r4, lsl #2
    1414:	00008d0c 	andeq	r8, r0, ip, lsl #26
    1418:	74910200 	ldrvc	r0, [r1], #512	; 0x200
    141c:	01006204 	tsteq	r0, r4, lsl #4
    1420:	00008d0d 	andeq	r8, r0, sp, lsl #26
    1424:	70910200 	addsvc	r0, r1, r0, lsl #4
    1428:	05040500 	streq	r0, [r4, #-1280]	; 0x500
    142c:	00746e69 	rsbseq	r6, r4, r9, ror #28
    1430:	008c0406 	addeq	r0, ip, r6, lsl #8
    1434:	06070000 	streq	r0, [r7], -r0
    1438:	00009304 	andeq	r9, r0, r4, lsl #6
    143c:	00980800 	addseq	r0, r8, r0, lsl #16
    1440:	01090000 	mrseq	r0, (UNDEF: 9)
    1444:	00003f08 	andeq	r3, r0, r8, lsl #30
    1448:	1dd60200 	lfmne	f0, 2, [r6]
    144c:	16010000 	strne	r0, [r1], -r0
    1450:	0000007f 	andeq	r0, r0, pc, ror r0
    1454:	800007a8 	andhi	r0, r0, r8, lsr #15
    1458:	00000054 	andeq	r0, r0, r4, asr r0
    145c:	00d39c01 	sbcseq	r9, r3, r1, lsl #24
    1460:	73030000 	movwvc	r0, #12288	; 0x3000
    1464:	01007274 	tsteq	r0, r4, ror r2
    1468:	00008d16 	andeq	r8, r0, r6, lsl sp
    146c:	6c910200 	lfmvs	f0, 4, [r1], {0}
    1470:	01006904 	tsteq	r0, r4, lsl #18
    1474:	00007f18 	andeq	r7, r0, r8, lsl pc
    1478:	74910200 	ldrvc	r0, [r1], #512	; 0x200
    147c:	1d9c0200 	lfmne	f0, 4, [ip]
    1480:	1e010000 	cdpne	0, 0, cr0, cr1, cr0, {0}
    1484:	00000115 	andeq	r0, r0, r5, lsl r1
    1488:	800007fc 	strdhi	r0, [r0], -ip
    148c:	00000060 	andeq	r0, r0, r0, rrx
    1490:	01159c01 	tsteq	r5, r1, lsl #24
    1494:	64030000 	strvs	r0, [r3], #-0
    1498:	01007473 	tsteq	r0, r3, ror r4
    149c:	0001151e 	andeq	r1, r1, lr, lsl r5
    14a0:	6c910200 	lfmvs	f0, 4, [r1], {0}
    14a4:	63727303 	cmnvs	r2, #201326592	; 0xc000000
    14a8:	8d1e0100 	ldfhis	f0, [lr, #-0]
    14ac:	02000000 	andeq	r0, r0, #0
    14b0:	64046891 	strvs	r6, [r4], #-2193	; 0x891
    14b4:	15200100 	strne	r0, [r0, #-256]!	; 0x100
    14b8:	02000001 	andeq	r0, r0, #1
    14bc:	06007491 			; <UNDEFINED> instruction: 0x06007491
    14c0:	00009804 	andeq	r9, r0, r4, lsl #16
    14c4:	1dc00200 	sfmne	f0, 2, [r0]
    14c8:	26010000 	strcs	r0, [r1], -r0
    14cc:	00000115 	andeq	r0, r0, r5, lsl r1
    14d0:	8000085c 	andhi	r0, r0, ip, asr r8
    14d4:	000000a8 	andeq	r0, r0, r8, lsr #1
    14d8:	01699c01 	cmneq	r9, r1, lsl #24
    14dc:	64030000 	strvs	r0, [r3], #-0
    14e0:	01007473 	tsteq	r0, r3, ror r4
    14e4:	00011526 	andeq	r1, r1, r6, lsr #10
    14e8:	6c910200 	lfmvs	f0, 4, [r1], {0}
    14ec:	63727303 	cmnvs	r2, #201326592	; 0xc000000
    14f0:	8d260100 	stfhis	f0, [r6, #-0]
    14f4:	02000000 	andeq	r0, r0, #0
    14f8:	6e036891 	mcrvs	8, 0, r6, cr3, cr1, {4}
    14fc:	7f260100 	svcvc	0x00260100
    1500:	02000000 	andeq	r0, r0, #0
    1504:	64046491 	strvs	r6, [r4], #-1169	; 0x491
    1508:	15280100 	strne	r0, [r8, #-256]!	; 0x100
    150c:	02000001 	andeq	r0, r0, #1
    1510:	0a007491 	beq	1e75c <_start-0x7ffe18a4>
    1514:	00001dc8 	andeq	r1, r0, r8, asr #27
    1518:	01153001 	tsteq	r5, r1
    151c:	09040000 	stmdbeq	r4, {}	; <UNPREDICTABLE>
    1520:	006c8000 	rsbeq	r8, ip, r0
    1524:	9c010000 	stcls	0, cr0, [r1], {-0}
    1528:	000001ab 	andeq	r0, r0, fp, lsr #3
    152c:	74736403 	ldrbtvc	r6, [r3], #-1027	; 0x403
    1530:	15300100 	ldrne	r0, [r0, #-256]!	; 0x100
    1534:	02000001 	andeq	r0, r0, #1
    1538:	73036c91 	movwvc	r6, #15505	; 0x3c91
    153c:	01006372 	tsteq	r0, r2, ror r3
    1540:	00008d30 	andeq	r8, r0, r0, lsr sp
    1544:	68910200 	ldmvs	r1, {r9}
    1548:	01006904 	tsteq	r0, r4, lsl #18
    154c:	00007f32 	andeq	r7, r0, r2, lsr pc
    1550:	74910200 	ldrvc	r0, [r1], #512	; 0x200
    1554:	1e290a00 	vmulne.f32	s0, s18, s0
    1558:	37010000 	strcc	r0, [r1, -r0]
    155c:	00000115 	andeq	r0, r0, r5, lsl r1
    1560:	80000970 	andhi	r0, r0, r0, ror r9
    1564:	000000c0 	andeq	r0, r0, r0, asr #1
    1568:	01f99c01 	mvnseq	r9, r1, lsl #24
    156c:	64030000 	strvs	r0, [r3], #-0
    1570:	01007473 	tsteq	r0, r3, ror r4
    1574:	00011537 	andeq	r1, r1, r7, lsr r5
    1578:	6c910200 	lfmvs	f0, 4, [r1], {0}
    157c:	63727303 	cmnvs	r2, #201326592	; 0xc000000
    1580:	8d370100 	ldfhis	f0, [r7, #-0]
    1584:	02000000 	andeq	r0, r0, #0
    1588:	6e036891 	mcrvs	8, 0, r6, cr3, cr1, {4}
    158c:	7f370100 	svcvc	0x00370100
    1590:	02000000 	andeq	r0, r0, #0
    1594:	69046491 	stmdbvs	r4, {r0, r4, r7, sl, sp, lr}
    1598:	7f390100 	svcvc	0x00390100
    159c:	02000000 	andeq	r0, r0, #0
    15a0:	02007491 	andeq	r7, r0, #-1862270976	; 0x91000000
    15a4:	00001dcf 	andeq	r1, r0, pc, asr #27
    15a8:	007f4301 	rsbseq	r4, pc, r1, lsl #6
    15ac:	0a300000 	beq	c015b4 <_start-0x7f3fea4c>
    15b0:	00948000 	addseq	r8, r4, r0
    15b4:	9c010000 	stcls	0, cr0, [r1], {-0}
    15b8:	0000022f 	andeq	r0, r0, pc, lsr #4
    15bc:	74736403 	ldrbtvc	r6, [r3], #-1027	; 0x403
    15c0:	8d430100 	stfhie	f0, [r3, #-0]
    15c4:	02000000 	andeq	r0, r0, #0
    15c8:	73037491 	movwvc	r7, #13457	; 0x3491
    15cc:	01006372 	tsteq	r0, r2, ror r3
    15d0:	00008d43 	andeq	r8, r0, r3, asr #26
    15d4:	70910200 	addsvc	r0, r1, r0, lsl #4
    15d8:	1e310200 	cdpne	2, 3, cr0, cr1, cr0, {0}
    15dc:	50010000 	andpl	r0, r1, r0
    15e0:	0000007f 	andeq	r0, r0, pc, ror r0
    15e4:	80000ac4 	andhi	r0, r0, r4, asr #21
    15e8:	000000b0 	strheq	r0, [r0], -r0	; <UNPREDICTABLE>
    15ec:	02719c01 	rsbseq	r9, r1, #256	; 0x100
    15f0:	64030000 	strvs	r0, [r3], #-0
    15f4:	01007473 	tsteq	r0, r3, ror r4
    15f8:	00008d50 	andeq	r8, r0, r0, asr sp
    15fc:	74910200 	ldrvc	r0, [r1], #512	; 0x200
    1600:	63727303 	cmnvs	r2, #201326592	; 0xc000000
    1604:	8d500100 	ldfhie	f0, [r0, #-0]
    1608:	02000000 	andeq	r0, r0, #0
    160c:	6e037091 	mcrvs	0, 0, r7, cr3, cr1, {4}
    1610:	7f500100 	svcvc	0x00500100
    1614:	02000000 	andeq	r0, r0, #0
    1618:	02006c91 	andeq	r6, r0, #37120	; 0x9100
    161c:	00001da3 	andeq	r1, r0, r3, lsr #27
    1620:	01155c01 	tsteq	r5, r1, lsl #24
    1624:	0b740000 	bleq	1d0162c <_start-0x7e2fe9d4>
    1628:	007c8000 	rsbseq	r8, ip, r0
    162c:	9c010000 	stcls	0, cr0, [r1], {-0}
    1630:	000002b1 			; <UNDEFINED> instruction: 0x000002b1
    1634:	72747003 	rsbsvc	r7, r4, #3
    1638:	8d5c0100 	ldfhie	f0, [ip, #-0]
    163c:	02000000 	andeq	r0, r0, #0
    1640:	63036c91 	movwvs	r6, #15505	; 0x3c91
    1644:	7f5c0100 	svcvc	0x005c0100
    1648:	02000000 	andeq	r0, r0, #0
    164c:	73046891 	movwvc	r6, #18577	; 0x4891
    1650:	985e0100 	ldmdals	lr, {r8}^
    1654:	02000000 	andeq	r0, r0, #0
    1658:	0b007791 	bleq	1f4a4 <_start-0x7ffe0b5c>
    165c:	00001e21 	andeq	r1, r0, r1, lsr #28
    1660:	01156501 	tsteq	r5, r1, lsl #10
    1664:	0bf00000 	bleq	ffc0166c <value+0x7fc009dc>
    1668:	00748000 	rsbseq	r8, r4, r0
    166c:	9c010000 	stcls	0, cr0, [r1], {-0}
    1670:	72747003 	rsbsvc	r7, r4, #3
    1674:	8d650100 	stfhie	f0, [r5, #-0]
    1678:	02000000 	andeq	r0, r0, #0
    167c:	63036c91 	movwvs	r6, #15505	; 0x3c91
    1680:	7f650100 	svcvc	0x00650100
    1684:	02000000 	andeq	r0, r0, #0
    1688:	6c0c6891 	stcvs	8, cr6, [ip], {145}	; 0x91
    168c:	01000015 	tsteq	r0, r5, lsl r0
    1690:	00011567 	andeq	r1, r1, r7, ror #10
    1694:	74910200 	ldrvc	r0, [r1], #512	; 0x200
    1698:	01007304 	tsteq	r0, r4, lsl #6
    169c:	00009868 	andeq	r9, r0, r8, ror #16
    16a0:	73910200 	orrsvc	r0, r1, #0, 4
	...

Disassembly of section .debug_abbrev:

00000000 <.debug_abbrev>:
   0:	25011101 	strcs	r1, [r1, #-257]	; 0x101
   4:	030b130e 	movweq	r1, #45838	; 0xb30e
   8:	110e1b0e 	tstne	lr, lr, lsl #22
   c:	10061201 	andne	r1, r6, r1, lsl #4
  10:	02000017 	andeq	r0, r0, #23
  14:	0e030016 	mcreq	0, 0, r0, cr3, cr6, {0}
  18:	0b3b0b3a 	bleq	ec2d08 <_start-0x7f13d2f8>
  1c:	00001349 	andeq	r1, r0, r9, asr #6
  20:	0b002403 	bleq	9034 <_start-0x7fff6fcc>
  24:	030b3e0b 	movweq	r3, #48651	; 0xbe0b
  28:	0400000e 	streq	r0, [r0], #-14
  2c:	0b0b0024 	bleq	2c00c4 <_start-0x7fd3ff3c>
  30:	08030b3e 	stmdaeq	r3, {r1, r2, r3, r4, r5, r8, r9, fp}
  34:	2e050000 	cdpcs	0, 0, cr0, cr5, cr0, {0}
  38:	03193f01 	tsteq	r9, #1, 30
  3c:	3b0b3a0e 	blcc	2ce87c <_start-0x7fd31784>
  40:	1119270b 	tstne	r9, fp, lsl #14
  44:	40061201 	andmi	r1, r6, r1, lsl #4
  48:	19429718 	stmdbne	r2, {r3, r4, r8, r9, sl, ip, pc}^
  4c:	00001301 	andeq	r1, r0, r1, lsl #6
  50:	03003406 	movweq	r3, #1030	; 0x406
  54:	3b0b3a08 	blcc	2ce87c <_start-0x7fd31784>
  58:	0213490b 	andseq	r4, r3, #180224	; 0x2c000
  5c:	07000018 	smladeq	r0, r8, r0, r0
  60:	13490035 	movtne	r0, #36917	; 0x9035
  64:	01000000 	mrseq	r0, (UNDEF: 0)
  68:	0e250111 	mcreq	1, 1, r0, cr5, cr1, {0}
  6c:	0e030b13 	vmoveq.32	d3[0], r0
  70:	01110e1b 	tsteq	r1, fp, lsl lr
  74:	17100612 			; <UNDEFINED> instruction: 0x17100612
  78:	16020000 	strne	r0, [r2], -r0
  7c:	3a0e0300 	bcc	380c84 <_start-0x7fc7f37c>
  80:	490b3b0b 	stmdbmi	fp, {r0, r1, r3, r8, r9, fp, ip, sp}
  84:	03000013 	movweq	r0, #19
  88:	0b0b0024 	bleq	2c0120 <_start-0x7fd3fee0>
  8c:	0e030b3e 	vmoveq.16	d3[0], r0
  90:	24040000 	strcs	r0, [r4], #-0
  94:	3e0b0b00 	vmlacc.f64	d0, d11, d0
  98:	0008030b 	andeq	r0, r8, fp, lsl #6
  9c:	01040500 	tsteq	r4, r0, lsl #10
  a0:	0b3a0b0b 	bleq	e82cd4 <_start-0x7f17d32c>
  a4:	13010b3b 	movwne	r0, #6971	; 0x1b3b
  a8:	28060000 	stmdacs	r6, {}	; <UNPREDICTABLE>
  ac:	1c0e0300 	stcne	3, cr0, [lr], {-0}
  b0:	0700000d 	streq	r0, [r0, -sp]
  b4:	193f012e 	ldmdbne	pc!, {r1, r2, r3, r5, r8}	; <UNPREDICTABLE>
  b8:	0b3a0e03 	bleq	e838cc <_start-0x7f17c734>
  bc:	19270b3b 	stmdbne	r7!, {r0, r1, r3, r4, r5, r8, r9, fp}
  c0:	06120111 			; <UNDEFINED> instruction: 0x06120111
  c4:	42971840 	addsmi	r1, r7, #64, 16	; 0x400000
  c8:	00130119 	andseq	r0, r3, r9, lsl r1
  cc:	00050800 	andeq	r0, r5, r0, lsl #16
  d0:	0b3a0e03 	bleq	e838e4 <_start-0x7f17c71c>
  d4:	13490b3b 	movtne	r0, #39739	; 0x9b3b
  d8:	00001802 	andeq	r1, r0, r2, lsl #16
  dc:	03000509 	movweq	r0, #1289	; 0x509
  e0:	3b0b3a08 	blcc	2ce908 <_start-0x7fd316f8>
  e4:	0213490b 	andseq	r4, r3, #180224	; 0x2c000
  e8:	0a000018 	beq	150 <_start-0x7ffffeb0>
  ec:	193f012e 	ldmdbne	pc!, {r1, r2, r3, r5, r8}	; <UNPREDICTABLE>
  f0:	0b3a0e03 	bleq	e83904 <_start-0x7f17c6fc>
  f4:	19270b3b 	stmdbne	r7!, {r0, r1, r3, r4, r5, r8, r9, fp}
  f8:	01111349 	tsteq	r1, r9, asr #6
  fc:	18400612 	stmdane	r0, {r1, r4, r9, sl}^
 100:	01194297 			; <UNDEFINED> instruction: 0x01194297
 104:	0b000013 	bleq	158 <_start-0x7ffffea8>
 108:	193f002e 	ldmdbne	pc!, {r1, r2, r3, r5}	; <UNPREDICTABLE>
 10c:	0b3a0e03 	bleq	e83920 <_start-0x7f17c6e0>
 110:	01110b3b 	tsteq	r1, fp, lsr fp
 114:	18400612 	stmdane	r0, {r1, r4, r9, sl}^
 118:	00194297 	mulseq	r9, r7, r2
 11c:	11010000 	mrsne	r0, (UNDEF: 1)
 120:	130e2501 	movwne	r2, #58625	; 0xe501
 124:	1b0e030b 	blne	380d58 <_start-0x7fc7f2a8>
 128:	1201110e 	andne	r1, r1, #-2147483645	; 0x80000003
 12c:	00171006 	andseq	r1, r7, r6
 130:	00160200 	andseq	r0, r6, r0, lsl #4
 134:	0b3a0e03 	bleq	e83948 <_start-0x7f17c6b8>
 138:	13490b3b 	movtne	r0, #39739	; 0x9b3b
 13c:	24030000 	strcs	r0, [r3], #-0
 140:	3e0b0b00 	vmlacc.f64	d0, d11, d0
 144:	000e030b 	andeq	r0, lr, fp, lsl #6
 148:	00240400 	eoreq	r0, r4, r0, lsl #8
 14c:	0b3e0b0b 	bleq	f82d80 <_start-0x7f07d280>
 150:	00000803 	andeq	r0, r0, r3, lsl #16
 154:	0b010405 	bleq	41170 <_start-0x7ffbee90>
 158:	3b0b3a0b 	blcc	2ce98c <_start-0x7fd31674>
 15c:	0013010b 	andseq	r0, r3, fp, lsl #2
 160:	00280600 	eoreq	r0, r8, r0, lsl #12
 164:	0d1c0e03 	ldceq	14, cr0, [ip, #-12]
 168:	2e070000 	cdpcs	0, 0, cr0, cr7, cr0, {0}
 16c:	03193f01 	tsteq	r9, #1, 30
 170:	3b0b3a0e 	blcc	2ce9b0 <_start-0x7fd31650>
 174:	1119270b 	tstne	r9, fp, lsl #14
 178:	40061201 	andmi	r1, r6, r1, lsl #4
 17c:	19429718 	stmdbne	r2, {r3, r4, r8, r9, sl, ip, pc}^
 180:	00001301 	andeq	r1, r0, r1, lsl #6
 184:	03000508 	movweq	r0, #1288	; 0x508
 188:	3b0b3a0e 	blcc	2ce9c8 <_start-0x7fd31638>
 18c:	0213490b 	andseq	r4, r3, #180224	; 0x2c000
 190:	09000018 	stmdbeq	r0, {r3, r4}
 194:	193f012e 	ldmdbne	pc!, {r1, r2, r3, r5, r8}	; <UNPREDICTABLE>
 198:	0b3a0e03 	bleq	e839ac <_start-0x7f17c654>
 19c:	19270b3b 	stmdbne	r7!, {r0, r1, r3, r4, r5, r8, r9, fp}
 1a0:	01111349 	tsteq	r1, r9, asr #6
 1a4:	18400612 	stmdane	r0, {r1, r4, r9, sl}^
 1a8:	01194297 			; <UNDEFINED> instruction: 0x01194297
 1ac:	0a000013 	beq	200 <_start-0x7ffffe00>
 1b0:	193f012e 	ldmdbne	pc!, {r1, r2, r3, r5, r8}	; <UNPREDICTABLE>
 1b4:	0b3a0e03 	bleq	e839c8 <_start-0x7f17c638>
 1b8:	19270b3b 	stmdbne	r7!, {r0, r1, r3, r4, r5, r8, r9, fp}
 1bc:	06120111 			; <UNDEFINED> instruction: 0x06120111
 1c0:	42961840 	addsmi	r1, r6, #64, 16	; 0x400000
 1c4:	00130119 	andseq	r0, r3, r9, lsl r1
 1c8:	00340b00 	eorseq	r0, r4, r0, lsl #22
 1cc:	0b3a0e03 	bleq	e839e0 <_start-0x7f17c620>
 1d0:	13490b3b 	movtne	r0, #39739	; 0x9b3b
 1d4:	00001802 	andeq	r1, r0, r2, lsl #16
 1d8:	3f002e0c 	svccc	0x00002e0c
 1dc:	3a0e0319 	bcc	380e48 <_start-0x7fc7f1b8>
 1e0:	110b3b0b 	tstne	fp, fp, lsl #22
 1e4:	40061201 	andmi	r1, r6, r1, lsl #4
 1e8:	19429618 	stmdbne	r2, {r3, r4, r9, sl, ip, pc}^
 1ec:	01000000 	mrseq	r0, (UNDEF: 0)
 1f0:	0e250111 	mcreq	1, 1, r0, cr5, cr1, {0}
 1f4:	0e030b13 	vmoveq.32	d3[0], r0
 1f8:	01110e1b 	tsteq	r1, fp, lsl lr
 1fc:	17100612 			; <UNDEFINED> instruction: 0x17100612
 200:	24020000 	strcs	r0, [r2], #-0
 204:	3e0b0b00 	vmlacc.f64	d0, d11, d0
 208:	000e030b 	andeq	r0, lr, fp, lsl #6
 20c:	00240300 	eoreq	r0, r4, r0, lsl #6
 210:	0b3e0b0b 	bleq	f82e44 <_start-0x7f07d1bc>
 214:	00000803 	andeq	r0, r0, r3, lsl #16
 218:	0b010404 	bleq	41230 <_start-0x7ffbedd0>
 21c:	3b0b3a0b 	blcc	2cea50 <_start-0x7fd315b0>
 220:	0013010b 	andseq	r0, r3, fp, lsl #2
 224:	00280500 	eoreq	r0, r8, r0, lsl #10
 228:	0d1c0e03 	ldceq	14, cr0, [ip, #-12]
 22c:	2e060000 	cdpcs	0, 0, cr0, cr6, cr0, {0}
 230:	03193f00 	tsteq	r9, #0, 30
 234:	3b0b3a0e 	blcc	2cea74 <_start-0x7fd3158c>
 238:	1119270b 	tstne	r9, fp, lsl #14
 23c:	40061201 	andmi	r1, r6, r1, lsl #4
 240:	19429618 	stmdbne	r2, {r3, r4, r9, sl, ip, pc}^
 244:	01000000 	mrseq	r0, (UNDEF: 0)
 248:	0e250111 	mcreq	1, 1, r0, cr5, cr1, {0}
 24c:	0e030b13 	vmoveq.32	d3[0], r0
 250:	01110e1b 	tsteq	r1, fp, lsl lr
 254:	17100612 			; <UNDEFINED> instruction: 0x17100612
 258:	16020000 	strne	r0, [r2], -r0
 25c:	3a0e0300 	bcc	380e64 <_start-0x7fc7f19c>
 260:	490b3b0b 	stmdbmi	fp, {r0, r1, r3, r8, r9, fp, ip, sp}
 264:	03000013 	movweq	r0, #19
 268:	0b0b0024 	bleq	2c0300 <_start-0x7fd3fd00>
 26c:	0e030b3e 	vmoveq.16	d3[0], r0
 270:	24040000 	strcs	r0, [r4], #-0
 274:	3e0b0b00 	vmlacc.f64	d0, d11, d0
 278:	0008030b 	andeq	r0, r8, fp, lsl #6
 27c:	01040500 	tsteq	r4, r0, lsl #10
 280:	0b3a0b0b 	bleq	e82eb4 <_start-0x7f17d14c>
 284:	13010b3b 	movwne	r0, #6971	; 0x1b3b
 288:	28060000 	stmdacs	r6, {}	; <UNPREDICTABLE>
 28c:	1c080300 	stcne	3, cr0, [r8], {-0}
 290:	0700000d 	streq	r0, [r0, -sp]
 294:	0e030028 	cdpeq	0, 0, cr0, cr3, cr8, {1}
 298:	00000d1c 	andeq	r0, r0, ip, lsl sp
 29c:	0b000f08 	bleq	3ec4 <_start-0x7fffc13c>
 2a0:	0013490b 	andseq	r4, r3, fp, lsl #18
 2a4:	012e0900 			; <UNDEFINED> instruction: 0x012e0900
 2a8:	0e03193f 	mcreq	9, 0, r1, cr3, cr15, {1}
 2ac:	0b3b0b3a 	bleq	ec2f9c <_start-0x7f13d064>
 2b0:	06120111 			; <UNDEFINED> instruction: 0x06120111
 2b4:	42961840 	addsmi	r1, r6, #64, 16	; 0x400000
 2b8:	00130119 	andseq	r0, r3, r9, lsl r1
 2bc:	00340a00 	eorseq	r0, r4, r0, lsl #20
 2c0:	0b3a0e03 	bleq	e83ad4 <_start-0x7f17c52c>
 2c4:	13490b3b 	movtne	r0, #39739	; 0x9b3b
 2c8:	00001802 	andeq	r1, r0, r2, lsl #16
 2cc:	3f012e0b 	svccc	0x00012e0b
 2d0:	3a0e0319 	bcc	380f3c <_start-0x7fc7f0c4>
 2d4:	270b3b0b 	strcs	r3, [fp, -fp, lsl #22]
 2d8:	12011119 	andne	r1, r1, #1073741830	; 0x40000006
 2dc:	97184006 	ldrls	r4, [r8, -r6]
 2e0:	13011942 	movwne	r1, #6466	; 0x1942
 2e4:	050c0000 	streq	r0, [ip, #-0]
 2e8:	3a0e0300 	bcc	380ef0 <_start-0x7fc7f110>
 2ec:	490b3b0b 	stmdbmi	fp, {r0, r1, r3, r8, r9, fp, ip, sp}
 2f0:	00180213 	andseq	r0, r8, r3, lsl r2
 2f4:	00340d00 	eorseq	r0, r4, r0, lsl #26
 2f8:	0b3a0803 	bleq	e8230c <_start-0x7f17dcf4>
 2fc:	13490b3b 	movtne	r0, #39739	; 0x9b3b
 300:	00001802 	andeq	r1, r0, r2, lsl #16
 304:	3f012e0e 	svccc	0x00012e0e
 308:	3a0e0319 	bcc	380f74 <_start-0x7fc7f08c>
 30c:	270b3b0b 	strcs	r3, [fp, -fp, lsl #22]
 310:	12011119 	andne	r1, r1, #1073741830	; 0x40000006
 314:	96184006 	ldrls	r4, [r8], -r6
 318:	13011942 	movwne	r1, #6466	; 0x1942
 31c:	050f0000 	streq	r0, [pc, #-0]	; 324 <_start-0x7ffffcdc>
 320:	3a080300 	bcc	200f28 <_start-0x7fdff0d8>
 324:	490b3b0b 	stmdbmi	fp, {r0, r1, r3, r8, r9, fp, ip, sp}
 328:	00180213 	andseq	r0, r8, r3, lsl r2
 32c:	002e1000 	eoreq	r1, lr, r0
 330:	0e03193f 	mcreq	9, 0, r1, cr3, cr15, {1}
 334:	0b3b0b3a 	bleq	ec3024 <_start-0x7f13cfdc>
 338:	01111349 	tsteq	r1, r9, asr #6
 33c:	18400612 	stmdane	r0, {r1, r4, r9, sl}^
 340:	00194297 	mulseq	r9, r7, r2
 344:	012e1100 			; <UNDEFINED> instruction: 0x012e1100
 348:	0e03193f 	mcreq	9, 0, r1, cr3, cr15, {1}
 34c:	0b3b0b3a 	bleq	ec303c <_start-0x7f13cfc4>
 350:	13491927 	movtne	r1, #39207	; 0x9927
 354:	06120111 			; <UNDEFINED> instruction: 0x06120111
 358:	42961840 	addsmi	r1, r6, #64, 16	; 0x400000
 35c:	00130119 	andseq	r0, r3, r9, lsl r1
 360:	010b1200 	mrseq	r1, R11_fiq
 364:	06120111 			; <UNDEFINED> instruction: 0x06120111
 368:	34130000 	ldrcc	r0, [r3], #-0
 36c:	3a0e0300 	bcc	380f74 <_start-0x7fc7f08c>
 370:	490b3b0b 	stmdbmi	fp, {r0, r1, r3, r8, r9, fp, ip, sp}
 374:	02193f13 	andseq	r3, r9, #19, 30	; 0x4c
 378:	00000018 	andeq	r0, r0, r8, lsl r0
 37c:	25011101 	strcs	r1, [r1, #-257]	; 0x101
 380:	030b130e 	movweq	r1, #45838	; 0xb30e
 384:	110e1b0e 	tstne	lr, lr, lsl #22
 388:	10061201 	andne	r1, r6, r1, lsl #4
 38c:	02000017 	andeq	r0, r0, #23
 390:	193f012e 	ldmdbne	pc!, {r1, r2, r3, r5, r8}	; <UNPREDICTABLE>
 394:	0b3a0e03 	bleq	e83ba8 <_start-0x7f17c458>
 398:	19270b3b 	stmdbne	r7!, {r0, r1, r3, r4, r5, r8, r9, fp}
 39c:	01111349 	tsteq	r1, r9, asr #6
 3a0:	18400612 	stmdane	r0, {r1, r4, r9, sl}^
 3a4:	01194297 			; <UNDEFINED> instruction: 0x01194297
 3a8:	03000013 	movweq	r0, #19
 3ac:	08030005 	stmdaeq	r3, {r0, r2}
 3b0:	0b3b0b3a 	bleq	ec30a0 <_start-0x7f13cf60>
 3b4:	18021349 	stmdane	r2, {r0, r3, r6, r8, r9, ip}
 3b8:	34040000 	strcc	r0, [r4], #-0
 3bc:	3a080300 	bcc	200fc4 <_start-0x7fdff03c>
 3c0:	490b3b0b 	stmdbmi	fp, {r0, r1, r3, r8, r9, fp, ip, sp}
 3c4:	00180213 	andseq	r0, r8, r3, lsl r2
 3c8:	00240500 	eoreq	r0, r4, r0, lsl #10
 3cc:	0b3e0b0b 	bleq	f83000 <_start-0x7f07d000>
 3d0:	00000803 	andeq	r0, r0, r3, lsl #16
 3d4:	0b000f06 	bleq	3ff4 <_start-0x7fffc00c>
 3d8:	0013490b 	andseq	r4, r3, fp, lsl #18
 3dc:	00260700 	eoreq	r0, r6, r0, lsl #14
 3e0:	26080000 	strcs	r0, [r8], -r0
 3e4:	00134900 	andseq	r4, r3, r0, lsl #18
 3e8:	00240900 	eoreq	r0, r4, r0, lsl #18
 3ec:	0b3e0b0b 	bleq	f83020 <_start-0x7f07cfe0>
 3f0:	00000e03 	andeq	r0, r0, r3, lsl #28
 3f4:	3f012e0a 	svccc	0x00012e0a
 3f8:	3a0e0319 	bcc	381064 <_start-0x7fc7ef9c>
 3fc:	270b3b0b 	strcs	r3, [fp, -fp, lsl #22]
 400:	11134919 	tstne	r3, r9, lsl r9
 404:	40061201 	andmi	r1, r6, r1, lsl #4
 408:	19429618 	stmdbne	r2, {r3, r4, r9, sl, ip, pc}^
 40c:	00001301 	andeq	r1, r0, r1, lsl #6
 410:	3f012e0b 	svccc	0x00012e0b
 414:	3a0e0319 	bcc	381080 <_start-0x7fc7ef80>
 418:	270b3b0b 	strcs	r3, [fp, -fp, lsl #22]
 41c:	11134919 	tstne	r3, r9, lsl r9
 420:	40061201 	andmi	r1, r6, r1, lsl #4
 424:	19429718 	stmdbne	r2, {r3, r4, r8, r9, sl, ip, pc}^
 428:	340c0000 	strcc	r0, [ip], #-0
 42c:	3a0e0300 	bcc	381034 <_start-0x7fc7efcc>
 430:	490b3b0b 	stmdbmi	fp, {r0, r1, r3, r8, r9, fp, ip, sp}
 434:	00180213 	andseq	r0, r8, r3, lsl r2
	...

Disassembly of section .debug_aranges:

00000000 <.debug_aranges>:
   0:	0000001c 	andeq	r0, r0, ip, lsl r0
   4:	00000002 	andeq	r0, r0, r2
   8:	00040000 	andeq	r0, r4, r0
   c:	00000000 	andeq	r0, r0, r0
  10:	8000003c 	andhi	r0, r0, ip, lsr r0
  14:	00000068 	andeq	r0, r0, r8, rrx
	...
  20:	0000001c 	andeq	r0, r0, ip, lsl r0
  24:	00830002 	addeq	r0, r3, r2
  28:	00040000 	andeq	r0, r4, r0
  2c:	00000000 	andeq	r0, r0, r0
  30:	800000a4 	andhi	r0, r0, r4, lsr #1
  34:	000000ec 	andeq	r0, r0, ip, ror #1
	...
  40:	0000001c 	andeq	r0, r0, ip, lsl r0
  44:	04e40002 	strbteq	r0, [r4], #2
  48:	00040000 	andeq	r0, r4, r0
  4c:	00000000 	andeq	r0, r0, r0
  50:	80000190 	mulhi	r0, r0, r1
  54:	000000ec 	andeq	r0, r0, ip, ror #1
	...
  60:	0000001c 	andeq	r0, r0, ip, lsl r0
  64:	0bea0002 	bleq	ffa80074 <value+0x7fa7f3e4>
  68:	00040000 	andeq	r0, r4, r0
  6c:	00000000 	andeq	r0, r0, r0
  70:	8000027c 	andhi	r0, r0, ip, ror r2
  74:	00000060 	andeq	r0, r0, r0, rrx
	...
  80:	0000001c 	andeq	r0, r0, ip, lsl r0
  84:	0c960002 	ldceq	0, cr0, [r6], {2}
  88:	00040000 	andeq	r0, r4, r0
  8c:	00000000 	andeq	r0, r0, r0
  90:	800002e0 	andhi	r0, r0, r0, ror #5
  94:	00000424 	andeq	r0, r0, r4, lsr #8
	...
  a0:	0000001c 	andeq	r0, r0, ip, lsl r0
  a4:	13aa0002 			; <UNDEFINED> instruction: 0x13aa0002
  a8:	00040000 	andeq	r0, r4, r0
  ac:	00000000 	andeq	r0, r0, r0
  b0:	80000704 	andhi	r0, r0, r4, lsl #14
  b4:	00000560 	andeq	r0, r0, r0, ror #10
	...

Disassembly of section .debug_line:

00000000 <.debug_line>:
   0:	00000041 	andeq	r0, r0, r1, asr #32
   4:	00280002 	eoreq	r0, r8, r2
   8:	01020000 	mrseq	r0, (UNDEF: 2)
   c:	000d0efb 	strdeq	r0, [sp], -fp
  10:	01010101 	tsteq	r1, r1, lsl #2
  14:	01000000 	mrseq	r0, (UNDEF: 0)
  18:	00010000 	andeq	r0, r1, r0
  1c:	4f495047 	svcmi	0x00495047
  20:	0000632e 	andeq	r6, r0, lr, lsr #6
  24:	79740000 	ldmdbvc	r4!, {}^	; <UNPREDICTABLE>
  28:	2e736570 	mrccs	5, 3, r6, cr3, cr0, {3}
  2c:	00000068 	andeq	r0, r0, r8, rrx
  30:	05000000 	streq	r0, [r0, #-0]
  34:	00003c02 	andeq	r3, r0, r2, lsl #24
  38:	9f691580 	svcls	0x00691580
  3c:	83846783 	orrhi	r6, r4, #34340864	; 0x20c0000
  40:	01000602 	tsteq	r0, r2, lsl #12
  44:	00005301 	andeq	r5, r0, r1, lsl #6
  48:	34000200 	strcc	r0, [r0], #-512	; 0x200
  4c:	02000000 	andeq	r0, r0, #0
  50:	0d0efb01 	vstreq	d15, [lr, #-4]
  54:	01010100 	mrseq	r0, (UNDEF: 17)
  58:	00000001 	andeq	r0, r0, r1
  5c:	01000001 	tsteq	r0, r1
  60:	6f6c6300 	svcvs	0x006c6300
  64:	632e6b63 			; <UNDEFINED> instruction: 0x632e6b63
  68:	00000000 	andeq	r0, r0, r0
  6c:	65707974 	ldrbvs	r7, [r0, #-2420]!	; 0x974
  70:	00682e73 	rsbeq	r2, r8, r3, ror lr
  74:	63000000 	movwvs	r0, #0
  78:	6b636f6c 	blvs	18dbe30 <_start-0x7e7241d0>
  7c:	0000682e 	andeq	r6, r0, lr, lsr #16
  80:	00000000 	andeq	r0, r0, r0
  84:	00a40205 	adceq	r0, r4, r5, lsl #4
  88:	d7158000 	ldrle	r8, [r5, -r0]
  8c:	83bb69bb 			; <UNDEFINED> instruction: 0x83bb69bb
  90:	4b822503 	blmi	fe0894a4 <value+0x7e088814>
  94:	02f3f3f3 	rscseq	pc, r3, #-872415229	; 0xcc000003
  98:	01010006 	tsteq	r1, r6
  9c:	00000068 	andeq	r0, r0, r8, rrx
  a0:	00460002 	subeq	r0, r6, r2
  a4:	01020000 	mrseq	r0, (UNDEF: 2)
  a8:	000d0efb 	strdeq	r0, [sp], -fp
  ac:	01010101 	tsteq	r1, r1, lsl #2
  b0:	01000000 	mrseq	r0, (UNDEF: 0)
  b4:	00010000 	andeq	r0, r1, r0
  b8:	746e6f63 	strbtvc	r6, [lr], #-3939	; 0xf63
  bc:	5f6c6f72 	svcpl	0x006c6f72
  c0:	75646f6d 	strbvc	r6, [r4, #-3949]!	; 0xf6d
  c4:	632e656c 			; <UNDEFINED> instruction: 0x632e656c
  c8:	00000000 	andeq	r0, r0, r0
  cc:	65707974 	ldrbvs	r7, [r0, #-2420]!	; 0x974
  d0:	00682e73 	rsbeq	r2, r8, r3, ror lr
  d4:	63000000 	movwvs	r0, #0
  d8:	72746e6f 	rsbsvc	r6, r4, #1776	; 0x6f0
  dc:	6d5f6c6f 	ldclvs	12, cr6, [pc, #-444]	; ffffff28 <value+0x7ffff298>
  e0:	6c75646f 	cfldrdvs	mvd6, [r5], #-444	; 0xfffffe44
  e4:	00682e65 	rsbeq	r2, r8, r5, ror #28
  e8:	00000000 	andeq	r0, r0, r0
  ec:	90020500 	andls	r0, r2, r0, lsl #10
  f0:	15800001 	strne	r0, [r0, #1]
  f4:	9f69bbbc 	svcls	0x0069bbbc
  f8:	67bb8583 	ldrvs	r8, [fp, r3, lsl #11]!
  fc:	52858367 	addpl	r8, r5, #-1677721599	; 0x9c000001
 100:	026b674c 	rsbeq	r6, fp, #76, 14	; 0x1300000
 104:	01010002 	tsteq	r1, r2
 108:	00000055 	andeq	r0, r0, r5, asr r0
 10c:	00360002 	eorseq	r0, r6, r2
 110:	01020000 	mrseq	r0, (UNDEF: 2)
 114:	000d0efb 	strdeq	r0, [sp], -fp
 118:	01010101 	tsteq	r1, r1, lsl #2
 11c:	01000000 	mrseq	r0, (UNDEF: 0)
 120:	00010000 	andeq	r0, r1, r0
 124:	6e69616d 	powvsez	f6, f1, #5.0
 128:	0000632e 	andeq	r6, r0, lr, lsr #6
 12c:	61750000 	cmnvs	r5, r0
 130:	635f7472 	cmpvs	pc, #1912602624	; 0x72000000
 134:	6f736e6f 	svcvs	0x00736e6f
 138:	685f656c 	ldmdavs	pc, {r2, r3, r5, r6, r8, sl, sp, lr}^	; <UNPREDICTABLE>
 13c:	65646165 	strbvs	r6, [r4, #-357]!	; 0x165
 140:	00682e72 	rsbeq	r2, r8, r2, ror lr
 144:	00000000 	andeq	r0, r0, r0
 148:	7c020500 	cfstr32vc	mvfx0, [r2], {-0}
 14c:	03800002 	orreq	r0, r0, #2
 150:	304b0109 	subcc	r0, fp, r9, lsl #2
 154:	67674bbb 			; <UNDEFINED> instruction: 0x67674bbb
 158:	660c0367 	strvs	r0, [ip], -r7, ror #6
 15c:	01000202 	tsteq	r0, r2, lsl #4
 160:	0000ef01 	andeq	lr, r0, r1, lsl #30
 164:	5e000200 	cdppl	2, 0, cr0, cr0, cr0, {0}
 168:	02000000 	andeq	r0, r0, #0
 16c:	0d0efb01 	vstreq	d15, [lr, #-4]
 170:	01010100 	mrseq	r0, (UNDEF: 17)
 174:	00000001 	andeq	r0, r0, r1
 178:	01000001 	tsteq	r0, r1
 17c:	72617500 	rsbvc	r7, r1, #0, 10
 180:	6f635f74 	svcvs	0x00635f74
 184:	6c6f736e 	stclvs	3, cr7, [pc], #-440	; ffffffd4 <value+0x7ffff344>
 188:	00632e65 	rsbeq	r2, r3, r5, ror #28
 18c:	74000000 	strvc	r0, [r0], #-0
 190:	73657079 	cmnvc	r5, #121	; 0x79
 194:	0000682e 	andeq	r6, r0, lr, lsr #16
 198:	61750000 	cmnvs	r5, r0
 19c:	682e7472 	stmdavs	lr!, {r1, r4, r5, r6, sl, ip, sp, lr}
 1a0:	00000000 	andeq	r0, r0, r0
 1a4:	74726175 	ldrbtvc	r6, [r2], #-373	; 0x175
 1a8:	6e6f635f 	mcrvs	3, 3, r6, cr15, cr15, {2}
 1ac:	656c6f73 	strbvs	r6, [ip, #-3955]!	; 0xf73
 1b0:	6165685f 	cmnvs	r5, pc, asr r8
 1b4:	2e726564 	cdpcs	5, 7, cr6, cr2, cr4, {3}
 1b8:	00000068 	andeq	r0, r0, r8, rrx
 1bc:	6f6c6300 	svcvs	0x006c6300
 1c0:	682e6b63 	stmdavs	lr!, {r0, r1, r5, r6, r8, r9, fp, sp, lr}
 1c4:	00000000 	andeq	r0, r0, r0
 1c8:	02050000 	andeq	r0, r5, #0
 1cc:	800002e0 	andhi	r0, r0, r0, ror #5
 1d0:	9f67671a 	svcls	0x0067671a
 1d4:	01040200 	mrseq	r0, R12_usr
 1d8:	f4062e06 			; <UNDEFINED> instruction: 0xf4062e06
 1dc:	67838450 			; <UNDEFINED> instruction: 0x67838450
 1e0:	04020083 	streq	r0, [r2], #-131	; 0x83
 1e4:	062e0601 	strteq	r0, [lr], -r1, lsl #12
 1e8:	a1679fbb 	strhge	r9, [r7, #-251]!	; 0xffffff05
 1ec:	01040200 	mrseq	r0, R12_usr
 1f0:	bd062e06 	stclt	14, cr2, [r6, #-24]	; 0xffffffe8
 1f4:	f3848383 	vsubw.u8	q4, q10, d3
 1f8:	83838383 	orrhi	r8, r3, #201326594	; 0xc000002
 1fc:	833d088a 	teqhi	sp, #9043968	; 0x8a0000
 200:	83f49f83 	mvnshi	r9, #524	; 0x20c
 204:	9208a184 	andls	sl, r8, #132, 2	; 0x21
 208:	4d4b3131 	stfmie	f3, [fp, #-196]	; 0xffffff3c
 20c:	004c679f 	umaaleq	r6, ip, pc, r7	; <UNPREDICTABLE>
 210:	06010402 	streq	r0, [r1], -r2, lsl #8
 214:	83d9062e 	bicshi	r0, r9, #48234496	; 0x2e00000
 218:	02004b4c 	andeq	r4, r0, #76, 22	; 0x13000
 21c:	2e060104 	adfcss	f0, f6, f4
 220:	8583d706 	strhi	sp, [r3, #1798]	; 0x706
 224:	02008383 	andeq	r8, r0, #201326594	; 0xc000002
 228:	00680304 	rsbeq	r0, r8, r4, lsl #6
 22c:	b8030402 	stmdalt	r3, {r1, sl}
 230:	01040200 	mrseq	r0, R12_usr
 234:	86066606 	strhi	r6, [r6], -r6, lsl #12
 238:	8383692f 	orrhi	r6, r3, #770048	; 0xbc000
 23c:	03040200 	movweq	r0, #16896	; 0x4200
 240:	04020068 	streq	r0, [r2], #-104	; 0x68
 244:	0200b803 	andeq	fp, r0, #196608	; 0x30000
 248:	66060104 	strvs	r0, [r6], -r4, lsl #2
 24c:	022f8606 	eoreq	r8, pc, #6291456	; 0x600000
 250:	01010006 	tsteq	r1, r6
 254:	000000e9 	andeq	r0, r0, r9, ror #1
 258:	00250002 	eoreq	r0, r5, r2
 25c:	01020000 	mrseq	r0, (UNDEF: 2)
 260:	000d0efb 	strdeq	r0, [sp], -fp
 264:	01010101 	tsteq	r1, r1, lsl #2
 268:	01000000 	mrseq	r0, (UNDEF: 0)
 26c:	2e010000 	cdpcs	0, 0, cr0, cr1, cr0, {0}
 270:	6372732f 	cmnvs	r2, #-1140850688	; 0xbc000000
 274:	74730000 	ldrbtvc	r0, [r3], #-0
 278:	676e6972 			; <UNDEFINED> instruction: 0x676e6972
 27c:	0100632e 	tsteq	r0, lr, lsr #6
 280:	00000000 	andeq	r0, r0, r0
 284:	07040205 	streq	r0, [r4, -r5, lsl #4]
 288:	0a038000 	beq	e0290 <_start-0x7ff1fd70>
 28c:	4b4bbb01 	blmi	12eee98 <_start-0x7ed11168>
 290:	02004c67 	andeq	r4, r0, #26368	; 0x6700
 294:	2e060204 	cdpcs	2, 0, cr0, cr6, cr4, {0}
 298:	01040200 	mrseq	r0, R12_usr
 29c:	3f08069e 	svccc	0x0008069e
 2a0:	4b8384bb 	blmi	fe0e1594 <value+0x7e0e0904>
 2a4:	2fbc652f 	svccs	0x00bc652f
 2a8:	004b9f85 	subeq	r9, fp, r5, lsl #31
 2ac:	06010402 	streq	r0, [r1], -r2, lsl #8
 2b0:	5908062e 	stmdbpl	r8, {r1, r2, r3, r5, r9, sl}
 2b4:	4bbb862f 	blmi	feee1b78 <value+0x7eee0ee8>
 2b8:	02040200 	andeq	r0, r4, #0, 4
 2bc:	02002e06 	andeq	r2, r0, #6, 28	; 0x60
 2c0:	069e0104 	ldreq	r0, [lr], r4, lsl #2
 2c4:	9f2f5908 	svcls	0x002f5908
 2c8:	842f6a64 	strthi	r6, [pc], #-2660	; 2d0 <_start-0x7ffffd30>
 2cc:	0200679f 	andeq	r6, r0, #41680896	; 0x27c0000
 2d0:	2e060104 	adfcss	f0, f6, f4
 2d4:	2fae0806 	svccs	0x00ae0806
 2d8:	0067bb68 	rsbeq	fp, r7, r8, ror #22
 2dc:	06020402 	streq	r0, [r2], -r2, lsl #8
 2e0:	0402002e 	streq	r0, [r2], #-46	; 0x2e
 2e4:	08069e01 	stmdaeq	r6, {r0, r9, sl, fp, ip, pc}
 2e8:	64f32fad 	ldrbtvs	r2, [r3], #4013	; 0xfad
 2ec:	9f69306a 	svcls	0x0069306a
 2f0:	672fbb2f 	strvs	fp, [pc, -pc, lsr #22]!
 2f4:	04020062 	streq	r0, [r2], #-98	; 0x62
 2f8:	06820601 	streq	r0, [r2], r1, lsl #12
 2fc:	bc86bc88 	stclt	12, cr11, [r6], {136}	; 0x88
 300:	672fbb2f 	strvs	fp, [pc, -pc, lsr #22]!
 304:	02006167 	andeq	r6, r0, #-1073741799	; 0xc0000019
 308:	82060104 	andhi	r0, r6, #4, 2
 30c:	02040200 	andeq	r0, r4, #0, 4
 310:	bb6d0682 	bllt	1b41d20 <_start-0x7e4be2e0>
 314:	304b9f84 	subcc	r9, fp, r4, lsl #31
 318:	04020064 	streq	r0, [r2], #-100	; 0x64
 31c:	06820601 	streq	r0, [r2], r1, lsl #12
 320:	040200a2 	streq	r0, [r2], #-162	; 0xa2
 324:	00820601 	addeq	r0, r2, r1, lsl #12
 328:	4a020402 	bmi	81338 <_start-0x7ff7ecc8>
 32c:	04040200 	streq	r0, [r4], #-512	; 0x200
 330:	9f842f06 	svcls	0x00842f06
 334:	9f2f4b4b 	svcls	0x002f4b4b
 338:	2f87634b 	svccs	0x0087634b
 33c:	01000802 	tsteq	r0, r2, lsl #16
 340:	Address 0x0000000000000340 is out of bounds.


Disassembly of section .debug_str:

00000000 <.debug_str>:
       0:	5f44454c 	svcpl	0x0044454c
       4:	74696e69 	strbtvc	r6, [r9], #-3689	; 0xe69
       8:	6f687300 	svcvs	0x00687300
       c:	75207472 	strvc	r7, [r0, #-1138]!	; 0x472
      10:	6769736e 	strbvs	r7, [r9, -lr, ror #6]!
      14:	2064656e 	rsbcs	r6, r4, lr, ror #10
      18:	00746e69 	rsbseq	r6, r4, r9, ror #28
      1c:	746e6975 	strbtvc	r6, [lr], #-2421	; 0x975
      20:	745f3233 	ldrbvc	r3, [pc], #-563	; 28 <_start-0x7fffffd8>
      24:	6f687300 	svcvs	0x00687300
      28:	69207472 	stmdbvs	r0!, {r1, r4, r5, r6, sl, ip, sp, lr}
      2c:	4700746e 	strmi	r7, [r0, -lr, ror #8]
      30:	2e4f4950 	mcrcs	9, 2, r4, cr15, cr0, {2}
      34:	6e750063 	cdpvs	0, 7, cr0, cr5, cr3, {3}
      38:	6e676973 	mcrvs	9, 3, r6, cr7, cr3, {3}
      3c:	63206465 			; <UNDEFINED> instruction: 0x63206465
      40:	00726168 	rsbseq	r6, r2, r8, ror #2
      44:	6d6f682f 	stclvs	8, cr6, [pc, #-188]!	; ffffff90 <value+0x7ffff300>
      48:	68732f65 	ldmdavs	r3!, {r0, r2, r5, r6, r8, r9, sl, fp, sp}^
      4c:	69687361 	stmdbvs	r8!, {r0, r5, r6, r8, r9, ip, sp, lr}^
      50:	6261642f 	rsbvs	r6, r1, #788529152	; 0x2f000000
      54:	422f6162 	eormi	r6, pc, #-2147483624	; 0x80000018
      58:	575f4242 	ldrbpl	r4, [pc, -r2, asr #4]
      5c:	696b726f 	stmdbvs	fp!, {r0, r1, r2, r3, r5, r6, r9, ip, sp, lr}^
      60:	422f676e 	eormi	r6, pc, #28835840	; 0x1b80000
      64:	6c676165 	stfvse	f6, [r7], #-404	; 0xfffffe6c
      68:	6e6f4265 	cdpvs	2, 6, cr4, cr15, cr5, {3}
      6c:	616c4265 	cmnvs	ip, r5, ror #4
      70:	6c2f6b63 	stcvs	11, cr6, [pc], #-396	; fffffeec <value+0x7ffff25c>
      74:	6c5f776f 	mrrcvs	7, 6, r7, pc, cr15	; <UNPREDICTABLE>
      78:	6c657665 	stclvs	6, cr7, [r5], #-404	; 0xfffffe6c
      7c:	696e695f 	stmdbvs	lr!, {r0, r1, r2, r3, r4, r6, r8, fp, sp, lr}^
      80:	4e470074 	mcrmi	0, 2, r0, cr7, cr4, {3}
      84:	20432055 	subcs	r2, r3, r5, asr r0
      88:	2e392e34 	mrccs	14, 1, r2, cr9, cr4, {1}
      8c:	30322033 	eorscc	r2, r2, r3, lsr r0
      90:	35303531 	ldrcc	r3, [r0, #-1329]!	; 0x531
      94:	28203932 	stmdacs	r0!, {r1, r4, r5, r8, fp, ip, sp}
      98:	656c6572 	strbvs	r6, [ip, #-1394]!	; 0x572
      9c:	29657361 	stmdbcs	r5!, {r0, r5, r6, r8, r9, ip, sp, lr}^
      a0:	52415b20 	subpl	r5, r1, #32, 22	; 0x8000
      a4:	6d652f4d 	stclvs	15, cr2, [r5, #-308]!	; 0xfffffecc
      a8:	64646562 	strbtvs	r6, [r4], #-1378	; 0x562
      ac:	342d6465 	strtcc	r6, [sp], #-1125	; 0x465
      b0:	622d395f 	eorvs	r3, sp, #1556480	; 0x17c000
      b4:	636e6172 	cmnvs	lr, #-2147483620	; 0x8000001c
      b8:	65722068 	ldrbvs	r2, [r2, #-104]!	; 0x68
      bc:	69736976 	ldmdbvs	r3!, {r1, r2, r4, r5, r6, r8, fp, sp, lr}^
      c0:	32206e6f 	eorcc	r6, r0, #1776	; 0x6f0
      c4:	37393732 			; <UNDEFINED> instruction: 0x37393732
      c8:	2d205d37 	stccs	13, cr5, [r0, #-220]!	; 0xffffff24
      cc:	7570666d 	ldrbvc	r6, [r0, #-1645]!	; 0x66d
      d0:	6f656e3d 	svcvs	0x00656e3d
      d4:	6d2d206e 	stcvs	0, cr2, [sp, #-440]!	; 0xfffffe48
      d8:	616f6c66 	cmnvs	pc, r6, ror #24
      dc:	62612d74 	rsbvs	r2, r1, #116, 26	; 0x1d00
      e0:	61683d69 	cmnvs	r8, r9, ror #26
      e4:	2d206472 	cfstrscs	mvf6, [r0, #-456]!	; 0xfffffe38
      e8:	7570636d 	ldrbvc	r6, [r0, #-877]!	; 0x36d
      ec:	726f633d 	rsbvc	r6, pc, #-201326592	; 0xf4000000
      f0:	2d786574 	cfldr64cs	mvdx6, [r8, #-464]!	; 0xfffffe30
      f4:	2d203861 	stccs	8, cr3, [r0, #-388]!	; 0xfffffe7c
      f8:	732d2067 			; <UNDEFINED> instruction: 0x732d2067
      fc:	673d6474 			; <UNDEFINED> instruction: 0x673d6474
     100:	3939756e 	ldmdbcc	r9!, {r1, r2, r3, r5, r6, r8, sl, ip, sp, lr}
     104:	5f4d4300 	svcpl	0x004d4300
     108:	5f524550 	svcpl	0x00524550
     10c:	435f334c 	cmpmi	pc, #76, 6	; 0x30000001
     110:	54534b4c 	ldrbpl	r4, [r3], #-2892	; 0xb4c
     114:	4c525443 	cfldrdmi	mvd5, [r2], {67}	; 0x43
     118:	5f4d4300 	svcpl	0x004d4300
     11c:	5f524550 	svcpl	0x00524550
     120:	5341434d 	movtpl	r4, #4941	; 0x134d
     124:	435f3050 	cmpmi	pc, #80	; 0x50
     128:	54434b4c 	strbpl	r4, [r3], #-2892	; 0xb4c
     12c:	43004c52 	movwmi	r4, #3154	; 0xc52
     130:	45505f4d 	ldrbmi	r5, [r0, #-3917]	; 0xf4d
     134:	50535f52 	subspl	r5, r3, r2, asr pc
     138:	435f3049 	cmpmi	pc, #73	; 0x49
     13c:	54434b4c 	strbpl	r4, [r3], #-2892	; 0xb4c
     140:	43004c52 	movwmi	r4, #3154	; 0xc52
     144:	45505f4d 	ldrbmi	r5, [r0, #-3917]	; 0xf4d
     148:	344c5f52 	strbcc	r5, [ip], #-3922	; 0xf52
     14c:	435f5348 	cmpmi	pc, #72, 6	; 0x20000001
     150:	54534b4c 	ldrbpl	r4, [r3], #-2892	; 0xb4c
     154:	4c525443 	cfldrdmi	mvd5, [r2], {67}	; 0x43
     158:	5f4d4300 	svcpl	0x004d4300
     15c:	5f524550 	svcpl	0x00524550
     160:	54524155 	ldrbpl	r4, [r2], #-341	; 0x155
     164:	4c435f34 	mcrrmi	15, 3, r5, r3, cr4
     168:	5254434b 	subspl	r4, r4, #738197505	; 0x2c000001
     16c:	4d43004c 	stclmi	0, cr0, [r3, #-304]	; 0xfffffed0
     170:	5245505f 	subpl	r5, r5, #95	; 0x5f
     174:	41434d5f 	cmpmi	r3, pc, asr sp
     178:	5f315053 	svcpl	0x00315053
     17c:	434b4c43 	movtmi	r4, #48195	; 0xbc43
     180:	004c5254 	subeq	r5, ip, r4, asr r2
     184:	505f4d43 	subspl	r4, pc, r3, asr #26
     188:	545f5245 	ldrbpl	r5, [pc], #-581	; 190 <_start-0x7ffffe70>
     18c:	30435450 	subcc	r5, r3, r0, asr r4
     190:	4b4c435f 	blmi	1310f14 <_start-0x7ecef0ec>
     194:	4c525443 	cfldrdmi	mvd5, [r2], {67}	; 0x43
     198:	5f4d4300 	svcpl	0x004d4300
     19c:	5f524550 	svcpl	0x00524550
     1a0:	5746344c 	strbpl	r3, [r6, -ip, asr #8]
     1a4:	4b4c435f 	blmi	1310f28 <_start-0x7ecef0d8>
     1a8:	54435453 	strbpl	r5, [r3], #-1107	; 0x453
     1ac:	43004c52 	movwmi	r4, #3154	; 0xc52
     1b0:	53535f4d 	cmppl	r3, #308	; 0x134
     1b4:	4f4d5f43 	svcmi	0x004d5f43
     1b8:	45524644 	ldrbmi	r4, [r2, #-1604]	; 0x644
     1bc:	56494451 			; <UNDEFINED> instruction: 0x56494451
     1c0:	4c50445f 	cfldrdmi	mvd4, [r0], {95}	; 0x5f
     1c4:	44445f4c 	strbmi	r5, [r4], #-3916	; 0xf4c
     1c8:	6e490052 	mcrvs	0, 2, r0, cr9, cr2, {2}
     1cc:	555f7469 	ldrbpl	r7, [pc, #-1129]	; fffffd6b <value+0x7ffff0db>
     1d0:	30545241 	subscc	r5, r4, r1, asr #4
     1d4:	6b6c435f 	blvs	1b10f58 <_start-0x7e4ef0a8>
     1d8:	5f4d4300 	svcpl	0x004d4300
     1dc:	5f524550 	svcpl	0x00524550
     1e0:	54524155 	ldrbpl	r4, [r2], #-341	; 0x155
     1e4:	4c435f35 	mcrrmi	15, 3, r5, r3, cr5
     1e8:	5254434b 	subspl	r4, r4, #738197505	; 0x2c000001
     1ec:	4d43004c 	stclmi	0, cr0, [r3, #-304]	; 0xfffffed0
     1f0:	4353535f 	cmpmi	r3, #2080374785	; 0x7c000001
     1f4:	4c45445f 	cfstrdmi	mvd4, [r5], {95}	; 0x5f
     1f8:	534d4154 	movtpl	r4, #53588	; 0xd154
     1fc:	5f504554 	svcpl	0x00504554
     200:	4c4c5044 	mcrrmi	0, 4, r5, ip, cr4
     204:	5349445f 	movtpl	r4, #37983	; 0x945f
     208:	4d430050 	stclmi	0, cr0, [r3, #-320]	; 0xfffffec0
     20c:	4c44495f 	mcrrmi	9, 5, r4, r4, cr15
     210:	5f545345 	svcpl	0x00545345
     214:	4c4c5044 	mcrrmi	0, 4, r5, ip, cr4
     218:	5244445f 	subpl	r4, r4, #1593835520	; 0x5f000000
     21c:	5f4d4300 	svcpl	0x004d4300
     220:	4f545541 	svcmi	0x00545541
     224:	454c4449 	strbmi	r4, [ip, #-1097]	; 0x449
     228:	4c50445f 	cfldrdmi	mvd4, [r0], {95}	; 0x5f
     22c:	45505f4c 	ldrbmi	r5, [r0, #-3916]	; 0xf4c
     230:	4d430052 	stclmi	0, cr0, [r3, #-328]	; 0xfffffeb8
     234:	5649445f 			; <UNDEFINED> instruction: 0x5649445f
     238:	5f354d5f 	svcpl	0x00354d5f
     23c:	4c4c5044 	mcrrmi	0, 4, r5, ip, cr4
     240:	524f435f 	subpl	r4, pc, #2080374785	; 0x7c000001
     244:	4d430045 	stclmi	0, cr0, [r3, #-276]	; 0xfffffeec
     248:	4353535f 	cmpmi	r3, #2080374785	; 0x7c000001
     24c:	4c45445f 	cfstrdmi	mvd4, [r5], {95}	; 0x5f
     250:	534d4154 	movtpl	r4, #53588	; 0xd154
     254:	5f504554 	svcpl	0x00504554
     258:	4c4c5044 	mcrrmi	0, 4, r5, ip, cr4
     25c:	5245505f 	subpl	r5, r5, #95	; 0x5f
     260:	6c617600 	stclvs	6, cr7, [r1], #-0
     264:	43006575 	movwmi	r6, #1397	; 0x575
     268:	45505f4d 	ldrbmi	r5, [r0, #-3917]	; 0xf4d
     26c:	50545f52 	subspl	r5, r4, r2, asr pc
     270:	435f4343 	cmpmi	pc, #201326593	; 0xc000001
     274:	54434b4c 	strbpl	r4, [r3], #-2892	; 0xb4c
     278:	43004c52 	movwmi	r4, #3154	; 0xc52
     27c:	45505f4d 	ldrbmi	r5, [r0, #-3917]	; 0xf4d
     280:	4c435f52 	mcrrmi	15, 5, r5, r3, cr2
     284:	5649444b 	strbpl	r4, [r9], -fp, asr #8
     288:	5f4b3233 	svcpl	0x004b3233
     28c:	434b4c43 	movtmi	r4, #48195	; 0xbc43
     290:	004c5254 	subeq	r5, ip, r4, asr r2
     294:	415f4d43 	cmpmi	pc, r3, asr #26
     298:	494f5455 	stmdbmi	pc, {r0, r2, r4, r6, sl, ip, lr}^	; <UNPREDICTABLE>
     29c:	5f454c44 	svcpl	0x00454c44
     2a0:	4c4c5044 	mcrrmi	0, 4, r5, ip, cr4
     2a4:	524f435f 	subpl	r4, pc, #2080374785	; 0x7c000001
     2a8:	4d430045 	stclmi	0, cr0, [r3, #-276]	; 0xfffffeec
     2ac:	5649445f 			; <UNDEFINED> instruction: 0x5649445f
     2b0:	5f324d5f 	svcpl	0x00324d5f
     2b4:	4c4c5044 	mcrrmi	0, 4, r5, ip, cr4
     2b8:	55504d5f 	ldrbpl	r4, [r0, #-3423]	; 0xd5f
     2bc:	5f4d4300 	svcpl	0x004d4300
     2c0:	5f524550 	svcpl	0x00524550
     2c4:	4e414344 	cdpmi	3, 4, cr4, cr1, cr4, {2}
     2c8:	4c435f30 	mcrrmi	15, 3, r5, r3, cr0
     2cc:	5254434b 	subspl	r4, r4, #738197505	; 0x2c000001
     2d0:	4d43004c 	stclmi	0, cr0, [r3, #-304]	; 0xfffffed0
     2d4:	5245505f 	subpl	r5, r5, #95	; 0x5f
     2d8:	46344c5f 			; <UNDEFINED> instruction: 0x46344c5f
     2dc:	4c435f57 	mcrrmi	15, 5, r5, r3, cr7
     2e0:	5254434b 	subspl	r4, r4, #738197505	; 0x2c000001
     2e4:	4d43004c 	stclmi	0, cr0, [r3, #-304]	; 0xfffffed0
     2e8:	4354525f 	cmpmi	r4, #-268435451	; 0xf0000005
     2ec:	5f4d4300 	svcpl	0x004d4300
     2f0:	5f524550 	svcpl	0x00524550
     2f4:	30434d4d 	subcc	r4, r3, sp, asr #26
     2f8:	4b4c435f 	blmi	131107c <_start-0x7eceef84>
     2fc:	4c525443 	cfldrdmi	mvd5, [r2], {67}	; 0x43
     300:	5f4d4300 	svcpl	0x004d4300
     304:	534b4c43 	movtpl	r4, #48195	; 0xbc43
     308:	445f4c45 	ldrbmi	r4, [pc], #-3141	; 310 <_start-0x7ffffcf0>
     30c:	5f4c4c50 	svcpl	0x004c4c50
     310:	45524f43 	ldrbmi	r4, [r2, #-3907]	; 0xf43
     314:	5f4d4300 	svcpl	0x004d4300
     318:	5f524550 	svcpl	0x00524550
     31c:	31433249 	cmpcc	r3, r9, asr #4
     320:	4b4c435f 	blmi	13110a4 <_start-0x7eceef5c>
     324:	4c525443 	cfldrdmi	mvd5, [r2], {67}	; 0x43
     328:	5f4d4300 	svcpl	0x004d4300
     32c:	5f564944 	svcpl	0x00564944
     330:	445f344d 	ldrbmi	r3, [pc], #-1101	; 338 <_start-0x7ffffcc8>
     334:	5f4c4c50 	svcpl	0x004c4c50
     338:	45524f43 	ldrbmi	r4, [r2, #-3907]	; 0xf43
     33c:	5f4d4300 	svcpl	0x004d4300
     340:	5f524550 	svcpl	0x00524550
     344:	45454549 	strbmi	r4, [r5, #-1353]	; 0x549
     348:	30303035 	eorscc	r3, r0, r5, lsr r0
     34c:	4b4c435f 	blmi	13110d0 <_start-0x7eceef30>
     350:	4c525443 	cfldrdmi	mvd5, [r2], {67}	; 0x43
     354:	5f4d4300 	svcpl	0x004d4300
     358:	5f524550 	svcpl	0x00524550
     35c:	454d4954 	strbmi	r4, [sp, #-2388]	; 0x954
     360:	435f3252 	cmpmi	pc, #536870917	; 0x20000005
     364:	54434b4c 	strbpl	r4, [r3], #-2892	; 0xb4c
     368:	43004c52 	movwmi	r4, #3154	; 0xc52
     36c:	45505f4d 	ldrbmi	r5, [r0, #-3917]	; 0xf4d
     370:	4d4d5f52 	stclmi	15, cr5, [sp, #-328]	; 0xfffffeb8
     374:	435f3143 	cmpmi	pc, #-1073741808	; 0xc0000010
     378:	54434b4c 	strbpl	r4, [r3], #-2892	; 0xb4c
     37c:	43004c52 	movwmi	r4, #3154	; 0xc52
     380:	53535f4d 	cmppl	r3, #308	; 0x134
     384:	4f4d5f43 	svcmi	0x004d5f43
     388:	45524644 	ldrbmi	r4, [r2, #-1604]	; 0x644
     38c:	56494451 			; <UNDEFINED> instruction: 0x56494451
     390:	4c50445f 	cfldrdmi	mvd4, [r0], {95}	; 0x5f
     394:	504d5f4c 	subpl	r5, sp, ip, asr #30
     398:	4d430055 	stclmi	0, cr0, [r3, #-340]	; 0xfffffeac
     39c:	5245505f 	subpl	r5, r5, #95	; 0x5f
     3a0:	4332495f 	teqmi	r2, #1556480	; 0x17c000
     3a4:	4c435f32 	mcrrmi	15, 3, r5, r3, cr2
     3a8:	5254434b 	subspl	r4, r4, #738197505	; 0x2c000001
     3ac:	4d43004c 	stclmi	0, cr0, [r3, #-304]	; 0xfffffed0
     3b0:	5245505f 	subpl	r5, r5, #95	; 0x5f
     3b4:	5241555f 	subpl	r5, r1, #398458880	; 0x17c00000
     3b8:	435f3354 	cmpmi	pc, #84, 6	; 0x50000001
     3bc:	54434b4c 	strbpl	r4, [r3], #-2892	; 0xb4c
     3c0:	43004c52 	movwmi	r4, #3154	; 0xc52
     3c4:	45505f4d 	ldrbmi	r5, [r0, #-3917]	; 0xf4d
     3c8:	49545f52 	ldmdbmi	r4, {r1, r4, r6, r8, r9, sl, fp, ip, lr}^
     3cc:	3352454d 	cmpcc	r2, #322961408	; 0x13400000
     3d0:	4b4c435f 	blmi	1311154 <_start-0x7eceeeac>
     3d4:	4c525443 	cfldrdmi	mvd5, [r2], {67}	; 0x43
     3d8:	5f4d4300 	svcpl	0x004d4300
     3dc:	5f524550 	svcpl	0x00524550
     3e0:	32434d4d 	subcc	r4, r3, #4928	; 0x1340
     3e4:	4b4c435f 	blmi	1311168 <_start-0x7eceee98>
     3e8:	4c525443 	cfldrdmi	mvd5, [r2], {67}	; 0x43
     3ec:	5f4d4300 	svcpl	0x004d4300
     3f0:	5f524550 	svcpl	0x00524550
     3f4:	4e495053 	mcrmi	0, 2, r5, cr9, cr3, {2}
     3f8:	4b434f4c 	blmi	10d4130 <_start-0x7ef2bed0>
     3fc:	4b4c435f 	blmi	1311180 <_start-0x7eceee80>
     400:	4c525443 	cfldrdmi	mvd5, [r2], {67}	; 0x43
     404:	5f4d4300 	svcpl	0x004d4300
     408:	5f524550 	svcpl	0x00524550
     40c:	00474552 	subeq	r4, r7, r2, asr r5
     410:	575f4d43 	ldrbpl	r4, [pc, -r3, asr #26]
     414:	5f50554b 	svcpl	0x0050554b
     418:	50554b57 	subspl	r4, r5, r7, asr fp
     41c:	5f334d5f 	svcpl	0x00334d5f
     420:	434b4c43 	movtmi	r4, #48195	; 0xbc43
     424:	004c5254 	subeq	r5, ip, r4, asr r2
     428:	435f4d43 	cmpmi	pc, #4288	; 0x10c0
     42c:	4f4d4b4c 	svcmi	0x004d4b4c
     430:	445f4544 	ldrbmi	r4, [pc], #-1348	; 438 <_start-0x7ffffbc8>
     434:	5f4c4c50 	svcpl	0x004c4c50
     438:	45524f43 	ldrbmi	r4, [r2, #-3907]	; 0xf43
     43c:	5f4d4300 	svcpl	0x004d4300
     440:	43746553 	cmnmi	r4, #348127232	; 0x14c00000
     444:	43006b6c 	movwmi	r6, #2924	; 0xb6c
     448:	45505f4d 	ldrbmi	r5, [r0, #-3917]	; 0xf4d
     44c:	49545f52 	ldmdbmi	r4, {r1, r4, r6, r8, r9, sl, fp, ip, lr}^
     450:	3452454d 	ldrbcc	r4, [r2], #-1357	; 0x54d
     454:	4b4c435f 	blmi	13111d8 <_start-0x7eceee28>
     458:	4c525443 	cfldrdmi	mvd5, [r2], {67}	; 0x43
     45c:	5f4d4300 	svcpl	0x004d4300
     460:	454c4449 	strbmi	r4, [ip, #-1097]	; 0x449
     464:	445f5453 	ldrbmi	r5, [pc], #-1107	; 46c <_start-0x7ffffb94>
     468:	5f4c4c50 	svcpl	0x004c4c50
     46c:	50534944 	subspl	r4, r3, r4, asr #18
     470:	5f4d4300 	svcpl	0x004d4300
     474:	50554b57 	subspl	r4, r5, r7, asr fp
     478:	4e4f435f 	mcrmi	3, 2, r4, cr15, cr15, {2}
     47c:	4c4f5254 	sfmmi	f5, 2, [pc], {84}	; 0x54
     480:	4b4c435f 	blmi	1311204 <_start-0x7eceedfc>
     484:	4c525443 	cfldrdmi	mvd5, [r2], {67}	; 0x43
     488:	5f4d4300 	svcpl	0x004d4300
     48c:	50554b57 	subspl	r4, r5, r7, asr fp
     490:	5444575f 	strbpl	r5, [r4], #-1887	; 0x75f
     494:	4c435f31 	mcrrmi	15, 3, r5, r3, cr1
     498:	5254434b 	subspl	r4, r4, #738197505	; 0x2c000001
     49c:	4d43004c 	stclmi	0, cr0, [r3, #-304]	; 0xfffffed0
     4a0:	5245505f 	subpl	r5, r5, #95	; 0x5f
     4a4:	4d49545f 	cfstrdmi	mvd5, [r9, #-380]	; 0xfffffe84
     4a8:	5f355245 	svcpl	0x00355245
     4ac:	434b4c43 	movtmi	r4, #48195	; 0xbc43
     4b0:	004c5254 	subeq	r5, ip, r4, asr r2
     4b4:	505f4d43 	subspl	r4, pc, r3, asr #26
     4b8:	535f5245 	cmppl	pc, #1342177284	; 0x50000004
     4bc:	5f314950 	svcpl	0x00314950
     4c0:	434b4c43 	movtmi	r4, #48195	; 0xbc43
     4c4:	004c5254 	subeq	r5, ip, r4, asr r2
     4c8:	505f4d43 	subspl	r4, pc, r3, asr #26
     4cc:	4c5f5245 	lfmmi	f5, 2, [pc], {69}	; 0x45
     4d0:	4c435f33 	mcrrmi	15, 3, r5, r3, cr3
     4d4:	5254434b 	subspl	r4, r4, #738197505	; 0x2c000001
     4d8:	4d43004c 	stclmi	0, cr0, [r3, #-304]	; 0xfffffed0
     4dc:	5245505f 	subpl	r5, r5, #95	; 0x5f
     4e0:	4143445f 	cmpmi	r3, pc, asr r4
     4e4:	435f314e 	cmpmi	pc, #-2147483629	; 0x80000013
     4e8:	54434b4c 	strbpl	r4, [r3], #-2892	; 0xb4c
     4ec:	43004c52 	movwmi	r4, #3154	; 0xc52
     4f0:	45505f4d 	ldrbmi	r5, [r0, #-3917]	; 0xf4d
     4f4:	50455f52 	subpl	r5, r5, r2, asr pc
     4f8:	53534d57 	cmppl	r3, #5568	; 0x15c0
     4fc:	4c435f30 	mcrrmi	15, 3, r5, r3, cr0
     500:	5254434b 	subspl	r4, r4, #738197505	; 0x2c000001
     504:	4d43004c 	stclmi	0, cr0, [r3, #-304]	; 0xfffffed0
     508:	5245505f 	subpl	r5, r5, #95	; 0x5f
     50c:	4d49545f 	cfstrdmi	mvd5, [r9, #-380]	; 0xfffffe84
     510:	5f365245 	svcpl	0x00365245
     514:	434b4c43 	movtmi	r4, #48195	; 0xbc43
     518:	004c5254 	subeq	r5, ip, r4, asr r2
     51c:	575f4d43 	ldrbpl	r4, [pc, -r3, asr #26]
     520:	5f50554b 	svcpl	0x0050554b
     524:	4f495047 	svcmi	0x00495047
     528:	4c435f30 	mcrrmi	15, 3, r5, r3, cr0
     52c:	5254434b 	subspl	r4, r4, #738197505	; 0x2c000001
     530:	4d43004c 	stclmi	0, cr0, [r3, #-304]	; 0xfffffed0
     534:	5245505f 	subpl	r5, r5, #95	; 0x5f
     538:	4750435f 			; <UNDEFINED> instruction: 0x4750435f
     53c:	3043414d 	subcc	r4, r3, sp, asr #2
     540:	4b4c435f 	blmi	13112c4 <_start-0x7eceed3c>
     544:	4c525443 	cfldrdmi	mvd5, [r2], {67}	; 0x43
     548:	5f4d4300 	svcpl	0x004d4300
     54c:	5f435353 	svcpl	0x00435353
     550:	544c4544 	strbpl	r4, [ip], #-1348	; 0x544
     554:	54534d41 	ldrbpl	r4, [r3], #-3393	; 0xd41
     558:	445f5045 	ldrbmi	r5, [pc], #-69	; 560 <_start-0x7ffffaa0>
     55c:	5f4c4c50 	svcpl	0x004c4c50
     560:	45524f43 	ldrbmi	r4, [r2, #-3907]	; 0xf43
     564:	5f4d4300 	svcpl	0x004d4300
     568:	5f524550 	svcpl	0x00524550
     56c:	454d4954 	strbmi	r4, [sp, #-2388]	; 0x954
     570:	435f3752 	cmpmi	pc, #21495808	; 0x1480000
     574:	54434b4c 	strbpl	r4, [r3], #-2892	; 0xb4c
     578:	43004c52 	movwmi	r4, #3154	; 0xc52
     57c:	53535f4d 	cmppl	r3, #308	; 0x134
     580:	45445f43 	strbmi	r5, [r4, #-3907]	; 0xf43
     584:	4d41544c 	cfstrdmi	mvd5, [r1, #-304]	; 0xfffffed0
     588:	50455453 	subpl	r5, r5, r3, asr r4
     58c:	4c50445f 	cfldrdmi	mvd4, [r0], {95}	; 0x5f
     590:	504d5f4c 	subpl	r5, sp, ip, asr #30
     594:	4d430055 	stclmi	0, cr0, [r3, #-340]	; 0xfffffeac
     598:	5245505f 	subpl	r5, r5, #95	; 0x5f
     59c:	50434f5f 	subpl	r4, r3, pc, asr pc
     5a0:	435f5057 	cmpmi	pc, #87	; 0x57
     5a4:	54434b4c 	strbpl	r4, [r3], #-2892	; 0xb4c
     5a8:	43004c52 	movwmi	r4, #3154	; 0xc52
     5ac:	4b575f4d 	blmi	15d82e8 <_start-0x7ea27d18>
     5b0:	535f5055 	cmppl	pc, #85	; 0x55
     5b4:	5452414d 	ldrbpl	r4, [r2], #-333	; 0x14d
     5b8:	4c464552 	cfstr64mi	mvdx4, [r6], {82}	; 0x52
     5bc:	5f305845 	svcpl	0x00305845
     5c0:	434b4c43 	movtmi	r4, #48195	; 0xbc43
     5c4:	004c5254 	subeq	r5, ip, r4, asr r2
     5c8:	505f4d43 	subspl	r4, pc, r3, asr #26
     5cc:	455f5245 	ldrbmi	r5, [pc, #-581]	; 38f <_start-0x7ffffc71>
     5d0:	534d5750 	movtpl	r5, #55120	; 0xd750
     5d4:	435f3253 	cmpmi	pc, #805306373	; 0x30000005
     5d8:	54434b4c 	strbpl	r4, [r3], #-2892	; 0xb4c
     5dc:	43004c52 	movwmi	r4, #3154	; 0xc52
     5e0:	4b575f4d 	blmi	15d831c <_start-0x7ea27ce4>
     5e4:	555f5055 	ldrbpl	r5, [pc, #-85]	; 597 <_start-0x7ffffa69>
     5e8:	30545241 	subscc	r5, r4, r1, asr #4
     5ec:	4b4c435f 	blmi	1311370 <_start-0x7eceec90>
     5f0:	4c525443 	cfldrdmi	mvd5, [r2], {67}	; 0x43
     5f4:	5f4d4300 	svcpl	0x004d4300
     5f8:	534b4c43 	movtpl	r4, #48195	; 0xbc43
     5fc:	445f4c45 	ldrbmi	r4, [pc], #-3141	; 604 <_start-0x7ffff9fc>
     600:	5f4c4c50 	svcpl	0x004c4c50
     604:	49524550 	ldmdbmi	r2, {r4, r6, r8, sl, lr}^
     608:	43004850 	movwmi	r4, #2128	; 0x850
     60c:	45505f4d 	ldrbmi	r5, [r0, #-3917]	; 0xf4d
     610:	344c5f52 	strbcc	r5, [ip], #-3922	; 0xf52
     614:	435f534c 	cmpmi	pc, #76, 6	; 0x30000001
     618:	54434b4c 	strbpl	r4, [r3], #-2892	; 0xb4c
     61c:	43004c52 	movwmi	r4, #3154	; 0xc52
     620:	45505f4d 	ldrbmi	r5, [r0, #-3917]	; 0xf4d
     624:	334c5f52 	movtcc	r5, #53074	; 0xcf52
     628:	4c435f53 	mcrrmi	15, 5, r5, r3, cr3
     62c:	4354534b 	cmpmi	r4, #738197505	; 0x2c000001
     630:	004c5254 	subeq	r5, ip, r4, asr r2
     634:	435f4d43 	cmpmi	pc, #4288	; 0x10c0
     638:	4f4d4b4c 	svcmi	0x004d4b4c
     63c:	445f4544 	ldrbmi	r4, [pc], #-1348	; 644 <_start-0x7ffff9bc>
     640:	5f4c4c50 	svcpl	0x004c4c50
     644:	00524444 	subseq	r4, r2, r4, asr #8
     648:	575f4d43 	ldrbpl	r4, [pc, -r3, asr #26]
     64c:	5f50554b 	svcpl	0x0050554b
     650:	52414d53 	subpl	r4, r1, #5312	; 0x14c0
     654:	46455254 			; <UNDEFINED> instruction: 0x46455254
     658:	3158454c 	cmpcc	r8, ip, asr #10
     65c:	4b4c435f 	blmi	13113e0 <_start-0x7eceec20>
     660:	4c525443 	cfldrdmi	mvd5, [r2], {67}	; 0x43
     664:	5f4d4300 	svcpl	0x004d4300
     668:	534b4c43 	movtpl	r4, #48195	; 0xbc43
     66c:	445f4c45 	ldrbmi	r4, [pc], #-3141	; 674 <_start-0x7ffff98c>
     670:	5f4c4c50 	svcpl	0x004c4c50
     674:	50534944 	subspl	r4, r3, r4, asr #18
     678:	5f4d4300 	svcpl	0x004d4300
     67c:	00524550 	subseq	r4, r2, r0, asr r5
     680:	505f4d43 	subspl	r4, pc, r3, asr #26
     684:	435f5245 	cmpmi	pc, #1342177284	; 0x50000004
     688:	325f4b4c 	subscc	r4, pc, #76, 22	; 0x13000
     68c:	5a484d34 	bpl	1213b64 <_start-0x7edec49c>
     690:	4b4c435f 	blmi	1311414 <_start-0x7eceebec>
     694:	54435453 	strbpl	r5, [r3], #-1107	; 0x453
     698:	43004c52 	movwmi	r4, #3154	; 0xc52
     69c:	45505f4d 	ldrbmi	r5, [r0, #-3917]	; 0xf4d
     6a0:	53555f52 	cmppl	r5, #328	; 0x148
     6a4:	435f3042 	cmpmi	pc, #66	; 0x42
     6a8:	54434b4c 	strbpl	r4, [r3], #-2892	; 0xb4c
     6ac:	43004c52 	movwmi	r4, #3154	; 0xc52
     6b0:	45505f4d 	ldrbmi	r5, [r0, #-3917]	; 0xf4d
     6b4:	414d5f52 	cmpmi	sp, r2, asr pc
     6b8:	4f424c49 	svcmi	0x00424c49
     6bc:	435f3058 	cmpmi	pc, #88	; 0x58
     6c0:	54434b4c 	strbpl	r4, [r3], #-2892	; 0xb4c
     6c4:	43004c52 	movwmi	r4, #3154	; 0xc52
     6c8:	45435f4d 	strbmi	r5, [r3, #-3917]	; 0xf4d
     6cc:	45535546 	ldrbmi	r5, [r3, #-1350]	; 0x546
     6d0:	5f4d4300 	svcpl	0x004d4300
     6d4:	43746547 	cmnmi	r4, #297795584	; 0x11c00000
     6d8:	43006b6c 	movwmi	r6, #2924	; 0xb6c
     6dc:	49445f4d 	stmdbmi	r4, {r0, r2, r3, r6, r8, r9, sl, fp, ip, lr}^
     6e0:	364d5f56 			; <UNDEFINED> instruction: 0x364d5f56
     6e4:	4c50445f 	cfldrdmi	mvd4, [r0], {95}	; 0x5f
     6e8:	4f435f4c 	svcmi	0x00435f4c
     6ec:	43004552 	movwmi	r4, #1362	; 0x552
     6f0:	4b575f4d 	blmi	15d842c <_start-0x7ea27bd4>
     6f4:	43005055 	movwmi	r5, #85	; 0x55
     6f8:	44495f4d 	strbmi	r5, [r9], #-3917	; 0xf4d
     6fc:	5453454c 	ldrbpl	r4, [r3], #-1356	; 0x54c
     700:	4c50445f 	cfldrdmi	mvd4, [r0], {95}	; 0x5f
     704:	4f435f4c 	svcmi	0x00435f4c
     708:	43004552 	movwmi	r4, #1362	; 0x552
     70c:	44495f4d 	strbmi	r5, [r9], #-3917	; 0xf4d
     710:	5453454c 	ldrbpl	r4, [r3], #-1356	; 0x54c
     714:	4c50445f 	cfldrdmi	mvd4, [r0], {95}	; 0x5f
     718:	45505f4c 	ldrbmi	r5, [r0, #-3916]	; 0xf4c
     71c:	4d430052 	stclmi	0, cr0, [r3, #-328]	; 0xfffffeb8
     720:	5245505f 	subpl	r5, r5, #95	; 0x5f
     724:	5552505f 	ldrbpl	r5, [r2, #-95]	; 0x5f
     728:	5343495f 	movtpl	r4, #14687	; 0x395f
     72c:	4c435f53 	mcrrmi	15, 5, r5, r3, cr3
     730:	5254434b 	subspl	r4, r4, #738197505	; 0x2c000001
     734:	4d43004c 	stclmi	0, cr0, [r3, #-304]	; 0xfffffed0
     738:	4b4c435f 	blmi	13114bc <_start-0x7eceeb44>
     73c:	45444f4d 	strbmi	r4, [r4, #-3917]	; 0xf4d
     740:	4c50445f 	cfldrdmi	mvd4, [r0], {95}	; 0x5f
     744:	45505f4c 	ldrbmi	r5, [r0, #-3916]	; 0xf4c
     748:	4d430052 	stclmi	0, cr0, [r3, #-328]	; 0xfffffeb8
     74c:	5245505f 	subpl	r5, r5, #95	; 0x5f
     750:	4950475f 	ldmdbmi	r0, {r0, r1, r2, r3, r4, r6, r8, r9, sl, lr}^
     754:	435f314f 	cmpmi	pc, #-1073741805	; 0xc0000013
     758:	54434b4c 	strbpl	r4, [r3], #-2892	; 0xb4c
     75c:	43004c52 	movwmi	r4, #3154	; 0xc52
     760:	4c435f4d 	mcrrmi	15, 4, r5, r3, cr13
     764:	4f43444b 	svcmi	0x0043444b
     768:	5f4f444c 	svcpl	0x004f444c
     76c:	4c4c5044 	mcrrmi	0, 4, r5, ip, cr4
     770:	5245505f 	subpl	r5, r5, #95	; 0x5f
     774:	5f4d4300 	svcpl	0x004d4300
     778:	5f524550 	svcpl	0x00524550
     77c:	4f495047 	svcmi	0x00495047
     780:	4c435f32 	mcrrmi	15, 3, r5, r3, cr2
     784:	5254434b 	subspl	r4, r4, #738197505	; 0x2c000001
     788:	4d43004c 	stclmi	0, cr0, [r3, #-304]	; 0xfffffed0
     78c:	5245505f 	subpl	r5, r5, #95	; 0x5f
     790:	494d455f 	stmdbmi	sp, {r0, r1, r2, r3, r4, r6, r8, sl, lr}^
     794:	4c435f46 	mcrrmi	15, 4, r5, r3, cr6
     798:	5254434b 	subspl	r4, r4, #738197505	; 0x2c000001
     79c:	4d43004c 	stclmi	0, cr0, [r3, #-304]	; 0xfffffed0
     7a0:	5245505f 	subpl	r5, r5, #95	; 0x5f
     7a4:	4d4c455f 	cfstr64mi	mvdx4, [ip, #-380]	; 0xfffffe84
     7a8:	4b4c435f 	blmi	131152c <_start-0x7eceead4>
     7ac:	4c525443 	cfldrdmi	mvd5, [r2], {67}	; 0x43
     7b0:	5f4d4300 	svcpl	0x004d4300
     7b4:	4d4b4c43 	stclmi	12, cr4, [fp, #-268]	; 0xfffffef4
     7b8:	5f45444f 	svcpl	0x0045444f
     7bc:	4c4c5044 	mcrrmi	0, 4, r5, ip, cr4
     7c0:	55504d5f 	ldrbpl	r4, [r0, #-3423]	; 0xd5f
     7c4:	5f4d4300 	svcpl	0x004d4300
     7c8:	4c4c5044 	mcrrmi	0, 4, r5, ip, cr4
     7cc:	5f4d4300 	svcpl	0x004d4300
     7d0:	5f524550 	svcpl	0x00524550
     7d4:	4f495047 	svcmi	0x00495047
     7d8:	4c435f33 	mcrrmi	15, 3, r5, r3, cr3
     7dc:	5254434b 	subspl	r4, r4, #738197505	; 0x2c000001
     7e0:	4d43004c 	stclmi	0, cr0, [r3, #-304]	; 0xfffffed0
     7e4:	5245505f 	subpl	r5, r5, #95	; 0x5f
     7e8:	4c344c5f 	ldcmi	12, cr4, [r4], #-380	; 0xfffffe84
     7ec:	4c435f53 	mcrrmi	15, 5, r5, r3, cr3
     7f0:	4354534b 	cmpmi	r4, #738197505	; 0x2c000001
     7f4:	004c5254 	subeq	r5, ip, r4, asr r2
     7f8:	505f4d43 	subspl	r4, pc, r3, asr #26
     7fc:	545f5245 	ldrbpl	r5, [pc], #-581	; 804 <_start-0x7ffff7fc>
     800:	31435450 	cmpcc	r3, r0, asr r4
     804:	4b4c435f 	blmi	1311588 <_start-0x7eceea78>
     808:	4c525443 	cfldrdmi	mvd5, [r2], {67}	; 0x43
     80c:	5f4d4300 	svcpl	0x004d4300
     810:	4f545541 	svcmi	0x00545541
     814:	454c4449 	strbmi	r4, [ip, #-1097]	; 0x449
     818:	4c50445f 	cfldrdmi	mvd4, [r0], {95}	; 0x5f
     81c:	44445f4c 	strbmi	r5, [r4], #-3916	; 0xf4c
     820:	4d430052 	stclmi	0, cr0, [r3, #-328]	; 0xfffffeb8
     824:	5f334c5f 	svcpl	0x00334c5f
     828:	5f4e4f41 	svcpl	0x004e4f41
     82c:	534b4c43 	movtpl	r4, #48195	; 0xbc43
     830:	52544354 	subspl	r4, r4, #84, 6	; 0x50000001
     834:	4d43004c 	stclmi	0, cr0, [r3, #-304]	; 0xfffffed0
     838:	4b4c435f 	blmi	13115bc <_start-0x7eceea44>
     83c:	5f4c4553 	svcpl	0x004c4553
     840:	4c4c5044 	mcrrmi	0, 4, r5, ip, cr4
     844:	5244445f 	subpl	r4, r4, #1593835520	; 0x5f000000
     848:	5f4d4300 	svcpl	0x004d4300
     84c:	5f435353 	svcpl	0x00435353
     850:	46444f4d 	strbmi	r4, [r4], -sp, asr #30
     854:	44514552 	ldrbmi	r4, [r1], #-1362	; 0x552
     858:	445f5649 	ldrbmi	r5, [pc], #-1609	; 860 <_start-0x7ffff7a0>
     85c:	5f4c4c50 	svcpl	0x004c4c50
     860:	45524f43 	ldrbmi	r4, [r2, #-3907]	; 0xf43
     864:	5f4d4300 	svcpl	0x004d4300
     868:	5f524550 	svcpl	0x00524550
     86c:	43545054 	cmpmi	r4, #84	; 0x54
     870:	4c435f32 	mcrrmi	15, 3, r5, r3, cr2
     874:	5254434b 	subspl	r4, r4, #738197505	; 0x2c000001
     878:	4d43004c 	stclmi	0, cr0, [r3, #-304]	; 0xfffffed0
     87c:	5245505f 	subpl	r5, r5, #95	; 0x5f
     880:	4d434f5f 	stclmi	15, cr4, [r3, #-380]	; 0xfffffe84
     884:	4d415243 	sfmmi	f5, 2, [r1, #-268]	; 0xfffffef4
     888:	4b4c435f 	blmi	131160c <_start-0x7ecee9f4>
     88c:	4c525443 	cfldrdmi	mvd5, [r2], {67}	; 0x43
     890:	5f4d4300 	svcpl	0x004d4300
     894:	5f524550 	svcpl	0x00524550
     898:	4344434c 	movtmi	r4, #17228	; 0x434c
     89c:	4b4c435f 	blmi	1311620 <_start-0x7ecee9e0>
     8a0:	4c525443 	cfldrdmi	mvd5, [r2], {67}	; 0x43
     8a4:	5f4d4300 	svcpl	0x004d4300
     8a8:	454c4449 	strbmi	r4, [ip, #-1097]	; 0x449
     8ac:	445f5453 	ldrbmi	r5, [pc], #-1107	; 8b4 <_start-0x7ffff74c>
     8b0:	5f4c4c50 	svcpl	0x004c4c50
     8b4:	0055504d 	subseq	r5, r5, sp, asr #32
     8b8:	435f4d43 	cmpmi	pc, #4288	; 0x10c0
     8bc:	4f4d4b4c 	svcmi	0x004d4b4c
     8c0:	445f4544 	ldrbmi	r4, [pc], #-1348	; 8c8 <_start-0x7ffff738>
     8c4:	5f4c4c50 	svcpl	0x004c4c50
     8c8:	50534944 	subspl	r4, r3, r4, asr #18
     8cc:	5f4d4300 	svcpl	0x004d4300
     8d0:	49564544 	ldmdbmi	r6, {r2, r6, r8, sl, lr}^
     8d4:	43004543 	movwmi	r4, #1347	; 0x543
     8d8:	504d5f4d 	subpl	r5, sp, sp, asr #30
     8dc:	4d430055 	stclmi	0, cr0, [r3, #-340]	; 0xfffffeac
     8e0:	5245505f 	subpl	r5, r5, #95	; 0x5f
     8e4:	5350435f 	cmppl	r0, #2080374785	; 0x7c000001
     8e8:	4c435f57 	mcrrmi	15, 5, r5, r3, cr7
     8ec:	4354534b 	cmpmi	r4, #738197505	; 0x2c000001
     8f0:	004c5254 	subeq	r5, ip, r4, asr r2
     8f4:	535f4d43 	cmppl	pc, #4288	; 0x10c0
     8f8:	445f4353 	ldrbmi	r4, [pc], #-851	; 900 <_start-0x7ffff700>
     8fc:	41544c45 	cmpmi	r4, r5, asr #24
     900:	4554534d 	ldrbmi	r5, [r4, #-845]	; 0x34d
     904:	50445f50 	subpl	r5, r4, r0, asr pc
     908:	445f4c4c 	ldrbmi	r4, [pc], #-3148	; 910 <_start-0x7ffff6f0>
     90c:	43005244 	movwmi	r5, #580	; 0x244
     910:	4b575f4d 	blmi	15d864c <_start-0x7ea279b4>
     914:	445f5055 	ldrbmi	r5, [pc], #-85	; 91c <_start-0x7ffff6e4>
     918:	47554245 	ldrbmi	r4, [r5, -r5, asr #4]
     91c:	435f5353 	cmpmi	pc, #1275068417	; 0x4c000001
     920:	54434b4c 	strbpl	r4, [r3], #-2892	; 0xb4c
     924:	43004c52 	movwmi	r4, #3154	; 0xc52
     928:	46475f4d 	strbmi	r5, [r7], -sp, asr #30
     92c:	4d430058 	stclmi	0, cr0, [r3, #-352]	; 0xfffffea0
     930:	5f344c5f 	svcpl	0x00344c5f
     934:	50554b57 	subspl	r4, r5, r7, asr fp
     938:	4e4f415f 	mcrmi	1, 2, r4, cr15, cr15, {2}
     93c:	4b4c435f 	blmi	13116c0 <_start-0x7ecee940>
     940:	54435453 	strbpl	r5, [r3], #-1107	; 0x453
     944:	43004c52 	movwmi	r4, #3154	; 0xc52
     948:	49445f4d 	stmdbmi	r4, {r0, r2, r3, r6, r8, r9, sl, fp, ip, lr}^
     94c:	324d5f56 	subcc	r5, sp, #344	; 0x158
     950:	4c50445f 	cfldrdmi	mvd4, [r0], {95}	; 0x5f
     954:	49445f4c 	stmdbmi	r4, {r2, r3, r6, r8, r9, sl, fp, ip, lr}^
     958:	43005053 	movwmi	r5, #83	; 0x53
     95c:	45505f4d 	ldrbmi	r5, [r0, #-3917]	; 0xf4d
     960:	344c5f52 	strbcc	r5, [ip], #-3922	; 0xf52
     964:	435f5348 	cmpmi	pc, #72, 6	; 0x20000001
     968:	54434b4c 	strbpl	r4, [r3], #-2892	; 0xb4c
     96c:	43004c52 	movwmi	r4, #3154	; 0xc52
     970:	55415f4d 	strbpl	r5, [r1, #-3917]	; 0xf4d
     974:	44494f54 	strbmi	r4, [r9], #-3924	; 0xf54
     978:	445f454c 	ldrbmi	r4, [pc], #-1356	; 980 <_start-0x7ffff680>
     97c:	5f4c4c50 	svcpl	0x004c4c50
     980:	0055504d 	subseq	r5, r5, sp, asr #32
     984:	505f4d43 	subspl	r4, pc, r3, asr #26
     988:	455f5245 	ldrbmi	r5, [pc, #-581]	; 74b <_start-0x7ffff8b5>
     98c:	5f46494d 	svcpl	0x0046494d
     990:	435f5746 	cmpmi	pc, #18350080	; 0x1180000
     994:	54434b4c 	strbpl	r4, [r3], #-2892	; 0xb4c
     998:	43004c52 	movwmi	r4, #3154	; 0xc52
     99c:	4c435f4d 	mcrrmi	15, 4, r5, r3, cr13
     9a0:	4c45534b 	mcrrmi	3, 4, r5, r5, cr11
     9a4:	4c50445f 	cfldrdmi	mvd4, [r0], {95}	; 0x5f
     9a8:	504d5f4c 	subpl	r5, sp, ip, asr #30
     9ac:	6c630055 	stclvs	0, cr0, [r3], #-340	; 0xfffffeac
     9b0:	2e6b636f 	cdpcs	3, 6, cr6, cr11, cr15, {3}
     9b4:	4d430063 	stclmi	0, cr0, [r3, #-396]	; 0xfffffe74
     9b8:	554b575f 	strbpl	r5, [fp, #-1887]	; 0x75f
     9bc:	4c435f50 	mcrrmi	15, 5, r5, r3, cr0
     9c0:	4354534b 	cmpmi	r4, #738197505	; 0x2c000001
     9c4:	004c5254 	subeq	r5, ip, r4, asr r2
     9c8:	445f4d43 	ldrbmi	r4, [pc], #-3395	; 9d0 <_start-0x7ffff630>
     9cc:	4d5f5649 	ldclmi	6, cr5, [pc, #-292]	; 8b0 <_start-0x7ffff750>
     9d0:	50445f32 	subpl	r5, r4, r2, lsr pc
     9d4:	505f4c4c 	subspl	r4, pc, ip, asr #24
     9d8:	43005245 	movwmi	r5, #581	; 0x245
     9dc:	4b575f4d 	blmi	15d8718 <_start-0x7ea278e8>
     9e0:	545f5055 	ldrbpl	r5, [pc], #-85	; 9e8 <_start-0x7ffff618>
     9e4:	52454d49 	subpl	r4, r5, #4672	; 0x1240
     9e8:	4c435f30 	mcrrmi	15, 3, r5, r3, cr0
     9ec:	5254434b 	subspl	r4, r4, #738197505	; 0x2c000001
     9f0:	4d43004c 	stclmi	0, cr0, [r3, #-304]	; 0xfffffed0
     9f4:	5245505f 	subpl	r5, r5, #95	; 0x5f
     9f8:	4d50475f 	ldclmi	7, cr4, [r0, #-380]	; 0xfffffe84
     9fc:	4c435f43 	mcrrmi	15, 4, r5, r3, cr3
     a00:	5254434b 	subspl	r4, r4, #738197505	; 0x2c000001
     a04:	4d43004c 	stclmi	0, cr0, [r3, #-304]	; 0xfffffed0
     a08:	5245505f 	subpl	r5, r5, #95	; 0x5f
     a0c:	50434f5f 	subpl	r4, r3, pc, asr pc
     a10:	4c5f5057 	mrrcmi	0, 5, r5, pc, cr7	; <UNPREDICTABLE>
     a14:	4c435f33 	mcrrmi	15, 3, r5, r3, cr3
     a18:	4354534b 	cmpmi	r4, #738197505	; 0x2c000001
     a1c:	004c5254 	subeq	r5, ip, r4, asr r2
     a20:	575f4d43 	ldrbpl	r4, [pc, -r3, asr #26]
     a24:	5f50554b 	svcpl	0x0050554b
     a28:	454d4954 	strbmi	r4, [sp, #-2388]	; 0x954
     a2c:	435f3152 	cmpmi	pc, #-2147483628	; 0x80000014
     a30:	54434b4c 	strbpl	r4, [r3], #-2892	; 0xb4c
     a34:	43004c52 	movwmi	r4, #3154	; 0xc52
     a38:	45505f4d 	ldrbmi	r5, [r0, #-3917]	; 0xf4d
     a3c:	434c5f52 	movtmi	r5, #53074	; 0xcf52
     a40:	435f4344 	cmpmi	pc, #68, 6	; 0x10000001
     a44:	54534b4c 	ldrbpl	r4, [r3], #-2892	; 0xb4c
     a48:	4c525443 	cfldrdmi	mvd5, [r2], {67}	; 0x43
     a4c:	5f4d4300 	svcpl	0x004d4300
     a50:	5f524550 	svcpl	0x00524550
     a54:	5f555250 	svcpl	0x00555250
     a58:	53534349 	cmppl	r3, #603979777	; 0x24000001
     a5c:	4b4c435f 	blmi	13117e0 <_start-0x7ecee820>
     a60:	54435453 	strbpl	r5, [r3], #-1107	; 0x453
     a64:	43004c52 	movwmi	r4, #3154	; 0xc52
     a68:	45505f4d 	ldrbmi	r5, [r0, #-3917]	; 0xf4d
     a6c:	41555f52 	cmpmi	r5, r2, asr pc
     a70:	5f315452 	svcpl	0x00315452
     a74:	434b4c43 	movtmi	r4, #48195	; 0xbc43
     a78:	004c5254 	subeq	r5, ip, r4, asr r2
     a7c:	415f4d43 	cmpmi	pc, r3, asr #26
     a80:	494f5455 	stmdbmi	pc, {r0, r2, r4, r6, sl, ip, lr}^	; <UNPREDICTABLE>
     a84:	5f454c44 	svcpl	0x00454c44
     a88:	4c4c5044 	mcrrmi	0, 4, r5, ip, cr4
     a8c:	5349445f 	movtpl	r4, #37983	; 0x945f
     a90:	4d430050 	stclmi	0, cr0, [r3, #-320]	; 0xfffffec0
     a94:	4353535f 	cmpmi	r3, #2080374785	; 0x7c000001
     a98:	444f4d5f 	strbmi	r4, [pc], #-3423	; aa0 <_start-0x7ffff560>
     a9c:	51455246 	cmppl	r5, r6, asr #4
     aa0:	5f564944 	svcpl	0x00564944
     aa4:	4c4c5044 	mcrrmi	0, 4, r5, ip, cr4
     aa8:	5245505f 	subpl	r5, r5, #95	; 0x5f
     aac:	5f4d4300 	svcpl	0x004d4300
     ab0:	50554b57 	subspl	r4, r5, r7, asr fp
     ab4:	4344415f 	movtmi	r4, #16735	; 0x415f
     ab8:	4353545f 	cmpmi	r3, #1593835520	; 0x5f000000
     abc:	4b4c435f 	blmi	1311840 <_start-0x7ecee7c0>
     ac0:	4c525443 	cfldrdmi	mvd5, [r2], {67}	; 0x43
     ac4:	5f4d4300 	svcpl	0x004d4300
     ac8:	5f435353 	svcpl	0x00435353
     acc:	46444f4d 	strbmi	r4, [r4], -sp, asr #30
     ad0:	44514552 	ldrbmi	r4, [r1], #-1362	; 0x552
     ad4:	445f5649 	ldrbmi	r5, [pc], #-1609	; adc <_start-0x7ffff524>
     ad8:	5f4c4c50 	svcpl	0x004c4c50
     adc:	50534944 	subspl	r4, r3, r4, asr #18
     ae0:	5f4d4300 	svcpl	0x004d4300
     ae4:	5f524550 	svcpl	0x00524550
     ae8:	4d575045 	ldclmi	0, cr5, [r7, #-276]	; 0xfffffeec
     aec:	5f315353 	svcpl	0x00315353
     af0:	434b4c43 	movtmi	r4, #48195	; 0xbc43
     af4:	004c5254 	subeq	r5, ip, r4, asr r2
     af8:	505f4d43 	subspl	r4, pc, r3, asr #26
     afc:	4c5f5245 	lfmmi	f5, 2, [pc], {69}	; 0x45
     b00:	4e495f33 	mcrmi	15, 2, r5, cr9, cr3, {1}
     b04:	5f525453 	svcpl	0x00525453
     b08:	434b4c43 	movtmi	r4, #48195	; 0xbc43
     b0c:	004c5254 	subeq	r5, ip, r4, asr r2
     b10:	505f4d43 	subspl	r4, pc, r3, asr #26
     b14:	555f5245 	ldrbpl	r5, [pc, #-581]	; 8d7 <_start-0x7ffff729>
     b18:	32545241 	subscc	r5, r4, #268435460	; 0x10000004
     b1c:	4b4c435f 	blmi	13118a0 <_start-0x7ecee760>
     b20:	4c525443 	cfldrdmi	mvd5, [r2], {67}	; 0x43
     b24:	5f4d4300 	svcpl	0x004d4300
     b28:	50554b57 	subspl	r4, r5, r7, asr fp
     b2c:	57344c5f 			; <UNDEFINED> instruction: 0x57344c5f
     b30:	5f50554b 	svcpl	0x0050554b
     b34:	434b4c43 	movtmi	r4, #48195	; 0xbc43
     b38:	004c5254 	subeq	r5, ip, r4, asr r2
     b3c:	5f4b4c43 	svcpl	0x004b4c43
     b40:	55444f4d 	strbpl	r4, [r4, #-3917]	; 0xf4d
     b44:	745f454c 	ldrbvc	r4, [pc], #-1356	; b4c <_start-0x7ffff4b4>
     b48:	5f4d4300 	svcpl	0x004d4300
     b4c:	50554b57 	subspl	r4, r5, r7, asr fp
     b50:	4332495f 	teqmi	r2, #1556480	; 0x17c000
     b54:	4c435f30 	mcrrmi	15, 3, r5, r3, cr0
     b58:	5254434b 	subspl	r4, r4, #738197505	; 0x2c000001
     b5c:	4d43004c 	stclmi	0, cr0, [r3, #-304]	; 0xfffffed0
     b60:	5649445f 			; <UNDEFINED> instruction: 0x5649445f
     b64:	5f324d5f 	svcpl	0x00324d5f
     b68:	4c4c5044 	mcrrmi	0, 4, r5, ip, cr4
     b6c:	5244445f 	subpl	r4, r4, #1593835520	; 0x5f000000
     b70:	5f4d4300 	svcpl	0x004d4300
     b74:	666e6f63 	strbtvs	r6, [lr], -r3, ror #30
     b78:	6d70675f 	ldclvs	7, cr6, [r0, #-380]!	; 0xfffffe84
     b7c:	30615f63 	rsbcc	r5, r1, r3, ror #30
     b80:	5f4d4300 	svcpl	0x004d4300
     b84:	666e6f63 	strbtvs	r6, [lr], -r3, ror #30
     b88:	6d70675f 	ldclvs	7, cr6, [r0, #-380]!	; 0xfffffe84
     b8c:	31615f63 	cmncc	r1, r3, ror #30
     b90:	5f4d4300 	svcpl	0x004d4300
     b94:	666e6f63 	strbtvs	r6, [lr], -r3, ror #30
     b98:	6d70675f 	ldclvs	7, cr6, [r0, #-380]!	; 0xfffffe84
     b9c:	32615f63 	rsbcc	r5, r1, #396	; 0x18c
     ba0:	5f4d4300 	svcpl	0x004d4300
     ba4:	666e6f63 	strbtvs	r6, [lr], -r3, ror #30
     ba8:	6d70675f 	ldclvs	7, cr6, [r0, #-380]!	; 0xfffffe84
     bac:	33615f63 	cmncc	r1, #396	; 0x18c
     bb0:	5f4d4300 	svcpl	0x004d4300
     bb4:	666e6f63 	strbtvs	r6, [lr], -r3, ror #30
     bb8:	6d70675f 	ldclvs	7, cr6, [r0, #-380]!	; 0xfffffe84
     bbc:	34615f63 	strbtcc	r5, [r1], #-3939	; 0xf63
     bc0:	5f4d4300 	svcpl	0x004d4300
     bc4:	666e6f63 	strbtvs	r6, [lr], -r3, ror #30
     bc8:	6d70675f 	ldclvs	7, cr6, [r0, #-380]!	; 0xfffffe84
     bcc:	35615f63 	strbcc	r5, [r1, #-3939]!	; 0xf63
     bd0:	5f4d4300 	svcpl	0x004d4300
     bd4:	666e6f63 	strbtvs	r6, [lr], -r3, ror #30
     bd8:	6d70675f 	ldclvs	7, cr6, [r0, #-380]!	; 0xfffffe84
     bdc:	36615f63 	strbtcc	r5, [r1], -r3, ror #30
     be0:	5f4d4300 	svcpl	0x004d4300
     be4:	666e6f63 	strbtvs	r6, [lr], -r3, ror #30
     be8:	6d70675f 	ldclvs	7, cr6, [r0, #-380]!	; 0xfffffe84
     bec:	37615f63 	strbcc	r5, [r1, -r3, ror #30]!
     bf0:	5f4d4300 	svcpl	0x004d4300
     bf4:	666e6f63 	strbtvs	r6, [lr], -r3, ror #30
     bf8:	6d70675f 	ldclvs	7, cr6, [r0, #-380]!	; 0xfffffe84
     bfc:	38615f63 	stmdacc	r1!, {r0, r1, r5, r6, r8, r9, sl, fp, ip, lr}^
     c00:	5f4d4300 	svcpl	0x004d4300
     c04:	666e6f63 	strbtvs	r6, [lr], -r3, ror #30
     c08:	6d70675f 	ldclvs	7, cr6, [r0, #-380]!	; 0xfffffe84
     c0c:	39615f63 	stmdbcc	r1!, {r0, r1, r5, r6, r8, r9, sl, fp, ip, lr}^
     c10:	6e6f6300 	cdpvs	3, 6, cr6, cr15, cr0, {0}
     c14:	6c6f7274 	sfmvs	f7, 2, [pc], #-464	; a4c <_start-0x7ffff5b4>
     c18:	646f6d5f 	strbtvs	r6, [pc], #-3423	; c20 <_start-0x7ffff3e0>
     c1c:	2e656c75 	mcrcs	12, 3, r6, cr5, cr5, {3}
     c20:	4d430063 	stclmi	0, cr0, [r3, #-396]	; 0xfffffe74
     c24:	6e6f635f 	mcrvs	3, 3, r6, cr15, cr15, {2}
     c28:	696d5f66 	stmdbvs	sp!, {r1, r2, r5, r6, r8, r9, sl, fp, ip, lr}^
     c2c:	635f3169 	cmpvs	pc, #1073741850	; 0x4000001a
     c30:	43007372 	movwmi	r7, #882	; 0x372
     c34:	6f635f4d 	svcvs	0x00635f4d
     c38:	745f666e 	ldrbvc	r6, [pc], #-1646	; c40 <_start-0x7ffff3c0>
     c3c:	5f636370 	svcpl	0x00636370
     c40:	5f747665 	svcpl	0x00747665
     c44:	5f78756d 	svcpl	0x0078756d
     c48:	325f3032 	subscc	r3, pc, #50	; 0x32
     c4c:	4d430033 	stclmi	0, cr0, [r3, #-204]	; 0xffffff34
     c50:	6d77705f 	ldclvs	0, cr7, [r7, #-380]!	; 0xfffffe84
     c54:	635f7373 	cmpvs	pc, #-872415231	; 0xcc000001
     c58:	006c7274 	rsbeq	r7, ip, r4, ror r2
     c5c:	735f4d43 	cmpvc	pc, #4288	; 0x10c0
     c60:	74437465 	strbvc	r7, [r3], #-1125	; 0x465
     c64:	6f4d6c72 	svcvs	0x004d6c72
     c68:	656c7564 	strbvs	r7, [ip, #-1380]!	; 0x564
     c6c:	5f4d4300 	svcpl	0x004d4300
     c70:	73756665 	cmnvc	r5, #105906176	; 0x6500000
     c74:	6d735f65 	ldclvs	15, cr5, [r3, #-404]!	; 0xfffffe6c
     c78:	4d430061 	stclmi	0, cr0, [r3, #-388]	; 0xfffffe7c
     c7c:	6e6f635f 	mcrvs	3, 3, r6, cr15, cr15, {2}
     c80:	70675f66 	rsbvc	r5, r7, r6, ror #30
     c84:	635f636d 	cmpvs	pc, #-1275068415	; 0xb4000001
     c88:	00316e73 	eorseq	r6, r1, r3, ror lr
     c8c:	635f4d43 	cmpvs	pc, #4288	; 0x10c0
     c90:	5f666e6f 	svcpl	0x00666e6f
     c94:	636d7067 	cmnvs	sp, #103	; 0x67
     c98:	6e73635f 	mrcvs	3, 3, r6, cr3, cr15, {2}
     c9c:	4d430032 	stclmi	0, cr0, [r3, #-200]	; 0xffffff38
     ca0:	6e6f635f 	mcrvs	3, 3, r6, cr15, cr15, {2}
     ca4:	70675f66 	rsbvc	r5, r7, r6, ror #30
     ca8:	635f636d 	cmpvs	pc, #-1275068415	; 0xb4000001
     cac:	00336e73 	eorseq	r6, r3, r3, ror lr
     cb0:	635f4d43 	cmpvs	pc, #4288	; 0x10c0
     cb4:	5f666e6f 	svcpl	0x00666e6f
     cb8:	636d7067 	cmnvs	sp, #103	; 0x67
     cbc:	6961775f 	stmdbvs	r1!, {r0, r1, r2, r3, r4, r6, r8, r9, sl, ip, sp, lr}^
     cc0:	43003074 	movwmi	r3, #116	; 0x74
     cc4:	6f635f4d 	svcvs	0x00635f4d
     cc8:	675f666e 	ldrbvs	r6, [pc, -lr, ror #12]
     ccc:	5f636d70 	svcpl	0x00636d70
     cd0:	00306461 	eorseq	r6, r0, r1, ror #8
     cd4:	635f4d43 	cmpvs	pc, #4288	; 0x10c0
     cd8:	5f666e6f 	svcpl	0x00666e6f
     cdc:	636d7067 	cmnvs	sp, #103	; 0x67
     ce0:	3164615f 	cmncc	r4, pc, asr r1
     ce4:	5f4d4300 	svcpl	0x004d4300
     ce8:	666e6f63 	strbtvs	r6, [lr], -r3, ror #30
     cec:	6d70675f 	ldclvs	7, cr6, [r0, #-380]!	; 0xfffffe84
     cf0:	64615f63 	strbtvs	r5, [r1], #-3939	; 0xf63
     cf4:	4d430032 	stclmi	0, cr0, [r3, #-200]	; 0xffffff38
     cf8:	6e6f635f 	mcrvs	3, 3, r6, cr15, cr15, {2}
     cfc:	70675f66 	rsbvc	r5, r7, r6, ror #30
     d00:	615f636d 	cmpvs	pc, sp, ror #6
     d04:	43003364 	movwmi	r3, #868	; 0x364
     d08:	6f635f4d 	svcvs	0x00635f4d
     d0c:	675f666e 	ldrbvs	r6, [pc, -lr, ror #12]
     d10:	5f636d70 	svcpl	0x00636d70
     d14:	00346461 	eorseq	r6, r4, r1, ror #8
     d18:	635f4d43 	cmpvs	pc, #4288	; 0x10c0
     d1c:	5f666e6f 	svcpl	0x00666e6f
     d20:	636d7067 	cmnvs	sp, #103	; 0x67
     d24:	3564615f 	strbcc	r6, [r4, #-351]!	; 0x15f
     d28:	5f4d4300 	svcpl	0x004d4300
     d2c:	666e6f63 	strbtvs	r6, [lr], -r3, ror #30
     d30:	6d70675f 	ldclvs	7, cr6, [r0, #-380]!	; 0xfffffe84
     d34:	64615f63 	strbtvs	r5, [r1], #-3939	; 0xf63
     d38:	4d430036 	stclmi	0, cr0, [r3, #-216]	; 0xffffff28
     d3c:	6e6f635f 	mcrvs	3, 3, r6, cr15, cr15, {2}
     d40:	70675f66 	rsbvc	r5, r7, r6, ror #30
     d44:	615f636d 	cmpvs	pc, sp, ror #6
     d48:	43003764 	movwmi	r3, #1892	; 0x764
     d4c:	6f635f4d 	svcvs	0x00635f4d
     d50:	675f666e 	ldrbvs	r6, [pc, -lr, ror #12]
     d54:	5f636d70 	svcpl	0x00636d70
     d58:	00386461 	eorseq	r6, r8, r1, ror #8
     d5c:	635f4d43 	cmpvs	pc, #4288	; 0x10c0
     d60:	5f666e6f 	svcpl	0x00666e6f
     d64:	636d7067 	cmnvs	sp, #103	; 0x67
     d68:	3964615f 	stmdbcc	r4!, {r0, r1, r2, r3, r4, r6, r8, sp, lr}^
     d6c:	5f4d4300 	svcpl	0x004d4300
     d70:	666e6f63 	strbtvs	r6, [lr], -r3, ror #30
     d74:	6370745f 	cmnvs	r0, #1593835520	; 0x5f000000
     d78:	76655f63 	strbtvc	r5, [r5], -r3, ror #30
     d7c:	756d5f74 	strbvc	r5, [sp, #-3956]!	; 0xf74
     d80:	5f305f78 	svcpl	0x00305f78
     d84:	4d430033 	stclmi	0, cr0, [r3, #-204]	; 0xffffff34
     d88:	6e6f635f 	mcrvs	3, 3, r6, cr15, cr15, {2}
     d8c:	63655f66 	cmnvs	r5, #408	; 0x198
     d90:	5f307061 	svcpl	0x00307061
     d94:	705f6e69 	subsvc	r6, pc, r9, ror #28
     d98:	5f306d77 	svcpl	0x00306d77
     d9c:	0074756f 	rsbseq	r7, r4, pc, ror #10
     da0:	74726155 	ldrbtvc	r6, [r2], #-341	; 0x155
     da4:	754d5f30 	strbvc	r5, [sp, #-3888]	; 0xf30
     da8:	4d430078 	stclmi	0, cr0, [r3, #-480]	; 0xfffffe20
     dac:	6e61625f 	mcrvs	2, 3, r6, cr1, cr15, {2}
     db0:	70616764 	rsbvc	r6, r1, r4, ror #14
     db4:	7274635f 	rsbsvc	r6, r4, #2080374785	; 0x7c000001
     db8:	4d43006c 	stclmi	0, cr0, [r3, #-432]	; 0xfffffe50
     dbc:	6e6f635f 	mcrvs	3, 3, r6, cr15, cr15, {2}
     dc0:	636c5f66 	cmnvs	ip, #408	; 0x198
     dc4:	61645f64 	cmnvs	r4, r4, ror #30
     dc8:	30316174 	eorscc	r6, r1, r4, ror r1
     dcc:	5f4d4300 	svcpl	0x004d4300
     dd0:	666e6f63 	strbtvs	r6, [lr], -r3, ror #30
     dd4:	64636c5f 	strbtvs	r6, [r3], #-3167	; 0xc5f
     dd8:	7461645f 	strbtvc	r6, [r1], #-1119	; 0x45f
     ddc:	00313161 	eorseq	r3, r1, r1, ror #2
     de0:	635f4d43 	cmpvs	pc, #4288	; 0x10c0
     de4:	5f666e6f 	svcpl	0x00666e6f
     de8:	5f64636c 	svcpl	0x0064636c
     dec:	61746164 	cmnvs	r4, r4, ror #2
     df0:	43003231 	movwmi	r3, #561	; 0x231
     df4:	6f635f4d 	svcvs	0x00635f4d
     df8:	6c5f666e 	mrrcvs	6, 6, r6, pc, cr14	; <UNPREDICTABLE>
     dfc:	645f6463 	ldrbvs	r6, [pc], #-1123	; e04 <_start-0x7ffff1fc>
     e00:	31617461 	cmncc	r1, r1, ror #8
     e04:	4d430033 	stclmi	0, cr0, [r3, #-204]	; 0xffffff34
     e08:	65726d5f 	ldrbvs	r6, [r2, #-3423]!	; 0xd5f
     e0c:	69727067 	ldmdbvs	r2!, {r0, r1, r2, r5, r6, ip, sp, lr}^
     e10:	00305f6f 	eorseq	r5, r0, pc, ror #30
     e14:	635f4d43 	cmpvs	pc, #4288	; 0x10c0
     e18:	5f666e6f 	svcpl	0x00666e6f
     e1c:	5f64636c 	svcpl	0x0064636c
     e20:	61746164 	cmnvs	r4, r4, ror #2
     e24:	43003531 	movwmi	r3, #1329	; 0x531
     e28:	6f635f4d 	svcvs	0x00635f4d
     e2c:	6e5f666e 	cdpvs	6, 5, cr6, cr15, cr14, {3}
     e30:	00696d6e 	rsbeq	r6, r9, lr, ror #26
     e34:	635f4d43 	cmpvs	pc, #4288	; 0x10c0
     e38:	5f666e6f 	svcpl	0x00666e6f
     e3c:	63637074 	cmnvs	r3, #116	; 0x74
     e40:	7476655f 	ldrbtvc	r6, [r6], #-1375	; 0x55f
     e44:	78756d5f 	ldmdavc	r5!, {r0, r1, r2, r3, r4, r6, r8, sl, fp, sp, lr}^
     e48:	5f36335f 	svcpl	0x0036335f
     e4c:	43003933 	movwmi	r3, #2355	; 0x933
     e50:	6f635f4d 	svcvs	0x00635f4d
     e54:	745f666e 	ldrbvc	r6, [pc], #-1646	; e5c <_start-0x7ffff1a4>
     e58:	5f636370 	svcpl	0x00636370
     e5c:	5f747665 	svcpl	0x00747665
     e60:	5f78756d 	svcpl	0x0078756d
     e64:	315f3631 	cmpcc	pc, r1, lsr r6	; <UNPREDICTABLE>
     e68:	4d430039 	stclmi	0, cr0, [r3, #-228]	; 0xffffff1c
     e6c:	5f62625f 	svcpl	0x0062625f
     e70:	6c616373 	stclvs	3, cr6, [r1], #-460	; 0xfffffe34
     e74:	4d430065 	stclmi	0, cr0, [r3, #-404]	; 0xfffffe6c
     e78:	6e6f635f 	mcrvs	3, 3, r6, cr15, cr15, {2}
     e7c:	69745f66 	ldmdbvs	r4!, {r1, r2, r5, r6, r8, r9, sl, fp, ip, lr}^
     e80:	5f72656d 	svcpl	0x0072656d
     e84:	5f747665 	svcpl	0x00747665
     e88:	74706163 	ldrbtvc	r6, [r0], #-355	; 0x163
     e8c:	5f4d4300 	svcpl	0x004d4300
     e90:	666e6f63 	strbtvs	r6, [lr], -r3, ror #30
     e94:	7365725f 	cmnvc	r5, #-268435451	; 0xf0000005
     e98:	695f7465 	ldmdbvs	pc, {r0, r2, r5, r6, sl, ip, sp, lr}^	; <UNPREDICTABLE>
     e9c:	50006f73 	andpl	r6, r0, r3, ror pc
     ea0:	735f4441 	cmpvc	pc, #1090519040	; 0x41000000
     ea4:	6f4d7465 	svcvs	0x004d7465
     ea8:	43006564 	movwmi	r6, #1380	; 0x564
     eac:	6f635f4d 	svcvs	0x00635f4d
     eb0:	6c5f666e 	mrrcvs	6, 6, r6, pc, cr14	; <UNPREDICTABLE>
     eb4:	645f6463 	ldrbvs	r6, [pc], #-1123	; ebc <_start-0x7ffff144>
     eb8:	30617461 	rsbcc	r7, r1, r1, ror #8
     ebc:	5f4d4300 	svcpl	0x004d4300
     ec0:	666e6f63 	strbtvs	r6, [lr], -r3, ror #30
     ec4:	64636c5f 	strbtvs	r6, [r3], #-3167	; 0xc5f
     ec8:	7461645f 	strbtvc	r6, [r1], #-1119	; 0x45f
     ecc:	43003161 	movwmi	r3, #353	; 0x161
     ed0:	6f635f4d 	svcvs	0x00635f4d
     ed4:	6c5f666e 	mrrcvs	6, 6, r6, pc, cr14	; <UNPREDICTABLE>
     ed8:	645f6463 	ldrbvs	r6, [pc], #-1123	; ee0 <_start-0x7ffff120>
     edc:	32617461 	rsbcc	r7, r1, #1627389952	; 0x61000000
     ee0:	5f4d4300 	svcpl	0x004d4300
     ee4:	666e6f63 	strbtvs	r6, [lr], -r3, ror #30
     ee8:	64636c5f 	strbtvs	r6, [r3], #-3167	; 0xc5f
     eec:	7461645f 	strbtvc	r6, [r1], #-1119	; 0x45f
     ef0:	43003361 	movwmi	r3, #865	; 0x361
     ef4:	6f635f4d 	svcvs	0x00635f4d
     ef8:	6c5f666e 	mrrcvs	6, 6, r6, pc, cr14	; <UNPREDICTABLE>
     efc:	645f6463 	ldrbvs	r6, [pc], #-1123	; f04 <_start-0x7ffff0fc>
     f00:	34617461 	strbtcc	r7, [r1], #-1121	; 0x461
     f04:	5f4d4300 	svcpl	0x004d4300
     f08:	666e6f63 	strbtvs	r6, [lr], -r3, ror #30
     f0c:	64636c5f 	strbtvs	r6, [r3], #-3167	; 0xc5f
     f10:	7461645f 	strbtvc	r6, [r1], #-1119	; 0x45f
     f14:	43003561 	movwmi	r3, #1377	; 0x561
     f18:	6f635f4d 	svcvs	0x00635f4d
     f1c:	6c5f666e 	mrrcvs	6, 6, r6, pc, cr14	; <UNPREDICTABLE>
     f20:	645f6463 	ldrbvs	r6, [pc], #-1123	; f28 <_start-0x7ffff0d8>
     f24:	36617461 	strbtcc	r7, [r1], -r1, ror #8
     f28:	5f4d4300 	svcpl	0x004d4300
     f2c:	666e6f63 	strbtvs	r6, [lr], -r3, ror #30
     f30:	64636c5f 	strbtvs	r6, [r3], #-3167	; 0xc5f
     f34:	7461645f 	strbtvc	r6, [r1], #-1119	; 0x45f
     f38:	43003761 	movwmi	r3, #1889	; 0x761
     f3c:	6d735f4d 	ldclvs	15, cr5, [r3, #-308]!	; 0xfffffecc
     f40:	635f7472 	cmpvs	pc, #1912602624	; 0x72000000
     f44:	006c7274 	rsbeq	r7, ip, r4, ror r2
     f48:	635f4d43 	cmpvs	pc, #4288	; 0x10c0
     f4c:	5f666e6f 	svcpl	0x00666e6f
     f50:	5f64636c 	svcpl	0x0064636c
     f54:	61746164 	cmnvs	r4, r4, ror #2
     f58:	4d430039 	stclmi	0, cr0, [r3, #-228]	; 0xffffff1c
     f5c:	6e6f635f 	mcrvs	3, 3, r6, cr15, cr15, {2}
     f60:	61755f66 	cmnvs	r5, r6, ror #30
     f64:	5f307472 	svcpl	0x00307472
     f68:	6e737472 	mrcvs	4, 3, r7, cr3, cr2, {3}
     f6c:	5f4d4300 	svcpl	0x004d4300
     f70:	666e6f63 	strbtvs	r6, [lr], -r3, ror #30
     f74:	7264645f 	rsbvc	r6, r4, #1593835520	; 0x5f000000
     f78:	7461645f 	strbtvc	r6, [r1], #-1119	; 0x45f
     f7c:	695f3161 	ldmdbvs	pc, {r0, r5, r6, r8, ip, sp}^	; <UNPREDICTABLE>
     f80:	7274636f 	rsbsvc	r6, r4, #-1140850687	; 0xbc000001
     f84:	4d43006c 	stclmi	0, cr0, [r3, #-432]	; 0xfffffe50
     f88:	6e6f635f 	mcrvs	3, 3, r6, cr15, cr15, {2}
     f8c:	70675f66 	rsbvc	r5, r7, r6, ror #30
     f90:	615f636d 	cmpvs	pc, sp, ror #6
     f94:	5f6e7664 	svcpl	0x006e7664
     f98:	00656c61 	rsbeq	r6, r5, r1, ror #24
     f9c:	635f4d43 	cmpvs	pc, #4288	; 0x10c0
     fa0:	5f666e6f 	svcpl	0x00666e6f
     fa4:	5f637069 	svcpl	0x00637069
     fa8:	5f67736d 	svcpl	0x0067736d
     fac:	37676572 			; <UNDEFINED> instruction: 0x37676572
     fb0:	5f4d4300 	svcpl	0x004d4300
     fb4:	6c6c7064 	stclvs	0, cr7, [ip], #-400	; 0xfffffe70
     fb8:	7277705f 	rsbsvc	r7, r7, #95	; 0x5f
     fbc:	5f77735f 	svcpl	0x0077735f
     fc0:	74617473 	strbtvc	r7, [r1], #-1139	; 0x473
     fc4:	43007375 	movwmi	r7, #885	; 0x375
     fc8:	6e695f4d 	cdpvs	15, 6, cr5, cr9, cr13, {2}
     fcc:	705f7469 	subsvc	r7, pc, r9, ror #8
     fd0:	726f6972 	rsbvc	r6, pc, #1867776	; 0x1c8000
     fd4:	5f797469 	svcpl	0x00797469
     fd8:	4d430030 	stclmi	0, cr0, [r3, #-192]	; 0xffffff40
     fdc:	6e6f635f 	mcrvs	3, 3, r6, cr15, cr15, {2}
     fe0:	646d5f66 	strbtvs	r5, [sp], #-3942	; 0xf66
     fe4:	4d430063 	stclmi	0, cr0, [r3, #-396]	; 0xfffffe74
     fe8:	6e6f635f 	mcrvs	3, 3, r6, cr15, cr15, {2}
     fec:	696d5f66 	stmdbvs	sp!, {r1, r2, r5, r6, r8, r9, sl, fp, ip, lr}^
     ff0:	745f3169 	ldrbvc	r3, [pc], #-361	; ff8 <_start-0x7ffff008>
     ff4:	6c635f78 	stclvs	15, cr5, [r3], #-480	; 0xfffffe20
     ff8:	4d43006b 	stclmi	0, cr0, [r3, #-428]	; 0xfffffe54
     ffc:	75706d5f 	ldrbvc	r6, [r0, #-3423]!	; 0xd5f
    1000:	646c735f 	strbtvs	r7, [ip], #-863	; 0x35f
    1004:	74635f6f 	strbtvc	r5, [r3], #-3951	; 0xf6f
    1008:	43006c72 	movwmi	r6, #3186	; 0xc72
    100c:	6f635f4d 	svcvs	0x00635f4d
    1010:	655f666e 	ldrbvs	r6, [pc, #-1646]	; 9aa <_start-0x7ffff656>
    1014:	0030756d 	eorseq	r7, r0, sp, ror #10
    1018:	635f4d43 	cmpvs	pc, #4288	; 0x10c0
    101c:	5f666e6f 	svcpl	0x00666e6f
    1020:	31756d65 	cmncc	r5, r5, ror #26
    1024:	4e4f4300 	cdpmi	3, 4, cr4, cr15, cr0, {0}
    1028:	4c4f5254 	sfmmi	f5, 2, [pc], {84}	; 0x54
    102c:	444f4d5f 	strbmi	r4, [pc], #-3423	; 1034 <_start-0x7fffefcc>
    1030:	5f454c55 	svcpl	0x00454c55
    1034:	5f474552 	svcpl	0x00474552
    1038:	4d430074 	stclmi	0, cr0, [r3, #-464]	; 0xfffffe30
    103c:	6e6f635f 	mcrvs	3, 3, r6, cr15, cr15, {2}
    1040:	636c5f66 	cmnvs	ip, #408	; 0x198
    1044:	63705f64 	cmnvs	r0, #100, 30	; 0x190
    1048:	43006b6c 	movwmi	r6, #2924	; 0xb6c
    104c:	6f635f4d 	svcvs	0x00635f4d
    1050:	725f666e 	subsvc	r6, pc, #115343360	; 0x6e00000
    1054:	6b5f6374 	blvs	17d9e2c <_start-0x7e8261d4>
    1058:	6f646c61 	svcvs	0x00646c61
    105c:	6e6e655f 	mcrvs	5, 3, r6, cr14, cr15, {2}
    1060:	5f4d4300 	svcpl	0x004d4300
    1064:	666e6f63 	strbtvs	r6, [lr], -r3, ror #30
    1068:	6370745f 	cmnvs	r0, #1593835520	; 0x5f000000
    106c:	76655f63 	strbtvc	r5, [r5], -r3, ror #30
    1070:	756d5f74 	strbvc	r5, [sp, #-3956]!	; 0xf74
    1074:	38325f78 	ldmdacc	r2!, {r3, r4, r5, r6, r8, r9, sl, fp, ip, lr}
    1078:	0031335f 	eorseq	r3, r1, pc, asr r3
    107c:	635f4d43 	cmpvs	pc, #4288	; 0x10c0
    1080:	5f666e6f 	svcpl	0x00666e6f
    1084:	30636d6d 	rsbcc	r6, r3, sp, ror #26
    1088:	7461645f 	strbtvc	r6, [r1], #-1119	; 0x45f
    108c:	4d430030 	stclmi	0, cr0, [r3, #-192]	; 0xffffff40
    1090:	6e6f635f 	mcrvs	3, 3, r6, cr15, cr15, {2}
    1094:	6d6d5f66 	stclvs	15, cr5, [sp, #-408]!	; 0xfffffe68
    1098:	645f3063 	ldrbvs	r3, [pc], #-99	; 10a0 <_start-0x7fffef60>
    109c:	00317461 	eorseq	r7, r1, r1, ror #8
    10a0:	685f4d43 	ldmdavs	pc, {r0, r1, r6, r8, sl, fp, lr}^	; <UNPREDICTABLE>
    10a4:	76655f77 	uqsub16vc	r5, r5, r7
    10a8:	5f746e65 	svcpl	0x00746e65
    10ac:	5f6c6573 	svcpl	0x006c6573
    10b0:	31707267 	cmncc	r0, r7, ror #4
    10b4:	5f4d4300 	svcpl	0x004d4300
    10b8:	655f7768 	ldrbvs	r7, [pc, #-1896]	; 958 <_start-0x7ffff6a8>
    10bc:	746e6576 	strbtvc	r6, [lr], #-1398	; 0x576
    10c0:	6c65735f 	stclvs	3, cr7, [r5], #-380	; 0xfffffe84
    10c4:	7072675f 	rsbsvc	r6, r2, pc, asr r7
    10c8:	4d430032 	stclmi	0, cr0, [r3, #-200]	; 0xffffff38
    10cc:	5f77685f 	svcpl	0x0077685f
    10d0:	6e657665 	cdpvs	6, 6, cr7, cr5, cr5, {3}
    10d4:	65735f74 	ldrbvs	r5, [r3, #-3956]!	; 0xf74
    10d8:	72675f6c 	rsbvc	r5, r7, #108, 30	; 0x1b0
    10dc:	43003370 	movwmi	r3, #880	; 0x370
    10e0:	77685f4d 	strbvc	r5, [r8, -sp, asr #30]!
    10e4:	6576655f 	ldrbvs	r6, [r6, #-1375]!	; 0x55f
    10e8:	735f746e 	cmpvc	pc, #1845493760	; 0x6e000000
    10ec:	675f6c65 	ldrbvs	r6, [pc, -r5, ror #24]
    10f0:	00347072 	eorseq	r7, r4, r2, ror r0
    10f4:	645f4d43 	ldrbvs	r4, [pc], #-3395	; 10fc <_start-0x7fffef04>
    10f8:	73706565 	cmnvc	r0, #423624704	; 0x19400000
    10fc:	7065656c 	rsbvc	r6, r5, ip, ror #10
    1100:	7274635f 	rsbsvc	r6, r4, #2080374785	; 0x7c000001
    1104:	4d43006c 	stclmi	0, cr0, [r3, #-432]	; 0xfffffe50
    1108:	6e6f635f 	mcrvs	3, 3, r6, cr15, cr15, {2}
    110c:	70675f66 	rsbvc	r5, r7, r6, ror #30
    1110:	775f636d 	ldrbvc	r6, [pc, -sp, ror #6]
    1114:	43006e70 	movwmi	r6, #3696	; 0xe70
    1118:	6f635f4d 	svcvs	0x00635f4d
    111c:	705f666e 	subsvc	r6, pc, lr, ror #12
    1120:	5f63696d 	svcpl	0x0063696d
    1124:	65776f70 	ldrbvs	r6, [r7, #-3952]!	; 0xf70
    1128:	6e655f72 	mcrvs	15, 3, r5, cr5, cr2, {3}
    112c:	5f4d4300 	svcpl	0x004d4300
    1130:	666e6f63 	strbtvs	r6, [lr], -r3, ror #30
    1134:	7261755f 	rsbvc	r7, r1, #398458880	; 0x17c00000
    1138:	725f3174 	subsvc	r3, pc, #116, 2
    113c:	006e7374 	rsbeq	r7, lr, r4, ror r3
    1140:	635f4d43 	cmpvs	pc, #4288	; 0x10c0
    1144:	5f666e6f 	svcpl	0x00666e6f
    1148:	6d726177 	ldfvse	f6, [r2, #-476]!	; 0xfffffe24
    114c:	6e747372 	mrcvs	3, 3, r7, cr4, cr2, {3}
    1150:	5f4d4300 	svcpl	0x004d4300
    1154:	666e6f63 	strbtvs	r6, [lr], -r3, ror #30
    1158:	636d6d5f 	cmnvs	sp, #6080	; 0x17c0
    115c:	6c635f30 	stclvs	15, cr5, [r3], #-192	; 0xffffff40
    1160:	4d43006b 	stclmi	0, cr0, [r3, #-428]	; 0xfffffe54
    1164:	6e6f635f 	mcrvs	3, 3, r6, cr15, cr15, {2}
    1168:	6d745f66 	ldclvs	15, cr5, [r4, #-408]!	; 0xfffffe68
    116c:	4d430073 	stclmi	0, cr0, [r3, #-460]	; 0xfffffe34
    1170:	7465675f 	strbtvc	r6, [r5], #-1887	; 0x75f
    1174:	6c727443 	cfldrdvs	mvd7, [r2], #-268	; 0xfffffef4
    1178:	75646f4d 	strbvc	r6, [r4, #-3917]!	; 0xf4d
    117c:	4300656c 	movwmi	r6, #1388	; 0x56c
    1180:	6f635f4d 	svcvs	0x00635f4d
    1184:	615f666e 	cmpvs	pc, lr, ror #12
    1188:	655f6364 	ldrbvs	r6, [pc, #-868]	; e2c <_start-0x7ffff1d4>
    118c:	635f7476 	cmpvs	pc, #1979711488	; 0x76000000
    1190:	00747061 	rsbseq	r7, r4, r1, rrx
    1194:	635f4d43 	cmpvs	pc, #4288	; 0x10c0
    1198:	5f666e6f 	svcpl	0x00666e6f
    119c:	636d7067 	cmnvs	sp, #103	; 0x67
    11a0:	6e65775f 	mcrvs	7, 3, r7, cr5, cr15, {2}
    11a4:	5f4d4300 	svcpl	0x004d4300
    11a8:	666e6f63 	strbtvs	r6, [lr], -r3, ror #30
    11ac:	6d70675f 	ldclvs	7, cr6, [r0, #-380]!	; 0xfffffe84
    11b0:	73635f63 	cmnvc	r3, #396	; 0x18c
    11b4:	4300306e 	movwmi	r3, #110	; 0x6e
    11b8:	6f635f4d 	svcvs	0x00635f4d
    11bc:	675f666e 	ldrbvs	r6, [pc, -lr, ror #12]
    11c0:	5f636d70 	svcpl	0x00636d70
    11c4:	00303161 	eorseq	r3, r0, r1, ror #2
    11c8:	635f4d43 	cmpvs	pc, #4288	; 0x10c0
    11cc:	5f666e6f 	svcpl	0x00666e6f
    11d0:	636d7067 	cmnvs	sp, #103	; 0x67
    11d4:	3131615f 	teqcc	r1, pc, asr r1
    11d8:	5f4d4300 	svcpl	0x004d4300
    11dc:	666e6f63 	strbtvs	r6, [lr], -r3, ror #30
    11e0:	7264645f 	rsbvc	r6, r4, #1593835520	; 0x5f000000
    11e4:	7461645f 	strbtvc	r6, [r1], #-1119	; 0x45f
    11e8:	695f3061 	ldmdbvs	pc, {r0, r5, r6, ip, sp}^	; <UNPREDICTABLE>
    11ec:	7274636f 	rsbsvc	r6, r4, #-1140850687	; 0xbc000001
    11f0:	4d43006c 	stclmi	0, cr0, [r3, #-432]	; 0xfffffe50
    11f4:	726f635f 	rsbvc	r6, pc, #2080374785	; 0x7c000001
    11f8:	5f786574 	svcpl	0x00786574
    11fc:	6c626276 	sfmvs	f6, 2, [r2], #-472	; 0xfffffe28
    1200:	635f6f64 	cmpvs	pc, #100, 30	; 0x190
    1204:	006c7274 	rsbeq	r7, ip, r4, ror r2
    1208:	765f4d43 	ldrbvc	r4, [pc], -r3, asr #26
    120c:	6d5f6464 	cfldrdvs	mvd6, [pc, #-400]	; 1084 <_start-0x7fffef7c>
    1210:	6f5f7570 	svcvs	0x005f7570
    1214:	305f7070 	subscc	r7, pc, r0, ror r0	; <UNPREDICTABLE>
    1218:	43003035 	movwmi	r3, #53	; 0x35
    121c:	6f635f4d 	svcvs	0x00635f4d
    1220:	755f666e 	ldrbvc	r6, [pc, #-1646]	; bba <_start-0x7ffff446>
    1224:	31747261 	cmncc	r4, r1, ror #4
    1228:	6478745f 	ldrbtvs	r7, [r8], #-1119	; 0x45f
    122c:	5f4d4300 	svcpl	0x004d4300
    1230:	666e6f63 	strbtvs	r6, [lr], -r3, ror #30
    1234:	6370745f 	cmnvs	r0, #1593835520	; 0x5f000000
    1238:	76655f63 	strbtvc	r5, [r5], -r3, ror #30
    123c:	756d5f74 	strbvc	r5, [sp, #-3956]!	; 0xf74
    1240:	5f385f78 	svcpl	0x00385f78
    1244:	43003131 	movwmi	r3, #305	; 0x131
    1248:	616d5f4d 	cmnvs	sp, sp, asr #30
    124c:	64695f63 	strbtvs	r5, [r9], #-3939	; 0xf63
    1250:	6f6c5f31 	svcvs	0x006c5f31
    1254:	5f4d4300 	svcpl	0x004d4300
    1258:	666e6f63 	strbtvs	r6, [lr], -r3, ror #30
    125c:	61636d5f 	cmnvs	r3, pc, asr sp
    1260:	5f307073 	svcpl	0x00307073
    1264:	00727366 	rsbseq	r7, r2, r6, ror #6
    1268:	765f4d43 	ldrbvc	r4, [pc], -r3, asr #26
    126c:	635f6464 	cmpvs	pc, #100, 8	; 0x64000000
    1270:	5f65726f 	svcpl	0x0065726f
    1274:	5f70706f 	svcpl	0x0070706f
    1278:	00303530 	eorseq	r3, r0, r0, lsr r5
    127c:	625f4d43 	subsvs	r4, pc, #4288	; 0x10c0
    1280:	67646e61 	strbvs	r6, [r4, -r1, ror #28]!
    1284:	745f7061 	ldrbvc	r7, [pc], #-97	; 128c <_start-0x7fffed74>
    1288:	006d6972 	rsbeq	r6, sp, r2, ror r9
    128c:	635f4d43 	cmpvs	pc, #4288	; 0x10c0
    1290:	5f666e6f 	svcpl	0x00666e6f
    1294:	5f726464 	svcpl	0x00726464
    1298:	635f6f69 	cmpvs	pc, #420	; 0x1a4
    129c:	006c7274 	rsbeq	r7, ip, r4, ror r2
    12a0:	635f4d43 	cmpvs	pc, #4288	; 0x10c0
    12a4:	5f666e6f 	svcpl	0x00666e6f
    12a8:	7361636d 	cmnvc	r1, #-1275068415	; 0xb4000001
    12ac:	665f3070 			; <UNDEFINED> instruction: 0x665f3070
    12b0:	43007873 	movwmi	r7, #2163	; 0x873
    12b4:	70745f4d 	rsbsvc	r5, r4, sp, asr #30
    12b8:	635f6374 	cmpvs	pc, #116, 6	; 0xd0000001
    12bc:	43006766 	movwmi	r6, #1894	; 0x766
    12c0:	6f635f4d 	svcvs	0x00635f4d
    12c4:	6d5f666e 	ldclvs	6, cr6, [pc, #-440]	; 1114 <_start-0x7fffeeec>
    12c8:	5f30636d 	svcpl	0x0030636d
    12cc:	00646d63 	rsbeq	r6, r4, r3, ror #26
    12d0:	635f4d43 	cmpvs	pc, #4288	; 0x10c0
    12d4:	5f666e6f 	svcpl	0x00666e6f
    12d8:	5f637472 	svcpl	0x00637472
    12dc:	6f727770 	svcvs	0x00727770
    12e0:	7473726e 	ldrbtvc	r7, [r3], #-622	; 0x26e
    12e4:	4d43006e 	stclmi	0, cr0, [r3, #-440]	; 0xfffffe48
    12e8:	63616d5f 	cmnvs	r1, #6080	; 0x17c0
    12ec:	3164695f 	cmncc	r4, pc, asr r9
    12f0:	0069685f 	rsbeq	r6, r9, pc, asr r8
    12f4:	635f4d43 	cmpvs	pc, #4288	; 0x10c0
    12f8:	5f666e6f 	svcpl	0x00666e6f
    12fc:	5f747865 	svcpl	0x00747865
    1300:	656b6177 	strbvs	r6, [fp, #-375]!	; 0x177
    1304:	43007075 	movwmi	r7, #117	; 0x75
    1308:	6f635f4d 	svcvs	0x00635f4d
    130c:	6d5f666e 	ldclvs	6, cr6, [pc, #-440]	; 115c <_start-0x7fffeea4>
    1310:	5f316969 	svcpl	0x00316969
    1314:	645f7872 	ldrbvs	r7, [pc], #-2162	; 131c <_start-0x7fffece4>
    1318:	4d430076 	stclmi	0, cr0, [r3, #-472]	; 0xfffffe28
    131c:	6e6f635f 	mcrvs	3, 3, r6, cr15, cr15, {2}
    1320:	64645f66 	strbtvs	r5, [r4], #-3942	; 0xf66
    1324:	6d635f72 	stclvs	15, cr5, [r3, #-456]!	; 0xfffffe38
    1328:	695f3264 	ldmdbvs	pc, {r2, r5, r6, r9, ip, sp}^	; <UNPREDICTABLE>
    132c:	7274636f 	rsbsvc	r6, r4, #-1140850687	; 0xbc000001
    1330:	4d43006c 	stclmi	0, cr0, [r3, #-432]	; 0xfffffe50
    1334:	75706d5f 	ldrbvc	r6, [r0, #-3423]!	; 0xd5f
    1338:	685f7373 	ldmdavs	pc, {r0, r1, r4, r5, r6, r8, r9, ip, sp, lr}^	; <UNPREDICTABLE>
    133c:	65645f77 	strbvs	r5, [r4, #-3959]!	; 0xf77
    1340:	5f677562 	svcpl	0x00677562
    1344:	006c6573 	rsbeq	r6, ip, r3, ror r5
    1348:	635f4d43 	cmpvs	pc, #4288	; 0x10c0
    134c:	5f666e6f 	svcpl	0x00666e6f
    1350:	3169696d 	cmncc	r9, sp, ror #18
    1354:	6478725f 	ldrbtvs	r7, [r8], #-607	; 0x25f
    1358:	4d430032 	stclmi	0, cr0, [r3, #-200]	; 0xffffff38
    135c:	6e6f635f 	mcrvs	3, 3, r6, cr15, cr15, {2}
    1360:	70675f66 	rsbvc	r5, r7, r6, ror #30
    1364:	625f636d 	subsvs	r6, pc, #-1275068415	; 0xb4000001
    1368:	5f306e65 	svcpl	0x00306e65
    136c:	00656c63 	rsbeq	r6, r5, r3, ror #24
    1370:	635f4d43 	cmpvs	pc, #4288	; 0x10c0
    1374:	5f666e6f 	svcpl	0x00666e6f
    1378:	30697073 	rsbcc	r7, r9, r3, ror r0
    137c:	3073635f 	rsbscc	r6, r3, pc, asr r3
    1380:	5f4d4300 	svcpl	0x004d4300
    1384:	666e6f63 	strbtvs	r6, [lr], -r3, ror #30
    1388:	6970735f 	ldmdbvs	r0!, {r0, r1, r2, r3, r4, r6, r8, r9, ip, sp, lr}^
    138c:	73635f30 	cmnvc	r3, #48, 30	; 0xc0
    1390:	4d430031 	stclmi	0, cr0, [r3, #-196]	; 0xffffff3c
    1394:	75706d5f 	ldrbvc	r6, [r0, #-3423]!	; 0xd5f
    1398:	685f7373 	ldmdavs	pc, {r0, r1, r4, r5, r6, r8, r9, ip, sp, lr}^	; <UNPREDICTABLE>
    139c:	62645f77 	rsbvs	r5, r4, #476	; 0x1dc
    13a0:	6e695f67 	cdpvs	15, 6, cr5, cr9, cr7, {3}
    13a4:	43006f66 	movwmi	r6, #3942	; 0xf66
    13a8:	616d5f4d 	cmnvs	sp, sp, asr #30
    13ac:	64695f63 	strbtvs	r5, [r9], #-3939	; 0xf63
    13b0:	6f6c5f30 	svcvs	0x006c5f30
    13b4:	5f4d4300 	svcpl	0x004d4300
    13b8:	666e6f63 	strbtvs	r6, [lr], -r3, ror #30
    13bc:	5f336d5f 	svcpl	0x00336d5f
    13c0:	76657874 			; <UNDEFINED> instruction: 0x76657874
    13c4:	696f655f 	stmdbvs	pc!, {r0, r1, r2, r3, r4, r6, r8, sl, sp, lr}^	; <UNPREDICTABLE>
    13c8:	5f4d4300 	svcpl	0x004d4300
    13cc:	746e6f63 	strbtvc	r6, [lr], #-3939	; 0xf63
    13d0:	5f6c6f72 	svcpl	0x006c6f72
    13d4:	6e697768 	cdpvs	7, 6, cr7, cr9, cr8, {3}
    13d8:	43006f66 	movwmi	r6, #3942	; 0xf66
    13dc:	6f635f4d 	svcvs	0x00635f4d
    13e0:	6c5f666e 	mrrcvs	6, 6, r6, pc, cr14	; <UNPREDICTABLE>
    13e4:	615f6463 	cmpvs	pc, r3, ror #8
    13e8:	69625f63 	stmdbvs	r2!, {r0, r1, r5, r6, r8, r9, sl, fp, ip, lr}^
    13ec:	655f7361 	ldrbvs	r7, [pc, #-865]	; 1093 <_start-0x7fffef6d>
    13f0:	4d43006e 	stclmi	0, cr0, [r3, #-440]	; 0xfffffe48
    13f4:	6e6f635f 	mcrvs	3, 3, r6, cr15, cr15, {2}
    13f8:	63655f66 	cmnvs	r5, #408	; 0x198
    13fc:	655f7061 	ldrbvs	r7, [pc, #-97]	; 13a3 <_start-0x7fffec5d>
    1400:	635f7476 	cmpvs	pc, #1979711488	; 0x76000000
    1404:	00747061 	rsbseq	r7, r4, r1, rrx
    1408:	765f4d43 	ldrbvc	r4, [pc], -r3, asr #26
    140c:	6d5f6464 	cfldrdvs	mvd6, [pc, #-400]	; 1284 <_start-0x7fffed7c>
    1410:	6f5f7570 	svcvs	0x005f7570
    1414:	315f7070 	cmpcc	pc, r0, ror r0	; <UNPREDICTABLE>
    1418:	43003030 	movwmi	r3, #48	; 0x30
    141c:	6f635f4d 	svcvs	0x00635f4d
    1420:	6d5f666e 	ldclvs	6, cr6, [pc, #-440]	; 1270 <_start-0x7fffed90>
    1424:	006f6964 	rsbeq	r6, pc, r4, ror #18
    1428:	635f4d43 	cmpvs	pc, #4288	; 0x10c0
    142c:	5f666e6f 	svcpl	0x00666e6f
    1430:	5f726464 	svcpl	0x00726464
    1434:	31646d63 	cmncc	r4, r3, ror #26
    1438:	636f695f 	cmnvs	pc, #1556480	; 0x17c000
    143c:	006c7274 	rsbeq	r7, ip, r4, ror r2
    1440:	635f4d43 	cmpvs	pc, #4288	; 0x10c0
    1444:	5f666e6f 	svcpl	0x00666e6f
    1448:	74737274 	ldrbtvc	r7, [r3], #-628	; 0x274
    144c:	4d43006e 	stclmi	0, cr0, [r3, #-440]	; 0xfffffe48
    1450:	6e6f635f 	mcrvs	3, 3, r6, cr15, cr15, {2}
    1454:	70745f66 	rsbsvc	r5, r4, r6, ror #30
    1458:	655f6363 	ldrbvs	r6, [pc, #-867]	; 10fd <_start-0x7fffef03>
    145c:	6d5f7476 	cfldrdvs	mvd7, [pc, #-472]	; 128c <_start-0x7fffed74>
    1460:	355f7875 	ldrbcc	r7, [pc, #-2165]	; bf3 <_start-0x7ffff40d>
    1464:	35355f32 	ldrcc	r5, [r5, #-3890]!	; 0xf32
    1468:	5f4d4300 	svcpl	0x004d4300
    146c:	666e6f63 	strbtvs	r6, [lr], -r3, ror #30
    1470:	6370745f 	cmnvs	r0, #1593835520	; 0x5f000000
    1474:	76655f63 	strbtvc	r5, [r5], -r3, ror #30
    1478:	756d5f74 	strbvc	r5, [sp, #-3956]!	; 0xf74
    147c:	30345f78 	eorscc	r5, r4, r8, ror pc
    1480:	0033345f 	eorseq	r3, r3, pc, asr r4
    1484:	765f4d43 	ldrbvc	r4, [pc], -r3, asr #26
    1488:	635f6464 	cmpvs	pc, #100, 8	; 0x64000000
    148c:	5f65726f 	svcpl	0x0065726f
    1490:	5f70706f 	svcpl	0x0070706f
    1494:	00303031 	eorseq	r3, r0, r1, lsr r0
    1498:	635f4d43 	cmpvs	pc, #4288	; 0x10c0
    149c:	5f666e6f 	svcpl	0x00666e6f
    14a0:	3169696d 	cmncc	r9, sp, ror #18
    14a4:	5f78725f 	svcpl	0x0078725f
    14a8:	006b6c63 	rsbeq	r6, fp, r3, ror #24
    14ac:	6d5f4d43 	ldclvs	13, cr4, [pc, #-268]	; 13a8 <_start-0x7fffec58>
    14b0:	70716572 	rsbsvc	r6, r1, r2, ror r5
    14b4:	5f6f6972 	svcpl	0x006f6972
    14b8:	4d430031 	stclmi	0, cr0, [r3, #-196]	; 0xffffff3c
    14bc:	6e6f635f 	mcrvs	3, 3, r6, cr15, cr15, {2}
    14c0:	70745f66 	rsbsvc	r5, r4, r6, ror #30
    14c4:	655f6363 	ldrbvs	r6, [pc, #-867]	; 1169 <_start-0x7fffee97>
    14c8:	6d5f7476 	cfldrdvs	mvd7, [pc, #-472]	; 12f8 <_start-0x7fffed08>
    14cc:	335f7875 	cmpcc	pc, #7667712	; 0x750000
    14d0:	35335f32 	ldrcc	r5, [r3, #-3890]!	; 0xf32
    14d4:	5f4d4300 	svcpl	0x004d4300
    14d8:	666e6f63 	strbtvs	r6, [lr], -r3, ror #30
    14dc:	6370745f 	cmnvs	r0, #1593835520	; 0x5f000000
    14e0:	76655f63 	strbtvc	r5, [r5], -r3, ror #30
    14e4:	756d5f74 	strbvc	r5, [sp, #-3956]!	; 0xf74
    14e8:	32315f78 	eorscc	r5, r1, #120, 30	; 0x1e0
    14ec:	0035315f 	eorseq	r3, r5, pc, asr r1
    14f0:	635f4d43 	cmpvs	pc, #4288	; 0x10c0
    14f4:	5f666e6f 	svcpl	0x00666e6f
    14f8:	65647163 	strbvs	r7, [r4, #-355]!	; 0x163
    14fc:	74636574 	strbtvc	r6, [r3], #-1396	; 0x574
    1500:	6174735f 	cmnvs	r4, pc, asr r3
    1504:	00737574 	rsbseq	r7, r3, r4, ror r5
    1508:	635f4d43 	cmpvs	pc, #4288	; 0x10c0
    150c:	5f666e6f 	svcpl	0x00666e6f
    1510:	74726175 	ldrbtvc	r6, [r2], #-373	; 0x175
    1514:	78725f30 	ldmdavc	r2!, {r4, r5, r8, r9, sl, fp, ip, lr}^
    1518:	4d430064 	stclmi	0, cr0, [r3, #-400]	; 0xfffffe70
    151c:	6e6f635f 	mcrvs	3, 3, r6, cr15, cr15, {2}
    1520:	696d5f66 	stmdbvs	sp!, {r1, r2, r5, r6, r8, r9, sl, fp, ip, lr}^
    1524:	725f3169 	subsvc	r3, pc, #1073741850	; 0x4000001a
    1528:	72655f78 	rsbvc	r5, r5, #120, 30	; 0x1e0
    152c:	5f4d4300 	svcpl	0x004d4300
    1530:	666e6f63 	strbtvs	r6, [lr], -r3, ror #30
    1534:	636d6d5f 	cmnvs	sp, #6080	; 0x17c0
    1538:	61645f30 	cmnvs	r4, r0, lsr pc
    153c:	43003274 	movwmi	r3, #628	; 0x274
    1540:	6f635f4d 	svcvs	0x00635f4d
    1544:	6d5f666e 	ldclvs	6, cr6, [pc, #-440]	; 1394 <_start-0x7fffec6c>
    1548:	5f30636d 	svcpl	0x0030636d
    154c:	33746164 	cmncc	r4, #100, 2
    1550:	5f4d4300 	svcpl	0x004d4300
    1554:	666e6f63 	strbtvs	r6, [lr], -r3, ror #30
    1558:	6370745f 	cmnvs	r0, #1593835520	; 0x5f000000
    155c:	76655f63 	strbtvc	r5, [r5], -r3, ror #30
    1560:	756d5f74 	strbvc	r5, [sp, #-3956]!	; 0xf74
    1564:	34325f78 	ldrtcc	r5, [r2], #-3960	; 0xf78
    1568:	0037325f 	eorseq	r3, r7, pc, asr r2
    156c:	706d6574 	rsbvc	r6, sp, r4, ror r5
    1570:	5f4d4300 	svcpl	0x004d4300
    1574:	666e6f63 	strbtvs	r6, [lr], -r3, ror #30
    1578:	61636d5f 	cmnvs	r3, pc, asr sp
    157c:	5f307073 	svcpl	0x00307073
    1580:	6c636861 	stclvs	8, cr6, [r3], #-388	; 0xfffffe7c
    1584:	4300726b 	movwmi	r7, #619	; 0x26b
    1588:	6f635f4d 	svcvs	0x00635f4d
    158c:	6c5f666e 	mrrcvs	6, 6, r6, pc, cr14	; <UNPREDICTABLE>
    1590:	685f6463 	ldmdavs	pc, {r0, r1, r5, r6, sl, sp, lr}^	; <UNPREDICTABLE>
    1594:	636e7973 	cmnvs	lr, #1884160	; 0x1cc000
    1598:	5f4d4300 	svcpl	0x004d4300
    159c:	63736f6d 	cmnvs	r3, #436	; 0x1b4
    15a0:	7274635f 	rsbsvc	r6, r4, #2080374785	; 0x7c000001
    15a4:	4d43006c 	stclmi	0, cr0, [r3, #-432]	; 0xfffffe50
    15a8:	6e6f635f 	mcrvs	3, 3, r6, cr15, cr15, {2}
    15ac:	696d5f66 	stmdbvs	sp!, {r1, r2, r5, r6, r8, r9, sl, fp, ip, lr}^
    15b0:	635f3169 	cmpvs	pc, #1073741850	; 0x4000001a
    15b4:	43006c6f 	movwmi	r6, #3183	; 0xc6f
    15b8:	6f635f4d 	svcvs	0x00635f4d
    15bc:	6d5f666e 	ldclvs	6, cr6, [pc, #-440]	; 140c <_start-0x7fffebf4>
    15c0:	70736163 	rsbsvc	r6, r3, r3, ror #2
    15c4:	68615f30 	stmdavs	r1!, {r4, r5, r8, r9, sl, fp, ip, lr}^
    15c8:	786b6c63 	stmdavc	fp!, {r0, r1, r5, r6, sl, fp, sp, lr}^
    15cc:	5f4d4300 	svcpl	0x004d4300
    15d0:	666e6f63 	strbtvs	r6, [lr], -r3, ror #30
    15d4:	7264645f 	rsbvc	r6, r4, #1593835520	; 0x5f000000
    15d8:	656b635f 	strbvs	r6, [fp, #-863]!	; 0x35f
    15dc:	7274635f 	rsbsvc	r6, r4, #2080374785	; 0x7c000001
    15e0:	4d43006c 	stclmi	0, cr0, [r3, #-432]	; 0xfffffe50
    15e4:	6464765f 	strbtvs	r7, [r4], #-1631	; 0x65f
    15e8:	75706d5f 	ldrbvc	r6, [r0, #-3423]!	; 0xd5f
    15ec:	70706f5f 	rsbsvc	r6, r0, pc, asr pc
    15f0:	7275745f 	rsbsvc	r7, r5, #1593835520	; 0x5f000000
    15f4:	43006f62 	movwmi	r6, #3938	; 0xf62
    15f8:	6f635f4d 	svcvs	0x00635f4d
    15fc:	695f666e 	ldmdbvs	pc, {r1, r2, r3, r5, r6, r9, sl, sp, lr}^	; <UNPREDICTABLE>
    1600:	6d5f6370 	ldclvs	3, cr6, [pc, #-448]	; 1448 <_start-0x7fffebb8>
    1604:	725f6773 	subsvc	r6, pc, #30146560	; 0x1cc0000
    1608:	00316765 	eorseq	r6, r1, r5, ror #14
    160c:	635f4d43 	cmpvs	pc, #4288	; 0x10c0
    1610:	5f666e6f 	svcpl	0x00666e6f
    1614:	74726175 	ldrbtvc	r6, [r2], #-373	; 0x175
    1618:	78725f31 	ldmdavc	r2!, {r0, r4, r5, r8, r9, sl, fp, ip, lr}^
    161c:	4d430064 	stclmi	0, cr0, [r3, #-400]	; 0xfffffe70
    1620:	6e6f635f 	mcrvs	3, 3, r6, cr15, cr15, {2}
    1624:	70695f66 	rsbvc	r5, r9, r6, ror #30
    1628:	736d5f63 	cmnvc	sp, #396	; 0x18c
    162c:	65725f67 	ldrbvs	r5, [r2, #-3943]!	; 0xf67
    1630:	43003367 	movwmi	r3, #871	; 0x367
    1634:	6f635f4d 	svcvs	0x00635f4d
    1638:	695f666e 	ldmdbvs	pc, {r1, r2, r3, r5, r6, r9, sl, sp, lr}^	; <UNPREDICTABLE>
    163c:	6d5f6370 	ldclvs	3, cr6, [pc, #-448]	; 1484 <_start-0x7fffeb7c>
    1640:	725f6773 	subsvc	r6, pc, #30146560	; 0x1cc0000
    1644:	00346765 	eorseq	r6, r4, r5, ror #14
    1648:	635f4d43 	cmpvs	pc, #4288	; 0x10c0
    164c:	5f666e6f 	svcpl	0x00666e6f
    1650:	74726175 	ldrbtvc	r6, [r2], #-373	; 0x175
    1654:	78745f30 	ldmdavc	r4!, {r4, r5, r8, r9, sl, fp, ip, lr}^
    1658:	4d430064 	stclmi	0, cr0, [r3, #-400]	; 0xfffffe70
    165c:	6e6f635f 	mcrvs	3, 3, r6, cr15, cr15, {2}
    1660:	70745f66 	rsbsvc	r5, r4, r6, ror #30
    1664:	655f6363 	ldrbvs	r6, [pc, #-867]	; 1309 <_start-0x7fffecf7>
    1668:	6d5f7476 	cfldrdvs	mvd7, [pc, #-472]	; 1498 <_start-0x7fffeb68>
    166c:	355f7875 	ldrbcc	r7, [pc, #-2165]	; dff <_start-0x7ffff201>
    1670:	39355f36 	ldmdbcc	r5!, {r1, r2, r4, r5, r8, r9, sl, fp, ip, lr}
    1674:	5f4d4300 	svcpl	0x004d4300
    1678:	666e6f63 	strbtvs	r6, [lr], -r3, ror #30
    167c:	6d70675f 	ldclvs	7, cr6, [r0, #-380]!	; 0xfffffe84
    1680:	6c635f63 	stclvs	15, cr5, [r3], #-396	; 0xfffffe74
    1684:	4d43006b 	stclmi	0, cr0, [r3, #-428]	; 0xfffffe54
    1688:	6163645f 	cmnvs	r3, pc, asr r4
    168c:	61725f6e 	cmnvs	r2, lr, ror #30
    1690:	696e696d 	stmdbvs	lr!, {r0, r2, r3, r5, r6, r8, fp, sp, lr}^
    1694:	4d430074 	stclmi	0, cr0, [r3, #-464]	; 0xfffffe30
    1698:	6e6f635f 	mcrvs	3, 3, r6, cr15, cr15, {2}
    169c:	73755f66 	cmnvc	r5, #408	; 0x198
    16a0:	645f3162 	ldrbvs	r3, [pc], #-354	; 16a8 <_start-0x7fffe958>
    16a4:	62767672 	rsbsvs	r7, r6, #119537664	; 0x7200000
    16a8:	43007375 	movwmi	r7, #885	; 0x375
    16ac:	6f635f4d 	svcvs	0x00635f4d
    16b0:	675f666e 	ldrbvs	r6, [pc, -lr, ror #12]
    16b4:	5f636d70 	svcpl	0x00636d70
    16b8:	5f6e656f 	svcpl	0x006e656f
    16bc:	006e6572 	rsbeq	r6, lr, r2, ror r5
    16c0:	635f4d43 	cmpvs	pc, #4288	; 0x10c0
    16c4:	5f666e6f 	svcpl	0x00666e6f
    16c8:	3169696d 	cmncc	r9, sp, ror #18
    16cc:	6478745f 	ldrbtvs	r7, [r8], #-1119	; 0x45f
    16d0:	4d430030 	stclmi	0, cr0, [r3, #-192]	; 0xffffff40
    16d4:	6e6f635f 	mcrvs	3, 3, r6, cr15, cr15, {2}
    16d8:	696d5f66 	stmdbvs	sp!, {r1, r2, r5, r6, r8, r9, sl, fp, ip, lr}^
    16dc:	745f3169 	ldrbvc	r3, [pc], #-361	; 16e4 <_start-0x7fffe91c>
    16e0:	00316478 	eorseq	r6, r1, r8, ror r4
    16e4:	635f4d43 	cmpvs	pc, #4288	; 0x10c0
    16e8:	5f666e6f 	svcpl	0x00666e6f
    16ec:	3169696d 	cmncc	r9, sp, ror #18
    16f0:	6478745f 	ldrbtvs	r7, [r8], #-1119	; 0x45f
    16f4:	4d430032 	stclmi	0, cr0, [r3, #-200]	; 0xffffff38
    16f8:	6e6f635f 	mcrvs	3, 3, r6, cr15, cr15, {2}
    16fc:	696d5f66 	stmdbvs	sp!, {r1, r2, r5, r6, r8, r9, sl, fp, ip, lr}^
    1700:	745f3169 	ldrbvc	r3, [pc], #-361	; 1708 <_start-0x7fffe8f8>
    1704:	00336478 	eorseq	r6, r3, r8, ror r4
    1708:	635f4d43 	cmpvs	pc, #4288	; 0x10c0
    170c:	5f666e6f 	svcpl	0x00666e6f
    1710:	636d7067 	cmnvs	sp, #103	; 0x67
    1714:	6e65625f 	mcrvs	2, 3, r6, cr5, cr15, {2}
    1718:	4d430031 	stclmi	0, cr0, [r3, #-196]	; 0xffffff3c
    171c:	6e6f635f 	mcrvs	3, 3, r6, cr15, cr15, {2}
    1720:	72765f66 	rsbsvc	r5, r6, #408	; 0x198
    1724:	635f6665 	cmpvs	pc, #105906176	; 0x6500000
    1728:	006c7274 	rsbeq	r7, ip, r4, ror r2
    172c:	635f4d43 	cmpvs	pc, #4288	; 0x10c0
    1730:	5f666e6f 	svcpl	0x00666e6f
    1734:	32616d73 	rsbcc	r6, r1, #7360	; 0x1cc0
    1738:	5f4d4300 	svcpl	0x004d4300
    173c:	666e6f63 	strbtvs	r6, [lr], -r3, ror #30
    1740:	6970735f 	ldmdbvs	r0!, {r0, r1, r2, r3, r4, r6, r8, r9, ip, sp, lr}^
    1744:	63735f30 	cmnvs	r3, #48, 30	; 0xc0
    1748:	43006b6c 	movwmi	r6, #2924	; 0xb6c
    174c:	6f635f4d 	svcvs	0x00635f4d
    1750:	695f666e 	ldmdbvs	pc, {r1, r2, r3, r5, r6, r9, sl, sp, lr}^	; <UNPREDICTABLE>
    1754:	6d5f6370 	ldclvs	3, cr6, [pc, #-448]	; 159c <_start-0x7fffea64>
    1758:	725f6773 	subsvc	r6, pc, #30146560	; 0x1cc0000
    175c:	00306765 	eorseq	r6, r0, r5, ror #14
    1760:	675f4d43 	ldrbvs	r4, [pc, -r3, asr #26]
    1764:	5f69696d 	svcpl	0x0069696d
    1768:	006c6573 	rsbeq	r6, ip, r3, ror r5
    176c:	635f4d43 	cmpvs	pc, #4288	; 0x10c0
    1770:	5f666e6f 	svcpl	0x00666e6f
    1774:	5f637069 	svcpl	0x00637069
    1778:	5f67736d 	svcpl	0x0067736d
    177c:	32676572 	rsbcc	r6, r7, #478150656	; 0x1c800000
    1780:	5f4d4300 	svcpl	0x004d4300
    1784:	336b6c63 	cmncc	fp, #25344	; 0x6300
    1788:	69646b32 	stmdbvs	r4!, {r1, r4, r5, r8, r9, fp, sp, lr}^
    178c:	74617276 	strbtvc	r7, [r1], #-630	; 0x276
    1790:	635f6f69 	cmpvs	pc, #420	; 0x1a4
    1794:	006c7274 	rsbeq	r7, ip, r4, ror r2
    1798:	635f4d43 	cmpvs	pc, #4288	; 0x10c0
    179c:	5f666e6f 	svcpl	0x00666e6f
    17a0:	30627375 	rsbcc	r7, r2, r5, ror r3
    17a4:	7672645f 			; <UNDEFINED> instruction: 0x7672645f
    17a8:	73756276 	cmnvc	r5, #1610612743	; 0x60000007
    17ac:	5f4d4300 	svcpl	0x004d4300
    17b0:	666e6f63 	strbtvs	r6, [lr], -r3, ror #30
    17b4:	6370695f 	cmnvs	r0, #1556480	; 0x17c000
    17b8:	67736d5f 			; <UNDEFINED> instruction: 0x67736d5f
    17bc:	6765725f 			; <UNDEFINED> instruction: 0x6765725f
    17c0:	4d430035 	stclmi	0, cr0, [r3, #-212]	; 0xffffff2c
    17c4:	6e6f635f 	mcrvs	3, 3, r6, cr15, cr15, {2}
    17c8:	70695f66 	rsbvc	r5, r9, r6, ror #30
    17cc:	736d5f63 	cmnvc	sp, #396	; 0x18c
    17d0:	65725f67 	ldrbvs	r5, [r2, #-3943]!	; 0xf67
    17d4:	43003667 	movwmi	r3, #1639	; 0x667
    17d8:	65645f4d 	strbvs	r5, [r4, #-3917]!	; 0xf4d
    17dc:	65665f76 	strbvs	r5, [r6, #-3958]!	; 0xf76
    17e0:	72757461 	rsbsvc	r7, r5, #1627389952	; 0x61000000
    17e4:	4d430065 	stclmi	0, cr0, [r3, #-404]	; 0xfffffe6c
    17e8:	6e6f635f 	mcrvs	3, 3, r6, cr15, cr15, {2}
    17ec:	6c6f7274 	sfmvs	f7, 2, [pc], #-464	; 1624 <_start-0x7fffe9dc>
    17f0:	646f6d5f 	strbtvs	r6, [pc], #-3423	; 17f8 <_start-0x7fffe808>
    17f4:	00656c75 	rsbeq	r6, r5, r5, ror ip
    17f8:	65646f6d 	strbvs	r6, [r4, #-3949]!	; 0xf6d
    17fc:	5f4d4300 	svcpl	0x004d4300
    1800:	69766564 	ldmdbvs	r6!, {r2, r5, r6, r8, sl, sp, lr}^
    1804:	695f6563 	ldmdbvs	pc, {r0, r1, r5, r6, r8, sl, sp, lr}^	; <UNPREDICTABLE>
    1808:	4d430064 	stclmi	0, cr0, [r3, #-400]	; 0xfffffe70
    180c:	696e695f 	stmdbvs	lr!, {r0, r1, r2, r3, r4, r6, r8, fp, sp, lr}^
    1810:	72705f74 	rsbsvc	r5, r0, #116, 30	; 0x1d0
    1814:	69726f69 	ldmdbvs	r2!, {r0, r3, r5, r6, r8, r9, sl, fp, sp, lr}^
    1818:	315f7974 	cmpcc	pc, r4, ror r9	; <UNPREDICTABLE>
    181c:	5f4d4300 	svcpl	0x004d4300
    1820:	5f627375 	svcpl	0x00627375
    1824:	30737473 	rsbscc	r7, r3, r3, ror r4
    1828:	5f4d4300 	svcpl	0x004d4300
    182c:	5f627375 	svcpl	0x00627375
    1830:	31737473 	cmncc	r3, r3, ror r4
    1834:	5f4d4300 	svcpl	0x004d4300
    1838:	666e6f63 	strbtvs	r6, [lr], -r3, ror #30
    183c:	64636c5f 	strbtvs	r6, [r3], #-3167	; 0xc5f
    1840:	7461645f 	strbtvc	r6, [r1], #-1119	; 0x45f
    1844:	00343161 	eorseq	r3, r4, r1, ror #2
    1848:	765f4d43 	ldrbvc	r4, [pc], -r3, asr #26
    184c:	6d5f6464 	cfldrdvs	mvd6, [pc, #-400]	; 16c4 <_start-0x7fffe93c>
    1850:	6f5f7570 	svcvs	0x005f7570
    1854:	315f7070 	cmpcc	pc, r0, ror r0	; <UNPREDICTABLE>
    1858:	43003032 	movwmi	r3, #50	; 0x32
    185c:	6f635f4d 	svcvs	0x00635f4d
    1860:	645f666e 	ldrbvs	r6, [pc], #-1646	; 1868 <_start-0x7fffe798>
    1864:	5f6c6c70 	svcpl	0x006c6c70
    1868:	5f727770 	svcpl	0x00727770
    186c:	635f7773 	cmpvs	pc, #30146560	; 0x1cc0000
    1870:	006c7274 	rsbeq	r7, ip, r4, ror r2
    1874:	635f4d43 	cmpvs	pc, #4288	; 0x10c0
    1878:	5f666e6f 	svcpl	0x00666e6f
    187c:	616d6478 	smcvs	54856	; 0xd648
    1880:	6576655f 	ldrbvs	r6, [r6, #-1375]!	; 0x55f
    1884:	695f746e 	ldmdbvs	pc, {r1, r2, r3, r5, r6, sl, ip, sp, lr}^	; <UNPREDICTABLE>
    1888:	3072746e 	rsbscc	r7, r2, lr, ror #8
    188c:	5f4d4300 	svcpl	0x004d4300
    1890:	666e6f63 	strbtvs	r6, [lr], -r3, ror #30
    1894:	6d64785f 	stclvs	8, cr7, [r4, #-380]!	; 0xfffffe84
    1898:	76655f61 	strbtvc	r5, [r5], -r1, ror #30
    189c:	5f746e65 	svcpl	0x00746e65
    18a0:	72746e69 	rsbsvc	r6, r4, #1680	; 0x690
    18a4:	4d430031 	stclmi	0, cr0, [r3, #-196]	; 0xffffff3c
    18a8:	6e6f635f 	mcrvs	3, 3, r6, cr15, cr15, {2}
    18ac:	70745f66 	rsbsvc	r5, r4, r6, ror #30
    18b0:	655f6363 	ldrbvs	r6, [pc, #-867]	; 1555 <_start-0x7fffeaab>
    18b4:	6d5f7476 	cfldrdvs	mvd7, [pc, #-472]	; 16e4 <_start-0x7fffe91c>
    18b8:	345f7875 	ldrbcc	r7, [pc], #-2165	; 18c0 <_start-0x7fffe740>
    18bc:	4300375f 	movwmi	r3, #1887	; 0x75f
    18c0:	6f635f4d 	svcvs	0x00635f4d
    18c4:	745f666e 	ldrbvc	r6, [pc], #-1646	; 18cc <_start-0x7fffe734>
    18c8:	5f636370 	svcpl	0x00636370
    18cc:	5f747665 	svcpl	0x00747665
    18d0:	5f78756d 	svcpl	0x0078756d
    18d4:	355f3834 	ldrbcc	r3, [pc, #-2100]	; 10a8 <_start-0x7fffef58>
    18d8:	4d430031 	stclmi	0, cr0, [r3, #-196]	; 0xffffff3c
    18dc:	6e6f635f 	mcrvs	3, 3, r6, cr15, cr15, {2}
    18e0:	70735f66 	rsbsvc	r5, r3, r6, ror #30
    18e4:	645f3069 	ldrbvs	r3, [pc], #-105	; 18ec <_start-0x7fffe714>
    18e8:	4d430030 	stclmi	0, cr0, [r3, #-192]	; 0xffffff40
    18ec:	6e6f635f 	mcrvs	3, 3, r6, cr15, cr15, {2}
    18f0:	64645f66 	strbtvs	r5, [r4], #-3942	; 0xf66
    18f4:	6d635f72 	stclvs	15, cr5, [r3, #-456]!	; 0xfffffe38
    18f8:	695f3064 	ldmdbvs	pc, {r2, r5, r6, ip, sp}^	; <UNPREDICTABLE>
    18fc:	7274636f 	rsbsvc	r6, r4, #-1140850687	; 0xbc000001
    1900:	4d43006c 	stclmi	0, cr0, [r3, #-432]	; 0xfffffe50
    1904:	6e6f635f 	mcrvs	3, 3, r6, cr15, cr15, {2}
    1908:	636d5f66 	cmnvs	sp, #408	; 0x198
    190c:	30707361 	rsbscc	r7, r0, r1, ror #6
    1910:	7278615f 	rsbsvc	r6, r8, #-1073741801	; 0xc0000017
    1914:	4d430030 	stclmi	0, cr0, [r3, #-192]	; 0xffffff40
    1918:	6e6f635f 	mcrvs	3, 3, r6, cr15, cr15, {2}
    191c:	636d5f66 	cmnvs	sp, #408	; 0x198
    1920:	30707361 	rsbscc	r7, r0, r1, ror #6
    1924:	7278615f 	rsbsvc	r6, r8, #-1073741801	; 0xc0000017
    1928:	4d430031 	stclmi	0, cr0, [r3, #-196]	; 0xffffff3c
    192c:	6e6f635f 	mcrvs	3, 3, r6, cr15, cr15, {2}
    1930:	6c6f7274 	sfmvs	f7, 2, [pc], #-464	; 1768 <_start-0x7fffe898>
    1934:	7379735f 	cmnvc	r9, #2080374785	; 0x7c000001
    1938:	666e6f63 	strbtvs	r6, [lr], -r3, ror #30
    193c:	43006769 	movwmi	r6, #1897	; 0x769
    1940:	6f635f4d 	svcvs	0x00635f4d
    1944:	6c5f666e 	mrrcvs	6, 6, r6, pc, cr14	; <UNPREDICTABLE>
    1948:	645f6463 	ldrbvs	r6, [pc], #-1123	; 1950 <_start-0x7fffe6b0>
    194c:	38617461 	stmdacc	r1!, {r0, r5, r6, sl, ip, sp, lr}^
    1950:	5f4d4300 	svcpl	0x004d4300
    1954:	666e6f63 	strbtvs	r6, [lr], -r3, ror #30
    1958:	69696d5f 	stmdbvs	r9!, {r0, r1, r2, r3, r4, r6, r8, sl, fp, sp, lr}^
    195c:	78745f31 	ldmdavc	r4!, {r0, r4, r5, r8, r9, sl, fp, ip, lr}^
    1960:	006e655f 	rsbeq	r6, lr, pc, asr r5
    1964:	635f4d43 	cmpvs	pc, #4288	; 0x10c0
    1968:	5f666e6f 	svcpl	0x00666e6f
    196c:	006b6374 	rsbeq	r6, fp, r4, ror r3
    1970:	635f4d43 	cmpvs	pc, #4288	; 0x10c0
    1974:	5f666e6f 	svcpl	0x00666e6f
    1978:	74726175 	ldrbtvc	r6, [r2], #-373	; 0x175
    197c:	74635f30 	strbtvc	r5, [r3], #-3888	; 0xf30
    1980:	43006e73 	movwmi	r6, #3699	; 0xe73
    1984:	73755f4d 	cmnvc	r5, #308	; 0x134
    1988:	74635f62 	strbtvc	r5, [r3], #-3938	; 0xf62
    198c:	00306c72 	eorseq	r6, r0, r2, ror ip
    1990:	755f4d43 	ldrbvc	r4, [pc, #-3395]	; c55 <_start-0x7ffff3ab>
    1994:	635f6273 	cmpvs	pc, #805306375	; 0x30000007
    1998:	316c7274 	smccc	50980	; 0xc724
    199c:	5f4d4300 	svcpl	0x004d4300
    19a0:	5f627375 	svcpl	0x00627375
    19a4:	5f646976 	svcpl	0x00646976
    19a8:	00646970 	rsbeq	r6, r4, r0, ror r9
    19ac:	635f4d43 	cmpvs	pc, #4288	; 0x10c0
    19b0:	5f666e6f 	svcpl	0x00666e6f
    19b4:	30633269 	rsbcc	r3, r3, r9, ror #4
    19b8:	6c63735f 	stclvs	3, cr7, [r3], #-380	; 0xfffffe84
    19bc:	5f4d4300 	svcpl	0x004d4300
    19c0:	5f627375 	svcpl	0x00627375
    19c4:	70756b77 	rsbsvc	r6, r5, r7, ror fp
    19c8:	7274635f 	rsbsvc	r6, r4, #2080374785	; 0x7c000001
    19cc:	4d43006c 	stclmi	0, cr0, [r3, #-432]	; 0xfffffe50
    19d0:	6e6f635f 	mcrvs	3, 3, r6, cr15, cr15, {2}
    19d4:	696d5f66 	stmdbvs	sp!, {r1, r2, r5, r6, r8, r9, sl, fp, ip, lr}^
    19d8:	725f3169 	subsvc	r3, pc, #1073741850	; 0x4000001a
    19dc:	00306478 	eorseq	r6, r0, r8, ror r4
    19e0:	635f4d43 	cmpvs	pc, #4288	; 0x10c0
    19e4:	5f666e6f 	svcpl	0x00666e6f
    19e8:	3169696d 	cmncc	r9, sp, ror #18
    19ec:	6478725f 	ldrbtvs	r7, [r8], #-607	; 0x25f
    19f0:	4d430031 	stclmi	0, cr0, [r3, #-196]	; 0xffffff3c
    19f4:	756d6d5f 	strbvc	r6, [sp, #-3423]!	; 0xd5f
    19f8:	6766635f 			; <UNDEFINED> instruction: 0x6766635f
    19fc:	5f4d4300 	svcpl	0x004d4300
    1a00:	666e6f63 	strbtvs	r6, [lr], -r3, ror #30
    1a04:	69696d5f 	stmdbvs	r9!, {r0, r1, r2, r3, r4, r6, r8, sl, fp, sp, lr}^
    1a08:	78725f31 	ldmdavc	r2!, {r0, r4, r5, r8, r9, sl, fp, ip, lr}^
    1a0c:	43003364 	movwmi	r3, #868	; 0x364
    1a10:	6f635f4d 	svcvs	0x00635f4d
    1a14:	745f666e 	ldrbvc	r6, [pc], #-1646	; 1a1c <_start-0x7fffe5e4>
    1a18:	43006964 	movwmi	r6, #2404	; 0x964
    1a1c:	6f635f4d 	svcvs	0x00635f4d
    1a20:	745f666e 	ldrbvc	r6, [pc], #-1646	; 1a28 <_start-0x7fffe5d8>
    1a24:	5f636370 	svcpl	0x00636370
    1a28:	5f747665 	svcpl	0x00747665
    1a2c:	5f78756d 	svcpl	0x0078756d
    1a30:	365f3036 			; <UNDEFINED> instruction: 0x365f3036
    1a34:	4d430033 	stclmi	0, cr0, [r3, #-204]	; 0xffffff34
    1a38:	6c6c705f 	stclvs	0, cr7, [ip], #-380	; 0xfffffe84
    1a3c:	6b6c635f 	blvs	1b1a7c0 <_start-0x7e4e5840>
    1a40:	75706e69 	ldrbvc	r6, [r0, #-3689]!	; 0xe69
    1a44:	5f776f6c 	svcpl	0x00776f6c
    1a48:	6c727463 	cfldrdvs	mvd7, [r2], #-396	; 0xfffffe74
    1a4c:	5f4d4300 	svcpl	0x004d4300
    1a50:	666e6f63 	strbtvs	r6, [lr], -r3, ror #30
    1a54:	7074765f 	rsbsvc	r7, r4, pc, asr r6
    1a58:	7274635f 	rsbsvc	r6, r4, #2080374785	; 0x7c000001
    1a5c:	4d43006c 	stclmi	0, cr0, [r3, #-432]	; 0xfffffe50
    1a60:	6e6f635f 	mcrvs	3, 3, r6, cr15, cr15, {2}
    1a64:	636d5f66 	cmnvs	sp, #408	; 0x198
    1a68:	30707361 	rsbscc	r7, r0, r1, ror #6
    1a6c:	6c63615f 	stfvse	f6, [r3], #-380	; 0xfffffe84
    1a70:	4300726b 	movwmi	r7, #619	; 0x26b
    1a74:	6f635f4d 	svcvs	0x00635f4d
    1a78:	675f666e 	ldrbvs	r6, [pc, -lr, ror #12]
    1a7c:	5f636d70 	svcpl	0x00636d70
    1a80:	32316461 	eorscc	r6, r1, #1627389952	; 0x61000000
    1a84:	5f4d4300 	svcpl	0x004d4300
    1a88:	666e6f63 	strbtvs	r6, [lr], -r3, ror #30
    1a8c:	696d725f 	stmdbvs	sp!, {r0, r1, r2, r3, r4, r6, r9, ip, sp, lr}^
    1a90:	725f3169 	subsvc	r3, pc, #1073741850	; 0x4000001a
    1a94:	635f6665 	cmpvs	pc, #105906176	; 0x6500000
    1a98:	43006b6c 	movwmi	r6, #2924	; 0xb6c
    1a9c:	6f635f4d 	svcvs	0x00635f4d
    1aa0:	6d5f666e 	ldclvs	6, cr6, [pc, #-440]	; 18f0 <_start-0x7fffe710>
    1aa4:	70736163 	rsbsvc	r6, r3, r3, ror #2
    1aa8:	63615f30 	cmnvs	r1, #48, 30	; 0xc0
    1aac:	00786b6c 	rsbseq	r6, r8, ip, ror #22
    1ab0:	635f4d43 	cmpvs	pc, #4288	; 0x10c0
    1ab4:	5f666e6f 	svcpl	0x00666e6f
    1ab8:	636d7067 	cmnvs	sp, #103	; 0x67
    1abc:	3164615f 	cmncc	r4, pc, asr r1
    1ac0:	4d430030 	stclmi	0, cr0, [r3, #-192]	; 0xffffff40
    1ac4:	6e6f635f 	mcrvs	3, 3, r6, cr15, cr15, {2}
    1ac8:	70675f66 	rsbvc	r5, r7, r6, ror #30
    1acc:	615f636d 	cmpvs	pc, sp, ror #6
    1ad0:	00313164 	eorseq	r3, r1, r4, ror #2
    1ad4:	635f4d43 	cmpvs	pc, #4288	; 0x10c0
    1ad8:	72746e6f 	rsbsvc	r6, r4, #1776	; 0x6f0
    1adc:	735f6c6f 	cmpvc	pc, #28416	; 0x6f00
    1ae0:	75746174 	ldrbvc	r6, [r4, #-372]!	; 0x174
    1ae4:	4d430073 	stclmi	0, cr0, [r3, #-460]	; 0xfffffe34
    1ae8:	6e6f635f 	mcrvs	3, 3, r6, cr15, cr15, {2}
    1aec:	70675f66 	rsbvc	r5, r7, r6, ror #30
    1af0:	615f636d 	cmpvs	pc, sp, ror #6
    1af4:	00333164 	eorseq	r3, r3, r4, ror #2
    1af8:	635f4d43 	cmpvs	pc, #4288	; 0x10c0
    1afc:	5f666e6f 	svcpl	0x00666e6f
    1b00:	636d7067 	cmnvs	sp, #103	; 0x67
    1b04:	3164615f 	cmncc	r4, pc, asr r1
    1b08:	4d430034 	stclmi	0, cr0, [r3, #-208]	; 0xffffff30
    1b0c:	6e6f635f 	mcrvs	3, 3, r6, cr15, cr15, {2}
    1b10:	70675f66 	rsbvc	r5, r7, r6, ror #30
    1b14:	615f636d 	cmpvs	pc, sp, ror #6
    1b18:	00353164 	eorseq	r3, r5, r4, ror #2
    1b1c:	635f4d43 	cmpvs	pc, #4288	; 0x10c0
    1b20:	5f65726f 	svcpl	0x0065726f
    1b24:	6f646c73 	svcvs	0x00646c73
    1b28:	7274635f 	rsbsvc	r6, r4, #2080374785	; 0x7c000001
    1b2c:	4d43006c 	stclmi	0, cr0, [r3, #-432]	; 0xfffffe50
    1b30:	6e6f635f 	mcrvs	3, 3, r6, cr15, cr15, {2}
    1b34:	61755f66 	cmnvs	r5, r6, ror #30
    1b38:	5f317472 	svcpl	0x00317472
    1b3c:	6e737463 	cdpvs	4, 7, cr7, cr3, cr3, {3}
    1b40:	5f4d4300 	svcpl	0x004d4300
    1b44:	5f63616d 	svcpl	0x0063616d
    1b48:	5f306469 	svcpl	0x00306469
    1b4c:	43006968 	movwmi	r6, #2408	; 0x968
    1b50:	6f635f4d 	svcvs	0x00635f4d
    1b54:	6f72746e 	svcvs	0x0072746e
    1b58:	6d655f6c 	stclvs	15, cr5, [r5, #-432]!	; 0xfffffe50
    1b5c:	735f6669 	cmpvc	pc, #110100480	; 0x6900000
    1b60:	6d617264 	sfmvs	f7, 2, [r1, #-400]!	; 0xfffffe70
    1b64:	6e6f635f 	mcrvs	3, 3, r6, cr15, cr15, {2}
    1b68:	00676966 	rsbeq	r6, r7, r6, ror #18
    1b6c:	635f4d43 	cmpvs	pc, #4288	; 0x10c0
    1b70:	5f666e6f 	svcpl	0x00666e6f
    1b74:	5f64636c 	svcpl	0x0064636c
    1b78:	6e797376 	mrcvs	3, 3, r7, cr9, cr6, {3}
    1b7c:	4d430063 	stclmi	0, cr0, [r3, #-396]	; 0xfffffe74
    1b80:	6e6f635f 	mcrvs	3, 3, r6, cr15, cr15, {2}
    1b84:	70735f66 	rsbsvc	r5, r3, r6, ror #30
    1b88:	645f3069 	ldrbvs	r3, [pc], #-105	; 1b90 <_start-0x7fffe470>
    1b8c:	4d430031 	stclmi	0, cr0, [r3, #-196]	; 0xffffff3c
    1b90:	6e6f635f 	mcrvs	3, 3, r6, cr15, cr15, {2}
    1b94:	64745f66 	ldrbtvs	r5, [r4], #-3942	; 0xf66
    1b98:	4d43006f 	stclmi	0, cr0, [r3, #-444]	; 0xfffffe44
    1b9c:	6e6f635f 	mcrvs	3, 3, r6, cr15, cr15, {2}
    1ba0:	32695f66 	rsbcc	r5, r9, #408	; 0x198
    1ba4:	735f3063 	cmpvc	pc, #99	; 0x63
    1ba8:	43006164 	movwmi	r6, #356	; 0x164
    1bac:	6f635f4d 	svcvs	0x00635f4d
    1bb0:	745f666e 	ldrbvc	r6, [pc], #-1646	; 1bb8 <_start-0x7fffe448>
    1bb4:	5f636370 	svcpl	0x00636370
    1bb8:	5f747665 	svcpl	0x00747665
    1bbc:	5f78756d 	svcpl	0x0078756d
    1bc0:	345f3434 	ldrbcc	r3, [pc], #-1076	; 1bc8 <_start-0x7fffe438>
    1bc4:	6d5f0037 	ldclvs	0, cr0, [pc, #-220]	; 1af0 <_start-0x7fffe510>
    1bc8:	006e6961 	rsbeq	r6, lr, r1, ror #18
    1bcc:	6e69616d 	powvsez	f6, f1, #5.0
    1bd0:	5000632e 	andpl	r6, r0, lr, lsr #6
    1bd4:	54495241 	strbpl	r5, [r9], #-577	; 0x241
    1bd8:	56455f59 			; <UNDEFINED> instruction: 0x56455f59
    1bdc:	46004e45 	strmi	r4, [r0], -r5, asr #28
    1be0:	5f574f4c 	svcpl	0x00574f4c
    1be4:	0046464f 	subeq	r4, r6, pc, asr #12
    1be8:	504f5453 	subpl	r5, pc, r3, asr r4	; <UNPREDICTABLE>
    1bec:	54530031 	ldrbpl	r0, [r3], #-49	; 0x31
    1bf0:	0032504f 	eorseq	r5, r2, pc, asr #32
    1bf4:	574f4c46 	strbpl	r4, [pc, -r6, asr #24]
    1bf8:	004e4f5f 	subeq	r4, lr, pc, asr pc
    1bfc:	49524150 	ldmdbmi	r2, {r4, r6, r8, lr}^
    1c00:	4f5f5954 	svcmi	0x005f5954
    1c04:	53004444 	movwpl	r4, #1092	; 0x444
    1c08:	31504f54 	cmpcc	r0, r4, asr pc
    1c0c:	5000355f 	andpl	r3, r0, pc, asr r5
    1c10:	54495241 	strbpl	r5, [r9], #-577	; 0x241
    1c14:	4f4e5f59 	svcmi	0x004e5f59
    1c18:	4900454e 	stmdbmi	r0, {r1, r2, r3, r6, r8, sl, lr}
    1c1c:	00325253 	eorseq	r5, r2, r3, asr r2
    1c20:	64756162 	ldrbtvs	r6, [r5], #-354	; 0x162
    1c24:	65746172 	ldrbvs	r6, [r4, #-370]!	; 0x172
    1c28:	46585400 	ldrbmi	r5, [r8], -r0, lsl #8
    1c2c:	5f4f4649 	svcpl	0x004f4649
    1c30:	004c564c 	subeq	r5, ip, ip, asr #12
    1c34:	45524341 	ldrbmi	r4, [r2, #-833]	; 0x341
    1c38:	46530047 	ldrbmi	r0, [r3], -r7, asr #32
    1c3c:	0052534c 	subseq	r5, r2, ip, asr #6
    1c40:	4f495047 	svcmi	0x00495047
    1c44:	696e695f 	stmdbvs	lr!, {r0, r1, r2, r3, r4, r6, r8, fp, sp, lr}^
    1c48:	61750074 	cmnvs	r5, r4, ror r0
    1c4c:	635f7472 	cmpvs	pc, #1912602624	; 0x72000000
    1c50:	6f736e6f 	svcvs	0x00736e6f
    1c54:	632e656c 			; <UNDEFINED> instruction: 0x632e656c
    1c58:	52415500 	subpl	r5, r1, #0, 10
    1c5c:	75705f54 	ldrbvc	r5, [r0, #-3924]!	; 0xf54
    1c60:	73004374 	movwvc	r4, #884	; 0x374
    1c64:	69747465 	ldmdbvs	r4!, {r0, r2, r5, r6, sl, ip, sp, lr}^
    1c68:	6600676e 	strvs	r6, [r0], -lr, ror #14
    1c6c:	74616f6c 	strbtvc	r6, [r1], #-3948	; 0xf6c
    1c70:	6e6f6c00 	cdpvs	12, 6, cr6, cr15, cr0, {0}
    1c74:	6f6c2067 	svcvs	0x006c2067
    1c78:	7520676e 	strvc	r6, [r0, #-1902]!	; 0x76e
    1c7c:	6769736e 	strbvs	r7, [r9, -lr, ror #6]!
    1c80:	2064656e 	rsbcs	r6, r4, lr, ror #10
    1c84:	00746e69 	rsbseq	r6, r4, r9, ror #28
    1c88:	74726155 	ldrbtvc	r6, [r2], #-341	; 0x155
    1c8c:	65525f30 	ldrbvs	r5, [r2, #-3888]	; 0xf30
    1c90:	00746573 	rsbseq	r6, r4, r3, ror r5
    1c94:	54524155 	ldrbpl	r4, [r2], #-341	; 0x155
    1c98:	7465675f 	strbtvc	r6, [r5], #-1887	; 0x75f
    1c9c:	69727453 	ldmdbvs	r2!, {r0, r1, r4, r6, sl, ip, sp, lr}^
    1ca0:	5300676e 	movwpl	r6, #1902	; 0x76e
    1ca4:	00435359 	subeq	r5, r3, r9, asr r3
    1ca8:	4c465854 	mcrrmi	8, 5, r5, r6, cr4
    1cac:	58540048 	ldmdapl	r4, {r3, r6}^
    1cb0:	004c4c46 	subeq	r4, ip, r6, asr #24
    1cb4:	53535953 	cmppl	r3, #1359872	; 0x14c000
    1cb8:	746e6900 	strbtvc	r6, [lr], #-2304	; 0x900
    1cbc:	00766964 	rsbseq	r6, r6, r4, ror #18
    1cc0:	53504643 	cmppl	r0, #70254592	; 0x4300000
    1cc4:	52444d00 	subpl	r4, r4, #0, 26
    1cc8:	444d0031 	strbmi	r0, [sp], #-49	; 0x31
    1ccc:	4d003252 	sfmmi	f3, 4, [r0, #-328]	; 0xfffffeb8
    1cd0:	00335244 	eorseq	r5, r3, r4, asr #4
    1cd4:	746e6975 	strbtvc	r6, [lr], #-2421	; 0x975
    1cd8:	00745f38 	rsbseq	r5, r4, r8, lsr pc
    1cdc:	32524549 	subscc	r4, r2, #306184192	; 0x12400000
    1ce0:	6e6f6c00 	cdpvs	12, 6, cr6, cr15, cr0, {0}
    1ce4:	6f6c2067 	svcvs	0x006c2067
    1ce8:	6920676e 	stmdbvs	r0!, {r1, r2, r3, r5, r6, r8, r9, sl, sp, lr}
    1cec:	5400746e 	strpl	r7, [r0], #-1134	; 0x46e
    1cf0:	414d4458 	cmpmi	sp, r8, asr r4
    1cf4:	45524600 	ldrbmi	r4, [r2, #-1536]	; 0x600
    1cf8:	45535f51 	ldrbmi	r5, [r3, #-3921]	; 0xf51
    1cfc:	4245004c 	submi	r0, r5, #76	; 0x4c
    1d00:	5200524c 	andpl	r5, r0, #76, 4	; 0xc0000004
    1d04:	46494658 			; <UNDEFINED> instruction: 0x46494658
    1d08:	564c5f4f 	strbpl	r5, [ip], -pc, asr #30
    1d0c:	4155004c 	cmpmi	r5, ip, asr #32
    1d10:	705f5452 	subsvc	r5, pc, r2, asr r4	; <UNPREDICTABLE>
    1d14:	74537475 	ldrbvc	r7, [r3], #-1141	; 0x475
    1d18:	676e6972 			; <UNDEFINED> instruction: 0x676e6972
    1d1c:	52415500 	subpl	r5, r1, #0, 10
    1d20:	65675f54 	strbvs	r5, [r7, #-3924]!	; 0xf54
    1d24:	70004374 	andvc	r4, r0, r4, ror r3
    1d28:	74697261 	strbtvc	r7, [r9], #-609	; 0x261
    1d2c:	54530079 	ldrbpl	r0, [r3], #-121	; 0x79
    1d30:	425f504f 	subsmi	r5, pc, #79	; 0x4f
    1d34:	745f5449 	ldrbvc	r5, [pc], #-1097	; 1d3c <_start-0x7fffe2c4>
    1d38:	6e656c00 	cdpvs	12, 6, cr6, cr5, cr0, {0}
    1d3c:	00687467 	rsbeq	r7, r8, r7, ror #8
    1d40:	54524155 	ldrbpl	r4, [r2], #-341	; 0x155
    1d44:	696e695f 	stmdbvs	lr!, {r0, r1, r2, r3, r4, r6, r8, fp, sp, lr}^
    1d48:	46530074 			; <UNDEFINED> instruction: 0x46530074
    1d4c:	48474552 	stmdami	r7, {r1, r4, r6, r8, sl, lr}^
    1d50:	52465300 	subpl	r5, r6, #0, 6
    1d54:	004c4745 	subeq	r4, ip, r5, asr #14
    1d58:	657a6973 	ldrbvs	r6, [sl, #-2419]!	; 0x973
    1d5c:	65707974 	ldrbvs	r7, [r0, #-2420]!	; 0x974
    1d60:	53455200 	movtpl	r5, #20992	; 0x5200
    1d64:	00454d55 	subeq	r4, r5, r5, asr sp
    1d68:	776f6c66 	strbvc	r6, [pc, -r6, ror #24]!
    1d6c:	746e6f43 	strbtvc	r6, [lr], #-3907	; 0xf43
    1d70:	006c6f72 	rsbeq	r6, ip, r2, ror pc
    1d74:	574f4c46 	strbpl	r4, [pc, -r6, asr #24]
    1d78:	7300745f 	movwvc	r7, #1119	; 0x45f
    1d7c:	42706f74 	rsbsmi	r6, r0, #116, 30	; 0x1d0
    1d80:	50007469 	andpl	r7, r0, r9, ror #8
    1d84:	54495241 	strbpl	r5, [r9], #-577	; 0x241
    1d88:	49425f59 	stmdbmi	r2, {r0, r3, r4, r6, r8, r9, sl, fp, ip, lr}^
    1d8c:	00745f54 	rsbseq	r5, r4, r4, asr pc
    1d90:	4c465852 	mcrrmi	8, 5, r5, r6, cr2
    1d94:	58520048 	ldmdapl	r2, {r3, r6}^
    1d98:	004c4c46 	subeq	r4, ip, r6, asr #24
    1d9c:	63727473 	cmnvs	r2, #1929379840	; 0x73000000
    1da0:	73007970 	movwvc	r7, #2416	; 0x970
    1da4:	68637274 	stmdavs	r3!, {r2, r4, r5, r6, r9, ip, sp, lr}^
    1da8:	656d0072 	strbvs	r0, [sp, #-114]!	; 0x72
    1dac:	706d636d 	rsbvc	r6, sp, sp, ror #6
    1db0:	732f2e00 			; <UNDEFINED> instruction: 0x732f2e00
    1db4:	732f6372 			; <UNDEFINED> instruction: 0x732f6372
    1db8:	6e697274 	mcrvs	2, 3, r7, cr9, cr4, {3}
    1dbc:	00632e67 	rsbeq	r2, r3, r7, ror #28
    1dc0:	6e727473 	mrcvs	4, 3, r7, cr2, cr3, {3}
    1dc4:	00797063 	rsbseq	r7, r9, r3, rrx
    1dc8:	63727473 	cmnvs	r2, #1929379840	; 0x73000000
    1dcc:	73007461 	movwvc	r7, #1121	; 0x461
    1dd0:	6d637274 	sfmvs	f7, 2, [r3, #-464]!	; 0xfffffe30
    1dd4:	74730070 	ldrbtvc	r0, [r3], #-112	; 0x70
    1dd8:	6e656c72 	mcrvs	12, 3, r6, cr5, cr2, {3}
    1ddc:	6f682f00 	svcvs	0x00682f00
    1de0:	732f656d 			; <UNDEFINED> instruction: 0x732f656d
    1de4:	68736168 	ldmdavs	r3!, {r3, r5, r6, r8, sp, lr}^
    1de8:	61642f69 	cmnvs	r4, r9, ror #30
    1dec:	2f616262 	svccs	0x00616262
    1df0:	5f424242 	svcpl	0x00424242
    1df4:	6b726f57 	blvs	1c9db58 <_start-0x7e3624a8>
    1df8:	2f676e69 	svccs	0x00676e69
    1dfc:	67616542 	strbvs	r6, [r1, -r2, asr #10]!
    1e00:	6f42656c 	svcvs	0x0042656c
    1e04:	6c42656e 	cfstr64vs	mvdx6, [r2], {110}	; 0x6e
    1e08:	2f6b6361 	svccs	0x006b6361
    1e0c:	696e696d 	stmdbvs	lr!, {r0, r2, r3, r5, r6, r8, fp, sp, lr}^
    1e10:	5f6c756d 	svcpl	0x006c756d
    1e14:	696c5f63 	stmdbvs	ip!, {r0, r1, r5, r6, r8, r9, sl, fp, ip, lr}^
    1e18:	74732f62 	ldrbtvc	r2, [r3], #-3938	; 0xf62
    1e1c:	676e6972 			; <UNDEFINED> instruction: 0x676e6972
    1e20:	72747300 	rsbsvc	r7, r4, #0, 6
    1e24:	72686372 	rsbvc	r6, r8, #-939524095	; 0xc8000001
    1e28:	72747300 	rsbsvc	r7, r4, #0, 6
    1e2c:	7461636e 	strbtvc	r6, [r1], #-878	; 0x36e
    1e30:	72747300 	rsbsvc	r7, r4, #0, 6
    1e34:	706d636e 	rsbvc	r6, sp, lr, ror #6
	...

Disassembly of section .debug_frame:

00000000 <.debug_frame>:
   0:	0000000c 	andeq	r0, r0, ip
   4:	ffffffff 			; <UNDEFINED> instruction: 0xffffffff
   8:	7c020001 	stcvc	0, cr0, [r2], {1}
   c:	000d0c0e 	andeq	r0, sp, lr, lsl #24
  10:	0000001c 	andeq	r0, r0, ip, lsl r0
  14:	00000000 	andeq	r0, r0, r0
  18:	8000003c 	andhi	r0, r0, ip, lsr r0
  1c:	00000068 	andeq	r0, r0, r8, rrx
  20:	8b040e42 	blhi	103930 <_start-0x7fefc6d0>
  24:	0b0d4201 	bleq	350830 <_start-0x7fcaf7d0>
  28:	420d0d6c 	andmi	r0, sp, #108, 26	; 0x1b00
  2c:	00000ecb 	andeq	r0, r0, fp, asr #29
  30:	0000000c 	andeq	r0, r0, ip
  34:	ffffffff 			; <UNDEFINED> instruction: 0xffffffff
  38:	7c020001 	stcvc	0, cr0, [r2], {1}
  3c:	000d0c0e 	andeq	r0, sp, lr, lsl #24
  40:	0000001c 	andeq	r0, r0, ip, lsl r0
  44:	00000030 	andeq	r0, r0, r0, lsr r0
  48:	800000a4 	andhi	r0, r0, r4, lsr #1
  4c:	00000040 	andeq	r0, r0, r0, asr #32
  50:	8b040e42 	blhi	103960 <_start-0x7fefc6a0>
  54:	0b0d4201 	bleq	350860 <_start-0x7fcaf7a0>
  58:	420d0d58 	andmi	r0, sp, #88, 26	; 0x1600
  5c:	00000ecb 	andeq	r0, r0, fp, asr #29
  60:	0000001c 	andeq	r0, r0, ip, lsl r0
  64:	00000030 	andeq	r0, r0, r0, lsr r0
  68:	800000e4 	andhi	r0, r0, r4, ror #1
  6c:	00000038 	andeq	r0, r0, r8, lsr r0
  70:	8b040e42 	blhi	103980 <_start-0x7fefc680>
  74:	0b0d4201 	bleq	350880 <_start-0x7fcaf780>
  78:	420d0d54 	andmi	r0, sp, #84, 26	; 0x1500
  7c:	00000ecb 	andeq	r0, r0, fp, asr #29
  80:	0000001c 	andeq	r0, r0, ip, lsl r0
  84:	00000030 	andeq	r0, r0, r0, lsr r0
  88:	8000011c 	andhi	r0, r0, ip, lsl r1
  8c:	00000074 	andeq	r0, r0, r4, ror r0
  90:	8b040e42 	blhi	1039a0 <_start-0x7fefc660>
  94:	0b0d4201 	bleq	3508a0 <_start-0x7fcaf760>
  98:	420d0d72 	andmi	r0, sp, #7296	; 0x1c80
  9c:	00000ecb 	andeq	r0, r0, fp, asr #29
  a0:	0000000c 	andeq	r0, r0, ip
  a4:	ffffffff 			; <UNDEFINED> instruction: 0xffffffff
  a8:	7c020001 	stcvc	0, cr0, [r2], {1}
  ac:	000d0c0e 	andeq	r0, sp, lr, lsl #24
  b0:	0000001c 	andeq	r0, r0, ip, lsl r0
  b4:	000000a0 	andeq	r0, r0, r0, lsr #1
  b8:	80000190 	mulhi	r0, r0, r1
  bc:	0000003c 	andeq	r0, r0, ip, lsr r0
  c0:	8b040e42 	blhi	1039d0 <_start-0x7fefc630>
  c4:	0b0d4201 	bleq	3508d0 <_start-0x7fcaf730>
  c8:	420d0d56 	andmi	r0, sp, #5504	; 0x1580
  cc:	00000ecb 	andeq	r0, r0, fp, asr #29
  d0:	0000001c 	andeq	r0, r0, ip, lsl r0
  d4:	000000a0 	andeq	r0, r0, r0, lsr #1
  d8:	800001cc 	andhi	r0, r0, ip, asr #3
  dc:	00000034 	andeq	r0, r0, r4, lsr r0
  e0:	8b040e42 	blhi	1039f0 <_start-0x7fefc610>
  e4:	0b0d4201 	bleq	3508f0 <_start-0x7fcaf710>
  e8:	420d0d52 	andmi	r0, sp, #5248	; 0x1480
  ec:	00000ecb 	andeq	r0, r0, fp, asr #29
  f0:	0000001c 	andeq	r0, r0, ip, lsl r0
  f4:	000000a0 	andeq	r0, r0, r0, lsr #1
  f8:	80000200 	andhi	r0, r0, r0, lsl #4
  fc:	00000058 	andeq	r0, r0, r8, asr r0
 100:	8b080e42 	blhi	203a10 <_start-0x7fdfc5f0>
 104:	42018e02 	andmi	r8, r1, #2, 28
 108:	66040b0c 	strvs	r0, [r4], -ip, lsl #22
 10c:	00080d0c 	andeq	r0, r8, ip, lsl #26
 110:	00000018 	andeq	r0, r0, r8, lsl r0
 114:	000000a0 	andeq	r0, r0, r0, lsr #1
 118:	80000258 	andhi	r0, r0, r8, asr r2
 11c:	00000024 	andeq	r0, r0, r4, lsr #32
 120:	8b080e42 	blhi	203a30 <_start-0x7fdfc5d0>
 124:	42018e02 	andmi	r8, r1, #2, 28
 128:	00040b0c 	andeq	r0, r4, ip, lsl #22
 12c:	0000000c 	andeq	r0, r0, ip
 130:	ffffffff 			; <UNDEFINED> instruction: 0xffffffff
 134:	7c020001 	stcvc	0, cr0, [r2], {1}
 138:	000d0c0e 	andeq	r0, sp, lr, lsl #24
 13c:	00000018 	andeq	r0, r0, r8, lsl r0
 140:	0000012c 	andeq	r0, r0, ip, lsr #2
 144:	8000027c 	andhi	r0, r0, ip, ror r2
 148:	00000060 	andeq	r0, r0, r0, rrx
 14c:	8b080e42 	blhi	203a5c <_start-0x7fdfc5a4>
 150:	42018e02 	andmi	r8, r1, #2, 28
 154:	00040b0c 	andeq	r0, r4, ip, lsl #22
 158:	0000000c 	andeq	r0, r0, ip
 15c:	ffffffff 			; <UNDEFINED> instruction: 0xffffffff
 160:	7c020001 	stcvc	0, cr0, [r2], {1}
 164:	000d0c0e 	andeq	r0, sp, lr, lsl #24
 168:	0000001c 	andeq	r0, r0, ip, lsl r0
 16c:	00000158 	andeq	r0, r0, r8, asr r1
 170:	800002e0 	andhi	r0, r0, r0, ror #5
 174:	00000058 	andeq	r0, r0, r8, asr r0
 178:	8b080e42 	blhi	203a88 <_start-0x7fdfc578>
 17c:	42018e02 	andmi	r8, r1, #2, 28
 180:	66040b0c 	strvs	r0, [r4], -ip, lsl #22
 184:	00080d0c 	andeq	r0, r8, ip, lsl #26
 188:	0000001c 	andeq	r0, r0, ip, lsl r0
 18c:	00000158 	andeq	r0, r0, r8, asr r1
 190:	80000338 	andhi	r0, r0, r8, lsr r3
 194:	000001f8 	strdeq	r0, [r0], -r8
 198:	8b040e42 	blhi	103aa8 <_start-0x7fefc558>
 19c:	0b0d4201 	bleq	3509a8 <_start-0x7fcaf658>
 1a0:	0d0df002 	stceq	0, cr15, [sp, #-8]
 1a4:	000ecb42 	andeq	ip, lr, r2, asr #22
 1a8:	0000001c 	andeq	r0, r0, ip, lsl r0
 1ac:	00000158 	andeq	r0, r0, r8, asr r1
 1b0:	80000530 	andhi	r0, r0, r0, lsr r5
 1b4:	0000004c 	andeq	r0, r0, ip, asr #32
 1b8:	8b080e42 	blhi	203ac8 <_start-0x7fdfc538>
 1bc:	42018e02 	andmi	r8, r1, #2, 28
 1c0:	60040b0c 	andvs	r0, r4, ip, lsl #22
 1c4:	00080d0c 	andeq	r0, r8, ip, lsl #26
 1c8:	0000001c 	andeq	r0, r0, ip, lsl r0
 1cc:	00000158 	andeq	r0, r0, r8, asr r1
 1d0:	8000057c 	andhi	r0, r0, ip, ror r5
 1d4:	00000060 	andeq	r0, r0, r0, rrx
 1d8:	8b080e42 	blhi	203ae8 <_start-0x7fdfc518>
 1dc:	42018e02 	andmi	r8, r1, #2, 28
 1e0:	6a040b0c 	bvs	102e18 <_start-0x7fefd1e8>
 1e4:	00080d0c 	andeq	r0, r8, ip, lsl #26
 1e8:	0000001c 	andeq	r0, r0, ip, lsl r0
 1ec:	00000158 	andeq	r0, r0, r8, asr r1
 1f0:	800005dc 	ldrdhi	r0, [r0], -ip
 1f4:	00000048 	andeq	r0, r0, r8, asr #32
 1f8:	8b040e42 	blhi	103b08 <_start-0x7fefc4f8>
 1fc:	0b0d4201 	bleq	350a08 <_start-0x7fcaf5f8>
 200:	420d0d5c 	andmi	r0, sp, #92, 26	; 0x1700
 204:	00000ecb 	andeq	r0, r0, fp, asr #29
 208:	0000001c 	andeq	r0, r0, ip, lsl r0
 20c:	00000158 	andeq	r0, r0, r8, asr r1
 210:	80000624 	andhi	r0, r0, r4, lsr #12
 214:	00000070 	andeq	r0, r0, r0, ror r0
 218:	8b080e42 	blhi	203b28 <_start-0x7fdfc4d8>
 21c:	42018e02 	andmi	r8, r1, #2, 28
 220:	72040b0c 	andvc	r0, r4, #12, 22	; 0x3000
 224:	00080d0c 	andeq	r0, r8, ip, lsl #26
 228:	00000020 	andeq	r0, r0, r0, lsr #32
 22c:	00000158 	andeq	r0, r0, r8, asr r1
 230:	80000694 	mulhi	r0, r4, r6
 234:	00000070 	andeq	r0, r0, r0, ror r0
 238:	840c0e42 	strhi	r0, [ip], #-3650	; 0xe42
 23c:	8e028b03 	vmlahi.f64	d8, d2, d3
 240:	0b0c4201 	bleq	310a4c <_start-0x7fcef5b4>
 244:	0d0c7204 	sfmeq	f7, 4, [ip, #-16]
 248:	0000000c 	andeq	r0, r0, ip
 24c:	0000000c 	andeq	r0, r0, ip
 250:	ffffffff 			; <UNDEFINED> instruction: 0xffffffff
 254:	7c020001 	stcvc	0, cr0, [r2], {1}
 258:	000d0c0e 	andeq	r0, sp, lr, lsl #24
 25c:	0000001c 	andeq	r0, r0, ip, lsl r0
 260:	0000024c 	andeq	r0, r0, ip, asr #4
 264:	80000704 	andhi	r0, r0, r4, lsl #14
 268:	000000a4 	andeq	r0, r0, r4, lsr #1
 26c:	8b040e42 	blhi	103b7c <_start-0x7fefc484>
 270:	0b0d4201 	bleq	350a7c <_start-0x7fcaf584>
 274:	0d0d4a02 	vstreq	s8, [sp, #-8]
 278:	000ecb42 	andeq	ip, lr, r2, asr #22
 27c:	0000001c 	andeq	r0, r0, ip, lsl r0
 280:	0000024c 	andeq	r0, r0, ip, asr #4
 284:	800007a8 	andhi	r0, r0, r8, lsr #15
 288:	00000054 	andeq	r0, r0, r4, asr r0
 28c:	8b040e42 	blhi	103b9c <_start-0x7fefc464>
 290:	0b0d4201 	bleq	350a9c <_start-0x7fcaf564>
 294:	420d0d62 	andmi	r0, sp, #6272	; 0x1880
 298:	00000ecb 	andeq	r0, r0, fp, asr #29
 29c:	0000001c 	andeq	r0, r0, ip, lsl r0
 2a0:	0000024c 	andeq	r0, r0, ip, asr #4
 2a4:	800007fc 	strdhi	r0, [r0], -ip
 2a8:	00000060 	andeq	r0, r0, r0, rrx
 2ac:	8b040e42 	blhi	103bbc <_start-0x7fefc444>
 2b0:	0b0d4201 	bleq	350abc <_start-0x7fcaf544>
 2b4:	420d0d68 	andmi	r0, sp, #104, 26	; 0x1a00
 2b8:	00000ecb 	andeq	r0, r0, fp, asr #29
 2bc:	0000001c 	andeq	r0, r0, ip, lsl r0
 2c0:	0000024c 	andeq	r0, r0, ip, asr #4
 2c4:	8000085c 	andhi	r0, r0, ip, asr r8
 2c8:	000000a8 	andeq	r0, r0, r8, lsr #1
 2cc:	8b040e42 	blhi	103bdc <_start-0x7fefc424>
 2d0:	0b0d4201 	bleq	350adc <_start-0x7fcaf524>
 2d4:	0d0d4c02 	stceq	12, cr4, [sp, #-8]
 2d8:	000ecb42 	andeq	ip, lr, r2, asr #22
 2dc:	0000001c 	andeq	r0, r0, ip, lsl r0
 2e0:	0000024c 	andeq	r0, r0, ip, asr #4
 2e4:	80000904 	andhi	r0, r0, r4, lsl #18
 2e8:	0000006c 	andeq	r0, r0, ip, rrx
 2ec:	8b080e42 	blhi	203bfc <_start-0x7fdfc404>
 2f0:	42018e02 	andmi	r8, r1, #2, 28
 2f4:	70040b0c 	andvc	r0, r4, ip, lsl #22
 2f8:	00080d0c 	andeq	r0, r8, ip, lsl #26
 2fc:	0000001c 	andeq	r0, r0, ip, lsl r0
 300:	0000024c 	andeq	r0, r0, ip, asr #4
 304:	80000970 	andhi	r0, r0, r0, ror r9
 308:	000000c0 	andeq	r0, r0, r0, asr #1
 30c:	8b080e42 	blhi	203c1c <_start-0x7fdfc3e4>
 310:	42018e02 	andmi	r8, r1, #2, 28
 314:	02040b0c 	andeq	r0, r4, #12, 22	; 0x3000
 318:	080d0c5a 	stmdaeq	sp, {r1, r3, r4, r6, sl, fp}
 31c:	0000001c 	andeq	r0, r0, ip, lsl r0
 320:	0000024c 	andeq	r0, r0, ip, asr #4
 324:	80000a30 	andhi	r0, r0, r0, lsr sl
 328:	00000094 	muleq	r0, r4, r0
 32c:	8b040e42 	blhi	103c3c <_start-0x7fefc3c4>
 330:	0b0d4201 	bleq	350b3c <_start-0x7fcaf4c4>
 334:	0d0d4202 	sfmeq	f4, 4, [sp, #-8]
 338:	000ecb42 	andeq	ip, lr, r2, asr #22
 33c:	0000001c 	andeq	r0, r0, ip, lsl r0
 340:	0000024c 	andeq	r0, r0, ip, asr #4
 344:	80000ac4 	andhi	r0, r0, r4, asr #21
 348:	000000b0 	strheq	r0, [r0], -r0	; <UNPREDICTABLE>
 34c:	8b040e42 	blhi	103c5c <_start-0x7fefc3a4>
 350:	0b0d4201 	bleq	350b5c <_start-0x7fcaf4a4>
 354:	0d0d5002 	stceq	0, cr5, [sp, #-8]
 358:	000ecb42 	andeq	ip, lr, r2, asr #22
 35c:	0000001c 	andeq	r0, r0, ip, lsl r0
 360:	0000024c 	andeq	r0, r0, ip, asr #4
 364:	80000b74 	andhi	r0, r0, r4, ror fp
 368:	0000007c 	andeq	r0, r0, ip, ror r0
 36c:	8b040e42 	blhi	103c7c <_start-0x7fefc384>
 370:	0b0d4201 	bleq	350b7c <_start-0x7fcaf484>
 374:	420d0d76 	andmi	r0, sp, #7552	; 0x1d80
 378:	00000ecb 	andeq	r0, r0, fp, asr #29
 37c:	0000001c 	andeq	r0, r0, ip, lsl r0
 380:	0000024c 	andeq	r0, r0, ip, asr #4
 384:	80000bf0 	strdhi	r0, [r0], -r0	; <UNPREDICTABLE>
 388:	00000074 	andeq	r0, r0, r4, ror r0
 38c:	8b040e42 	blhi	103c9c <_start-0x7fefc364>
 390:	0b0d4201 	bleq	350b9c <_start-0x7fcaf464>
 394:	420d0d72 	andmi	r0, sp, #7296	; 0x1c80
 398:	00000ecb 	andeq	r0, r0, fp, asr #29
