
obj/main.elf:     file format elf32-littlearm


Disassembly of section .text:

80000000 <_start>:
80000000:	e10f0000 	mrs	r0, CPSR
80000004:	e3c0001f 	bic	r0, r0, #31
80000008:	e3800013 	orr	r0, r0, #19
8000000c:	e38000c0 	orr	r0, r0, #192	; 0xc0
80000010:	e129f000 	msr	CPSR_fc, r0
80000014:	ee110f50 	mrc	15, 0, r0, cr1, cr0, {2}
80000018:	e380060f 	orr	r0, r0, #15728640	; 0xf00000
8000001c:	ee010f50 	mcr	15, 0, r0, cr1, cr0, {2}
80000020:	f57ff06f 	isb	sy
80000024:	e3a00101 	mov	r0, #1073741824	; 0x40000000
80000028:	eee80a10 	vmsr	fpexc, r0
8000002c:	e59fd004 	ldr	sp, [pc, #4]	; 80000038 <.loop+0x4>
80000030:	eb0000f3 	bl	80000404 <_main>

80000034 <.loop>:
80000034:	eafffffe 	b	80000034 <.loop>
80000038:	4030cdfc 	ldrshtmi	ip, [r0], -ip

8000003c <LED_init>:
#include "gpio.h"
#include "clock.h"
void LED_init(void)
{
8000003c:	e52db004 	push	{fp}		; (str fp, [sp, #-4]!)
80000040:	e28db000 	add	fp, sp, #0
80000044:	e24dd00c 	sub	sp, sp, #12


	volatile unsigned int ra;

	PUT32(CM_PER_BASE+CM_PER_GPIO1, 1<<18 | 2);
80000048:	e3a030ac 	mov	r3, #172	; 0xac
8000004c:	e34434e0 	movt	r3, #17632	; 0x44e0
80000050:	e3a02002 	mov	r2, #2
80000054:	e3402004 	movt	r2, #4
80000058:	e5832000 	str	r2, [r3]
	ra = GET32(GPIO1_BASE+GPIO_OE);
8000005c:	e30c3134 	movw	r3, #49460	; 0xc134
80000060:	e3443804 	movt	r3, #18436	; 0x4804
80000064:	e5933000 	ldr	r3, [r3]
80000068:	e50b3008 	str	r3, [fp, #-8]
	ra &= ~(1<<21);
8000006c:	e51b3008 	ldr	r3, [fp, #-8]
80000070:	e3c33602 	bic	r3, r3, #2097152	; 0x200000
80000074:	e50b3008 	str	r3, [fp, #-8]
	PUT32(GPIO1_BASE+GPIO_OE, ra);
80000078:	e30c3134 	movw	r3, #49460	; 0xc134
8000007c:	e3443804 	movt	r3, #18436	; 0x4804
80000080:	e51b2008 	ldr	r2, [fp, #-8]
80000084:	e5832000 	str	r2, [r3]

	PUT32(GPIO1_BASE+GPIO_SETDATAOUT, 1<<21);
80000088:	e30c3194 	movw	r3, #49556	; 0xc194
8000008c:	e3443804 	movt	r3, #18436	; 0x4804
80000090:	e3a02602 	mov	r2, #2097152	; 0x200000
80000094:	e5832000 	str	r2, [r3]
}
80000098:	e24bd000 	sub	sp, fp, #0
8000009c:	e49db004 	pop	{fp}		; (ldr fp, [sp], #4)
800000a0:	e12fff1e 	bx	lr

800000a4 <CM_SetClk>:
#include "clock.h"

void CM_SetClk(CLK_MODULE_t module, CM_PER_REG reg, unsigned int value)
{
800000a4:	e52db004 	push	{fp}		; (str fp, [sp, #-4]!)
800000a8:	e28db000 	add	fp, sp, #0
800000ac:	e24dd014 	sub	sp, sp, #20
800000b0:	e50b0008 	str	r0, [fp, #-8]
800000b4:	e1a03001 	mov	r3, r1
800000b8:	e50b2010 	str	r2, [fp, #-16]
800000bc:	e14b30ba 	strh	r3, [fp, #-10]

	PUT32(module+reg, value);
800000c0:	e15b20ba 	ldrh	r2, [fp, #-10]
800000c4:	e51b3008 	ldr	r3, [fp, #-8]
800000c8:	e0823003 	add	r3, r2, r3
800000cc:	e1a02003 	mov	r2, r3
800000d0:	e51b3010 	ldr	r3, [fp, #-16]
800000d4:	e5823000 	str	r3, [r2]
}
800000d8:	e24bd000 	sub	sp, fp, #0
800000dc:	e49db004 	pop	{fp}		; (ldr fp, [sp], #4)
800000e0:	e12fff1e 	bx	lr

800000e4 <CM_GetClk>:

unsigned int CM_GetClk(CLK_MODULE_t module, CM_PER_REG reg)
{
800000e4:	e52db004 	push	{fp}		; (str fp, [sp, #-4]!)
800000e8:	e28db000 	add	fp, sp, #0
800000ec:	e24dd00c 	sub	sp, sp, #12
800000f0:	e50b0008 	str	r0, [fp, #-8]
800000f4:	e1a03001 	mov	r3, r1
800000f8:	e14b30ba 	strh	r3, [fp, #-10]
	return GET32(module+reg);
800000fc:	e15b20ba 	ldrh	r2, [fp, #-10]
80000100:	e51b3008 	ldr	r3, [fp, #-8]
80000104:	e0823003 	add	r3, r2, r3
80000108:	e5933000 	ldr	r3, [r3]
}
8000010c:	e1a00003 	mov	r0, r3
80000110:	e24bd000 	sub	sp, fp, #0
80000114:	e49db004 	pop	{fp}		; (ldr fp, [sp], #4)
80000118:	e12fff1e 	bx	lr

8000011c <Init_UART0_Clk>:

void Init_UART0_Clk()
{
8000011c:	e92d4800 	push	{fp, lr}
80000120:	e28db004 	add	fp, sp, #4
80000124:	e24dd008 	sub	sp, sp, #8

	unsigned int temp;
	 // software-forced wake-up transition on the "always on clock domain", TRM Table 8-92
	temp = CM_GetClk(CM_WKUP, CM_WKUP_CLKSTCTRL);		//This register enables the domain power state transition. It controls the SW supervised clock domain state transition between ON-ACTIVE and ON-INACTIVE states. It also hold one status bit per clock input of the domain
80000128:	e3a00b01 	mov	r0, #1024	; 0x400
8000012c:	e34404e0 	movt	r0, #17632	; 0x44e0
80000130:	e3a01000 	mov	r1, #0
80000134:	ebffffea 	bl	800000e4 <CM_GetClk>
80000138:	e50b0008 	str	r0, [fp, #-8]
	temp &= ~(0x3);
8000013c:	e51b3008 	ldr	r3, [fp, #-8]
80000140:	e3c33003 	bic	r3, r3, #3
80000144:	e50b3008 	str	r3, [fp, #-8]
	temp |= (0x2);
80000148:	e51b3008 	ldr	r3, [fp, #-8]
8000014c:	e3833002 	orr	r3, r3, #2
80000150:	e50b3008 	str	r3, [fp, #-8]
	CM_SetClk(CM_WKUP, CM_WKUP_CLKSTCTRL, temp);		//0x2=SW_WKUP
80000154:	e3a00b01 	mov	r0, #1024	; 0x400
80000158:	e34404e0 	movt	r0, #17632	; 0x44e0
8000015c:	e3a01000 	mov	r1, #0
80000160:	e51b2008 	ldr	r2, [fp, #-8]
80000164:	ebffffce 	bl	800000a4 <CM_SetClk>

	// software-forced wake up transition on the L4 high speed domain
	temp = CM_GetClk(CM_PER, CM_PER_L4HS_CLKSTCTRL);	//This register enables the domain power state transition. It controls the SW supervised clock domain state transition between ON-ACTIVE and ON-INACTIVE states. It also hold one status bit per clock input of the domain
80000168:	e3a00000 	mov	r0, #0
8000016c:	e34404e0 	movt	r0, #17632	; 0x44e0
80000170:	e3a01f47 	mov	r1, #284	; 0x11c
80000174:	ebffffda 	bl	800000e4 <CM_GetClk>
80000178:	e50b0008 	str	r0, [fp, #-8]
	temp &= ~(0x3);
8000017c:	e51b3008 	ldr	r3, [fp, #-8]
80000180:	e3c33003 	bic	r3, r3, #3
80000184:	e50b3008 	str	r3, [fp, #-8]
	temp |= (0x2);
80000188:	e51b3008 	ldr	r3, [fp, #-8]
8000018c:	e3833002 	orr	r3, r3, #2
80000190:	e50b3008 	str	r3, [fp, #-8]
	CM_SetClk(CM_PER, CM_PER_L4HS_CLKSTCTRL, temp);		//0x2=SW_WKUP
80000194:	e3a00000 	mov	r0, #0
80000198:	e34404e0 	movt	r0, #17632	; 0x44e0
8000019c:	e3a01f47 	mov	r1, #284	; 0x11c
800001a0:	e51b2008 	ldr	r2, [fp, #-8]
800001a4:	ebffffbe 	bl	800000a4 <CM_SetClk>

	// Module is explicitly enabled,    TRM Table 8-137
	temp = CM_GetClk(CM_WKUP, CM_WKUP_UART0_CLKCTRL);		//This register enables the domain power state transition. It controls the SW supervised clock domain state transition between ON-ACTIVE and ON-INACTIVE states. It also hold one status bit per clock input of the domain
800001a8:	e3a00b01 	mov	r0, #1024	; 0x400
800001ac:	e34404e0 	movt	r0, #17632	; 0x44e0
800001b0:	e3a010b4 	mov	r1, #180	; 0xb4
800001b4:	ebffffca 	bl	800000e4 <CM_GetClk>
800001b8:	e50b0008 	str	r0, [fp, #-8]
	temp &= ~(0x3);
800001bc:	e51b3008 	ldr	r3, [fp, #-8]
800001c0:	e3c33003 	bic	r3, r3, #3
800001c4:	e50b3008 	str	r3, [fp, #-8]
	temp |= (0x2);
800001c8:	e51b3008 	ldr	r3, [fp, #-8]
800001cc:	e3833002 	orr	r3, r3, #2
800001d0:	e50b3008 	str	r3, [fp, #-8]
	CM_SetClk(CM_WKUP, CM_WKUP_UART0_CLKCTRL, temp);		//0x2=SW_WKUP
800001d4:	e3a00b01 	mov	r0, #1024	; 0x400
800001d8:	e34404e0 	movt	r0, #17632	; 0x44e0
800001dc:	e3a010b4 	mov	r1, #180	; 0xb4
800001e0:	e51b2008 	ldr	r2, [fp, #-8]
800001e4:	ebffffae 	bl	800000a4 <CM_SetClk>
	temp &= ~(0x3);
	temp |= (0x2);
	CM_SetClk(CM_PER, CM_PER_UART1_CLKCTRL, temp);		//0x2=SW_WKUP
*/   

}
800001e8:	e24bd004 	sub	sp, fp, #4
800001ec:	e8bd8800 	pop	{fp, pc}

800001f0 <CM_setCtrlModule>:
#include "control_module.h"

void CM_setCtrlModule(CONTROL_MODULE_REG_t module, unsigned int value)
{
800001f0:	e52db004 	push	{fp}		; (str fp, [sp, #-4]!)
800001f4:	e28db000 	add	fp, sp, #0
800001f8:	e24dd00c 	sub	sp, sp, #12
800001fc:	e1a03000 	mov	r3, r0
80000200:	e50b100c 	str	r1, [fp, #-12]
80000204:	e14b30b6 	strh	r3, [fp, #-6]

	PUT32(CONTROL_MODULE_REGISTER_BASE + module, value);
80000208:	e15b30b6 	ldrh	r3, [fp, #-6]
8000020c:	e2833311 	add	r3, r3, #1140850688	; 0x44000000
80000210:	e28338e1 	add	r3, r3, #14745600	; 0xe10000
80000214:	e1a02003 	mov	r2, r3
80000218:	e51b300c 	ldr	r3, [fp, #-12]
8000021c:	e5823000 	str	r3, [r2]
}
80000220:	e24bd000 	sub	sp, fp, #0
80000224:	e49db004 	pop	{fp}		; (ldr fp, [sp], #4)
80000228:	e12fff1e 	bx	lr

8000022c <CM_getCtrlModule>:

unsigned int CM_getCtrlModule(CONTROL_MODULE_REG_t module)
{
8000022c:	e52db004 	push	{fp}		; (str fp, [sp, #-4]!)
80000230:	e28db000 	add	fp, sp, #0
80000234:	e24dd00c 	sub	sp, sp, #12
80000238:	e1a03000 	mov	r3, r0
8000023c:	e14b30b6 	strh	r3, [fp, #-6]
	return GET32(CONTROL_MODULE_REGISTER_BASE + module);
80000240:	e15b30b6 	ldrh	r3, [fp, #-6]
80000244:	e2833311 	add	r3, r3, #1140850688	; 0x44000000
80000248:	e28338e1 	add	r3, r3, #14745600	; 0xe10000
8000024c:	e5933000 	ldr	r3, [r3]
}
80000250:	e1a00003 	mov	r0, r3
80000254:	e24bd000 	sub	sp, fp, #0
80000258:	e49db004 	pop	{fp}		; (ldr fp, [sp], #4)
8000025c:	e12fff1e 	bx	lr

80000260 <PAD_setMode>:

void PAD_setMode(CONTROL_MODULE_REG_t module, unsigned int mode)
{
80000260:	e92d4800 	push	{fp, lr}
80000264:	e28db004 	add	fp, sp, #4
80000268:	e24dd010 	sub	sp, sp, #16
8000026c:	e1a03000 	mov	r3, r0
80000270:	e50b1014 	str	r1, [fp, #-20]	; 0xffffffec
80000274:	e14b30be 	strh	r3, [fp, #-14]
	unsigned int temp = CM_getCtrlModule(0);
80000278:	e3a00000 	mov	r0, #0
8000027c:	ebffffea 	bl	8000022c <CM_getCtrlModule>
80000280:	e50b0008 	str	r0, [fp, #-8]
	temp &= ~(0b111);    // turn down MUXMODE
80000284:	e51b3008 	ldr	r3, [fp, #-8]
80000288:	e3c33007 	bic	r3, r3, #7
8000028c:	e50b3008 	str	r3, [fp, #-8]
	temp |= mode;        // set new MUXMODE
80000290:	e51b2008 	ldr	r2, [fp, #-8]
80000294:	e51b3014 	ldr	r3, [fp, #-20]	; 0xffffffec
80000298:	e1823003 	orr	r3, r2, r3
8000029c:	e50b3008 	str	r3, [fp, #-8]
	CM_setCtrlModule(module, temp);
800002a0:	e15b30be 	ldrh	r3, [fp, #-14]
800002a4:	e1a00003 	mov	r0, r3
800002a8:	e51b1008 	ldr	r1, [fp, #-8]
800002ac:	ebffffcf 	bl	800001f0 <CM_setCtrlModule>


}
800002b0:	e24bd004 	sub	sp, fp, #4
800002b4:	e8bd8800 	pop	{fp, pc}

800002b8 <Uart0_Mux>:




void Uart0_Mux()
{
800002b8:	e92d4800 	push	{fp, lr}
800002bc:	e28db004 	add	fp, sp, #4

	CM_setCtrlModule(CM_conf_uart0_rxd, (1 << 4) | (1 << 5));		//Rx muxing
800002c0:	e3a00e97 	mov	r0, #2416	; 0x970
800002c4:	e3a01030 	mov	r1, #48	; 0x30
800002c8:	ebffffc8 	bl	800001f0 <CM_setCtrlModule>
	CM_setCtrlModule(CM_conf_uart0_txd,0);					//tx muxing
800002cc:	e3000974 	movw	r0, #2420	; 0x974
800002d0:	e3a01000 	mov	r1, #0
800002d4:	ebffffc5 	bl	800001f0 <CM_setCtrlModule>
/*
	PAD_setMode(CM_conf_uart0_txd, 0);
	PAD_setMode(CM_conf_uart0_rxd, 0);
*/
}
800002d8:	e8bd8800 	pop	{fp, pc}

800002dc <__aeabi_idivmod>:
typedef struct { int quot; int rem; } idiv_return;

idiv_return __aeabi_idivmod(int num, int denom) {
800002dc:	e52db004 	push	{fp}		; (str fp, [sp, #-4]!)
800002e0:	e28db000 	add	fp, sp, #0
800002e4:	e24dd024 	sub	sp, sp, #36	; 0x24
800002e8:	e50b0018 	str	r0, [fp, #-24]	; 0xffffffe8
800002ec:	e50b101c 	str	r1, [fp, #-28]	; 0xffffffe4
800002f0:	e50b2020 	str	r2, [fp, #-32]	; 0xffffffe0
    idiv_return r;
    int q = 0;
800002f4:	e3a03000 	mov	r3, #0
800002f8:	e50b3008 	str	r3, [fp, #-8]

    while (num >= denom) {
800002fc:	ea000006 	b	8000031c <__aeabi_idivmod+0x40>
        num -= denom;
80000300:	e51b201c 	ldr	r2, [fp, #-28]	; 0xffffffe4
80000304:	e51b3020 	ldr	r3, [fp, #-32]	; 0xffffffe0
80000308:	e0633002 	rsb	r3, r3, r2
8000030c:	e50b301c 	str	r3, [fp, #-28]	; 0xffffffe4
        q++;
80000310:	e51b3008 	ldr	r3, [fp, #-8]
80000314:	e2833001 	add	r3, r3, #1
80000318:	e50b3008 	str	r3, [fp, #-8]

idiv_return __aeabi_idivmod(int num, int denom) {
    idiv_return r;
    int q = 0;

    while (num >= denom) {
8000031c:	e51b201c 	ldr	r2, [fp, #-28]	; 0xffffffe4
80000320:	e51b3020 	ldr	r3, [fp, #-32]	; 0xffffffe0
80000324:	e1520003 	cmp	r2, r3
80000328:	aafffff4 	bge	80000300 <__aeabi_idivmod+0x24>
        num -= denom;
        q++;
    }

    r.quot = q;
8000032c:	e51b3008 	ldr	r3, [fp, #-8]
80000330:	e50b3010 	str	r3, [fp, #-16]
    r.rem = num;
80000334:	e51b301c 	ldr	r3, [fp, #-28]	; 0xffffffe4
80000338:	e50b300c 	str	r3, [fp, #-12]

    return r;
8000033c:	e51b3018 	ldr	r3, [fp, #-24]	; 0xffffffe8
80000340:	e1a02003 	mov	r2, r3
80000344:	e24b3010 	sub	r3, fp, #16
80000348:	e8930003 	ldm	r3, {r0, r1}
8000034c:	e8820003 	stm	r2, {r0, r1}
}
80000350:	e51b0018 	ldr	r0, [fp, #-24]	; 0xffffffe8
80000354:	e24bd000 	sub	sp, fp, #0
80000358:	e49db004 	pop	{fp}		; (ldr fp, [sp], #4)
8000035c:	e12fff1e 	bx	lr

80000360 <__aeabi_idiv>:

int __aeabi_idiv(int num, int denom) {
80000360:	e52db004 	push	{fp}		; (str fp, [sp, #-4]!)
80000364:	e28db000 	add	fp, sp, #0
80000368:	e24dd014 	sub	sp, sp, #20
8000036c:	e50b0010 	str	r0, [fp, #-16]
80000370:	e50b1014 	str	r1, [fp, #-20]	; 0xffffffec
    int q = 0;
80000374:	e3a03000 	mov	r3, #0
80000378:	e50b3008 	str	r3, [fp, #-8]

    while (num >= denom) {
8000037c:	ea000006 	b	8000039c <__aeabi_idiv+0x3c>
        num -= denom;
80000380:	e51b2010 	ldr	r2, [fp, #-16]
80000384:	e51b3014 	ldr	r3, [fp, #-20]	; 0xffffffec
80000388:	e0633002 	rsb	r3, r3, r2
8000038c:	e50b3010 	str	r3, [fp, #-16]
        q++;
80000390:	e51b3008 	ldr	r3, [fp, #-8]
80000394:	e2833001 	add	r3, r3, #1
80000398:	e50b3008 	str	r3, [fp, #-8]
}

int __aeabi_idiv(int num, int denom) {
    int q = 0;

    while (num >= denom) {
8000039c:	e51b2010 	ldr	r2, [fp, #-16]
800003a0:	e51b3014 	ldr	r3, [fp, #-20]	; 0xffffffec
800003a4:	e1520003 	cmp	r2, r3
800003a8:	aafffff4 	bge	80000380 <__aeabi_idiv+0x20>
        num -= denom;
        q++;
    }

   return q;
800003ac:	e51b3008 	ldr	r3, [fp, #-8]
}
800003b0:	e1a00003 	mov	r0, r3
800003b4:	e24bd000 	sub	sp, fp, #0
800003b8:	e49db004 	pop	{fp}		; (ldr fp, [sp], #4)
800003bc:	e12fff1e 	bx	lr

800003c0 <uart_putf>:
#include "sys_log.h"

extern unsigned short int value;

void uart_putf(const char *fmt, ...) 
{
800003c0:	e92d000f 	push	{r0, r1, r2, r3}
800003c4:	e92d4800 	push	{fp, lr}
800003c8:	e28db004 	add	fp, sp, #4
800003cc:	e24dd008 	sub	sp, sp, #8
	out_func_t fn = UART_putC;
800003d0:	e300375c 	movw	r3, #1884	; 0x75c
800003d4:	e3483000 	movt	r3, #32768	; 0x8000
800003d8:	e50b3008 	str	r3, [fp, #-8]
	va_list ap;
	va_start(ap, fmt);    
800003dc:	e28b3008 	add	r3, fp, #8
800003e0:	e50b300c 	str	r3, [fp, #-12]
	_vprintk(fn, fmt, ap);                               
800003e4:	e51b0008 	ldr	r0, [fp, #-8]
800003e8:	e59b1004 	ldr	r1, [fp, #4]
800003ec:	e51b200c 	ldr	r2, [fp, #-12]
800003f0:	eb0001d7 	bl	80000b54 <_vprintk>
	va_end(ap); 
}
800003f4:	e24bd004 	sub	sp, fp, #4
800003f8:	e8bd4800 	pop	{fp, lr}
800003fc:	e28dd010 	add	sp, sp, #16
80000400:	e12fff1e 	bx	lr

80000404 <_main>:

void _main(void)
{
80000404:	e92d4800 	push	{fp, lr}
80000408:	e28db004 	add	fp, sp, #4
	LED_init();
8000040c:	ebffff0a 	bl	8000003c <LED_init>
	UART_init(115200,STOP1,PARITY_NONE,FLOW_OFF);
80000410:	e3a00cc2 	mov	r0, #49664	; 0xc200
80000414:	e3400001 	movt	r0, #1
80000418:	e3a01000 	mov	r1, #0
8000041c:	e3a02000 	mov	r2, #0
80000420:	e3a03000 	mov	r3, #0
80000424:	eb0000b9 	bl	80000710 <UART_init>
	UART_putC('\n');
80000428:	e3a0000a 	mov	r0, #10
8000042c:	eb0000ca 	bl	8000075c <UART_putC>
	UART_putString("Uart init done : ");
80000430:	e30104d8 	movw	r0, #5336	; 0x14d8
80000434:	e3480000 	movt	r0, #32768	; 0x8000
80000438:	eb0000f1 	bl	80000804 <UART_putString>
	UART_putString("Hi shashi\n");
8000043c:	e30104ec 	movw	r0, #5356	; 0x14ec
80000440:	e3480000 	movt	r0, #32768	; 0x8000
80000444:	eb0000ee 	bl	80000804 <UART_putString>
	UART_putString("Uart init done : ");
80000448:	e30104d8 	movw	r0, #5336	; 0x14d8
8000044c:	e3480000 	movt	r0, #32768	; 0x8000
80000450:	eb0000eb 	bl	80000804 <UART_putString>
	UART_putString("Hi dabba\n\n");
80000454:	e30104f8 	movw	r0, #5368	; 0x14f8
80000458:	e3480000 	movt	r0, #32768	; 0x8000
8000045c:	eb0000e8 	bl	80000804 <UART_putString>
	UART_putString("Uart init done : ");
80000460:	e30104d8 	movw	r0, #5336	; 0x14d8
80000464:	e3480000 	movt	r0, #32768	; 0x8000
80000468:	eb0000e5 	bl	80000804 <UART_putString>
	UART_putString("Hi dabba\n\n");
8000046c:	e30104f8 	movw	r0, #5368	; 0x14f8
80000470:	e3480000 	movt	r0, #32768	; 0x8000
80000474:	eb0000e2 	bl	80000804 <UART_putString>
	uart_putf("LCR value = %x\n", value);
80000478:	e301352a 	movw	r3, #5418	; 0x152a
8000047c:	e3483000 	movt	r3, #32768	; 0x8000
80000480:	e1d330b0 	ldrh	r3, [r3]
80000484:	e3010504 	movw	r0, #5380	; 0x1504
80000488:	e3480000 	movt	r0, #32768	; 0x8000
8000048c:	e1a01003 	mov	r1, r3
80000490:	ebffffca 	bl	800003c0 <uart_putf>
	while (1) {
		UART_putString("Enter a character : ");
80000494:	e3010514 	movw	r0, #5396	; 0x1514
80000498:	e3480000 	movt	r0, #32768	; 0x8000
8000049c:	eb0000d8 	bl	80000804 <UART_putString>
		UART_putC(UART_getC());
800004a0:	eb0000c5 	bl	800007bc <UART_getC>
800004a4:	e1a03000 	mov	r3, r0
800004a8:	e1a00003 	mov	r0, r3
800004ac:	eb0000aa 	bl	8000075c <UART_putC>
		UART_putC('\n');
800004b0:	e3a0000a 	mov	r0, #10
800004b4:	eb0000a8 	bl	8000075c <UART_putC>
	}
800004b8:	eafffff5 	b	80000494 <_main+0x90>
800004bc:	00000000 	andeq	r0, r0, r0

800004c0 <GPIO_init>:
#include "control_module.h"
#include "string.h"

unsigned short int value = 0;
void GPIO_init()
{
800004c0:	e92d4800 	push	{fp, lr}
800004c4:	e28db004 	add	fp, sp, #4
800004c8:	e24dd008 	sub	sp, sp, #8
	unsigned int setting = (1<<18) | (0x2<<0);
800004cc:	e3a03002 	mov	r3, #2
800004d0:	e3403004 	movt	r3, #4
800004d4:	e50b3008 	str	r3, [fp, #-8]
	CM_SetClk(CM_PER, CM_PER_GPIO1_CLKCTRL, setting);
800004d8:	e3a00000 	mov	r0, #0
800004dc:	e34404e0 	movt	r0, #17632	; 0x44e0
800004e0:	e3a010ac 	mov	r1, #172	; 0xac
800004e4:	e51b2008 	ldr	r2, [fp, #-8]
800004e8:	ebfffeed 	bl	800000a4 <CM_SetClk>
	while((CM_GetClk(CM_PER, CM_PER_GPIO1_CLKCTRL) & (0x3<<16)) != 0);
800004ec:	e1a00000 	nop			; (mov r0, r0)
800004f0:	e3a00000 	mov	r0, #0
800004f4:	e34404e0 	movt	r0, #17632	; 0x44e0
800004f8:	e3a010ac 	mov	r1, #172	; 0xac
800004fc:	ebfffef8 	bl	800000e4 <CM_GetClk>
80000500:	e1a03000 	mov	r3, r0
80000504:	e2033803 	and	r3, r3, #196608	; 0x30000
80000508:	e3530000 	cmp	r3, #0
8000050c:	1afffff7 	bne	800004f0 <GPIO_init+0x30>

}
80000510:	e24bd004 	sub	sp, fp, #4
80000514:	e8bd8800 	pop	{fp, pc}

80000518 <Uart0_Reset>:
/* 
 * UART procedure described in 19.4 UART/IrDA/CIR Basic Programming Model
 */

void Uart0_Reset(unsigned int baudrate) 
{
80000518:	e52db004 	push	{fp}		; (str fp, [sp, #-4]!)
8000051c:	e28db000 	add	fp, sp, #0
80000520:	e24dd01c 	sub	sp, sp, #28
80000524:	e50b0018 	str	r0, [fp, #-24]	; 0xffffffe8
	/** UART reset --> setting SYSC[1] */
	unsigned int temp = GET32(UART0+SYSC);
80000528:	e3093054 	movw	r3, #36948	; 0x9054
8000052c:	e34434e0 	movt	r3, #17632	; 0x44e0
80000530:	e5933000 	ldr	r3, [r3]
80000534:	e50b3008 	str	r3, [fp, #-8]
	temp |= 0x2;
80000538:	e51b3008 	ldr	r3, [fp, #-8]
8000053c:	e3833002 	orr	r3, r3, #2
80000540:	e50b3008 	str	r3, [fp, #-8]
	PUT32(UART0+SYSC, temp);		
80000544:	e3093054 	movw	r3, #36948	; 0x9054
80000548:	e34434e0 	movt	r3, #17632	; 0x44e0
8000054c:	e51b2008 	ldr	r2, [fp, #-8]
80000550:	e5832000 	str	r2, [r3]
	while (((GET32(UART0+SYSS)) & 0x1) == 0);		/* Wait till reset is complete */
80000554:	e1a00000 	nop			; (mov r0, r0)
80000558:	e3093058 	movw	r3, #36952	; 0x9058
8000055c:	e34434e0 	movt	r3, #17632	; 0x44e0
80000560:	e5933000 	ldr	r3, [r3]
80000564:	e2033001 	and	r3, r3, #1
80000568:	e3530000 	cmp	r3, #0
8000056c:	0afffff9 	beq	80000558 <Uart0_Reset+0x40>
	temp = GET8(UART0+SYSC);
80000570:	e3093054 	movw	r3, #36948	; 0x9054
80000574:	e34434e0 	movt	r3, #17632	; 0x44e0
80000578:	e5d33000 	ldrb	r3, [r3]
8000057c:	e6ef3073 	uxtb	r3, r3
80000580:	e50b3008 	str	r3, [fp, #-8]
	temp |= (0x1 << 0x3);
80000584:	e51b3008 	ldr	r3, [fp, #-8]
80000588:	e3833008 	orr	r3, r3, #8
8000058c:	e50b3008 	str	r3, [fp, #-8]
	PUT8(UART0+SYSC, temp);					/* No idle/Wakeup capability is enabled */
80000590:	e3093054 	movw	r3, #36948	; 0x9054
80000594:	e34434e0 	movt	r3, #17632	; 0x44e0
80000598:	e51b2008 	ldr	r2, [fp, #-8]
8000059c:	e6ef2072 	uxtb	r2, r2
800005a0:	e5c32000 	strb	r2, [r3]

	/* UART init*/
	/* Check below condition is necessary ??*/
	while(!(GET32(UART0+LSR) & 0x40));    		// Transmitter hold (TX	FIFO) and shift	registers are empty
800005a4:	e1a00000 	nop			; (mov r0, r0)
800005a8:	e3093014 	movw	r3, #36884	; 0x9014
800005ac:	e34434e0 	movt	r3, #17632	; 0x44e0
800005b0:	e5933000 	ldr	r3, [r3]
800005b4:	e2033040 	and	r3, r3, #64	; 0x40
800005b8:	e3530000 	cmp	r3, #0
800005bc:	0afffff9 	beq	800005a8 <Uart0_Reset+0x90>

	/* UART Interrupt Enable Register */
	PUT8(UART0+IER, 0);					//Disable uart interrupts
800005c0:	e3093004 	movw	r3, #36868	; 0x9004
800005c4:	e34434e0 	movt	r3, #17632	; 0x44e0
800005c8:	e3a02000 	mov	r2, #0
800005cc:	e5c32000 	strb	r2, [r3]
	PUT8(UART0+MDR1,0x7);        				/* Disable modeselect (default) 19.5.1.19*/
800005d0:	e3093020 	movw	r3, #36896	; 0x9020
800005d4:	e34434e0 	movt	r3, #17632	; 0x44e0
800005d8:	e3a02007 	mov	r2, #7
800005dc:	e5c32000 	strb	r2, [r3]
	PUT8(UART0+LCR,~(0x7C));    // divisor latch enable, access DLL DHL, set uart as 8bit
800005e0:	e309300c 	movw	r3, #36876	; 0x900c
800005e4:	e34434e0 	movt	r3, #17632	; 0x44e0
800005e8:	e3e0207c 	mvn	r2, #124	; 0x7c
800005ec:	e5c32000 	strb	r2, [r3]

	value = GET8(UART0+LCR);
800005f0:	e309300c 	movw	r3, #36876	; 0x900c
800005f4:	e34434e0 	movt	r3, #17632	; 0x44e0
800005f8:	e5d33000 	ldrb	r3, [r3]
800005fc:	e6ef3073 	uxtb	r3, r3
80000600:	e6ff2073 	uxth	r2, r3
80000604:	e301352a 	movw	r3, #5418	; 0x152a
80000608:	e3483000 	movt	r3, #32768	; 0x8000
8000060c:	e1c320b0 	strh	r2, [r3]
	PUT8(UART0+RHR,0);          // DLL = 0
80000610:	e3a03a09 	mov	r3, #36864	; 0x9000
80000614:	e34434e0 	movt	r3, #17632	; 0x44e0
80000618:	e3a02000 	mov	r2, #0
8000061c:	e5c32000 	strb	r2, [r3]
	PUT8(UART0+IER,0);          // DHL = 0
80000620:	e3093004 	movw	r3, #36868	; 0x9004
80000624:	e34434e0 	movt	r3, #17632	; 0x44e0
80000628:	e3a02000 	mov	r2, #0
8000062c:	e5c32000 	strb	r2, [r3]
	PUT8(UART0+LCR,0x3);        // set uart as 8bit
80000630:	e309300c 	movw	r3, #36876	; 0x900c
80000634:	e34434e0 	movt	r3, #17632	; 0x44e0
80000638:	e3a02003 	mov	r2, #3
8000063c:	e5c32000 	strb	r2, [r3]
	PUT8(UART0+MCR,0x3);        // force /rts & /drt to active (low) (?!)
80000640:	e3093010 	movw	r3, #36880	; 0x9010
80000644:	e34434e0 	movt	r3, #17632	; 0x44e0
80000648:	e3a02003 	mov	r2, #3
8000064c:	e5c32000 	strb	r2, [r3]
	PUT8(UART0+FCR,0x7);        // clear rx&tx FIFOs, and enables them (each 64 bytes deep)
80000650:	e3093008 	movw	r3, #36872	; 0x9008
80000654:	e34434e0 	movt	r3, #17632	; 0x44e0
80000658:	e3a02007 	mov	r2, #7
8000065c:	e5c32000 	strb	r2, [r3]
	  1 . UART 16x mode: Divisor value = Operating frequency/(16x baud rate) , Operating frequency = 48 MHz	 
	  2 . For 115200/16x speed DLL = 0x00, DLH = 0x1A
	  3 . The divisor latches high register(DLH) with the DLL register stores the 14-bit divisor for generation
	      of the baud clock in the baud rate generator
	  */
	float div = 48000000.0/(16.0*(float)baudrate);
80000660:	e51b3018 	ldr	r3, [fp, #-24]	; 0xffffffe8
80000664:	ee073a90 	vmov	s15, r3
80000668:	eef87a67 	vcvt.f32.u32	s15, s15
8000066c:	eef70ae7 	vcvt.f64.f32	d16, s15
80000670:	eef31b00 	vmov.f64	d17, #48	; 0x41800000  16.0
80000674:	ee600ba1 	vmul.f64	d16, d16, d17
80000678:	eddf1b22 	vldr	d17, [pc, #136]	; 80000708 <Uart0_Reset+0x1f0>
8000067c:	eec10ba0 	vdiv.f64	d16, d17, d16
80000680:	eef77be0 	vcvt.f32.f64	s15, d16
80000684:	ed4b7a03 	vstr	s15, [fp, #-12]
	unsigned int intdiv = (unsigned int) div; 
80000688:	ed5b7a03 	vldr	s15, [fp, #-12]
8000068c:	eefc7ae7 	vcvt.u32.f32	s15, s15
80000690:	ee173a90 	vmov	r3, s15
80000694:	e50b3010 	str	r3, [fp, #-16]
	PUT8(UART0+LCR,~(0x7C));    		   /* divisor latch enable, access DLL DHL, set uart as 8bit*/
80000698:	e309300c 	movw	r3, #36876	; 0x900c
8000069c:	e34434e0 	movt	r3, #17632	; 0x44e0
800006a0:	e3e0207c 	mvn	r2, #124	; 0x7c
800006a4:	e5c32000 	strb	r2, [r3]
	PUT8(UART0+RHR,intdiv&0xFF);          	   /* DLL = 26 */
800006a8:	e3a03a09 	mov	r3, #36864	; 0x9000
800006ac:	e34434e0 	movt	r3, #17632	; 0x44e0
800006b0:	e51b2010 	ldr	r2, [fp, #-16]
800006b4:	e6ef2072 	uxtb	r2, r2
800006b8:	e5c32000 	strb	r2, [r3]
	PUT8(UART0+IER,(intdiv>>8)&0x3F);          /* DHL = 0  IER now DLH*/
800006bc:	e3093004 	movw	r3, #36868	; 0x9004
800006c0:	e34434e0 	movt	r3, #17632	; 0x44e0
800006c4:	e51b2010 	ldr	r2, [fp, #-16]
800006c8:	e1a02422 	lsr	r2, r2, #8
800006cc:	e6ef2072 	uxtb	r2, r2
800006d0:	e202203f 	and	r2, r2, #63	; 0x3f
800006d4:	e6ef2072 	uxtb	r2, r2
800006d8:	e5c32000 	strb	r2, [r3]

	PUT8(UART0+LCR,0x3);        // set uart as 8 bit
800006dc:	e309300c 	movw	r3, #36876	; 0x900c
800006e0:	e34434e0 	movt	r3, #17632	; 0x44e0
800006e4:	e3a02003 	mov	r2, #3
800006e8:	e5c32000 	strb	r2, [r3]
	PUT8(UART0+MDR1,0);          // uart 16x oversampling
800006ec:	e3093020 	movw	r3, #36896	; 0x9020
800006f0:	e34434e0 	movt	r3, #17632	; 0x44e0
800006f4:	e3a02000 	mov	r2, #0
800006f8:	e5c32000 	strb	r2, [r3]

}
800006fc:	e24bd000 	sub	sp, fp, #0
80000700:	e49db004 	pop	{fp}		; (ldr fp, [sp], #4)
80000704:	e12fff1e 	bx	lr
80000708:	00000000 	andeq	r0, r0, r0
8000070c:	4186e360 	orrmi	lr, r6, r0, ror #6

80000710 <UART_init>:

void UART_init(unsigned int baudrate, STOP_BIT_t stopBit, PARITY_BIT_t parity, FLOW_t flowControl) 
{
80000710:	e92d4800 	push	{fp, lr}
80000714:	e28db004 	add	fp, sp, #4
80000718:	e24dd008 	sub	sp, sp, #8
8000071c:	e50b0008 	str	r0, [fp, #-8]
80000720:	e1a00001 	mov	r0, r1
80000724:	e1a01002 	mov	r1, r2
80000728:	e1a02003 	mov	r2, r3
8000072c:	e1a03000 	mov	r3, r0
80000730:	e54b3009 	strb	r3, [fp, #-9]
80000734:	e1a03001 	mov	r3, r1
80000738:	e54b300a 	strb	r3, [fp, #-10]
8000073c:	e1a03002 	mov	r3, r2
80000740:	e54b300b 	strb	r3, [fp, #-11]

	//	GPIO_init();

	//UART mux config
	Uart0_Mux();
80000744:	ebfffedb 	bl	800002b8 <Uart0_Mux>

	//Init clock and muxing of pins
	Init_UART0_Clk();
80000748:	ebfffe73 	bl	8000011c <Init_UART0_Clk>

	//Uart soft reset
	Uart0_Reset(baudrate);
8000074c:	e51b0008 	ldr	r0, [fp, #-8]
80000750:	ebffff70 	bl	80000518 <Uart0_Reset>
}
80000754:	e24bd004 	sub	sp, fp, #4
80000758:	e8bd8800 	pop	{fp, pc}

8000075c <UART_putC>:

void UART_putC( char c)
{
8000075c:	e92d4800 	push	{fp, lr}
80000760:	e28db004 	add	fp, sp, #4
80000764:	e24dd008 	sub	sp, sp, #8
80000768:	e1a03000 	mov	r3, r0
8000076c:	e54b3005 	strb	r3, [fp, #-5]

	if (c == '\n')
80000770:	e55b3005 	ldrb	r3, [fp, #-5]
80000774:	e353000a 	cmp	r3, #10
80000778:	1a000001 	bne	80000784 <UART_putC+0x28>
		UART_putC('\r');
8000077c:	e3a0000d 	mov	r0, #13
80000780:	ebfffff5 	bl	8000075c <UART_putC>

	while((GET8(UART0+LSR)&0x20) != 0x20)	/* wait until txfifo is empty (check exact bit is set) */ 
80000784:	e1a00000 	nop			; (mov r0, r0)
80000788:	e3093014 	movw	r3, #36884	; 0x9014
8000078c:	e34434e0 	movt	r3, #17632	; 0x44e0
80000790:	e5d33000 	ldrb	r3, [r3]
80000794:	e6ef3073 	uxtb	r3, r3
80000798:	e2033020 	and	r3, r3, #32
8000079c:	e3530000 	cmp	r3, #0
800007a0:	0afffff8 	beq	80000788 <UART_putC+0x2c>
		;

	PUT8(UART0 +RHR,c);
800007a4:	e3a03a09 	mov	r3, #36864	; 0x9000
800007a8:	e34434e0 	movt	r3, #17632	; 0x44e0
800007ac:	e55b2005 	ldrb	r2, [fp, #-5]
800007b0:	e5c32000 	strb	r2, [r3]
}
800007b4:	e24bd004 	sub	sp, fp, #4
800007b8:	e8bd8800 	pop	{fp, pc}

800007bc <UART_getC>:
char UART_getC()
{
800007bc:	e52db004 	push	{fp}		; (str fp, [sp, #-4]!)
800007c0:	e28db000 	add	fp, sp, #0
	while((GET8(UART0+LSR)&0x1) == 0);     //wait for a character to be in the rx fifo
800007c4:	e1a00000 	nop			; (mov r0, r0)
800007c8:	e3093014 	movw	r3, #36884	; 0x9014
800007cc:	e34434e0 	movt	r3, #17632	; 0x44e0
800007d0:	e5d33000 	ldrb	r3, [r3]
800007d4:	e6ef3073 	uxtb	r3, r3
800007d8:	e2033001 	and	r3, r3, #1
800007dc:	e3530000 	cmp	r3, #0
800007e0:	0afffff8 	beq	800007c8 <UART_getC+0xc>
	return GET8(UART0+RHR);
800007e4:	e3a03a09 	mov	r3, #36864	; 0x9000
800007e8:	e34434e0 	movt	r3, #17632	; 0x44e0
800007ec:	e5d33000 	ldrb	r3, [r3]
800007f0:	e6ef3073 	uxtb	r3, r3
}
800007f4:	e1a00003 	mov	r0, r3
800007f8:	e24bd000 	sub	sp, fp, #0
800007fc:	e49db004 	pop	{fp}		; (ldr fp, [sp], #4)
80000800:	e12fff1e 	bx	lr

80000804 <UART_putString>:

int UART_putString(char *str)
{
80000804:	e92d4800 	push	{fp, lr}
80000808:	e28db004 	add	fp, sp, #4
8000080c:	e24dd010 	sub	sp, sp, #16
80000810:	e50b0010 	str	r0, [fp, #-16]
   int length = strlen(str);
80000814:	e51b0010 	ldr	r0, [fp, #-16]
80000818:	eb0001ff 	bl	8000101c <strlen>
8000081c:	e50b000c 	str	r0, [fp, #-12]
   for(int i = 0; i < length; i++)
80000820:	e3a03000 	mov	r3, #0
80000824:	e50b3008 	str	r3, [fp, #-8]
80000828:	ea000008 	b	80000850 <UART_putString+0x4c>
   {
      UART_putC(str[i]);
8000082c:	e51b3008 	ldr	r3, [fp, #-8]
80000830:	e51b2010 	ldr	r2, [fp, #-16]
80000834:	e0823003 	add	r3, r2, r3
80000838:	e5d33000 	ldrb	r3, [r3]
8000083c:	e1a00003 	mov	r0, r3
80000840:	ebffffc5 	bl	8000075c <UART_putC>
}

int UART_putString(char *str)
{
   int length = strlen(str);
   for(int i = 0; i < length; i++)
80000844:	e51b3008 	ldr	r3, [fp, #-8]
80000848:	e2833001 	add	r3, r3, #1
8000084c:	e50b3008 	str	r3, [fp, #-8]
80000850:	e51b2008 	ldr	r2, [fp, #-8]
80000854:	e51b300c 	ldr	r3, [fp, #-12]
80000858:	e1520003 	cmp	r2, r3
8000085c:	bafffff2 	blt	8000082c <UART_putString+0x28>
   {
      UART_putC(str[i]);
   }
   return length;
80000860:	e51b300c 	ldr	r3, [fp, #-12]
}
80000864:	e1a00003 	mov	r0, r3
80000868:	e24bd004 	sub	sp, fp, #4
8000086c:	e8bd8800 	pop	{fp, pc}

80000870 <UART_getString>:

int UART_getString(char *buf)
{
80000870:	e92d4810 	push	{r4, fp, lr}
80000874:	e28db008 	add	fp, sp, #8
80000878:	e24dd014 	sub	sp, sp, #20
8000087c:	e50b0018 	str	r0, [fp, #-24]	; 0xffffffe8
   int length = strlen(buf);
80000880:	e51b0018 	ldr	r0, [fp, #-24]	; 0xffffffe8
80000884:	eb0001e4 	bl	8000101c <strlen>
80000888:	e50b0014 	str	r0, [fp, #-20]	; 0xffffffec
   for(int i = 0; i < length; i ++)
8000088c:	e3a03000 	mov	r3, #0
80000890:	e50b3010 	str	r3, [fp, #-16]
80000894:	ea000008 	b	800008bc <UART_getString+0x4c>
   {
      buf[i] = UART_getC();
80000898:	e51b3010 	ldr	r3, [fp, #-16]
8000089c:	e51b2018 	ldr	r2, [fp, #-24]	; 0xffffffe8
800008a0:	e0824003 	add	r4, r2, r3
800008a4:	ebffffc4 	bl	800007bc <UART_getC>
800008a8:	e1a03000 	mov	r3, r0
800008ac:	e5c43000 	strb	r3, [r4]
}

int UART_getString(char *buf)
{
   int length = strlen(buf);
   for(int i = 0; i < length; i ++)
800008b0:	e51b3010 	ldr	r3, [fp, #-16]
800008b4:	e2833001 	add	r3, r3, #1
800008b8:	e50b3010 	str	r3, [fp, #-16]
800008bc:	e51b2010 	ldr	r2, [fp, #-16]
800008c0:	e51b3014 	ldr	r3, [fp, #-20]	; 0xffffffec
800008c4:	e1520003 	cmp	r2, r3
800008c8:	bafffff2 	blt	80000898 <UART_getString+0x28>
   {
      buf[i] = UART_getC();
   }
   return length;
800008cc:	e51b3014 	ldr	r3, [fp, #-20]	; 0xffffffec
}
800008d0:	e1a00003 	mov	r0, r3
800008d4:	e24bd008 	sub	sp, fp, #8
800008d8:	e8bd8810 	pop	{r4, fp, pc}

800008dc <_printk_dec_ulong>:
 * @return N/A
 */
static void _printk_dec_ulong(out_func_t out,
		const unsigned long num, int pad_zero,
		int min_width)
{
800008dc:	e92d4800 	push	{fp, lr}
800008e0:	e28db004 	add	fp, sp, #4
800008e4:	e24dd020 	sub	sp, sp, #32
800008e8:	e50b0018 	str	r0, [fp, #-24]	; 0xffffffe8
800008ec:	e50b101c 	str	r1, [fp, #-28]	; 0xffffffe4
800008f0:	e50b2020 	str	r2, [fp, #-32]	; 0xffffffe0
800008f4:	e50b3024 	str	r3, [fp, #-36]	; 0xffffffdc
	/*
	unsigned long pos = 999999999;
	unsigned long remainder = num;
	*/
	long pos = 999999999;
800008f8:	e30c39ff 	movw	r3, #51711	; 0xc9ff
800008fc:	e3433b9a 	movt	r3, #15258	; 0x3b9a
80000900:	e50b3008 	str	r3, [fp, #-8]
	long remainder = num;
80000904:	e51b301c 	ldr	r3, [fp, #-28]	; 0xffffffe4
80000908:	e50b300c 	str	r3, [fp, #-12]
	int found_largest_digit = 0;
8000090c:	e3a03000 	mov	r3, #0
80000910:	e50b3010 	str	r3, [fp, #-16]
	int remaining = 10; /* 10 digits max */
80000914:	e3a0300a 	mov	r3, #10
80000918:	e50b3014 	str	r3, [fp, #-20]	; 0xffffffec

	/* make sure we don't skip if value is zero */
	if (min_width <= 0) {
8000091c:	e51b3024 	ldr	r3, [fp, #-36]	; 0xffffffdc
80000920:	e3530000 	cmp	r3, #0
80000924:	ca000001 	bgt	80000930 <_printk_dec_ulong+0x54>
		min_width = 1;
80000928:	e3a03001 	mov	r3, #1
8000092c:	e50b3024 	str	r3, [fp, #-36]	; 0xffffffdc
	}

	while (pos >= 9) {
80000930:	ea000035 	b	80000a0c <_printk_dec_ulong+0x130>
		if (found_largest_digit || remainder > pos) {
80000934:	e51b3010 	ldr	r3, [fp, #-16]
80000938:	e3530000 	cmp	r3, #0
8000093c:	1a000003 	bne	80000950 <_printk_dec_ulong+0x74>
80000940:	e51b200c 	ldr	r2, [fp, #-12]
80000944:	e51b3008 	ldr	r3, [fp, #-8]
80000948:	e1520003 	cmp	r2, r3
8000094c:	da00000e 	ble	8000098c <_printk_dec_ulong+0xb0>
			found_largest_digit = 1;
80000950:	e3a03001 	mov	r3, #1
80000954:	e50b3010 	str	r3, [fp, #-16]
			out((char)((remainder / (pos + 1)) + 48));
80000958:	e51b3008 	ldr	r3, [fp, #-8]
8000095c:	e2833001 	add	r3, r3, #1
80000960:	e51b000c 	ldr	r0, [fp, #-12]
80000964:	e1a01003 	mov	r1, r3
80000968:	ebfffe7c 	bl	80000360 <__aeabi_idiv>
8000096c:	e1a03000 	mov	r3, r0
80000970:	e6ef3073 	uxtb	r3, r3
80000974:	e2833030 	add	r3, r3, #48	; 0x30
80000978:	e6ef2073 	uxtb	r2, r3
8000097c:	e51b3018 	ldr	r3, [fp, #-24]	; 0xffffffe8
80000980:	e1a00002 	mov	r0, r2
80000984:	e12fff33 	blx	r3
80000988:	ea00000c 	b	800009c0 <_printk_dec_ulong+0xe4>
		} else if (remaining <= min_width) {
8000098c:	e51b2014 	ldr	r2, [fp, #-20]	; 0xffffffec
80000990:	e51b3024 	ldr	r3, [fp, #-36]	; 0xffffffdc
80000994:	e1520003 	cmp	r2, r3
80000998:	ca000008 	bgt	800009c0 <_printk_dec_ulong+0xe4>
			out((char)(pad_zero ? '0' : ' '));
8000099c:	e51b3020 	ldr	r3, [fp, #-32]	; 0xffffffe0
800009a0:	e3530000 	cmp	r3, #0
800009a4:	0a000001 	beq	800009b0 <_printk_dec_ulong+0xd4>
800009a8:	e3a02030 	mov	r2, #48	; 0x30
800009ac:	ea000000 	b	800009b4 <_printk_dec_ulong+0xd8>
800009b0:	e3a02020 	mov	r2, #32
800009b4:	e51b3018 	ldr	r3, [fp, #-24]	; 0xffffffe8
800009b8:	e1a00002 	mov	r0, r2
800009bc:	e12fff33 	blx	r3
		}
		remaining--;
800009c0:	e51b3014 	ldr	r3, [fp, #-20]	; 0xffffffec
800009c4:	e2433001 	sub	r3, r3, #1
800009c8:	e50b3014 	str	r3, [fp, #-20]	; 0xffffffec
		remainder %= (pos + 1); 
800009cc:	e51b3008 	ldr	r3, [fp, #-8]
800009d0:	e2833001 	add	r3, r3, #1
800009d4:	e51b200c 	ldr	r2, [fp, #-12]
800009d8:	e1a00002 	mov	r0, r2
800009dc:	e1a01003 	mov	r1, r3
800009e0:	ebfffe3d 	bl	800002dc <__aeabi_idivmod>
800009e4:	e1a03001 	mov	r3, r1
800009e8:	e50b300c 	str	r3, [fp, #-12]
		pos /= 10; 
800009ec:	e51b1008 	ldr	r1, [fp, #-8]
800009f0:	e3063667 	movw	r3, #26215	; 0x6667
800009f4:	e3463666 	movt	r3, #26214	; 0x6666
800009f8:	e0c32391 	smull	r2, r3, r1, r3
800009fc:	e1a02143 	asr	r2, r3, #2
80000a00:	e1a03fc1 	asr	r3, r1, #31
80000a04:	e0633002 	rsb	r3, r3, r2
80000a08:	e50b3008 	str	r3, [fp, #-8]
	/* make sure we don't skip if value is zero */
	if (min_width <= 0) {
		min_width = 1;
	}

	while (pos >= 9) {
80000a0c:	e51b3008 	ldr	r3, [fp, #-8]
80000a10:	e3530008 	cmp	r3, #8
80000a14:	caffffc6 	bgt	80000934 <_printk_dec_ulong+0x58>
		}
		remaining--;
		remainder %= (pos + 1); 
		pos /= 10; 
	}
	out((char)(remainder + 48));
80000a18:	e51b300c 	ldr	r3, [fp, #-12]
80000a1c:	e6ef3073 	uxtb	r3, r3
80000a20:	e2833030 	add	r3, r3, #48	; 0x30
80000a24:	e6ef2073 	uxtb	r2, r3
80000a28:	e51b3018 	ldr	r3, [fp, #-24]	; 0xffffffe8
80000a2c:	e1a00002 	mov	r0, r2
80000a30:	e12fff33 	blx	r3
}
80000a34:	e24bd004 	sub	sp, fp, #4
80000a38:	e8bd8800 	pop	{fp, pc}

80000a3c <_printk_hex_ulong>:
 * @return N/A
 */
static void _printk_hex_ulong(out_func_t out,
		const unsigned long num, int pad_zero,
		int min_width)
{
80000a3c:	e92d4800 	push	{fp, lr}
80000a40:	e28db004 	add	fp, sp, #4
80000a44:	e24dd020 	sub	sp, sp, #32
80000a48:	e50b0018 	str	r0, [fp, #-24]	; 0xffffffe8
80000a4c:	e50b101c 	str	r1, [fp, #-28]	; 0xffffffe4
80000a50:	e50b2020 	str	r2, [fp, #-32]	; 0xffffffe0
80000a54:	e50b3024 	str	r3, [fp, #-36]	; 0xffffffdc
	int size = sizeof(num) * 2;
80000a58:	e3a03008 	mov	r3, #8
80000a5c:	e50b3008 	str	r3, [fp, #-8]
	int found_largest_digit = 0;
80000a60:	e3a03000 	mov	r3, #0
80000a64:	e50b300c 	str	r3, [fp, #-12]
	int remaining = 8; /* 8 digits max */
80000a68:	e3a03008 	mov	r3, #8
80000a6c:	e50b3010 	str	r3, [fp, #-16]

	for (; size; size--) {
80000a70:	ea000032 	b	80000b40 <_printk_hex_ulong+0x104>
		char nibble = (num >> ((size - 1) << 2) & 0xf);
80000a74:	e51b3008 	ldr	r3, [fp, #-8]
80000a78:	e2433001 	sub	r3, r3, #1
80000a7c:	e1a03103 	lsl	r3, r3, #2
80000a80:	e51b201c 	ldr	r2, [fp, #-28]	; 0xffffffe4
80000a84:	e1a03332 	lsr	r3, r2, r3
80000a88:	e6ef3073 	uxtb	r3, r3
80000a8c:	e203300f 	and	r3, r3, #15
80000a90:	e54b3011 	strb	r3, [fp, #-17]	; 0xffffffef

		if (nibble || found_largest_digit || size == 1) {
80000a94:	e55b3011 	ldrb	r3, [fp, #-17]	; 0xffffffef
80000a98:	e3530000 	cmp	r3, #0
80000a9c:	1a000005 	bne	80000ab8 <_printk_hex_ulong+0x7c>
80000aa0:	e51b300c 	ldr	r3, [fp, #-12]
80000aa4:	e3530000 	cmp	r3, #0
80000aa8:	1a000002 	bne	80000ab8 <_printk_hex_ulong+0x7c>
80000aac:	e51b3008 	ldr	r3, [fp, #-8]
80000ab0:	e3530001 	cmp	r3, #1
80000ab4:	1a00000f 	bne	80000af8 <_printk_hex_ulong+0xbc>
			found_largest_digit = 1;
80000ab8:	e3a03001 	mov	r3, #1
80000abc:	e50b300c 	str	r3, [fp, #-12]
			nibble += nibble > 9 ? 87 : 48;
80000ac0:	e55b3011 	ldrb	r3, [fp, #-17]	; 0xffffffef
80000ac4:	e3530009 	cmp	r3, #9
80000ac8:	9a000001 	bls	80000ad4 <_printk_hex_ulong+0x98>
80000acc:	e3a02057 	mov	r2, #87	; 0x57
80000ad0:	ea000000 	b	80000ad8 <_printk_hex_ulong+0x9c>
80000ad4:	e3a02030 	mov	r2, #48	; 0x30
80000ad8:	e55b3011 	ldrb	r3, [fp, #-17]	; 0xffffffef
80000adc:	e0823003 	add	r3, r2, r3
80000ae0:	e54b3011 	strb	r3, [fp, #-17]	; 0xffffffef
			out((char)nibble);
80000ae4:	e55b2011 	ldrb	r2, [fp, #-17]	; 0xffffffef
80000ae8:	e51b3018 	ldr	r3, [fp, #-24]	; 0xffffffe8
80000aec:	e1a00002 	mov	r0, r2
80000af0:	e12fff33 	blx	r3
			continue;
80000af4:	ea00000e 	b	80000b34 <_printk_hex_ulong+0xf8>
		}

		if (remaining-- <= min_width) {
80000af8:	e51b3010 	ldr	r3, [fp, #-16]
80000afc:	e2432001 	sub	r2, r3, #1
80000b00:	e50b2010 	str	r2, [fp, #-16]
80000b04:	e51b2024 	ldr	r2, [fp, #-36]	; 0xffffffdc
80000b08:	e1530002 	cmp	r3, r2
80000b0c:	ca000008 	bgt	80000b34 <_printk_hex_ulong+0xf8>
			out((char)(pad_zero ? '0' : ' '));
80000b10:	e51b3020 	ldr	r3, [fp, #-32]	; 0xffffffe0
80000b14:	e3530000 	cmp	r3, #0
80000b18:	0a000001 	beq	80000b24 <_printk_hex_ulong+0xe8>
80000b1c:	e3a02030 	mov	r2, #48	; 0x30
80000b20:	ea000000 	b	80000b28 <_printk_hex_ulong+0xec>
80000b24:	e3a02020 	mov	r2, #32
80000b28:	e51b3018 	ldr	r3, [fp, #-24]	; 0xffffffe8
80000b2c:	e1a00002 	mov	r0, r2
80000b30:	e12fff33 	blx	r3
{
	int size = sizeof(num) * 2;
	int found_largest_digit = 0;
	int remaining = 8; /* 8 digits max */

	for (; size; size--) {
80000b34:	e51b3008 	ldr	r3, [fp, #-8]
80000b38:	e2433001 	sub	r3, r3, #1
80000b3c:	e50b3008 	str	r3, [fp, #-8]
80000b40:	e51b3008 	ldr	r3, [fp, #-8]
80000b44:	e3530000 	cmp	r3, #0
80000b48:	1affffc9 	bne	80000a74 <_printk_hex_ulong+0x38>

		if (remaining-- <= min_width) {
			out((char)(pad_zero ? '0' : ' '));
		}
	}
}
80000b4c:	e24bd004 	sub	sp, fp, #4
80000b50:	e8bd8800 	pop	{fp, pc}

80000b54 <_vprintk>:
 * @param ap Variable parameters
 *
 * @return N/A
 */
void _vprintk(out_func_t out, const char *fmt, va_list ap)
{
80000b54:	e92d4800 	push	{fp, lr}
80000b58:	e28db004 	add	fp, sp, #4
80000b5c:	e24dd030 	sub	sp, sp, #48	; 0x30
80000b60:	e50b0028 	str	r0, [fp, #-40]	; 0xffffffd8
80000b64:	e50b102c 	str	r1, [fp, #-44]	; 0xffffffd4
80000b68:	e50b2030 	str	r2, [fp, #-48]	; 0xffffffd0
	int might_format = 0; /* 1 if encountered a '%' */
80000b6c:	e3a03000 	mov	r3, #0
80000b70:	e50b3008 	str	r3, [fp, #-8]
	int pad_zero = 0;
80000b74:	e3a03000 	mov	r3, #0
80000b78:	e50b300c 	str	r3, [fp, #-12]
	int min_width = -1;
80000b7c:	e3e03000 	mvn	r3, #0
80000b80:	e50b3010 	str	r3, [fp, #-16]

	/* fmt has already been adjusted if needed */

	while (*fmt) {
80000b84:	ea0000f5 	b	80000f60 <_vprintk+0x40c>
		if (!might_format) {
80000b88:	e51b3008 	ldr	r3, [fp, #-8]
80000b8c:	e3530000 	cmp	r3, #0
80000b90:	1a000010 	bne	80000bd8 <_vprintk+0x84>
			if (*fmt != '%') {
80000b94:	e51b302c 	ldr	r3, [fp, #-44]	; 0xffffffd4
80000b98:	e5d33000 	ldrb	r3, [r3]
80000b9c:	e3530025 	cmp	r3, #37	; 0x25
80000ba0:	0a000005 	beq	80000bbc <_vprintk+0x68>
				out((char)*fmt);
80000ba4:	e51b302c 	ldr	r3, [fp, #-44]	; 0xffffffd4
80000ba8:	e5d32000 	ldrb	r2, [r3]
80000bac:	e51b3028 	ldr	r3, [fp, #-40]	; 0xffffffd8
80000bb0:	e1a00002 	mov	r0, r2
80000bb4:	e12fff33 	blx	r3
80000bb8:	ea0000e5 	b	80000f54 <_vprintk+0x400>
			} else {
				might_format = 1;
80000bbc:	e3a03001 	mov	r3, #1
80000bc0:	e50b3008 	str	r3, [fp, #-8]
				min_width = -1;
80000bc4:	e3e03000 	mvn	r3, #0
80000bc8:	e50b3010 	str	r3, [fp, #-16]
				pad_zero = 0;
80000bcc:	e3a03000 	mov	r3, #0
80000bd0:	e50b300c 	str	r3, [fp, #-12]
80000bd4:	ea0000de 	b	80000f54 <_vprintk+0x400>
			}
		} else {
			switch (*fmt) {
80000bd8:	e51b302c 	ldr	r3, [fp, #-44]	; 0xffffffd4
80000bdc:	e5d33000 	ldrb	r3, [r3]
80000be0:	e2433025 	sub	r3, r3, #37	; 0x25
80000be4:	e3530055 	cmp	r3, #85	; 0x55
80000be8:	979ff103 	ldrls	pc, [pc, r3, lsl #2]
80000bec:	ea0000cb 	b	80000f20 <_vprintk+0x3cc>
80000bf0:	80000f10 	andhi	r0, r0, r0, lsl pc
80000bf4:	80000f20 	andhi	r0, r0, r0, lsr #30
80000bf8:	80000f20 	andhi	r0, r0, r0, lsr #30
80000bfc:	80000f20 	andhi	r0, r0, r0, lsr #30
80000c00:	80000f20 	andhi	r0, r0, r0, lsr #30
80000c04:	80000f20 	andhi	r0, r0, r0, lsr #30
80000c08:	80000f20 	andhi	r0, r0, r0, lsr #30
80000c0c:	80000f20 	andhi	r0, r0, r0, lsr #30
80000c10:	80000f20 	andhi	r0, r0, r0, lsr #30
80000c14:	80000f20 	andhi	r0, r0, r0, lsr #30
80000c18:	80000f20 	andhi	r0, r0, r0, lsr #30
80000c1c:	80000d48 	andhi	r0, r0, r8, asr #26
80000c20:	80000d6c 	andhi	r0, r0, ip, ror #26
80000c24:	80000d6c 	andhi	r0, r0, ip, ror #26
80000c28:	80000d6c 	andhi	r0, r0, ip, ror #26
80000c2c:	80000d6c 	andhi	r0, r0, ip, ror #26
80000c30:	80000d6c 	andhi	r0, r0, ip, ror #26
80000c34:	80000d6c 	andhi	r0, r0, ip, ror #26
80000c38:	80000d6c 	andhi	r0, r0, ip, ror #26
80000c3c:	80000d6c 	andhi	r0, r0, ip, ror #26
80000c40:	80000d6c 	andhi	r0, r0, ip, ror #26
80000c44:	80000f20 	andhi	r0, r0, r0, lsr #30
80000c48:	80000f20 	andhi	r0, r0, r0, lsr #30
80000c4c:	80000f20 	andhi	r0, r0, r0, lsr #30
80000c50:	80000f20 	andhi	r0, r0, r0, lsr #30
80000c54:	80000f20 	andhi	r0, r0, r0, lsr #30
80000c58:	80000f20 	andhi	r0, r0, r0, lsr #30
80000c5c:	80000f20 	andhi	r0, r0, r0, lsr #30
80000c60:	80000f20 	andhi	r0, r0, r0, lsr #30
80000c64:	80000f20 	andhi	r0, r0, r0, lsr #30
80000c68:	80000f20 	andhi	r0, r0, r0, lsr #30
80000c6c:	80000f20 	andhi	r0, r0, r0, lsr #30
80000c70:	80000f20 	andhi	r0, r0, r0, lsr #30
80000c74:	80000f20 	andhi	r0, r0, r0, lsr #30
80000c78:	80000f20 	andhi	r0, r0, r0, lsr #30
80000c7c:	80000f20 	andhi	r0, r0, r0, lsr #30
80000c80:	80000f20 	andhi	r0, r0, r0, lsr #30
80000c84:	80000f20 	andhi	r0, r0, r0, lsr #30
80000c88:	80000f20 	andhi	r0, r0, r0, lsr #30
80000c8c:	80000f20 	andhi	r0, r0, r0, lsr #30
80000c90:	80000f20 	andhi	r0, r0, r0, lsr #30
80000c94:	80000f20 	andhi	r0, r0, r0, lsr #30
80000c98:	80000f20 	andhi	r0, r0, r0, lsr #30
80000c9c:	80000f20 	andhi	r0, r0, r0, lsr #30
80000ca0:	80000f20 	andhi	r0, r0, r0, lsr #30
80000ca4:	80000f20 	andhi	r0, r0, r0, lsr #30
80000ca8:	80000f20 	andhi	r0, r0, r0, lsr #30
80000cac:	80000f20 	andhi	r0, r0, r0, lsr #30
80000cb0:	80000f20 	andhi	r0, r0, r0, lsr #30
80000cb4:	80000f20 	andhi	r0, r0, r0, lsr #30
80000cb8:	80000f20 	andhi	r0, r0, r0, lsr #30
80000cbc:	80000e70 	andhi	r0, r0, r0, ror lr
80000cc0:	80000f20 	andhi	r0, r0, r0, lsr #30
80000cc4:	80000f20 	andhi	r0, r0, r0, lsr #30
80000cc8:	80000f20 	andhi	r0, r0, r0, lsr #30
80000ccc:	80000f20 	andhi	r0, r0, r0, lsr #30
80000cd0:	80000f20 	andhi	r0, r0, r0, lsr #30
80000cd4:	80000f20 	andhi	r0, r0, r0, lsr #30
80000cd8:	80000f20 	andhi	r0, r0, r0, lsr #30
80000cdc:	80000f20 	andhi	r0, r0, r0, lsr #30
80000ce0:	80000f20 	andhi	r0, r0, r0, lsr #30
80000ce4:	80000f20 	andhi	r0, r0, r0, lsr #30
80000ce8:	80000ee4 	andhi	r0, r0, r4, ror #29
80000cec:	80000dbc 			; <UNDEFINED> instruction: 0x80000dbc
80000cf0:	80000f20 	andhi	r0, r0, r0, lsr #30
80000cf4:	80000f20 	andhi	r0, r0, r0, lsr #30
80000cf8:	80000f20 	andhi	r0, r0, r0, lsr #30
80000cfc:	80000f50 	andhi	r0, r0, r0, asr pc
80000d00:	80000dbc 			; <UNDEFINED> instruction: 0x80000dbc
80000d04:	80000f20 	andhi	r0, r0, r0, lsr #30
80000d08:	80000f20 	andhi	r0, r0, r0, lsr #30
80000d0c:	80000f50 	andhi	r0, r0, r0, asr pc
80000d10:	80000f20 	andhi	r0, r0, r0, lsr #30
80000d14:	80000f20 	andhi	r0, r0, r0, lsr #30
80000d18:	80000f20 	andhi	r0, r0, r0, lsr #30
80000d1c:	80000e48 	andhi	r0, r0, r8, asr #28
80000d20:	80000f20 	andhi	r0, r0, r0, lsr #30
80000d24:	80000f20 	andhi	r0, r0, r0, lsr #30
80000d28:	80000e9c 	mulhi	r0, ip, lr
80000d2c:	80000f20 	andhi	r0, r0, r0, lsr #30
80000d30:	80000e1c 	andhi	r0, r0, ip, lsl lr
80000d34:	80000f20 	andhi	r0, r0, r0, lsr #30
80000d38:	80000f20 	andhi	r0, r0, r0, lsr #30
80000d3c:	80000e70 	andhi	r0, r0, r0, ror lr
80000d40:	80000f20 	andhi	r0, r0, r0, lsr #30
80000d44:	80000f50 	andhi	r0, r0, r0, asr pc
				case '0':
					if (min_width < 0 && pad_zero == 0) {
80000d48:	e51b3010 	ldr	r3, [fp, #-16]
80000d4c:	e3530000 	cmp	r3, #0
80000d50:	aa000005 	bge	80000d6c <_vprintk+0x218>
80000d54:	e51b300c 	ldr	r3, [fp, #-12]
80000d58:	e3530000 	cmp	r3, #0
80000d5c:	1a000002 	bne	80000d6c <_vprintk+0x218>
						pad_zero = 1;
80000d60:	e3a03001 	mov	r3, #1
80000d64:	e50b300c 	str	r3, [fp, #-12]
						goto still_might_format;
80000d68:	ea000079 	b	80000f54 <_vprintk+0x400>
					}
					/* Fall through */
				case '1' ... '9':
					if (min_width < 0) {
80000d6c:	e51b3010 	ldr	r3, [fp, #-16]
80000d70:	e3530000 	cmp	r3, #0
80000d74:	aa000004 	bge	80000d8c <_vprintk+0x238>
						min_width = *fmt - '0';
80000d78:	e51b302c 	ldr	r3, [fp, #-44]	; 0xffffffd4
80000d7c:	e5d33000 	ldrb	r3, [r3]
80000d80:	e2433030 	sub	r3, r3, #48	; 0x30
80000d84:	e50b3010 	str	r3, [fp, #-16]
					} else {
						min_width = 10 * min_width + *fmt - '0';
					}
					goto still_might_format;
80000d88:	ea000071 	b	80000f54 <_vprintk+0x400>
					/* Fall through */
				case '1' ... '9':
					if (min_width < 0) {
						min_width = *fmt - '0';
					} else {
						min_width = 10 * min_width + *fmt - '0';
80000d8c:	e51b2010 	ldr	r2, [fp, #-16]
80000d90:	e1a03002 	mov	r3, r2
80000d94:	e1a03103 	lsl	r3, r3, #2
80000d98:	e0833002 	add	r3, r3, r2
80000d9c:	e1a03083 	lsl	r3, r3, #1
80000da0:	e1a02003 	mov	r2, r3
80000da4:	e51b302c 	ldr	r3, [fp, #-44]	; 0xffffffd4
80000da8:	e5d33000 	ldrb	r3, [r3]
80000dac:	e0823003 	add	r3, r2, r3
80000db0:	e2433030 	sub	r3, r3, #48	; 0x30
80000db4:	e50b3010 	str	r3, [fp, #-16]
					}
					goto still_might_format;
80000db8:	ea000065 	b	80000f54 <_vprintk+0x400>
				case 'h':
					/* FIXME: do nothing for these modifiers */
					goto still_might_format;
				case 'd':
				case 'i': {
						  long d = va_arg(ap, long);
80000dbc:	e51b3030 	ldr	r3, [fp, #-48]	; 0xffffffd0
80000dc0:	e2832004 	add	r2, r3, #4
80000dc4:	e50b2030 	str	r2, [fp, #-48]	; 0xffffffd0
80000dc8:	e5933000 	ldr	r3, [r3]
80000dcc:	e50b3014 	str	r3, [fp, #-20]	; 0xffffffec

						  if (d < 0) {
80000dd0:	e51b3014 	ldr	r3, [fp, #-20]	; 0xffffffec
80000dd4:	e3530000 	cmp	r3, #0
80000dd8:	aa000008 	bge	80000e00 <_vprintk+0x2ac>
							  out((char)'-');
80000ddc:	e51b3028 	ldr	r3, [fp, #-40]	; 0xffffffd8
80000de0:	e3a0002d 	mov	r0, #45	; 0x2d
80000de4:	e12fff33 	blx	r3
							  d = -d;
80000de8:	e51b3014 	ldr	r3, [fp, #-20]	; 0xffffffec
80000dec:	e2633000 	rsb	r3, r3, #0
80000df0:	e50b3014 	str	r3, [fp, #-20]	; 0xffffffec
							  min_width--;
80000df4:	e51b3010 	ldr	r3, [fp, #-16]
80000df8:	e2433001 	sub	r3, r3, #1
80000dfc:	e50b3010 	str	r3, [fp, #-16]
						  }
						  _printk_dec_ulong(out, d, pad_zero,
80000e00:	e51b3014 	ldr	r3, [fp, #-20]	; 0xffffffec
80000e04:	e51b0028 	ldr	r0, [fp, #-40]	; 0xffffffd8
80000e08:	e1a01003 	mov	r1, r3
80000e0c:	e51b200c 	ldr	r2, [fp, #-12]
80000e10:	e51b3010 	ldr	r3, [fp, #-16]
80000e14:	ebfffeb0 	bl	800008dc <_printk_dec_ulong>
								  min_width);
						  break;
80000e18:	ea000049 	b	80000f44 <_vprintk+0x3f0>
					  }
				case 'u': {
						  unsigned long u = va_arg(
80000e1c:	e51b3030 	ldr	r3, [fp, #-48]	; 0xffffffd0
80000e20:	e2832004 	add	r2, r3, #4
80000e24:	e50b2030 	str	r2, [fp, #-48]	; 0xffffffd0
80000e28:	e5933000 	ldr	r3, [r3]
80000e2c:	e50b301c 	str	r3, [fp, #-28]	; 0xffffffe4
								  ap, unsigned long);
						  _printk_dec_ulong(out, u, pad_zero,
80000e30:	e51b0028 	ldr	r0, [fp, #-40]	; 0xffffffd8
80000e34:	e51b101c 	ldr	r1, [fp, #-28]	; 0xffffffe4
80000e38:	e51b200c 	ldr	r2, [fp, #-12]
80000e3c:	e51b3010 	ldr	r3, [fp, #-16]
80000e40:	ebfffea5 	bl	800008dc <_printk_dec_ulong>
								  min_width);
						  break;
80000e44:	ea00003e 	b	80000f44 <_vprintk+0x3f0>
					  }
				case 'p':
					  out('0');
80000e48:	e51b3028 	ldr	r3, [fp, #-40]	; 0xffffffd8
80000e4c:	e3a00030 	mov	r0, #48	; 0x30
80000e50:	e12fff33 	blx	r3
					  out('x');
80000e54:	e51b3028 	ldr	r3, [fp, #-40]	; 0xffffffd8
80000e58:	e3a00078 	mov	r0, #120	; 0x78
80000e5c:	e12fff33 	blx	r3
					  /* left-pad pointers with zeros */
					  pad_zero = 1;
80000e60:	e3a03001 	mov	r3, #1
80000e64:	e50b300c 	str	r3, [fp, #-12]
					  min_width = 8;
80000e68:	e3a03008 	mov	r3, #8
80000e6c:	e50b3010 	str	r3, [fp, #-16]
					  /* Fall through */
				case 'x':
				case 'X': {
						  unsigned long x = va_arg(
80000e70:	e51b3030 	ldr	r3, [fp, #-48]	; 0xffffffd0
80000e74:	e2832004 	add	r2, r3, #4
80000e78:	e50b2030 	str	r2, [fp, #-48]	; 0xffffffd0
80000e7c:	e5933000 	ldr	r3, [r3]
80000e80:	e50b3020 	str	r3, [fp, #-32]	; 0xffffffe0
								  ap, unsigned long);
						  _printk_hex_ulong(out, x, pad_zero,
80000e84:	e51b0028 	ldr	r0, [fp, #-40]	; 0xffffffd8
80000e88:	e51b1020 	ldr	r1, [fp, #-32]	; 0xffffffe0
80000e8c:	e51b200c 	ldr	r2, [fp, #-12]
80000e90:	e51b3010 	ldr	r3, [fp, #-16]
80000e94:	ebfffee8 	bl	80000a3c <_printk_hex_ulong>
								  min_width);
						  break;
80000e98:	ea000029 	b	80000f44 <_vprintk+0x3f0>
					  }
				case 's': {
						  char *s = va_arg(ap, char *);
80000e9c:	e51b3030 	ldr	r3, [fp, #-48]	; 0xffffffd0
80000ea0:	e2832004 	add	r2, r3, #4
80000ea4:	e50b2030 	str	r2, [fp, #-48]	; 0xffffffd0
80000ea8:	e5933000 	ldr	r3, [r3]
80000eac:	e50b3018 	str	r3, [fp, #-24]	; 0xffffffe8

						  while (*s)
80000eb0:	ea000006 	b	80000ed0 <_vprintk+0x37c>
							  out((char)(*s++));
80000eb4:	e51b3018 	ldr	r3, [fp, #-24]	; 0xffffffe8
80000eb8:	e2832001 	add	r2, r3, #1
80000ebc:	e50b2018 	str	r2, [fp, #-24]	; 0xffffffe8
80000ec0:	e5d32000 	ldrb	r2, [r3]
80000ec4:	e51b3028 	ldr	r3, [fp, #-40]	; 0xffffffd8
80000ec8:	e1a00002 	mov	r0, r2
80000ecc:	e12fff33 	blx	r3
						  break;
					  }
				case 's': {
						  char *s = va_arg(ap, char *);

						  while (*s)
80000ed0:	e51b3018 	ldr	r3, [fp, #-24]	; 0xffffffe8
80000ed4:	e5d33000 	ldrb	r3, [r3]
80000ed8:	e3530000 	cmp	r3, #0
80000edc:	1afffff4 	bne	80000eb4 <_vprintk+0x360>
							  out((char)(*s++));
						  break;
80000ee0:	ea000017 	b	80000f44 <_vprintk+0x3f0>
					  }
				case 'c': {
						  int c = va_arg(ap, int);
80000ee4:	e51b3030 	ldr	r3, [fp, #-48]	; 0xffffffd0
80000ee8:	e2832004 	add	r2, r3, #4
80000eec:	e50b2030 	str	r2, [fp, #-48]	; 0xffffffd0
80000ef0:	e5933000 	ldr	r3, [r3]
80000ef4:	e50b3024 	str	r3, [fp, #-36]	; 0xffffffdc

						  out(c);
80000ef8:	e51b3024 	ldr	r3, [fp, #-36]	; 0xffffffdc
80000efc:	e6ef2073 	uxtb	r2, r3
80000f00:	e51b3028 	ldr	r3, [fp, #-40]	; 0xffffffd8
80000f04:	e1a00002 	mov	r0, r2
80000f08:	e12fff33 	blx	r3
						  break;
80000f0c:	ea00000c 	b	80000f44 <_vprintk+0x3f0>
					  }
				case '%': {
						  out((char)'%');
80000f10:	e51b3028 	ldr	r3, [fp, #-40]	; 0xffffffd8
80000f14:	e3a00025 	mov	r0, #37	; 0x25
80000f18:	e12fff33 	blx	r3
						  break;
80000f1c:	ea000008 	b	80000f44 <_vprintk+0x3f0>
					  }
				default:
					  out((char)'%');
80000f20:	e51b3028 	ldr	r3, [fp, #-40]	; 0xffffffd8
80000f24:	e3a00025 	mov	r0, #37	; 0x25
80000f28:	e12fff33 	blx	r3
					  out((char)*fmt);
80000f2c:	e51b302c 	ldr	r3, [fp, #-44]	; 0xffffffd4
80000f30:	e5d32000 	ldrb	r2, [r3]
80000f34:	e51b3028 	ldr	r3, [fp, #-40]	; 0xffffffd8
80000f38:	e1a00002 	mov	r0, r2
80000f3c:	e12fff33 	blx	r3
					  break;
80000f40:	e1a00000 	nop			; (mov r0, r0)
			}
			might_format = 0;
80000f44:	e3a03000 	mov	r3, #0
80000f48:	e50b3008 	str	r3, [fp, #-8]
80000f4c:	ea000000 	b	80000f54 <_vprintk+0x400>
					goto still_might_format;
				case 'z':
				case 'l':
				case 'h':
					/* FIXME: do nothing for these modifiers */
					goto still_might_format;
80000f50:	e1a00000 	nop			; (mov r0, r0)
					  break;
			}
			might_format = 0;
		}
still_might_format:
		++fmt;
80000f54:	e51b302c 	ldr	r3, [fp, #-44]	; 0xffffffd4
80000f58:	e2833001 	add	r3, r3, #1
80000f5c:	e50b302c 	str	r3, [fp, #-44]	; 0xffffffd4
	int pad_zero = 0;
	int min_width = -1;

	/* fmt has already been adjusted if needed */

	while (*fmt) {
80000f60:	e51b302c 	ldr	r3, [fp, #-44]	; 0xffffffd4
80000f64:	e5d33000 	ldrb	r3, [r3]
80000f68:	e3530000 	cmp	r3, #0
80000f6c:	1affff05 	bne	80000b88 <_vprintk+0x34>
			might_format = 0;
		}
still_might_format:
		++fmt;
	}
}
80000f70:	e24bd004 	sub	sp, fp, #4
80000f74:	e8bd8800 	pop	{fp, pc}

80000f78 <memcmp>:
   void *memmove (void *, const void *, int)
   void *memset (void *, int, int)
   void *memchr (const void *, int, int)
 */
int memcmp (const void *dst, const void *src, int n) 
{
80000f78:	e52db004 	push	{fp}		; (str fp, [sp, #-4]!)
80000f7c:	e28db000 	add	fp, sp, #0
80000f80:	e24dd01c 	sub	sp, sp, #28
80000f84:	e50b0010 	str	r0, [fp, #-16]
80000f88:	e50b1014 	str	r1, [fp, #-20]	; 0xffffffec
80000f8c:	e50b2018 	str	r2, [fp, #-24]	; 0xffffffe8
	const char *a = dst;
80000f90:	e51b3010 	ldr	r3, [fp, #-16]
80000f94:	e50b3008 	str	r3, [fp, #-8]
	const char *b = src;
80000f98:	e51b3014 	ldr	r3, [fp, #-20]	; 0xffffffec
80000f9c:	e50b300c 	str	r3, [fp, #-12]
	if (!n)
80000fa0:	e51b3018 	ldr	r3, [fp, #-24]	; 0xffffffe8
80000fa4:	e3530000 	cmp	r3, #0
80000fa8:	1a000001 	bne	80000fb4 <memcmp+0x3c>
		return 0;
80000fac:	e3a03000 	mov	r3, #0
80000fb0:	ea000015 	b	8000100c <memcmp+0x94>

	while ((n-- > 0) && (*a++ == *b++))
80000fb4:	e1a00000 	nop			; (mov r0, r0)
80000fb8:	e51b3018 	ldr	r3, [fp, #-24]	; 0xffffffe8
80000fbc:	e2432001 	sub	r2, r3, #1
80000fc0:	e50b2018 	str	r2, [fp, #-24]	; 0xffffffe8
80000fc4:	e3530000 	cmp	r3, #0
80000fc8:	da000009 	ble	80000ff4 <memcmp+0x7c>
80000fcc:	e51b3008 	ldr	r3, [fp, #-8]
80000fd0:	e2832001 	add	r2, r3, #1
80000fd4:	e50b2008 	str	r2, [fp, #-8]
80000fd8:	e5d32000 	ldrb	r2, [r3]
80000fdc:	e51b300c 	ldr	r3, [fp, #-12]
80000fe0:	e2831001 	add	r1, r3, #1
80000fe4:	e50b100c 	str	r1, [fp, #-12]
80000fe8:	e5d33000 	ldrb	r3, [r3]
80000fec:	e1520003 	cmp	r2, r3
80000ff0:	0afffff0 	beq	80000fb8 <memcmp+0x40>
		;
	
	return (*a - *b);
80000ff4:	e51b3008 	ldr	r3, [fp, #-8]
80000ff8:	e5d33000 	ldrb	r3, [r3]
80000ffc:	e1a02003 	mov	r2, r3
80001000:	e51b300c 	ldr	r3, [fp, #-12]
80001004:	e5d33000 	ldrb	r3, [r3]
80001008:	e0633002 	rsb	r3, r3, r2
}
8000100c:	e1a00003 	mov	r0, r3
80001010:	e24bd000 	sub	sp, fp, #0
80001014:	e49db004 	pop	{fp}		; (ldr fp, [sp], #4)
80001018:	e12fff1e 	bx	lr

8000101c <strlen>:
int strlen (const char *str)
{ 
8000101c:	e52db004 	push	{fp}		; (str fp, [sp, #-4]!)
80001020:	e28db000 	add	fp, sp, #0
80001024:	e24dd014 	sub	sp, sp, #20
80001028:	e50b0010 	str	r0, [fp, #-16]
	int i = 0;
8000102c:	e3a03000 	mov	r3, #0
80001030:	e50b3008 	str	r3, [fp, #-8]
	while(*(str+i) !='\0') 
80001034:	ea000002 	b	80001044 <strlen+0x28>
		i++;
80001038:	e51b3008 	ldr	r3, [fp, #-8]
8000103c:	e2833001 	add	r3, r3, #1
80001040:	e50b3008 	str	r3, [fp, #-8]
	return (*a - *b);
}
int strlen (const char *str)
{ 
	int i = 0;
	while(*(str+i) !='\0') 
80001044:	e51b3008 	ldr	r3, [fp, #-8]
80001048:	e51b2010 	ldr	r2, [fp, #-16]
8000104c:	e0823003 	add	r3, r2, r3
80001050:	e5d33000 	ldrb	r3, [r3]
80001054:	e3530000 	cmp	r3, #0
80001058:	1afffff6 	bne	80001038 <strlen+0x1c>
		i++;
	return i;
8000105c:	e51b3008 	ldr	r3, [fp, #-8]
}
80001060:	e1a00003 	mov	r0, r3
80001064:	e24bd000 	sub	sp, fp, #0
80001068:	e49db004 	pop	{fp}		; (ldr fp, [sp], #4)
8000106c:	e12fff1e 	bx	lr

80001070 <strcpy>:

char *strcpy (char *dst, const char *src) 
{
80001070:	e52db004 	push	{fp}		; (str fp, [sp, #-4]!)
80001074:	e28db000 	add	fp, sp, #0
80001078:	e24dd014 	sub	sp, sp, #20
8000107c:	e50b0010 	str	r0, [fp, #-16]
80001080:	e50b1014 	str	r1, [fp, #-20]	; 0xffffffec
	char *d = dst;
80001084:	e51b3010 	ldr	r3, [fp, #-16]
80001088:	e50b3008 	str	r3, [fp, #-8]
	while ((*dst++ = *src++));
8000108c:	e1a00000 	nop			; (mov r0, r0)
80001090:	e51b3010 	ldr	r3, [fp, #-16]
80001094:	e2832001 	add	r2, r3, #1
80001098:	e50b2010 	str	r2, [fp, #-16]
8000109c:	e51b2014 	ldr	r2, [fp, #-20]	; 0xffffffec
800010a0:	e2821001 	add	r1, r2, #1
800010a4:	e50b1014 	str	r1, [fp, #-20]	; 0xffffffec
800010a8:	e5d22000 	ldrb	r2, [r2]
800010ac:	e5c32000 	strb	r2, [r3]
800010b0:	e5d33000 	ldrb	r3, [r3]
800010b4:	e3530000 	cmp	r3, #0
800010b8:	1afffff4 	bne	80001090 <strcpy+0x20>
	return d;
800010bc:	e51b3008 	ldr	r3, [fp, #-8]
}
800010c0:	e1a00003 	mov	r0, r3
800010c4:	e24bd000 	sub	sp, fp, #0
800010c8:	e49db004 	pop	{fp}		; (ldr fp, [sp], #4)
800010cc:	e12fff1e 	bx	lr

800010d0 <strncpy>:


char *strncpy (char *dst, const char *src, int n)
{
800010d0:	e52db004 	push	{fp}		; (str fp, [sp, #-4]!)
800010d4:	e28db000 	add	fp, sp, #0
800010d8:	e24dd01c 	sub	sp, sp, #28
800010dc:	e50b0010 	str	r0, [fp, #-16]
800010e0:	e50b1014 	str	r1, [fp, #-20]	; 0xffffffec
800010e4:	e50b2018 	str	r2, [fp, #-24]	; 0xffffffe8
	char *d = dst;
800010e8:	e51b3010 	ldr	r3, [fp, #-16]
800010ec:	e50b3008 	str	r3, [fp, #-8]
	while ((n-- > 0) && (*dst++ = *src++) );
800010f0:	e1a00000 	nop			; (mov r0, r0)
800010f4:	e51b3018 	ldr	r3, [fp, #-24]	; 0xffffffe8
800010f8:	e2432001 	sub	r2, r3, #1
800010fc:	e50b2018 	str	r2, [fp, #-24]	; 0xffffffe8
80001100:	e3530000 	cmp	r3, #0
80001104:	da00000a 	ble	80001134 <strncpy+0x64>
80001108:	e51b3010 	ldr	r3, [fp, #-16]
8000110c:	e2832001 	add	r2, r3, #1
80001110:	e50b2010 	str	r2, [fp, #-16]
80001114:	e51b2014 	ldr	r2, [fp, #-20]	; 0xffffffec
80001118:	e2821001 	add	r1, r2, #1
8000111c:	e50b1014 	str	r1, [fp, #-20]	; 0xffffffec
80001120:	e5d22000 	ldrb	r2, [r2]
80001124:	e5c32000 	strb	r2, [r3]
80001128:	e5d33000 	ldrb	r3, [r3]
8000112c:	e3530000 	cmp	r3, #0
80001130:	1affffef 	bne	800010f4 <strncpy+0x24>
	while (n > 0) {
80001134:	ea000007 	b	80001158 <strncpy+0x88>
		*dst++ = '\0';
80001138:	e51b3010 	ldr	r3, [fp, #-16]
8000113c:	e2832001 	add	r2, r3, #1
80001140:	e50b2010 	str	r2, [fp, #-16]
80001144:	e3a02000 	mov	r2, #0
80001148:	e5c32000 	strb	r2, [r3]
		n--;
8000114c:	e51b3018 	ldr	r3, [fp, #-24]	; 0xffffffe8
80001150:	e2433001 	sub	r3, r3, #1
80001154:	e50b3018 	str	r3, [fp, #-24]	; 0xffffffe8

char *strncpy (char *dst, const char *src, int n)
{
	char *d = dst;
	while ((n-- > 0) && (*dst++ = *src++) );
	while (n > 0) {
80001158:	e51b3018 	ldr	r3, [fp, #-24]	; 0xffffffe8
8000115c:	e3530000 	cmp	r3, #0
80001160:	cafffff4 	bgt	80001138 <strncpy+0x68>
		*dst++ = '\0';
		n--;
	}
	return d;
80001164:	e51b3008 	ldr	r3, [fp, #-8]
}
80001168:	e1a00003 	mov	r0, r3
8000116c:	e24bd000 	sub	sp, fp, #0
80001170:	e49db004 	pop	{fp}		; (ldr fp, [sp], #4)
80001174:	e12fff1e 	bx	lr

80001178 <strcat>:
char *strcat (char *dst, const char *src) 
{
80001178:	e92d4800 	push	{fp, lr}
8000117c:	e28db004 	add	fp, sp, #4
80001180:	e24dd010 	sub	sp, sp, #16
80001184:	e50b0010 	str	r0, [fp, #-16]
80001188:	e50b1014 	str	r1, [fp, #-20]	; 0xffffffec
	int i = strlen(dst);
8000118c:	e51b0010 	ldr	r0, [fp, #-16]
80001190:	ebffffa1 	bl	8000101c <strlen>
80001194:	e50b0008 	str	r0, [fp, #-8]
	while ((*(dst + i++) = (*src++)));
80001198:	e1a00000 	nop			; (mov r0, r0)
8000119c:	e51b3008 	ldr	r3, [fp, #-8]
800011a0:	e2832001 	add	r2, r3, #1
800011a4:	e50b2008 	str	r2, [fp, #-8]
800011a8:	e1a02003 	mov	r2, r3
800011ac:	e51b3010 	ldr	r3, [fp, #-16]
800011b0:	e0833002 	add	r3, r3, r2
800011b4:	e51b2014 	ldr	r2, [fp, #-20]	; 0xffffffec
800011b8:	e2821001 	add	r1, r2, #1
800011bc:	e50b1014 	str	r1, [fp, #-20]	; 0xffffffec
800011c0:	e5d22000 	ldrb	r2, [r2]
800011c4:	e5c32000 	strb	r2, [r3]
800011c8:	e5d33000 	ldrb	r3, [r3]
800011cc:	e3530000 	cmp	r3, #0
800011d0:	1afffff1 	bne	8000119c <strcat+0x24>

	return dst;
800011d4:	e51b3010 	ldr	r3, [fp, #-16]
}
800011d8:	e1a00003 	mov	r0, r3
800011dc:	e24bd004 	sub	sp, fp, #4
800011e0:	e8bd8800 	pop	{fp, pc}

800011e4 <strncat>:
char *strncat (char *dst, const char *src, int n)
{
800011e4:	e92d4800 	push	{fp, lr}
800011e8:	e28db004 	add	fp, sp, #4
800011ec:	e24dd018 	sub	sp, sp, #24
800011f0:	e50b0010 	str	r0, [fp, #-16]
800011f4:	e50b1014 	str	r1, [fp, #-20]	; 0xffffffec
800011f8:	e50b2018 	str	r2, [fp, #-24]	; 0xffffffe8
	int i = strlen(dst);
800011fc:	e51b0010 	ldr	r0, [fp, #-16]
80001200:	ebffff85 	bl	8000101c <strlen>
80001204:	e50b0008 	str	r0, [fp, #-8]
	while ((n-- > 0) && (*(dst+i++) = (*src++)));
80001208:	e1a00000 	nop			; (mov r0, r0)
8000120c:	e51b3018 	ldr	r3, [fp, #-24]	; 0xffffffe8
80001210:	e2432001 	sub	r2, r3, #1
80001214:	e50b2018 	str	r2, [fp, #-24]	; 0xffffffe8
80001218:	e3530000 	cmp	r3, #0
8000121c:	da00000d 	ble	80001258 <strncat+0x74>
80001220:	e51b3008 	ldr	r3, [fp, #-8]
80001224:	e2832001 	add	r2, r3, #1
80001228:	e50b2008 	str	r2, [fp, #-8]
8000122c:	e1a02003 	mov	r2, r3
80001230:	e51b3010 	ldr	r3, [fp, #-16]
80001234:	e0833002 	add	r3, r3, r2
80001238:	e51b2014 	ldr	r2, [fp, #-20]	; 0xffffffec
8000123c:	e2821001 	add	r1, r2, #1
80001240:	e50b1014 	str	r1, [fp, #-20]	; 0xffffffec
80001244:	e5d22000 	ldrb	r2, [r2]
80001248:	e5c32000 	strb	r2, [r3]
8000124c:	e5d33000 	ldrb	r3, [r3]
80001250:	e3530000 	cmp	r3, #0
80001254:	1affffec 	bne	8000120c <strncat+0x28>
	while (n > 0) {
80001258:	ea00000a 	b	80001288 <strncat+0xa4>
		*(dst + i++) = '\0';
8000125c:	e51b3008 	ldr	r3, [fp, #-8]
80001260:	e2832001 	add	r2, r3, #1
80001264:	e50b2008 	str	r2, [fp, #-8]
80001268:	e1a02003 	mov	r2, r3
8000126c:	e51b3010 	ldr	r3, [fp, #-16]
80001270:	e0833002 	add	r3, r3, r2
80001274:	e3a02000 	mov	r2, #0
80001278:	e5c32000 	strb	r2, [r3]
		n--;
8000127c:	e51b3018 	ldr	r3, [fp, #-24]	; 0xffffffe8
80001280:	e2433001 	sub	r3, r3, #1
80001284:	e50b3018 	str	r3, [fp, #-24]	; 0xffffffe8
}
char *strncat (char *dst, const char *src, int n)
{
	int i = strlen(dst);
	while ((n-- > 0) && (*(dst+i++) = (*src++)));
	while (n > 0) {
80001288:	e51b3018 	ldr	r3, [fp, #-24]	; 0xffffffe8
8000128c:	e3530000 	cmp	r3, #0
80001290:	cafffff1 	bgt	8000125c <strncat+0x78>
		*(dst + i++) = '\0';
		n--;
	}		
	return dst;
80001294:	e51b3010 	ldr	r3, [fp, #-16]

}
80001298:	e1a00003 	mov	r0, r3
8000129c:	e24bd004 	sub	sp, fp, #4
800012a0:	e8bd8800 	pop	{fp, pc}

800012a4 <strcmp>:

int strcmp (char const* dst, const char *src)
{
800012a4:	e52db004 	push	{fp}		; (str fp, [sp, #-4]!)
800012a8:	e28db000 	add	fp, sp, #0
800012ac:	e24dd00c 	sub	sp, sp, #12
800012b0:	e50b0008 	str	r0, [fp, #-8]
800012b4:	e50b100c 	str	r1, [fp, #-12]
	while ( *dst && *src) {
800012b8:	ea00000c 	b	800012f0 <strcmp+0x4c>
		if (*dst != *src)
800012bc:	e51b3008 	ldr	r3, [fp, #-8]
800012c0:	e5d32000 	ldrb	r2, [r3]
800012c4:	e51b300c 	ldr	r3, [fp, #-12]
800012c8:	e5d33000 	ldrb	r3, [r3]
800012cc:	e1520003 	cmp	r2, r3
800012d0:	0a000000 	beq	800012d8 <strcmp+0x34>
			break;
800012d4:	ea00000d 	b	80001310 <strcmp+0x6c>
		dst++;
800012d8:	e51b3008 	ldr	r3, [fp, #-8]
800012dc:	e2833001 	add	r3, r3, #1
800012e0:	e50b3008 	str	r3, [fp, #-8]
		src++;
800012e4:	e51b300c 	ldr	r3, [fp, #-12]
800012e8:	e2833001 	add	r3, r3, #1
800012ec:	e50b300c 	str	r3, [fp, #-12]

}

int strcmp (char const* dst, const char *src)
{
	while ( *dst && *src) {
800012f0:	e51b3008 	ldr	r3, [fp, #-8]
800012f4:	e5d33000 	ldrb	r3, [r3]
800012f8:	e3530000 	cmp	r3, #0
800012fc:	0a000003 	beq	80001310 <strcmp+0x6c>
80001300:	e51b300c 	ldr	r3, [fp, #-12]
80001304:	e5d33000 	ldrb	r3, [r3]
80001308:	e3530000 	cmp	r3, #0
8000130c:	1affffea 	bne	800012bc <strcmp+0x18>
		if (*dst != *src)
			break;
		dst++;
		src++;
	}
	return (*dst - *src);
80001310:	e51b3008 	ldr	r3, [fp, #-8]
80001314:	e5d33000 	ldrb	r3, [r3]
80001318:	e1a02003 	mov	r2, r3
8000131c:	e51b300c 	ldr	r3, [fp, #-12]
80001320:	e5d33000 	ldrb	r3, [r3]
80001324:	e0633002 	rsb	r3, r3, r2

}
80001328:	e1a00003 	mov	r0, r3
8000132c:	e24bd000 	sub	sp, fp, #0
80001330:	e49db004 	pop	{fp}		; (ldr fp, [sp], #4)
80001334:	e12fff1e 	bx	lr

80001338 <strncmp>:


int strncmp (char const *dst, const char *src, int n)
{  
80001338:	e52db004 	push	{fp}		; (str fp, [sp, #-4]!)
8000133c:	e28db000 	add	fp, sp, #0
80001340:	e24dd014 	sub	sp, sp, #20
80001344:	e50b0008 	str	r0, [fp, #-8]
80001348:	e50b100c 	str	r1, [fp, #-12]
8000134c:	e50b2010 	str	r2, [fp, #-16]

	while ( *dst && *src && n > 0) {
80001350:	ea00000f 	b	80001394 <strncmp+0x5c>
		if (*dst != *src)
80001354:	e51b3008 	ldr	r3, [fp, #-8]
80001358:	e5d32000 	ldrb	r2, [r3]
8000135c:	e51b300c 	ldr	r3, [fp, #-12]
80001360:	e5d33000 	ldrb	r3, [r3]
80001364:	e1520003 	cmp	r2, r3
80001368:	0a000000 	beq	80001370 <strncmp+0x38>
			break;
8000136c:	ea000013 	b	800013c0 <strncmp+0x88>
		dst++;
80001370:	e51b3008 	ldr	r3, [fp, #-8]
80001374:	e2833001 	add	r3, r3, #1
80001378:	e50b3008 	str	r3, [fp, #-8]
		src++;
8000137c:	e51b300c 	ldr	r3, [fp, #-12]
80001380:	e2833001 	add	r3, r3, #1
80001384:	e50b300c 	str	r3, [fp, #-12]
		n--;
80001388:	e51b3010 	ldr	r3, [fp, #-16]
8000138c:	e2433001 	sub	r3, r3, #1
80001390:	e50b3010 	str	r3, [fp, #-16]


int strncmp (char const *dst, const char *src, int n)
{  

	while ( *dst && *src && n > 0) {
80001394:	e51b3008 	ldr	r3, [fp, #-8]
80001398:	e5d33000 	ldrb	r3, [r3]
8000139c:	e3530000 	cmp	r3, #0
800013a0:	0a000006 	beq	800013c0 <strncmp+0x88>
800013a4:	e51b300c 	ldr	r3, [fp, #-12]
800013a8:	e5d33000 	ldrb	r3, [r3]
800013ac:	e3530000 	cmp	r3, #0
800013b0:	0a000002 	beq	800013c0 <strncmp+0x88>
800013b4:	e51b3010 	ldr	r3, [fp, #-16]
800013b8:	e3530000 	cmp	r3, #0
800013bc:	caffffe4 	bgt	80001354 <strncmp+0x1c>
			break;
		dst++;
		src++;
		n--;
	}
	return (*dst - *src);
800013c0:	e51b3008 	ldr	r3, [fp, #-8]
800013c4:	e5d33000 	ldrb	r3, [r3]
800013c8:	e1a02003 	mov	r2, r3
800013cc:	e51b300c 	ldr	r3, [fp, #-12]
800013d0:	e5d33000 	ldrb	r3, [r3]
800013d4:	e0633002 	rsb	r3, r3, r2
}
800013d8:	e1a00003 	mov	r0, r3
800013dc:	e24bd000 	sub	sp, fp, #0
800013e0:	e49db004 	pop	{fp}		; (ldr fp, [sp], #4)
800013e4:	e12fff1e 	bx	lr

800013e8 <strchr>:
char *strchr (char const *ptr, int c) 
{
800013e8:	e52db004 	push	{fp}		; (str fp, [sp, #-4]!)
800013ec:	e28db000 	add	fp, sp, #0
800013f0:	e24dd014 	sub	sp, sp, #20
800013f4:	e50b0010 	str	r0, [fp, #-16]
800013f8:	e50b1014 	str	r1, [fp, #-20]	; 0xffffffec
	char s = (char)c;
800013fc:	e51b3014 	ldr	r3, [fp, #-20]	; 0xffffffec
80001400:	e54b3005 	strb	r3, [fp, #-5]
	while ( (*ptr != '\0') && (*ptr != s))
80001404:	ea000002 	b	80001414 <strchr+0x2c>
	{
		ptr++;
80001408:	e51b3010 	ldr	r3, [fp, #-16]
8000140c:	e2833001 	add	r3, r3, #1
80001410:	e50b3010 	str	r3, [fp, #-16]
	return (*dst - *src);
}
char *strchr (char const *ptr, int c) 
{
	char s = (char)c;
	while ( (*ptr != '\0') && (*ptr != s))
80001414:	e51b3010 	ldr	r3, [fp, #-16]
80001418:	e5d33000 	ldrb	r3, [r3]
8000141c:	e3530000 	cmp	r3, #0
80001420:	0a000004 	beq	80001438 <strchr+0x50>
80001424:	e51b3010 	ldr	r3, [fp, #-16]
80001428:	e5d33000 	ldrb	r3, [r3]
8000142c:	e55b2005 	ldrb	r2, [fp, #-5]
80001430:	e1520003 	cmp	r2, r3
80001434:	1afffff3 	bne	80001408 <strchr+0x20>
	{
		ptr++;
	}
	return (*ptr == '\0' ? NULL : (char *)ptr);
80001438:	e51b3010 	ldr	r3, [fp, #-16]
8000143c:	e5d33000 	ldrb	r3, [r3]
80001440:	e3530000 	cmp	r3, #0
80001444:	0a000001 	beq	80001450 <strchr+0x68>
80001448:	e51b3010 	ldr	r3, [fp, #-16]
8000144c:	ea000000 	b	80001454 <strchr+0x6c>
80001450:	e3a03000 	mov	r3, #0
}
80001454:	e1a00003 	mov	r0, r3
80001458:	e24bd000 	sub	sp, fp, #0
8000145c:	e49db004 	pop	{fp}		; (ldr fp, [sp], #4)
80001460:	e12fff1e 	bx	lr

80001464 <strrchr>:
char *strrchr (char const *ptr, int c)
{
80001464:	e52db004 	push	{fp}		; (str fp, [sp, #-4]!)
80001468:	e28db000 	add	fp, sp, #0
8000146c:	e24dd014 	sub	sp, sp, #20
80001470:	e50b0010 	str	r0, [fp, #-16]
80001474:	e50b1014 	str	r1, [fp, #-20]	; 0xffffffec
	char *temp = NULL;
80001478:	e3a03000 	mov	r3, #0
8000147c:	e50b3008 	str	r3, [fp, #-8]
	char s = (char) c;
80001480:	e51b3014 	ldr	r3, [fp, #-20]	; 0xffffffec
80001484:	e54b3009 	strb	r3, [fp, #-9]
	while (*ptr != '\0') {
80001488:	ea000009 	b	800014b4 <strrchr+0x50>
		if (*ptr == s)
8000148c:	e51b3010 	ldr	r3, [fp, #-16]
80001490:	e5d33000 	ldrb	r3, [r3]
80001494:	e55b2009 	ldrb	r2, [fp, #-9]
80001498:	e1520003 	cmp	r2, r3
8000149c:	1a000001 	bne	800014a8 <strrchr+0x44>
			temp = (char *)ptr;
800014a0:	e51b3010 	ldr	r3, [fp, #-16]
800014a4:	e50b3008 	str	r3, [fp, #-8]
		ptr++;
800014a8:	e51b3010 	ldr	r3, [fp, #-16]
800014ac:	e2833001 	add	r3, r3, #1
800014b0:	e50b3010 	str	r3, [fp, #-16]
}
char *strrchr (char const *ptr, int c)
{
	char *temp = NULL;
	char s = (char) c;
	while (*ptr != '\0') {
800014b4:	e51b3010 	ldr	r3, [fp, #-16]
800014b8:	e5d33000 	ldrb	r3, [r3]
800014bc:	e3530000 	cmp	r3, #0
800014c0:	1afffff1 	bne	8000148c <strrchr+0x28>
		if (*ptr == s)
			temp = (char *)ptr;
		ptr++;
	}
	return temp;
800014c4:	e51b3008 	ldr	r3, [fp, #-8]
}
800014c8:	e1a00003 	mov	r0, r3
800014cc:	e24bd000 	sub	sp, fp, #0
800014d0:	e49db004 	pop	{fp}		; (ldr fp, [sp], #4)
800014d4:	e12fff1e 	bx	lr

Disassembly of section .rodata:

800014d8 <.LC0>:
800014d8:	74726155 	ldrbtvc	r6, [r2], #-341	; 0xfffffeab
800014dc:	696e6920 	stmdbvs	lr!, {r5, r8, fp, sp, lr}^
800014e0:	6f642074 	svcvs	0x00642074
800014e4:	3a20656e 	bcc	8081aaa4 <value+0x81957a>
800014e8:	00000020 	andeq	r0, r0, r0, lsr #32

800014ec <.LC1>:
800014ec:	73206948 			; <UNDEFINED> instruction: 0x73206948
800014f0:	68736168 	ldmdavs	r3!, {r3, r5, r6, r8, sp, lr}^
800014f4:	00000a69 	andeq	r0, r0, r9, ror #20

800014f8 <.LC2>:
800014f8:	64206948 	strtvs	r6, [r0], #-2376	; 0xfffff6b8
800014fc:	61626261 	cmnvs	r2, r1, ror #4
80001500:	00000a0a 	andeq	r0, r0, sl, lsl #20

80001504 <.LC3>:
80001504:	2052434c 	subscs	r4, r2, ip, asr #6
80001508:	756c6176 	strbvc	r6, [ip, #-374]!	; 0xfffffe8a
8000150c:	203d2065 	eorscs	r2, sp, r5, rrx
80001510:	000a7825 	andeq	r7, sl, r5, lsr #16

80001514 <.LC4>:
80001514:	65746e45 	ldrbvs	r6, [r4, #-3653]!	; 0xfffff1bb
80001518:	20612072 	rsbcs	r2, r1, r2, ror r0
8000151c:	72616863 	rsbvc	r6, r1, #6488064	; 0x630000
80001520:	65746361 	ldrbvs	r6, [r4, #-865]!	; 0xfffffc9f
80001524:	203a2072 	eorscs	r2, sl, r2, ror r0
	...

Disassembly of section .bss:

8000152a <value>:
	...

Disassembly of section .ARM.attributes:

00000000 <.ARM.attributes>:
   0:	00003841 	andeq	r3, r0, r1, asr #16
   4:	61656100 	cmnvs	r5, r0, lsl #2
   8:	01006962 	tsteq	r0, r2, ror #18
   c:	0000002e 	andeq	r0, r0, lr, lsr #32
  10:	726f4305 	rsbvc	r4, pc, #335544320	; 0x14000000
  14:	2d786574 	cfldr64cs	mvdx6, [r8, #-464]!	; 0xfffffe30
  18:	06003841 	streq	r3, [r0], -r1, asr #16
  1c:	0841070a 	stmdaeq	r1, {r1, r3, r8, r9, sl}^
  20:	0a020901 	beq	8242c <_start-0x7ff7dbd4>
  24:	12010c03 	andne	r0, r1, #768	; 0x300
  28:	15011404 	strne	r1, [r1, #-1028]	; 0xfffffbfc
  2c:	18031701 	stmdane	r3, {r0, r8, r9, sl, ip}
  30:	1c011a01 	stcne	10, cr1, [r1], {1}
  34:	44012201 	strmi	r2, [r1], #-513	; 0xfffffdff
  38:	Address 0x0000000000000038 is out of bounds.


Disassembly of section .comment:

00000000 <.comment>:
   0:	3a434347 	bcc	10d0d24 <_start-0x7ef2f2dc>
   4:	35312820 	ldrcc	r2, [r1, #-2080]!	; 0xfffff7e0
   8:	392e343a 	stmdbcc	lr!, {r1, r3, r4, r5, sl, ip, sp}
   c:	732b332e 			; <UNDEFINED> instruction: 0x732b332e
  10:	33326e76 	teqcc	r2, #1888	; 0x760
  14:	37373131 			; <UNDEFINED> instruction: 0x37373131
  18:	2029312d 	eorcs	r3, r9, sp, lsr #2
  1c:	2e392e34 	mrccs	14, 1, r2, cr9, cr4, {1}
  20:	30322033 	eorscc	r2, r2, r3, lsr r0
  24:	35303531 	ldrcc	r3, [r0, #-1329]!	; 0xfffffacf
  28:	28203932 	stmdacs	r0!, {r1, r4, r5, r8, fp, ip, sp}
  2c:	72657270 	rsbvc	r7, r5, #112, 4
  30:	61656c65 	cmnvs	r5, r5, ror #24
  34:	00296573 	eoreq	r6, r9, r3, ror r5

Disassembly of section .debug_info:

00000000 <.debug_info>:
       0:	0000007f 	andeq	r0, r0, pc, ror r0
       4:	00000004 	andeq	r0, r0, r4
       8:	01040000 	mrseq	r0, (UNDEF: 4)
       c:	00000080 	andeq	r0, r0, r0, lsl #1
      10:	00002f01 	andeq	r2, r0, r1, lsl #30
      14:	00003600 	andeq	r3, r0, r0, lsl #12
      18:	00003c00 	andeq	r3, r0, r0, lsl #24
      1c:	00006880 	andeq	r6, r0, r0, lsl #17
      20:	00000000 	andeq	r0, r0, r0
      24:	001c0200 	andseq	r0, ip, r0, lsl #4
      28:	04020000 	streq	r0, [r2], #-0
      2c:	00000030 	andeq	r0, r0, r0, lsr r0
      30:	ce070403 	cdpgt	4, 0, cr0, cr7, cr3, {0}
      34:	0300001d 	movweq	r0, #29
      38:	00090702 	andeq	r0, r9, r2, lsl #14
      3c:	01030000 	mrseq	r0, (UNDEF: 3)
      40:	00007208 	andeq	r7, r0, r8, lsl #4
      44:	05040400 	streq	r0, [r4, #-1024]	; 0xfffffc00
      48:	00746e69 	rsbseq	r6, r4, r9, ror #28
      4c:	25050203 	strcs	r0, [r5, #-515]	; 0xfffffdfd
      50:	03000000 	movweq	r0, #0
      54:	007b0801 	rsbseq	r0, fp, r1, lsl #16
      58:	00050000 	andeq	r0, r5, r0
      5c:	01000000 	mrseq	r0, (UNDEF: 0)
      60:	00003c03 	andeq	r3, r0, r3, lsl #24
      64:	00006880 	andeq	r6, r0, r0, lsl #17
      68:	7d9c0100 	ldfvcs	f0, [ip]
      6c:	06000000 	streq	r0, [r0], -r0
      70:	01006172 	tsteq	r0, r2, ror r1
      74:	00007d07 	andeq	r7, r0, r7, lsl #26
      78:	74910200 	ldrvc	r0, [r1], #512	; 0x200
      7c:	00300700 	eorseq	r0, r0, r0, lsl #14
      80:	6c000000 	stcvs	0, cr0, [r0], {-0}
      84:	04000004 	streq	r0, [r0], #-4
      88:	00006700 	andeq	r6, r0, r0, lsl #14
      8c:	80010400 	andhi	r0, r1, r0, lsl #8
      90:	01000000 	mrseq	r0, (UNDEF: 0)
      94:	00000974 	andeq	r0, r0, r4, ror r9
      98:	00000036 	andeq	r0, r0, r6, lsr r0
      9c:	800000a4 	andhi	r0, r0, r4, lsr #1
      a0:	0000014c 	andeq	r0, r0, ip, asr #2
      a4:	00000045 	andeq	r0, r0, r5, asr #32
      a8:	00001c02 	andeq	r1, r0, r2, lsl #24
      ac:	30040200 	andcc	r0, r4, r0, lsl #4
      b0:	03000000 	movweq	r0, #0
      b4:	1dce0704 	stclne	7, cr0, [lr, #16]
      b8:	02030000 	andeq	r0, r3, #0
      bc:	00000907 	andeq	r0, r0, r7, lsl #18
      c0:	08010300 	stmdaeq	r1, {r8, r9}
      c4:	00000072 	andeq	r0, r0, r2, ror r0
      c8:	69050404 	stmdbvs	r5, {r2, sl}
      cc:	0300746e 	movweq	r7, #1134	; 0x46e
      d0:	00250502 	eoreq	r0, r5, r2, lsl #10
      d4:	01030000 	mrseq	r0, (UNDEF: 3)
      d8:	00007b08 	andeq	r7, r0, r8, lsl #22
      dc:	03040500 	movweq	r0, #17664	; 0x4500
      e0:	0000b30b 	andeq	fp, r0, fp, lsl #6
      e4:	06170600 	ldreq	r0, [r7], -r0, lsl #12
      e8:	80800000 	addhi	r0, r0, r0
      ec:	0604a780 	streq	sl, [r4], -r0, lsl #15
      f0:	0000068d 	andeq	r0, r0, sp, lsl #13
      f4:	a7808880 	strge	r8, [r0, r0, lsl #17]
      f8:	07630604 	strbeq	r0, [r3, -r4, lsl #12]!
      fc:	8a800000 	bhi	fe000104 <value+0x7dffebda>
     100:	0604a780 	streq	sl, [r4], -r0, lsl #15
     104:	00000875 	andeq	r0, r0, r5, ror r8
     108:	a7808c80 	strge	r8, [r0, r0, lsl #25]
     10c:	086b0604 	stmdaeq	fp!, {r2, r9, sl}^
     110:	8e800000 	cdphi	0, 8, cr0, cr0, cr0, {0}
     114:	0604a780 	streq	sl, [r4], -r0, lsl #15
     118:	000002ae 	andeq	r0, r0, lr, lsr #5
     11c:	a7809080 	strge	r9, [r0, r0, lsl #1]
     120:	08d90604 	ldmeq	r9, {r2, r9, sl}^
     124:	92800000 	addls	r0, r0, #0
     128:	0604a780 	streq	sl, [r4], -r0, lsl #15
     12c:	00000665 	andeq	r0, r0, r5, ror #12
     130:	a7809480 	strge	r9, [r0, r0, lsl #9]
     134:	18020004 	stmdane	r2, {r2}
     138:	0300000b 	movweq	r0, #11
     13c:	00005a14 	andeq	r5, r0, r4, lsl sl
     140:	03020500 	movweq	r0, #9472	; 0x2500
     144:	0003ce1c 	andeq	ip, r3, ip, lsl lr
     148:	07800600 	streq	r0, [r0, r0, lsl #12]
     14c:	06000000 	streq	r0, [r0], -r0
     150:	000005bd 			; <UNDEFINED> instruction: 0x000005bd
     154:	01700604 	cmneq	r0, r4, lsl #12
     158:	06080000 	streq	r0, [r8], -r0
     15c:	000000dc 	ldrdeq	r0, [r0], -ip
     160:	04d0060c 	ldrbeq	r0, [r0], #1548	; 0x60c
     164:	06140000 	ldreq	r0, [r4], -r0
     168:	0000082f 	andeq	r0, r0, pc, lsr #16
     16c:	06390618 			; <UNDEFINED> instruction: 0x06390618
     170:	061c0000 	ldreq	r0, [ip], -r0
     174:	0000015b 	andeq	r0, r0, fp, asr r1
     178:	07280624 	streq	r0, [r8, -r4, lsr #12]!
     17c:	06280000 	strteq	r0, [r8], -r0
     180:	00000818 	andeq	r0, r0, r8, lsl r8
     184:	09b8062c 	ldmibeq	r8!, {r2, r3, r5, r9, sl}
     188:	06300000 	ldrteq	r0, [r0], -r0
     18c:	000000f0 	strdeq	r0, [r0], -r0	; <UNPREDICTABLE>
     190:	01b00634 	lsrseq	r0, r4, r6
     194:	06380000 	ldrteq	r0, [r8], -r0
     198:	000002b5 			; <UNDEFINED> instruction: 0x000002b5
     19c:	073c063c 			; <UNDEFINED> instruction: 0x073c063c
     1a0:	00c00000 	sbceq	r0, r0, r0
     1a4:	00036206 	andeq	r6, r3, r6, lsl #4
     1a8:	0600c400 	streq	ip, [r0], -r0, lsl #8
     1ac:	000002dd 	ldrdeq	r0, [r0], -sp
     1b0:	060600c8 	streq	r0, [r6], -r8, asr #1
     1b4:	cc000001 	stcgt	0, cr0, [r0], {1}
     1b8:	04680600 	strbteq	r0, [r8], #-1536	; 0xfffffa00
     1bc:	00d00000 	sbcseq	r0, r0, r0
     1c0:	0005a906 	andeq	sl, r5, r6, lsl #18
     1c4:	0600e000 	streq	lr, [r0], -r0
     1c8:	0000029a 	muleq	r0, sl, r2
     1cc:	450600e4 	strmi	r0, [r6, #-228]	; 0xffffff1c
     1d0:	e8000001 	stmda	r0, {r0}
     1d4:	0a430600 	beq	10c19dc <_start-0x7ef3e624>
     1d8:	00ec0000 	rsceq	r0, ip, r0
     1dc:	000aec06 	andeq	lr, sl, r6, lsl #24
     1e0:	0600f000 	streq	pc, [r0], -r0
     1e4:	00000376 	andeq	r0, r0, r6, ror r3
     1e8:	300600f4 	strdcc	r0, [r6], -r4
     1ec:	f8000001 			; <UNDEFINED> instruction: 0xf8000001
     1f0:	05030600 	streq	r0, [r3, #-1536]	; 0xfffffa00
     1f4:	00fc0000 	rscseq	r0, ip, r0
     1f8:	00031d06 	andeq	r1, r3, r6, lsl #26
     1fc:	06018000 	streq	r8, [r1], -r0
     200:	0000038b 	andeq	r0, r0, fp, lsl #7
     204:	0f060184 	svceq	0x00060184
     208:	88000004 	stmdahi	r0, {r2}
     20c:	06e80601 	strbteq	r0, [r8], r1, lsl #12
     210:	01ac0000 			; <UNDEFINED> instruction: 0x01ac0000
     214:	00071306 	andeq	r1, r7, r6, lsl #6
     218:	0601b000 	streq	fp, [r1], -r0
     21c:	0000076b 	andeq	r0, r0, fp, ror #14
     220:	f90601b4 			; <UNDEFINED> instruction: 0xf90601b4
     224:	bc000008 	stclt	0, cr0, [r0], {8}
     228:	02850601 	addeq	r0, r5, #1048576	; 0x100000
     22c:	01c00000 	biceq	r0, r0, r0
     230:	00048e06 	andeq	r8, r4, r6, lsl #28
     234:	0601c400 	streq	ip, [r1], -r0, lsl #8
     238:	00000abd 			; <UNDEFINED> instruction: 0x00000abd
     23c:	4a0601cc 	bmi	180974 <_start-0x7fe7f68c>
     240:	d0000009 	andle	r0, r0, r9
     244:	04a30601 	strteq	r0, [r3], #1537	; 0x601
     248:	01d40000 	bicseq	r0, r4, r0
     24c:	00056606 	andeq	r6, r5, r6, lsl #12
     250:	0601d800 	streq	sp, [r1], -r0, lsl #16
     254:	00000ad4 	ldrdeq	r0, [r0], -r4
     258:	7c0601dc 	stfvcs	f0, [r6], {220}	; 0xdc
     25c:	e0000004 	and	r0, r0, r4
     260:	03050601 	movweq	r0, #22017	; 0x5601
     264:	01e40000 	mvneq	r0, r0
     268:	0006bc06 	andeq	fp, r6, r6, lsl #24
     26c:	0601e800 	streq	lr, [r1], -r0, lsl #16
     270:	00000452 	andeq	r0, r0, r2, asr r4
     274:	ba0601ec 	blt	180a2c <_start-0x7fe7f5d4>
     278:	f0000004 			; <UNDEFINED> instruction: 0xf0000004
     27c:	03330601 	teqeq	r3, #1048576	; 0x100000
     280:	01f40000 	mvnseq	r0, r0
     284:	0003a106 	andeq	sl, r3, r6, lsl #2
     288:	0601f800 	streq	pc, [r1], -r0, lsl #16
     28c:	00000796 	muleq	r0, r6, r7
     290:	030601fc 	movweq	r0, #25084	; 0x61fc
     294:	80000008 	andhi	r0, r0, r8
     298:	03b50602 			; <UNDEFINED> instruction: 0x03b50602
     29c:	028c0000 	addeq	r0, ip, #0
     2a0:	00064d06 	andeq	r4, r6, r6, lsl #26
     2a4:	06029000 	streq	r9, [r2], -r0
     2a8:	0000011a 	andeq	r0, r0, sl, lsl r1
     2ac:	2106029c 			; <UNDEFINED> instruction: 0x2106029c
     2b0:	a0000009 	andge	r0, r0, r9
     2b4:	09cc0602 	stmibeq	ip, {r1, r9, sl}^
     2b8:	02ac0000 	adceq	r0, ip, #0
     2bc:	00053406 	andeq	r3, r5, r6, lsl #8
     2c0:	0602b000 	streq	fp, [r2], -r0
     2c4:	00000a29 	andeq	r0, r0, r9, lsr #20
     2c8:	7c0602c0 	sfmvc	f0, 4, [r6], {192}	; 0xc0
     2cc:	c4000008 	strgt	r0, [r0], #-8
     2d0:	0a130602 	beq	4c1ae0 <_start-0x7fb3e520>
     2d4:	02c80000 	sbceq	r0, r8, #0
     2d8:	00024306 	andeq	r4, r2, r6, lsl #6
     2dc:	0602cc00 	streq	ip, [r2], -r0, lsl #24
     2e0:	0000061e 	andeq	r0, r0, lr, lsl r6
     2e4:	7c0602d0 	sfmvc	f0, 4, [r6], {208}	; 0xd0
     2e8:	00000009 	andeq	r0, r0, r9
     2ec:	00042506 	andeq	r2, r4, r6, lsl #10
     2f0:	fd060400 	stc2	4, cr0, [r6, #-0]
     2f4:	08000009 	stmdaeq	r0, {r0, r3}
     2f8:	000b0106 	andeq	r0, fp, r6, lsl #2
     2fc:	a1060c00 	tstge	r6, r0, lsl #24
     300:	10000009 	andne	r0, r0, r9
     304:	0008ad06 	andeq	sl, r8, r6, lsl #26
     308:	c0061400 	andgt	r1, r6, r0, lsl #8
     30c:	18000007 	stmdane	r0, {r0, r1, r2}
     310:	00093506 	andeq	r3, r9, r6, lsl #10
     314:	43061c00 	movwmi	r1, #27648	; 0x6c00
     318:	20000008 	andcs	r0, r0, r8
     31c:	00051906 	andeq	r1, r5, r6, lsl #18
     320:	47062400 	strmi	r2, [r6, -r0, lsl #8]
     324:	28000003 	stmdacs	r0, {r0, r1}
     328:	00096106 	andeq	r6, r9, r6, lsl #2
     32c:	ab062c00 	blge	18b334 <_start-0x7fe74ccc>
     330:	30000007 	andcc	r0, r0, r7
     334:	0001e606 	andeq	lr, r1, r6, lsl #12
     338:	92063400 	andls	r3, r6, #0, 8
     33c:	38000008 	stmdacc	r0, {r3}
     340:	00018606 	andeq	r8, r1, r6, lsl #12
     344:	d4063c00 	strle	r3, [r6], #-3072	; 0xfffff400
     348:	c0000007 	andgt	r0, r0, r7
     34c:	0a580600 	beq	1601b54 <_start-0x7e9fe4ac>
     350:	00c40000 	sbceq	r0, r4, r0
     354:	0008c506 	andeq	ip, r8, r6, lsl #10
     358:	0600c800 	streq	ip, [r0], -r0, lsl #16
     35c:	000001c5 	andeq	r0, r0, r5, asr #3
     360:	a10600cc 	smlabtge	r6, ip, r0, r0
     364:	d000000a 	andle	r0, r0, sl
     368:	06030600 	streq	r0, [r3], -r0, lsl #12
     36c:	00d40000 	sbcseq	r0, r4, r0
     370:	00025c06 	andeq	r5, r2, r6, lsl #24
     374:	0600d800 	streq	sp, [r0], -r0, lsl #16
     378:	00000695 	muleq	r0, r5, r6
     37c:	e70600dc 			; <UNDEFINED> instruction: 0xe70600dc
     380:	e0000004 	and	r0, r0, r4
     384:	07e70600 	strbeq	r0, [r7, r0, lsl #12]!
     388:	00e40000 	rsceq	r0, r4, r0
     38c:	0002c906 	andeq	ip, r2, r6, lsl #18
     390:	0600e800 	streq	lr, [r0], -r0, lsl #16
     394:	000001f9 	strdeq	r0, [r0], -r9
     398:	a90600ec 	stmdbge	r6, {r2, r3, r5, r6, r7}
     39c:	f0000006 			; <UNDEFINED> instruction: 0xf0000006
     3a0:	02220600 	eoreq	r0, r2, #0, 12
     3a4:	00f40000 	rscseq	r0, r4, r0
     3a8:	000a6e06 	andeq	r6, sl, r6, lsl #28
     3ac:	0600f800 	streq	pc, [r0], -r0, lsl #16
     3b0:	000006fd 	strdeq	r0, [r0], -sp
     3b4:	f10600fc 			; <UNDEFINED> instruction: 0xf10600fc
     3b8:	80000002 	andhi	r0, r0, r2
     3bc:	020e0601 	andeq	r0, lr, #1048576	; 0x100000
     3c0:	01840000 	orreq	r0, r4, r0
     3c4:	00074f06 	andeq	r4, r7, r6, lsl #30
     3c8:	06018800 	streq	r8, [r1], -r0, lsl #16
     3cc:	000006d4 	ldrdeq	r0, [r0], -r4
     3d0:	f006018c 			; <UNDEFINED> instruction: 0xf006018c
     3d4:	90000003 	andls	r0, r0, r3
     3d8:	05d20601 	ldrbeq	r0, [r2, #1537]	; 0x601
     3dc:	01940000 	orrseq	r0, r4, r0
     3e0:	00085606 	andeq	r5, r8, r6, lsl #12
     3e4:	06019800 	streq	r9, [r1], -r0, lsl #16
     3e8:	00000593 	muleq	r0, r3, r5
     3ec:	3a06019c 	bcc	180a64 <_start-0x7fe7f59c>
     3f0:	a000000b 	andge	r0, r0, fp
     3f4:	090d0601 	stmdbeq	sp, {r0, r9, sl}
     3f8:	01a40000 			; <UNDEFINED> instruction: 0x01a40000
     3fc:	00027206 	andeq	r7, r2, r6, lsl #4
     400:	0601a800 	streq	sl, [r1], -r0, lsl #16
     404:	0000098e 	andeq	r0, r0, lr, lsl #19
     408:	d80601ac 	stmdale	r6, {r2, r3, r5, r7, r8}
     40c:	b0000003 	andlt	r0, r0, r3
     410:	057d0601 	ldrbeq	r0, [sp, #-1537]!	; 0xfffff9ff
     414:	01b40000 			; <UNDEFINED> instruction: 0x01b40000
     418:	000b2506 	andeq	r2, fp, r6, lsl #10
     41c:	0601b800 	streq	fp, [r1], -r0, lsl #16
     420:	00000a89 	andeq	r0, r0, r9, lsl #21
     424:	490601bc 	stmdbmi	r6, {r2, r3, r4, r5, r7, r8}
     428:	c0000005 	andgt	r0, r0, r5
     42c:	09e60601 	stmibeq	r6!, {r0, r9, sl}^
     430:	01c40000 	biceq	r0, r4, r0
     434:	0005e606 	andeq	lr, r5, r6, lsl #12
     438:	0601c800 	streq	ip, [r1], -r0, lsl #16
     43c:	000008e0 	andeq	r0, r0, r0, ror #17
     440:	3d0601cc 	stfccs	f0, [r6, #-816]	; 0xfffffcd0
     444:	d4000004 	strle	r0, [r0], #-4
     448:	06790601 	ldrbteq	r0, [r9], -r1, lsl #12
     44c:	01d80000 	bicseq	r0, r8, r0
     450:	03cd0200 	biceq	r0, sp, #0, 4
     454:	93030000 	movwls	r0, #12288	; 0x3000
     458:	000000be 	strheq	r0, [r0], -lr
     45c:	00040507 	andeq	r0, r4, r7, lsl #10
     460:	a4030100 	strge	r0, [r3], #-256	; 0xffffff00
     464:	40800000 	addmi	r0, r0, r0
     468:	01000000 	mrseq	r0, (UNDEF: 0)
     46c:	0004199c 	muleq	r4, ip, r9
     470:	17c80800 	strbne	r0, [r8, r0, lsl #16]
     474:	03010000 	movweq	r0, #4096	; 0x1000
     478:	000000b3 	strheq	r0, [r0], -r3
     47c:	09749102 	ldmdbeq	r4!, {r1, r8, ip, pc}^
     480:	00676572 	rsbeq	r6, r7, r2, ror r5
     484:	03ce0301 	biceq	r0, lr, #67108864	; 0x4000000
     488:	91020000 	mrsls	r0, (UNDEF: 2)
     48c:	023d0872 	eorseq	r0, sp, #7471104	; 0x720000
     490:	03010000 	movweq	r0, #4096	; 0x1000
     494:	00000030 	andeq	r0, r0, r0, lsr r0
     498:	006c9102 	rsbeq	r9, ip, r2, lsl #2
     49c:	00066f0a 	andeq	r6, r6, sl, lsl #30
     4a0:	30090100 	andcc	r0, r9, r0, lsl #2
     4a4:	e4000000 	str	r0, [r0], #-0
     4a8:	38800000 	stmcc	r0, {}	; <UNPREDICTABLE>
     4ac:	01000000 	mrseq	r0, (UNDEF: 0)
     4b0:	00044f9c 	muleq	r4, ip, pc	; <UNPREDICTABLE>
     4b4:	17c80800 	strbne	r0, [r8, r0, lsl #16]
     4b8:	09010000 	stmdbeq	r1, {}	; <UNPREDICTABLE>
     4bc:	000000b3 	strheq	r0, [r0], -r3
     4c0:	09749102 	ldmdbeq	r4!, {r1, r8, ip, pc}^
     4c4:	00676572 	rsbeq	r6, r7, r2, ror r5
     4c8:	03ce0901 	biceq	r0, lr, #16384	; 0x4000
     4cc:	91020000 	mrsls	r0, (UNDEF: 2)
     4d0:	a10b0072 	tstge	fp, r2, ror r0
     4d4:	01000001 	tsteq	r0, r1
     4d8:	00011c0e 	andeq	r1, r1, lr, lsl #24
     4dc:	0000d480 	andeq	sp, r0, r0, lsl #9
     4e0:	0c9c0100 	ldfeqs	f0, [ip], {0}
     4e4:	000001e1 	andeq	r0, r0, r1, ror #3
     4e8:	00301101 	eorseq	r1, r0, r1, lsl #2
     4ec:	91020000 	mrsls	r0, (UNDEF: 2)
     4f0:	02000074 	andeq	r0, r0, #116	; 0x74
     4f4:	04000007 	streq	r0, [r0], #-7
     4f8:	00012d00 	andeq	r2, r1, r0, lsl #26
     4fc:	80010400 	andhi	r0, r1, r0, lsl #8
     500:	01000000 	mrseq	r0, (UNDEF: 0)
     504:	00000bed 	andeq	r0, r0, sp, ror #23
     508:	00000036 	andeq	r0, r0, r6, lsr r0
     50c:	800001f0 	strdhi	r0, [r0], -r0	; <UNPREDICTABLE>
     510:	000000ec 	andeq	r0, r0, ip, ror #1
     514:	000000a5 	andeq	r0, r0, r5, lsr #1
     518:	00001c02 	andeq	r1, r0, r2, lsl #24
     51c:	30040200 	andcc	r0, r4, r0, lsl #4
     520:	03000000 	movweq	r0, #0
     524:	1dce0704 	stclne	7, cr0, [lr, #16]
     528:	02030000 	andeq	r0, r3, #0
     52c:	00000907 	andeq	r0, r0, r7, lsl #18
     530:	08010300 	stmdaeq	r1, {r8, r9}
     534:	00000072 	andeq	r0, r0, r2, ror r0
     538:	69050404 	stmdbvs	r5, {r2, sl}
     53c:	0300746e 	movweq	r7, #1134	; 0x46e
     540:	00250502 	eoreq	r0, r5, r2, lsl #10
     544:	01030000 	mrseq	r0, (UNDEF: 3)
     548:	00007b08 	andeq	r7, r0, r8, lsl #22
     54c:	03020500 	movweq	r0, #9472	; 0x2500
     550:	00064f09 	andeq	r4, r6, r9, lsl #30
     554:	17bd0600 	ldrne	r0, [sp, r0, lsl #12]!
     558:	06000000 	streq	r0, [r0], -r0
     55c:	000013a5 	andeq	r1, r0, r5, lsr #7
     560:	19010604 	stmdbne	r1, {r2, r9, sl}
     564:	06100000 	ldreq	r0, [r0], -r0
     568:	00001aab 	andeq	r1, r0, fp, lsr #21
     56c:	260600c0 	strcs	r0, [r6], -r0, asr #1
     570:	9000001b 	andls	r0, r0, fp, lsl r0
     574:	11ce0602 	bicne	r0, lr, r2, lsl #12
     578:	089c0000 	ldmeq	ip, {}	; <UNPREDICTABLE>
     57c:	001af306 	andseq	pc, sl, r6, lsl #6
     580:	0608a800 	streq	sl, [r8], -r0, lsl #16
     584:	00000fd6 	ldrdeq	r0, [r0], -r6
     588:	580608ac 	stmdapl	r6, {r2, r3, r5, r7, fp}
     58c:	c4000017 	strgt	r0, [r0], #-23	; 0xffffffe9
     590:	0d860608 	stceq	6, cr0, [r6, #32]
     594:	08c80000 	stmiaeq	r8, {}^	; <UNPREDICTABLE>
     598:	00125806 	andseq	r5, r2, r6, lsl #16
     59c:	0608cc00 	streq	ip, [r8], -r0, lsl #24
     5a0:	00001a0d 	andeq	r1, r0, sp, lsl #20
     5a4:	700608d8 	ldrdvc	r0, [r6], -r8
     5a8:	e8000015 	stmda	r0, {r0, r2, r4}
     5ac:	10d00608 	sbcsne	r0, r0, r8, lsl #12
     5b0:	08f00000 	ldmeq	r0!, {}^	; <UNPREDICTABLE>
     5b4:	000f8d06 	andeq	r8, pc, r6, lsl #26
     5b8:	060a8c00 	streq	r8, [sl], -r0, lsl #24
     5bc:	000017d4 	ldrdeq	r1, [r0], -r4
     5c0:	ae060c80 	cdpge	12, 0, cr0, cr6, cr0, {4}
     5c4:	84000017 	strhi	r0, [r0], #-23	; 0xffffffe9
     5c8:	0fa3060c 	svceq	0x00a3060c
     5cc:	0c880000 	stceq	0, cr0, [r8], {0}
     5d0:	0017e106 	andseq	lr, r7, r6, lsl #2
     5d4:	060c8c00 	streq	r8, [ip], -r0, lsl #24
     5d8:	000019c9 	andeq	r1, r0, r9, asr #19
     5dc:	8f060c90 	svchi	0x00060c90
     5e0:	94000012 	strls	r0, [r0], #-18	; 0xffffffee
     5e4:	195a060c 	ldmdbne	sl, {r2, r3, r9, sl}^
     5e8:	0ca00000 	stceq	0, cr0, [r0]
     5ec:	0017f406 	andseq	pc, r7, r6, lsl #8
     5f0:	060ca400 	streq	sl, [ip], -r0, lsl #8
     5f4:	00001967 	andeq	r1, r0, r7, ror #18
     5f8:	00060ca8 	andeq	r0, r6, r8, lsr #25
     5fc:	ac000018 	stcge	0, cr0, [r0], {24}
     600:	1383060c 	orrne	r0, r3, #12, 12	; 0xc00000
     604:	0cb00000 	ldceq	0, cr0, [r0]
     608:	001b1806 	andseq	r1, fp, r6, lsl #16
     60c:	060cb400 	streq	fp, [ip], -r0, lsl #8
     610:	00001223 	andeq	r1, r0, r3, lsr #4
     614:	c2060cb8 	andgt	r0, r6, #184, 24	; 0xb800
     618:	bc000012 	stclt	0, cr0, [r0], {18}
     61c:	165d060c 	ldrbne	r0, [sp], -ip, lsl #12
     620:	0cc40000 	stcleq	0, cr0, [r4], {0}
     624:	00199406 	andseq	r9, r9, r6, lsl #8
     628:	060cc800 	streq	ip, [ip], -r0, lsl #16
     62c:	00001737 	andeq	r1, r0, r7, lsr r7
     630:	2a060cd0 	bcs	183978 <_start-0x7fe7c688>
     634:	e400000c 	str	r0, [r0], #-12
     638:	0de2060c 	stcleq	6, cr0, [r2, #48]!	; 0x30
     63c:	0cf00000 	ldcleq	0, cr0, [r0]
     640:	00148806 	andseq	r8, r4, r6, lsl #16
     644:	060cf400 	streq	pc, [ip], -r0, lsl #8
     648:	0000107c 	andeq	r1, r0, ip, ror r0
     64c:	91060d90 			; <UNDEFINED> instruction: 0x91060d90
     650:	94000010 	strls	r0, [r0], #-16
     654:	10a6060d 	adcne	r0, r6, sp, lsl #12
     658:	0d980000 	ldceq	0, cr0, [r8]
     65c:	0010bb06 	andseq	fp, r0, r6, lsl #22
     660:	060d9c00 	streq	r9, [sp], -r0, lsl #24
     664:	00000f17 	andeq	r0, r0, r7, lsl pc
     668:	0e060da0 	cdpeq	13, 0, cr0, cr6, cr0, {5}
     66c:	a4000013 	strge	r0, [r0], #-19	; 0xffffffed
     670:	136e060d 	cmnne	lr, #13631488	; 0xd00000
     674:	0da80000 	stceq	0, cr0, [r8]
     678:	0011e406 	andseq	lr, r1, r6, lsl #8
     67c:	060ef000 	streq	pc, [lr], -r0
     680:	000013e4 	andeq	r1, r0, r4, ror #7
     684:	1f060ef4 	svcne	0x00060ef4
     688:	f8000018 			; <UNDEFINED> instruction: 0xf8000018
     68c:	15b9060e 	ldrne	r0, [r9, #1550]!	; 0x60e
     690:	0efc0000 	cdpeq	0, 15, cr0, cr12, cr0, {0}
     694:	00124406 	andseq	r4, r2, r6, lsl #8
     698:	060fb800 	streq	fp, [pc], -r0, lsl #16
     69c:	00001460 	andeq	r1, r0, r0, ror #8
     6a0:	46060fbc 			; <UNDEFINED> instruction: 0x46060fbc
     6a4:	d000000e 	andle	r0, r0, lr
     6a8:	1974060f 	ldmdbne	r4!, {r0, r1, r2, r3, r9, sl}^
     6ac:	0ff40000 	svceq	0x00f40000
     6b0:	000c4906 	andeq	r4, ip, r6, lsl #18
     6b4:	060ffc00 	streq	pc, [pc], -r0, lsl #24
     6b8:	00000c9f 	muleq	r0, pc, ip	; <UNPREDICTABLE>
     6bc:	b0061080 	andlt	r1, r6, r0, lsl #1
     6c0:	8400000c 	strhi	r0, [r0], #-12
     6c4:	0cc10610 	stcleq	6, cr0, [r1], {16}
     6c8:	10880000 	addne	r0, r8, r0
     6cc:	000cd206 	andeq	sp, ip, r6, lsl #4
     6d0:	06108c00 	ldreq	r8, [r0], -r0, lsl #24
     6d4:	00000ce3 	andeq	r0, r0, r3, ror #25
     6d8:	f4061090 	vst4.32	{d1-d4}, [r6 :64], r0
     6dc:	9400000c 	strls	r0, [r0], #-12
     6e0:	0d050610 	stceq	6, cr0, [r5, #-64]	; 0xffffffc0
     6e4:	10980000 	addsne	r0, r8, r0
     6e8:	000d1606 	andeq	r1, sp, r6, lsl #12
     6ec:	06109c00 	ldreq	r9, [r0], -r0, lsl #24
     6f0:	00000d27 	andeq	r0, r0, r7, lsr #26
     6f4:	380610a0 	stmdacc	r6, {r5, r7, ip}
     6f8:	a400000d 	strge	r0, [r0], #-13
     6fc:	1a240610 	bne	901f44 <_start-0x7f6fe0bc>
     700:	10a80000 	adcne	r0, r8, r0
     704:	001a9906 	andseq	r9, sl, r6, lsl #18
     708:	0610ac00 	ldreq	sl, [r0], -r0, lsl #24
     70c:	00001a5c 	andeq	r1, r0, ip, asr sl
     710:	bd0610b0 	stclt	0, cr1, [r6, #-704]	; 0xfffffd40
     714:	b400001a 	strlt	r0, [r0], #-26	; 0xffffffe6
     718:	1acf0610 	bne	ff3c1f60 <value+0x7f3c0a36>
     71c:	10b80000 	adcsne	r0, r8, r0
     720:	001ae106 	andseq	lr, sl, r6, lsl #2
     724:	0610bc00 	ldreq	fp, [r0], -r0, lsl #24
     728:	00000b4d 	andeq	r0, r0, sp, asr #22
     72c:	5d0610c0 	stcpl	0, cr1, [r6, #-768]	; 0xfffffd00
     730:	c400000b 	strgt	r0, [r0], #-11
     734:	0b6d0610 	bleq	1b41f7c <_start-0x7e4be084>
     738:	10c80000 	sbcne	r0, r8, r0
     73c:	000b7d06 	andeq	r7, fp, r6, lsl #26
     740:	0610cc00 	ldreq	ip, [r0], -r0, lsl #24
     744:	00000b8d 	andeq	r0, r0, sp, lsl #23
     748:	9d0610d0 	stcls	0, cr1, [r6, #-832]	; 0xfffffcc0
     74c:	d400000b 	strle	r0, [r0], #-11
     750:	0bad0610 	bleq	feb41f98 <value+0x7eb40a6e>
     754:	10d80000 	sbcsne	r0, r8, r0
     758:	000bbd06 	andeq	fp, fp, r6, lsl #26
     75c:	0610dc00 	ldreq	sp, [r0], -r0, lsl #24
     760:	00000bcd 	andeq	r0, r0, sp, asr #23
     764:	dd0610e0 	stcle	0, cr1, [r6, #-896]	; 0xfffffc80
     768:	e400000b 	str	r0, [r0], #-11
     76c:	11930610 	orrsne	r0, r3, r0, lsl r6
     770:	10e80000 	rscne	r0, r8, r0
     774:	0011a406 	andseq	sl, r1, r6, lsl #8
     778:	0610ec00 	ldreq	lr, [r0], -r0, lsl #24
     77c:	00000c8c 	andeq	r0, r0, ip, lsl #25
     780:	e20610f0 	and	r1, r6, #240	; 0xf0
     784:	f4000010 	vst4.8	{d0-d3}, [r0 :64], r0
     788:	16df0610 			; <UNDEFINED> instruction: 0x16df0610
     78c:	10f80000 	rscsne	r0, r8, r0
     790:	00118106 	andseq	r8, r1, r6, lsl #2
     794:	0610fc00 	ldreq	pc, [r0], -r0, lsl #24
     798:	00000c56 	andeq	r0, r0, r6, asr ip
     79c:	68061180 	stmdavs	r6, {r7, r8, ip}
     7a0:	8400000c 	strhi	r0, [r0], #-12
     7a4:	0c7a0611 	ldcleq	6, cr0, [sl], #-68	; 0xffffffbc
     7a8:	11880000 	orrne	r0, r8, r0
     7ac:	00164c06 	andseq	r4, r6, r6, lsl #24
     7b0:	06118c00 	ldreq	r8, [r1], -r0, lsl #24
     7b4:	00000f62 	andeq	r0, r0, r2, ror #30
     7b8:	82061190 	andhi	r1, r6, #144, 2	; 0x24
     7bc:	94000016 	strls	r0, [r0], #-22	; 0xffffffea
     7c0:	11700611 	cmnne	r0, r1, lsl r6
     7c4:	11980000 	orrsne	r0, r8, r0
     7c8:	00133606 	andseq	r3, r3, r6, lsl #12
     7cc:	06119c00 	ldreq	r9, [r1], -r0, lsl #24
     7d0:	00000e87 	andeq	r0, r0, r7, lsl #29
     7d4:	990611a0 	stmdbls	r6, {r5, r7, r8, ip}
     7d8:	a400000e 	strge	r0, [r0], #-14
     7dc:	0eab0611 	mcreq	6, 5, r0, cr11, cr1, {0}
     7e0:	11a80000 			; <UNDEFINED> instruction: 0x11a80000
     7e4:	000ebd06 	andeq	fp, lr, r6, lsl #26
     7e8:	0611ac00 	ldreq	sl, [r1], -r0, lsl #24
     7ec:	00000ecf 	andeq	r0, r0, pc, asr #29
     7f0:	e10611b0 			; <UNDEFINED> instruction: 0xe10611b0
     7f4:	b400000e 	strlt	r0, [r0], #-14
     7f8:	0ef30611 	mrceq	6, 7, r0, cr3, cr1, {0}
     7fc:	11b80000 			; <UNDEFINED> instruction: 0x11b80000
     800:	000f0506 	andeq	r0, pc, r6, lsl #10
     804:	0611bc00 	ldreq	fp, [r1], -r0, lsl #24
     808:	00001916 	andeq	r1, r0, r6, lsl r9
     80c:	240611c0 	strcs	r1, [r6], #-448	; 0xfffffe40
     810:	c400000f 	strgt	r0, [r0], #-15
     814:	0d960611 	ldceq	6, cr0, [r6, #68]	; 0x44
     818:	11c80000 	bicne	r0, r8, r0
     81c:	000da906 	andeq	sl, sp, r6, lsl #18
     820:	0611cc00 	ldreq	ip, [r1], -r0, lsl #24
     824:	00000dbc 			; <UNDEFINED> instruction: 0x00000dbc
     828:	cf0611d0 	svcgt	0x000611d0
     82c:	d400000d 	strle	r0, [r0], #-13
     830:	180c0611 	stmdane	ip, {r0, r4, r9, sl}
     834:	11d80000 	bicsne	r0, r8, r0
     838:	000df006 	andeq	pc, sp, r6
     83c:	0611dc00 	ldreq	sp, [r1], -r0, lsl #24
     840:	00001b43 	andeq	r1, r0, r3, asr #22
     844:	5e0611e0 	adfpldz	f1, f6, f0
     848:	e4000015 	str	r0, [r0], #-21	; 0xffffffeb
     84c:	10160611 	andsne	r0, r6, r1, lsl r6
     850:	11e80000 	mvnne	r0, r0
     854:	0013b706 	andseq	fp, r3, r6, lsl #14
     858:	0611ec00 	ldreq	lr, [r1], -r0, lsl #24
     85c:	0000151b 	andeq	r1, r0, fp, lsl r5
     860:	090611f0 	stmdbeq	r6, {r4, r5, r6, r7, r8, ip}
     864:	f4000015 	vst4.8	{d0-d3}, [r0 :64], r5
     868:	106a0611 	rsbne	r0, sl, r1, lsl r6
     86c:	11f80000 	mvnsne	r0, r0
     870:	00105806 	andseq	r5, r0, r6, lsl #16
     874:	0611fc00 	ldreq	pc, [r1], -r0, lsl #24
     878:	0000112d 	andeq	r1, r0, sp, lsr #2
     87c:	9b061280 	blls	185284 <_start-0x7fe7ad7c>
     880:	84000012 	strhi	r0, [r0], #-18	; 0xffffffee
     884:	157d0612 	ldrbne	r0, [sp, #-1554]!	; 0xfffff9ee
     888:	12880000 	addne	r0, r8, #0
     88c:	000bfe06 	andeq	pc, fp, r6, lsl #28
     890:	06128c00 	ldreq	r8, [r2], -r0, lsl #24
     894:	000014f6 	strdeq	r1, [r0], -r6
     898:	28061290 	stmdacs	r6, {r4, r7, r9, ip}
     89c:	94000019 	strls	r0, [r0], #-25	; 0xffffffe7
     8a0:	12e30612 	rscne	r0, r3, #18874368	; 0x1200000
     8a4:	12980000 	addsne	r0, r8, #0
     8a8:	0016cd06 	andseq	ip, r6, r6, lsl #26
     8ac:	06129c00 	ldreq	r9, [r2], -r0, lsl #24
     8b0:	000016bb 			; <UNDEFINED> instruction: 0x000016bb
     8b4:	a90612a0 	stmdbge	r6, {r5, r7, r9, ip}
     8b8:	a4000016 	strge	r0, [r0], #-22	; 0xffffffea
     8bc:	16970612 			; <UNDEFINED> instruction: 0x16970612
     8c0:	12a80000 	adcne	r0, r8, #0
     8c4:	000fc206 	andeq	ip, pc, r6, lsl #4
     8c8:	0612ac00 	ldreq	sl, [r2], -r0, lsl #24
     8cc:	00001474 	andeq	r1, r0, r4, ror r4
     8d0:	d40612b0 	strle	r1, [r6], #-688	; 0xfffffd50
     8d4:	b4000019 	strlt	r0, [r0], #-25	; 0xffffffe7
     8d8:	13240612 			; <UNDEFINED> instruction: 0x13240612
     8dc:	12b80000 	adcsne	r0, r8, #0
     8e0:	0019b706 	andseq	fp, r9, r6, lsl #14
     8e4:	0612bc00 	ldreq	fp, [r2], -r0, lsl #24
     8e8:	000019a5 	andeq	r1, r0, r5, lsr #19
     8ec:	6e0612c0 	cdpvs	2, 0, cr1, cr6, cr0, {6}
     8f0:	c400001a 	strgt	r0, [r0], #-26	; 0xffffffe6
     8f4:	13f70612 	mvnsne	r0, #18874368	; 0x1200000
     8f8:	12c80000 	sbcne	r0, r8, #0
     8fc:	000fb606 	andeq	fp, pc, r6, lsl #12
     900:	0612cc00 	ldreq	ip, [r2], -r0, lsl #24
     904:	00001710 	andeq	r1, r0, r0, lsl r7
     908:	b10612d0 	ldrdlt	r1, [r6, -r0]
     90c:	d4000018 	strle	r0, [r0], #-24	; 0xffffffe8
     910:	1b550612 	blne	1542160 <_start-0x7eabdea0>
     914:	12d80000 	sbcsne	r0, r8, #0
     918:	00134c06 	andseq	r4, r3, r6, lsl #24
     91c:	0612dc00 	ldreq	sp, [r2], -r0, lsl #24
     920:	0000135d 	andeq	r1, r0, sp, asr r3
     924:	620612e0 	andvs	r1, r6, #224, 4
     928:	e400000d 	str	r0, [r0], #-13
     92c:	19470612 	stmdbne	r7, {r1, r4, r9, sl}^
     930:	12e80000 	rscne	r0, r8, #0
     934:	000f3606 	andeq	r3, pc, r6, lsl #12
     938:	0612ec00 	ldreq	lr, [r2], -r0, lsl #24
     93c:	000014e4 	andeq	r1, r0, r4, ror #9
     940:	1f0612f0 	svcne	0x000612f0
     944:	f4000016 	vst4.8	{d0-d3}, [r0 :64], r6
     948:	1b050612 	blne	142198 <_start-0x7febde68>
     94c:	12f80000 	rscsne	r0, r8, #0
     950:	00110906 	andseq	r0, r1, r6, lsl #18
     954:	0612fc00 	ldreq	pc, [r2], -r0, lsl #24
     958:	000015e3 	andeq	r1, r0, r3, ror #11
     95c:	f7061380 			; <UNDEFINED> instruction: 0xf7061380
     960:	84000011 	strhi	r0, [r0], #-17	; 0xffffffef
     964:	1b710613 	blne	1c421b8 <_start-0x7e3bde48>
     968:	13880000 	orrne	r0, r8, #0
     96c:	00198306 	andseq	r8, r9, r6, lsl #6
     970:	06138c00 	ldreq	r8, [r3], -r0, lsl #24
     974:	00001a84 	andeq	r1, r0, r4, lsl #21
     978:	7c061390 	stcvc	3, cr1, [r6], {144}	; 0x90
     97c:	94000012 	strls	r0, [r0], #-18	; 0xffffffee
     980:	18d90613 	ldmne	r9, {r0, r1, r4, r9, sl}^
     984:	13980000 	orrsne	r0, r8, #0
     988:	00154806 	andseq	r4, r5, r6, lsl #16
     98c:	06139c00 	ldreq	r9, [r3], -r0, lsl #24
     990:	00001a47 	andeq	r1, r0, r7, asr #20
     994:	310613a0 	smlatbcc	r6, r0, r3, r1
     998:	a4000012 	strge	r0, [r0], #-18	; 0xffffffee
     99c:	18ed0613 	stmiane	sp!, {r0, r1, r4, r9, sl}^
     9a0:	13a80000 			; <UNDEFINED> instruction: 0x13a80000
     9a4:	00158e06 	andseq	r8, r5, r6, lsl #28
     9a8:	0613ac00 	ldreq	sl, [r3], -r0, lsl #24
     9ac:	0000184b 	andeq	r1, r0, fp, asr #16
     9b0:	640613b0 	strvs	r1, [r6], #-944	; 0xfffffc50
     9b4:	b4000018 	strlt	r0, [r0], #-24	; 0xffffffe8
     9b8:	111c0613 	tstne	ip, r3, lsl r6
     9bc:	13b80000 			; <UNDEFINED> instruction: 0x13b80000
     9c0:	000e0306 	andeq	r0, lr, r6, lsl #6
     9c4:	0613c000 	ldreq	ip, [r3], -r0
     9c8:	0000113e 	andeq	r1, r0, lr, lsr r1
     9cc:	e60613d0 			; <UNDEFINED> instruction: 0xe60613d0
     9d0:	d4000019 	strle	r0, [r0], #-25	; 0xffffffe7
     9d4:	1b650613 	blne	1942228 <_start-0x7e6bddd8>
     9d8:	13d80000 	bicsne	r0, r8, #0
     9dc:	00193b06 	andseq	r3, r9, r6, lsl #22
     9e0:	0613dc00 	ldreq	sp, [r3], -r0, lsl #24
     9e4:	0000141c 	andeq	r1, r0, ip, lsl r4
     9e8:	e70613e0 	str	r1, [r6, -r0, ror #7]
     9ec:	e400000f 	str	r0, [r0], #-15
     9f0:	0ff40613 	svceq	0x00f40613
     9f4:	13e80000 	mvnne	r0, #0
     9f8:	0012ac06 	andseq	sl, r2, r6, lsl #24
     9fc:	0613f800 	ldreq	pc, [r3], -r0, lsl #16
     a00:	000010f3 	strdeq	r1, [r0], -r3
     a04:	d00613fc 	strdle	r1, [r6], -ip
     a08:	80000012 	andhi	r0, r0, r2, lsl r0
     a0c:	10270614 	eorne	r0, r7, r4, lsl r6
     a10:	14840000 	strne	r0, [r4], #0
     a14:	00176f06 	andseq	r6, r7, r6, lsl #30
     a18:	06149c00 	ldreq	r9, [r4], -r0, lsl #24
     a1c:	0000166d 	andeq	r1, r0, sp, ror #12
     a20:	cc0614b4 	cfstrsgt	mvf1, [r6], {180}	; 0xb4
     a24:	80000014 	andhi	r0, r0, r4, lsl r0
     a28:	1268061c 	rsbne	r0, r8, #28, 12	; 0x1c00000
     a2c:	1c840000 	stcne	0, cr0, [r4], {0}
     a30:	001a3606 	andseq	r3, sl, r6, lsl #12
     a34:	061c8c00 	ldreq	r8, [ip], -r0, lsl #24
     a38:	000016f1 	strdeq	r1, [r0], -r1	; <UNPREDICTABLE>
     a3c:	49061c94 	stmdbmi	r6, {r2, r4, r7, sl, fp, ip}
     a40:	9000000d 	andls	r0, r0, sp
     a44:	187d061f 	ldmdane	sp!, {r0, r1, r2, r3, r4, r9, sl}^
     a48:	1f940000 	svcne	0x00940000
     a4c:	00120906 	andseq	r0, r2, r6, lsl #18
     a50:	061f9800 	ldreq	r9, [pc], -r0, lsl #16
     a54:	000014b1 			; <UNDEFINED> instruction: 0x000014b1
     a58:	2b061f9c 	blcs	1888d0 <_start-0x7fe77730>
     a5c:	a000000e 	andge	r0, r0, lr
     a60:	0c0f061f 	stceq	6, cr0, [pc], {31}
     a64:	1fa40000 	svcne	0x00a40000
     a68:	00152d06 	andseq	r2, r5, r6, lsl #26
     a6c:	061fa800 	ldreq	sl, [pc], -r0, lsl #16
     a70:	0000103d 	andeq	r1, r0, sp, lsr r0
     a74:	96061fac 	strls	r1, [r6], -ip, lsr #31
     a78:	b0000014 	andlt	r0, r0, r4, lsl r0
     a7c:	0e10061f 	mrceq	6, 0, r0, cr0, cr15, {0}
     a80:	1fb40000 	svcne	0x00b40000
     a84:	00144506 	andseq	r4, r4, r6, lsl #10
     a88:	061fb800 	ldreq	fp, [pc], -r0, lsl #16
     a8c:	00001b82 	andeq	r1, r0, r2, lsl #23
     a90:	96061fbc 			; <UNDEFINED> instruction: 0x96061fbc
     a94:	c0000018 	andgt	r0, r0, r8, lsl r0
     a98:	142a061f 	strtne	r0, [sl], #-1567	; 0xfffff9e1
     a9c:	1fc40000 	svcne	0x00c40000
     aa0:	00163106 	andseq	r3, r6, r6, lsl #2
     aa4:	061fc800 	ldreq	ip, [pc], -r0, lsl #16
     aa8:	000019f2 	strdeq	r1, [r0], -r2
     aac:	52061fcc 	andpl	r1, r6, #204, 30	; 0x330
     ab0:	d000000e 	andle	r0, r0, lr
     ab4:	13ce061f 	bicne	r0, lr, #32505856	; 0x1f00000
     ab8:	1fd40000 	svcne	0x00d40000
     abc:	00115b06 	andseq	r5, r1, r6, lsl #22
     ac0:	061fd800 	ldreq	sp, [pc], -r0, lsl #16
     ac4:	00000e69 	andeq	r0, r0, r9, ror #28
     ac8:	32062080 	andcc	r2, r6, #128	; 0x80
     acc:	98000018 	stmdals	r0, {r3, r4}
     ad0:	15a40626 	strne	r0, [r4, #1574]!	; 0x626
     ad4:	269c0000 	ldrcs	r0, [ip], r0
     ad8:	00170306 	andseq	r0, r7, r6, lsl #6
     adc:	0626a000 	strteq	sl, [r6], -r0
     ae0:	00001391 	muleq	r0, r1, r3
     ae4:	220626a4 	andcs	r2, r6, #164, 12	; 0xa400000
     ae8:	a8000017 	stmdage	r0, {r0, r1, r2, r4}
     aec:	15ce0626 	strbne	r0, [lr, #1574]	; 0x626
     af0:	26ac0000 	strtcs	r0, [ip], r0
     af4:	00174306 	andseq	r4, r7, r6, lsl #6
     af8:	0626b000 	strteq	fp, [r6], -r0
     afc:	000015f5 	strdeq	r1, [r0], -r5
     b00:	0a0626b4 	beq	18a5d8 <_start-0x7fe75a28>
     b04:	b8000016 	stmdalt	r0, {r1, r2, r4}
     b08:	17840626 	strne	r0, [r4, r6, lsr #12]
     b0c:	26bc0000 	ldrtcs	r0, [ip], r0
     b10:	00179906 	andseq	r9, r7, r6, lsl #18
     b14:	0626c000 	strteq	ip, [r6], -r0
     b18:	00000f78 	andeq	r0, r0, r8, ror pc
     b1c:	c10626c4 	smlabtgt	r6, r4, r6, r2
     b20:	84000018 	strhi	r0, [r0], #-24	; 0xffffffe8
     b24:	14040628 	strne	r0, [r4], #-1576	; 0xfffff9d8
     b28:	28880000 	stmcs	r8, {}	; <UNPREDICTABLE>
     b2c:	0012f606 	andseq	pc, r2, r6, lsl #12
     b30:	06288c00 	strteq	r8, [r8], -r0, lsl #24
     b34:	000011b5 			; <UNDEFINED> instruction: 0x000011b5
     b38:	490628c0 	stmdbmi	r6, {r6, r7, fp, sp}
     b3c:	c400000f 	strgt	r0, [r0], #-15
     b40:	01020028 	tsteq	r2, r8, lsr #32
     b44:	03000010 	movweq	r0, #16
     b48:	00005ae3 	andeq	r5, r0, r3, ror #21
     b4c:	0c380700 	ldceq	7, cr0, [r8], #-0
     b50:	03010000 	movweq	r0, #4096	; 0x1000
     b54:	800001f0 	strdhi	r0, [r0], -r0	; <UNPREDICTABLE>
     b58:	0000003c 	andeq	r0, r0, ip, lsr r0
     b5c:	068c9c01 	streq	r9, [ip], r1, lsl #24
     b60:	c8080000 	stmdagt	r8, {}	; <UNPREDICTABLE>
     b64:	01000017 	tsteq	r0, r7, lsl r0
     b68:	00064f03 	andeq	r4, r6, r3, lsl #30
     b6c:	76910200 	ldrvc	r0, [r1], r0, lsl #4
     b70:	00023d08 	andeq	r3, r2, r8, lsl #26
     b74:	30030100 	andcc	r0, r3, r0, lsl #2
     b78:	02000000 	andeq	r0, r0, #0
     b7c:	09007091 	stmdbeq	r0, {r0, r4, r7, ip, sp, lr}
     b80:	0000114a 	andeq	r1, r0, sl, asr #2
     b84:	00300901 	eorseq	r0, r0, r1, lsl #18
     b88:	022c0000 	eoreq	r0, ip, #0
     b8c:	00348000 	eorseq	r8, r4, r0
     b90:	9c010000 	stcls	0, cr0, [r1], {-0}
     b94:	000006b4 			; <UNDEFINED> instruction: 0x000006b4
     b98:	0017c808 	andseq	ip, r7, r8, lsl #16
     b9c:	4f090100 	svcmi	0x00090100
     ba0:	02000006 	andeq	r0, r0, #6
     ba4:	0a007691 	beq	1e5f0 <_start-0x7ffe1a10>
     ba8:	00000e7b 	andeq	r0, r0, fp, ror lr
     bac:	02600e01 	rsbeq	r0, r0, #1, 28
     bb0:	00588000 	subseq	r8, r8, r0
     bb4:	9c010000 	stcls	0, cr0, [r1], {-0}
     bb8:	000006f4 	strdeq	r0, [r0], -r4
     bbc:	0017c808 	andseq	ip, r7, r8, lsl #16
     bc0:	4f0e0100 	svcmi	0x000e0100
     bc4:	02000006 	andeq	r0, r0, #6
     bc8:	cf086e91 	svcgt	0x00086e91
     bcc:	01000017 	tsteq	r0, r7, lsl r0
     bd0:	0000300e 	andeq	r3, r0, lr
     bd4:	68910200 	ldmvs	r1, {r9}
     bd8:	0001e10b 	andeq	lr, r1, fp, lsl #2
     bdc:	30100100 	andscc	r0, r0, r0, lsl #2
     be0:	02000000 	andeq	r0, r0, #0
     be4:	0c007491 	cfstrseq	mvf7, [r0], {145}	; 0x91
     be8:	00000d7c 	andeq	r0, r0, ip, ror sp
     bec:	02b81d01 	adcseq	r1, r8, #1, 26	; 0x40
     bf0:	00248000 	eoreq	r8, r4, r0
     bf4:	9c010000 	stcls	0, cr0, [r1], {-0}
     bf8:	0000e100 	andeq	lr, r0, r0, lsl #2
     bfc:	fe000400 	cdp2	4, 0, cr0, cr0, cr0, {0}
     c00:	04000001 	streq	r0, [r0], #-1
     c04:	00008001 	andeq	r8, r0, r1
     c08:	1bbf0100 	blne	fefc1010 <value+0x7efbfae6>
     c0c:	00360000 	eorseq	r0, r6, r0
     c10:	02dc0000 	sbcseq	r0, ip, #0
     c14:	00e48000 	rsceq	r8, r4, r0
     c18:	01110000 	tsteq	r1, r0
     c1c:	08020000 	stmdaeq	r2, {}	; <UNPREDICTABLE>
     c20:	00460101 	subeq	r0, r6, r1, lsl #2
     c24:	9d030000 	stcls	0, cr0, [r3, #-0]
     c28:	0100001b 	tsteq	r0, fp, lsl r0
     c2c:	00004601 	andeq	r4, r0, r1, lsl #12
     c30:	72040000 	andvc	r0, r4, #0
     c34:	01006d65 	tsteq	r0, r5, ror #26
     c38:	00004601 	andeq	r4, r0, r1, lsl #12
     c3c:	05000400 	streq	r0, [r0, #-1024]	; 0xfffffc00
     c40:	6e690504 	cdpvs	5, 6, cr0, cr9, cr4, {0}
     c44:	c5060074 	strgt	r0, [r6, #-116]	; 0xffffff8c
     c48:	0100001b 	tsteq	r0, fp, lsl r0
     c4c:	00002501 	andeq	r2, r0, r1, lsl #10
     c50:	1ba20700 	blne	fe882858 <value+0x7e88132e>
     c54:	03010000 	movweq	r0, #4096	; 0x1000
     c58:	0000004d 	andeq	r0, r0, sp, asr #32
     c5c:	800002dc 	ldrdhi	r0, [r0], -ip
     c60:	00000084 	andeq	r0, r0, r4, lsl #1
     c64:	00a69c01 	adceq	r9, r6, r1, lsl #24
     c68:	6e080000 	cdpvs	0, 0, cr0, cr8, cr0, {0}
     c6c:	01006d75 	tsteq	r0, r5, ror sp
     c70:	00004603 	andeq	r4, r0, r3, lsl #12
     c74:	60910200 	addsvs	r0, r1, r0, lsl #4
     c78:	001bd109 	andseq	sp, fp, r9, lsl #2
     c7c:	46030100 	strmi	r0, [r3], -r0, lsl #2
     c80:	02000000 	andeq	r0, r0, #0
     c84:	720a5c91 	andvc	r5, sl, #37120	; 0x9100
     c88:	4d040100 	stfmis	f0, [r4, #-0]
     c8c:	02000000 	andeq	r0, r0, #0
     c90:	710a6c91 			; <UNDEFINED> instruction: 0x710a6c91
     c94:	46050100 	strmi	r0, [r5], -r0, lsl #2
     c98:	02000000 	andeq	r0, r0, #0
     c9c:	0b007491 	bleq	1dee8 <_start-0x7ffe2118>
     ca0:	00001bb2 			; <UNDEFINED> instruction: 0x00001bb2
     ca4:	00461201 	subeq	r1, r6, r1, lsl #4
     ca8:	03600000 	cmneq	r0, #0
     cac:	00608000 	rsbeq	r8, r0, r0
     cb0:	9c010000 	stcls	0, cr0, [r1], {-0}
     cb4:	6d756e08 	ldclvs	14, cr6, [r5, #-32]!	; 0xffffffe0
     cb8:	46120100 	ldrmi	r0, [r2], -r0, lsl #2
     cbc:	02000000 	andeq	r0, r0, #0
     cc0:	d1096c91 			; <UNDEFINED> instruction: 0xd1096c91
     cc4:	0100001b 	tsteq	r0, fp, lsl r0
     cc8:	00004612 	andeq	r4, r0, r2, lsl r6
     ccc:	68910200 	ldmvs	r1, {r9}
     cd0:	0100710a 	tsteq	r0, sl, lsl #2
     cd4:	00004613 	andeq	r4, r0, r3, lsl r6
     cd8:	74910200 	ldrvc	r0, [r1], #512	; 0x200
     cdc:	01320000 	teqeq	r2, r0
     ce0:	00040000 	andeq	r0, r4, r0
     ce4:	000002b8 			; <UNDEFINED> instruction: 0x000002b8
     ce8:	00800104 	addeq	r0, r0, r4, lsl #2
     cec:	dd010000 	stcle	0, cr0, [r1, #-0]
     cf0:	3600001b 			; <UNDEFINED> instruction: 0x3600001b
     cf4:	c0000000 	andgt	r0, r0, r0
     cf8:	fc800003 	stc2	0, cr0, [r0], {3}
     cfc:	55000000 	strpl	r0, [r0, #-0]
     d00:	02000001 	andeq	r0, r0, #1
     d04:	1dce0704 	stclne	7, cr0, [lr, #16]
     d08:	02020000 	andeq	r0, r2, #0
     d0c:	00000907 	andeq	r0, r0, r7, lsl #18
     d10:	08010200 	stmdaeq	r1, {r9}
     d14:	00000072 	andeq	r0, r0, r2, ror r0
     d18:	69050403 	stmdbvs	r5, {r0, r1, sl}
     d1c:	0200746e 	andeq	r7, r0, #1845493760	; 0x6e000000
     d20:	00250502 	eoreq	r0, r5, r2, lsl #10
     d24:	01020000 	mrseq	r0, (UNDEF: 2)
     d28:	00007b08 	andeq	r7, r0, r8, lsl #22
     d2c:	02010400 	andeq	r0, r1, #0, 8
     d30:	0000640a 	andeq	r6, r0, sl, lsl #8
     d34:	1c0c0500 	cfstr32ne	mvfx0, [ip], {-0}
     d38:	05000000 	streq	r0, [r0, #-0]
     d3c:	00001c21 	andeq	r1, r0, r1, lsr #24
     d40:	01040001 	tsteq	r4, r1
     d44:	007f1302 	rsbseq	r1, pc, r2, lsl #6
     d48:	3f050000 	svccc	0x00050000
     d4c:	0000001c 	andeq	r0, r0, ip, lsl r0
     d50:	001c0005 	andseq	r0, ip, r5
     d54:	34050100 	strcc	r0, [r5], #-256	; 0xffffff00
     d58:	0200001c 	andeq	r0, r0, #28
     d5c:	02010400 	andeq	r0, r1, #0, 8
     d60:	00009a20 	andeq	r9, r0, r0, lsr #20
     d64:	1c150500 	cfldr32ne	mvfx0, [r5], {-0}
     d68:	05000000 	streq	r0, [r0, #-0]
     d6c:	00001be4 	andeq	r1, r0, r4, ror #23
     d70:	1c1b0501 	cfldr32ne	mvfx0, [fp], {1}
     d74:	00020000 	andeq	r0, r2, r0
     d78:	001c2906 	andseq	r2, ip, r6, lsl #18
     d7c:	a5150300 	ldrge	r0, [r5, #-768]	; 0xfffffd00
     d80:	07000000 	streq	r0, [r0, -r0]
     d84:	0000ab04 	andeq	sl, r0, r4, lsl #22
     d88:	00b60800 	adcseq	r0, r6, r0, lsl #16
     d8c:	48090000 	stmdami	r9, {}	; <UNPREDICTABLE>
     d90:	00000000 	andeq	r0, r0, r0
     d94:	001bf60a 	andseq	pc, fp, sl, lsl #12
     d98:	c00a0100 	andgt	r0, sl, r0, lsl #2
     d9c:	44800003 	strmi	r0, [r0], #3
     da0:	01000000 	mrseq	r0, (UNDEF: 0)
     da4:	0000f59c 	muleq	r0, ip, r5
     da8:	6d660b00 	vstmdbvs	r6!, {d16-d15}
     dac:	0a010074 	beq	40f84 <_start-0x7ffbf07c>
     db0:	000000f5 	strdeq	r0, [r0], -r5
     db4:	0c709102 	ldfeqp	f1, [r0], #-8
     db8:	006e660d 	rsbeq	r6, lr, sp, lsl #12
     dbc:	009a0c01 	addseq	r0, sl, r1, lsl #24
     dc0:	91020000 	mrsls	r0, (UNDEF: 2)
     dc4:	70610d64 	rsbvc	r0, r1, r4, ror #26
     dc8:	000d0100 	andeq	r0, sp, r0, lsl #2
     dcc:	02000001 	andeq	r0, r0, #1
     dd0:	07006091 			; <UNDEFINED> instruction: 0x07006091
     dd4:	0000fb04 	andeq	pc, r0, r4, lsl #22
     dd8:	00480e00 	subeq	r0, r8, r0, lsl #28
     ddc:	ec0f0000 	stc	0, cr0, [pc], {-0}
     de0:	0400001b 	streq	r0, [r0], #-27	; 0xffffffe5
     de4:	01170004 	tsteq	r7, r4
     de8:	4b100000 	blmi	400df0 <_start-0x7fbff210>
     dec:	1700001c 	smladne	r0, ip, r0, r0
     df0:	00000001 	andeq	r0, r0, r1
     df4:	12041100 	andne	r1, r4, #0, 2
     df8:	00001bd7 	ldrdeq	r1, [r0], -r7
     dfc:	04041301 	streq	r1, [r4], #-769	; 0xfffffcff
     e00:	00b88000 	adcseq	r8, r8, r0
     e04:	9c010000 	stcls	0, cr0, [r1], {-0}
     e08:	00023d13 	andeq	r3, r2, r3, lsl sp
     e0c:	2c080100 	stfcss	f0, [r8], {-0}
     e10:	00000000 	andeq	r0, r0, r0
     e14:	000006e6 	andeq	r0, r0, r6, ror #13
     e18:	03ae0004 			; <UNDEFINED> instruction: 0x03ae0004
     e1c:	01040000 	mrseq	r0, (UNDEF: 4)
     e20:	00000080 	andeq	r0, r0, r0, lsl #1
     e24:	001c7f01 	andseq	r7, ip, r1, lsl #30
     e28:	00003600 	andeq	r3, r0, r0, lsl #12
     e2c:	0004c000 	andeq	ip, r4, r0
     e30:	00041c80 	andeq	r1, r4, r0, lsl #25
     e34:	00020200 	andeq	r0, r2, r0, lsl #4
     e38:	001c0200 	andseq	r0, ip, r0, lsl #4
     e3c:	04020000 	streq	r0, [r2], #-0
     e40:	00000030 	andeq	r0, r0, r0, lsr r0
     e44:	ce070403 	cdpgt	4, 0, cr0, cr7, cr3, {0}
     e48:	0300001d 	movweq	r0, #29
     e4c:	00090702 	andeq	r0, r9, r2, lsl #14
     e50:	f2020000 	vhadd.s8	d0, d2, d0
     e54:	0200001c 	andeq	r0, r0, #28
     e58:	00004906 	andeq	r4, r0, r6, lsl #18
     e5c:	08010300 	stmdaeq	r1, {r8, r9}
     e60:	00000072 	andeq	r0, r0, r2, ror r0
     e64:	69050404 	stmdbvs	r5, {r2, sl}
     e68:	0300746e 	movweq	r7, #1134	; 0x46e
     e6c:	00250502 	eoreq	r0, r5, r2, lsl #10
     e70:	01030000 	mrseq	r0, (UNDEF: 3)
     e74:	00007b08 	andeq	r7, r0, r8, lsl #22
     e78:	03010500 	movweq	r0, #5376	; 0x1500
     e7c:	00016712 	andeq	r6, r1, r2, lsl r7
     e80:	48520600 	ldmdami	r2, {r9, sl}^
     e84:	06000052 			; <UNDEFINED> instruction: 0x06000052
     e88:	00524854 	subseq	r4, r2, r4, asr r8
     e8c:	45490600 	strbmi	r0, [r9, #-1536]	; 0xfffffa00
     e90:	06040052 			; <UNDEFINED> instruction: 0x06040052
     e94:	00524949 	subseq	r4, r2, r9, asr #18
     e98:	43460608 	movtmi	r0, #26120	; 0x6608
     e9c:	06080052 			; <UNDEFINED> instruction: 0x06080052
     ea0:	0052434c 	subseq	r4, r2, ip, asr #6
     ea4:	434d060c 	movtmi	r0, #54796	; 0xd60c
     ea8:	06100052 			; <UNDEFINED> instruction: 0x06100052
     eac:	0052534c 	subseq	r5, r2, ip, asr #6
     eb0:	534d0614 	movtpl	r0, #54804	; 0xd614
     eb4:	06180052 			; <UNDEFINED> instruction: 0x06180052
     eb8:	00524354 	subseq	r4, r2, r4, asr r3
     ebc:	50530618 	subspl	r0, r3, r8, lsl r6
     ec0:	061c0052 			; <UNDEFINED> instruction: 0x061c0052
     ec4:	00524c54 	subseq	r4, r2, r4, asr ip
     ec8:	1ce3071c 	stclne	7, cr0, [r3], #112	; 0x70
     ecc:	07200000 	streq	r0, [r0, -r0]!
     ed0:	00001ce8 	andeq	r1, r0, r8, ror #25
     ed4:	1c6f0724 	stclne	7, cr0, [pc], #-144	; e4c <_start-0x7ffff1b4>
     ed8:	07280000 	streq	r0, [r8, -r0]!
     edc:	00001ccc 	andeq	r1, r0, ip, asr #25
     ee0:	1d680728 	stclne	7, cr0, [r8, #-160]!	; 0xffffff60
     ee4:	072c0000 	streq	r0, [ip, -r0]!
     ee8:	00001cc6 	andeq	r1, r0, r6, asr #25
     eec:	1d61072c 	stclne	7, cr0, [r1, #-176]!	; 0xffffff50
     ef0:	07300000 	ldreq	r0, [r0, -r0]!
     ef4:	00001d9d 	muleq	r0, sp, sp
     ef8:	1d5a0730 	ldclne	7, cr0, [sl, #-192]	; 0xffffff40
     efc:	07340000 	ldreq	r0, [r4, -r0]!
     f00:	00001d97 	muleq	r0, r7, sp
     f04:	4c420634 	mcrrmi	6, 3, r0, r2, cr4
     f08:	07380052 			; <UNDEFINED> instruction: 0x07380052
     f0c:	00001c69 	andeq	r1, r0, r9, ror #24
     f10:	4353063c 	cmpmi	r3, #60, 12	; 0x3c00000
     f14:	00c00052 	sbceq	r0, r0, r2, asr r0
     f18:	52535306 	subspl	r5, r3, #402653184	; 0x18000000
     f1c:	0700c400 	streq	ip, [r0, -r0, lsl #8]
     f20:	00001d0e 	andeq	r1, r0, lr, lsl #26
     f24:	4d0600c8 	stcmi	0, cr0, [r6, #-800]	; 0xfffffce0
     f28:	d0005256 	andle	r5, r0, r6, asr r2
     f2c:	1cc10700 	stclne	7, cr0, [r1], {0}
     f30:	00d40000 	sbcseq	r0, r4, r0
     f34:	001cd207 	andseq	sp, ip, r7, lsl #4
     f38:	0600d800 	streq	sp, [r0], -r0, lsl #16
     f3c:	00524557 	subseq	r4, r2, r7, asr r5
     f40:	de0700dc 	mcrle	0, 0, r0, cr7, cr12, {6}
     f44:	e000001c 	and	r0, r0, ip, lsl r0
     f48:	1d130700 	ldcne	7, cr0, [r3, #-0]
     f4c:	00e40000 	rsceq	r0, r4, r0
     f50:	001c5e07 	andseq	r5, ip, r7, lsl #28
     f54:	0700e800 	streq	lr, [r0, -r0, lsl #16]
     f58:	00001cfa 	strdeq	r1, [r0], -sl
     f5c:	500700ec 	andpl	r0, r7, ip, ror #1
     f60:	f000001c 			; <UNDEFINED> instruction: 0xf000001c
     f64:	1d050700 	stcne	7, cr0, [r5, #-0]
     f68:	00f40000 	rscseq	r0, r4, r0
     f6c:	001ced07 	andseq	lr, ip, r7, lsl #26
     f70:	07018000 	streq	r8, [r1, -r0]
     f74:	00001cff 	strdeq	r1, [r0], -pc	; <UNPREDICTABLE>
     f78:	05000184 	streq	r0, [r0, #-388]	; 0xfffffe7c
     f7c:	7c0a0401 	cfstrsvc	mvf0, [sl], {1}
     f80:	07000001 	streq	r0, [r0, -r1]
     f84:	00001c0c 	andeq	r1, r0, ip, lsl #24
     f88:	1c210700 	stcne	7, cr0, [r1], #-0
     f8c:	00010000 	andeq	r0, r1, r0
     f90:	001d7b02 	andseq	r7, sp, r2, lsl #22
     f94:	670d0400 	strvs	r0, [sp, -r0, lsl #8]
     f98:	05000001 	streq	r0, [r0, #-1]
     f9c:	a2130401 	andsge	r0, r3, #16777216	; 0x1000000
     fa0:	07000001 	streq	r0, [r0, -r1]
     fa4:	00001c3f 	andeq	r1, r0, pc, lsr ip
     fa8:	1c000700 	stcne	7, cr0, [r0], {-0}
     fac:	07010000 	streq	r0, [r1, -r0]
     fb0:	00001c34 	andeq	r1, r0, r4, lsr ip
     fb4:	8a020002 	bhi	80fc4 <_start-0x7ff7f03c>
     fb8:	0400001d 	streq	r0, [r0], #-29	; 0xffffffe3
     fbc:	00018717 	andeq	r8, r1, r7, lsl r7
     fc0:	04010500 	streq	r0, [r1], #-1280	; 0xfffffb00
     fc4:	0001c820 	andeq	ip, r1, r0, lsr #16
     fc8:	1c150700 	ldcne	7, cr0, [r5], {-0}
     fcc:	07000000 	streq	r0, [r0, -r0]
     fd0:	00001be4 	andeq	r1, r0, r4, ror #23
     fd4:	1c1b0701 	ldcne	7, cr0, [fp], {1}
     fd8:	00020000 	andeq	r0, r2, r0
     fdc:	001d3e02 	andseq	r3, sp, r2, lsl #28
     fe0:	ad240400 	cfstrsge	mvf0, [r4, #-0]
     fe4:	05000001 	streq	r0, [r0, #-1]
     fe8:	2c0b0504 	cfstr32cs	mvfx0, [fp], {4}
     fec:	07000002 	streq	r0, [r0, -r2]
     ff0:	00000617 	andeq	r0, r0, r7, lsl r6
     ff4:	a7808080 	strge	r8, [r0, r0, lsl #1]
     ff8:	068d0704 	streq	r0, [sp], r4, lsl #14
     ffc:	88800000 	stmhi	r0, {}	; <UNPREDICTABLE>
    1000:	0704a780 	streq	sl, [r4, -r0, lsl #15]
    1004:	00000763 	andeq	r0, r0, r3, ror #14
    1008:	a7808a80 	strge	r8, [r0, r0, lsl #21]
    100c:	08750704 	ldmdaeq	r5!, {r2, r8, r9, sl}^
    1010:	8c800000 	stchi	0, cr0, [r0], {0}
    1014:	0704a780 	streq	sl, [r4, -r0, lsl #15]
    1018:	0000086b 	andeq	r0, r0, fp, ror #16
    101c:	a7808e80 	strge	r8, [r0, r0, lsl #29]
    1020:	02ae0704 	adceq	r0, lr, #4, 14	; 0x100000
    1024:	90800000 	addls	r0, r0, r0
    1028:	0704a780 	streq	sl, [r4, -r0, lsl #15]
    102c:	000008d9 	ldrdeq	r0, [r0], -r9
    1030:	a7809280 	strge	r9, [r0, r0, lsl #5]
    1034:	06650704 	strbteq	r0, [r5], -r4, lsl #14
    1038:	94800000 	strls	r0, [r0], #0
    103c:	0004a780 	andeq	sl, r4, r0, lsl #15
    1040:	1c050205 	sfmne	f0, 4, [r5], {5}
    1044:	0000053c 	andeq	r0, r0, ip, lsr r5
    1048:	00078007 	andeq	r8, r7, r7
    104c:	bd070000 	stclt	0, cr0, [r7, #-0]
    1050:	04000005 	streq	r0, [r0], #-5
    1054:	00017007 	andeq	r7, r1, r7
    1058:	dc070800 	stcle	8, cr0, [r7], {-0}
    105c:	0c000000 	stceq	0, cr0, [r0], {-0}
    1060:	0004d007 	andeq	sp, r4, r7
    1064:	2f071400 	svccs	0x00071400
    1068:	18000008 	stmdane	r0, {r3}
    106c:	00063907 	andeq	r3, r6, r7, lsl #18
    1070:	5b071c00 	blpl	1c8078 <_start-0x7fe37f88>
    1074:	24000001 	strcs	r0, [r0], #-1
    1078:	00072807 	andeq	r2, r7, r7, lsl #16
    107c:	18072800 	stmdane	r7, {fp, sp}
    1080:	2c000008 	stccs	0, cr0, [r0], {8}
    1084:	0009b807 	andeq	fp, r9, r7, lsl #16
    1088:	f0073000 			; <UNDEFINED> instruction: 0xf0073000
    108c:	34000000 	strcc	r0, [r0], #-0
    1090:	0001b007 	andeq	fp, r1, r7
    1094:	b5073800 	strlt	r3, [r7, #-2048]	; 0xfffff800
    1098:	3c000002 	stccc	0, cr0, [r0], {2}
    109c:	00073c07 	andeq	r3, r7, r7, lsl #24
    10a0:	0700c000 	streq	ip, [r0, -r0]
    10a4:	00000362 	andeq	r0, r0, r2, ror #6
    10a8:	dd0700c4 	stcle	0, cr0, [r7, #-784]	; 0xfffffcf0
    10ac:	c8000002 	stmdagt	r0, {r1}
    10b0:	01060700 	tsteq	r6, r0, lsl #14
    10b4:	00cc0000 	sbceq	r0, ip, r0
    10b8:	00046807 	andeq	r6, r4, r7, lsl #16
    10bc:	0700d000 	streq	sp, [r0, -r0]
    10c0:	000005a9 	andeq	r0, r0, r9, lsr #11
    10c4:	9a0700e0 	bls	1c144c <_start-0x7fe3ebb4>
    10c8:	e4000002 	str	r0, [r0], #-2
    10cc:	01450700 	cmpeq	r5, r0, lsl #14
    10d0:	00e80000 	rsceq	r0, r8, r0
    10d4:	000a4307 	andeq	r4, sl, r7, lsl #6
    10d8:	0700ec00 	streq	lr, [r0, -r0, lsl #24]
    10dc:	00000aec 	andeq	r0, r0, ip, ror #21
    10e0:	760700f0 			; <UNDEFINED> instruction: 0x760700f0
    10e4:	f4000003 	vst4.8	{d0-d3}, [r0], r3
    10e8:	01300700 	teqeq	r0, r0, lsl #14
    10ec:	00f80000 	rscseq	r0, r8, r0
    10f0:	00050307 	andeq	r0, r5, r7, lsl #6
    10f4:	0700fc00 	streq	pc, [r0, -r0, lsl #24]
    10f8:	0000031d 	andeq	r0, r0, sp, lsl r3
    10fc:	8b070180 	blhi	1c1704 <_start-0x7fe3e8fc>
    1100:	84000003 	strhi	r0, [r0], #-3
    1104:	040f0701 	streq	r0, [pc], #-1793	; 110c <_start-0x7fffeef4>
    1108:	01880000 	orreq	r0, r8, r0
    110c:	0006e807 	andeq	lr, r6, r7, lsl #16
    1110:	0701ac00 	streq	sl, [r1, -r0, lsl #24]
    1114:	00000713 	andeq	r0, r0, r3, lsl r7
    1118:	6b0701b0 	blvs	1c17e0 <_start-0x7fe3e820>
    111c:	b4000007 	strlt	r0, [r0], #-7
    1120:	08f90701 	ldmeq	r9!, {r0, r8, r9, sl}^
    1124:	01bc0000 			; <UNDEFINED> instruction: 0x01bc0000
    1128:	00028507 	andeq	r8, r2, r7, lsl #10
    112c:	0701c000 	streq	ip, [r1, -r0]
    1130:	0000048e 	andeq	r0, r0, lr, lsl #9
    1134:	bd0701c4 	stflts	f0, [r7, #-784]	; 0xfffffcf0
    1138:	cc00000a 	stcgt	0, cr0, [r0], {10}
    113c:	094a0701 	stmdbeq	sl, {r0, r8, r9, sl}^
    1140:	01d00000 	bicseq	r0, r0, r0
    1144:	0004a307 	andeq	sl, r4, r7, lsl #6
    1148:	0701d400 	streq	sp, [r1, -r0, lsl #8]
    114c:	00000566 	andeq	r0, r0, r6, ror #10
    1150:	d40701d8 	strle	r0, [r7], #-472	; 0xfffffe28
    1154:	dc00000a 	stcle	0, cr0, [r0], {10}
    1158:	047c0701 	ldrbteq	r0, [ip], #-1793	; 0xfffff8ff
    115c:	01e00000 	mvneq	r0, r0
    1160:	00030507 	andeq	r0, r3, r7, lsl #10
    1164:	0701e400 	streq	lr, [r1, -r0, lsl #8]
    1168:	000006bc 			; <UNDEFINED> instruction: 0x000006bc
    116c:	520701e8 	andpl	r0, r7, #232, 2	; 0x3a
    1170:	ec000004 	stc	0, cr0, [r0], {4}
    1174:	04ba0701 	ldrteq	r0, [sl], #1793	; 0x701
    1178:	01f00000 	mvnseq	r0, r0
    117c:	00033307 	andeq	r3, r3, r7, lsl #6
    1180:	0701f400 	streq	pc, [r1, -r0, lsl #8]
    1184:	000003a1 	andeq	r0, r0, r1, lsr #7
    1188:	960701f8 			; <UNDEFINED> instruction: 0x960701f8
    118c:	fc000007 	stc2	0, cr0, [r0], {7}
    1190:	08030701 	stmdaeq	r3, {r0, r8, r9, sl}
    1194:	02800000 	addeq	r0, r0, #0
    1198:	0003b507 	andeq	fp, r3, r7, lsl #10
    119c:	07028c00 	streq	r8, [r2, -r0, lsl #24]
    11a0:	0000064d 	andeq	r0, r0, sp, asr #12
    11a4:	1a070290 	bne	1c1bec <_start-0x7fe3e414>
    11a8:	9c000001 	stcls	0, cr0, [r0], {1}
    11ac:	09210702 	stmdbeq	r1!, {r1, r8, r9, sl}
    11b0:	02a00000 	adceq	r0, r0, #0
    11b4:	0009cc07 	andeq	ip, r9, r7, lsl #24
    11b8:	0702ac00 	streq	sl, [r2, -r0, lsl #24]
    11bc:	00000534 	andeq	r0, r0, r4, lsr r5
    11c0:	290702b0 	stmdbcs	r7, {r4, r5, r7, r9}
    11c4:	c000000a 	andgt	r0, r0, sl
    11c8:	087c0702 	ldmdaeq	ip!, {r1, r8, r9, sl}^
    11cc:	02c40000 	sbceq	r0, r4, #0
    11d0:	000a1307 	andeq	r1, sl, r7, lsl #6
    11d4:	0702c800 	streq	ip, [r2, -r0, lsl #16]
    11d8:	00000243 	andeq	r0, r0, r3, asr #4
    11dc:	1e0702cc 	cdpne	2, 0, cr0, cr7, cr12, {6}
    11e0:	d0000006 	andle	r0, r0, r6
    11e4:	097c0702 	ldmdbeq	ip!, {r1, r8, r9, sl}^
    11e8:	07000000 	streq	r0, [r0, -r0]
    11ec:	00000425 	andeq	r0, r0, r5, lsr #8
    11f0:	09fd0704 	ldmibeq	sp!, {r2, r8, r9, sl}^
    11f4:	07080000 	streq	r0, [r8, -r0]
    11f8:	00000b01 	andeq	r0, r0, r1, lsl #22
    11fc:	09a1070c 	stmibeq	r1!, {r2, r3, r8, r9, sl}
    1200:	07100000 	ldreq	r0, [r0, -r0]
    1204:	000008ad 	andeq	r0, r0, sp, lsr #17
    1208:	07c00714 	bfieq	r0, r4, (invalid: 14:0)
    120c:	07180000 	ldreq	r0, [r8, -r0]
    1210:	00000935 	andeq	r0, r0, r5, lsr r9
    1214:	0843071c 	stmdaeq	r3, {r2, r3, r4, r8, r9, sl}^
    1218:	07200000 	streq	r0, [r0, -r0]!
    121c:	00000519 	andeq	r0, r0, r9, lsl r5
    1220:	03470724 	movteq	r0, #30500	; 0x7724
    1224:	07280000 	streq	r0, [r8, -r0]!
    1228:	00000961 	andeq	r0, r0, r1, ror #18
    122c:	07ab072c 	streq	r0, [fp, ip, lsr #14]!
    1230:	07300000 	ldreq	r0, [r0, -r0]!
    1234:	000001e6 	andeq	r0, r0, r6, ror #3
    1238:	08920734 	ldmeq	r2, {r2, r4, r5, r8, r9, sl}
    123c:	07380000 	ldreq	r0, [r8, -r0]!
    1240:	00000186 	andeq	r0, r0, r6, lsl #3
    1244:	07d4073c 			; <UNDEFINED> instruction: 0x07d4073c
    1248:	00c00000 	sbceq	r0, r0, r0
    124c:	000a5807 	andeq	r5, sl, r7, lsl #16
    1250:	0700c400 	streq	ip, [r0, -r0, lsl #8]
    1254:	000008c5 	andeq	r0, r0, r5, asr #17
    1258:	c50700c8 	strgt	r0, [r7, #-200]	; 0xffffff38
    125c:	cc000001 	stcgt	0, cr0, [r0], {1}
    1260:	0aa10700 	beq	fe842e68 <value+0x7e84193e>
    1264:	00d00000 	sbcseq	r0, r0, r0
    1268:	00060307 	andeq	r0, r6, r7, lsl #6
    126c:	0700d400 	streq	sp, [r0, -r0, lsl #8]
    1270:	0000025c 	andeq	r0, r0, ip, asr r2
    1274:	950700d8 	strls	r0, [r7, #-216]	; 0xffffff28
    1278:	dc000006 	stcle	0, cr0, [r0], {6}
    127c:	04e70700 	strbteq	r0, [r7], #1792	; 0x700
    1280:	00e00000 	rsceq	r0, r0, r0
    1284:	0007e707 	andeq	lr, r7, r7, lsl #14
    1288:	0700e400 	streq	lr, [r0, -r0, lsl #8]
    128c:	000002c9 	andeq	r0, r0, r9, asr #5
    1290:	f90700e8 			; <UNDEFINED> instruction: 0xf90700e8
    1294:	ec000001 	stc	0, cr0, [r0], {1}
    1298:	06a90700 	strteq	r0, [r9], r0, lsl #14
    129c:	00f00000 	rscseq	r0, r0, r0
    12a0:	00022207 	andeq	r2, r2, r7, lsl #4
    12a4:	0700f400 	streq	pc, [r0, -r0, lsl #8]
    12a8:	00000a6e 	andeq	r0, r0, lr, ror #20
    12ac:	fd0700f8 	stc2	0, cr0, [r7, #-992]	; 0xfffffc20
    12b0:	fc000006 	stc2	0, cr0, [r0], {6}
    12b4:	02f10700 	rscseq	r0, r1, #0, 14
    12b8:	01800000 	orreq	r0, r0, r0
    12bc:	00020e07 	andeq	r0, r2, r7, lsl #28
    12c0:	07018400 	streq	r8, [r1, -r0, lsl #8]
    12c4:	0000074f 	andeq	r0, r0, pc, asr #14
    12c8:	d4070188 	strle	r0, [r7], #-392	; 0xfffffe78
    12cc:	8c000006 	stchi	0, cr0, [r0], {6}
    12d0:	03f00701 	mvnseq	r0, #262144	; 0x40000
    12d4:	01900000 	orrseq	r0, r0, r0
    12d8:	0005d207 	andeq	sp, r5, r7, lsl #4
    12dc:	07019400 	streq	r9, [r1, -r0, lsl #8]
    12e0:	00000856 	andeq	r0, r0, r6, asr r8
    12e4:	93070198 	movwls	r0, #29080	; 0x7198
    12e8:	9c000005 	stcls	0, cr0, [r0], {5}
    12ec:	0b3a0701 	bleq	e82ef8 <_start-0x7f17d108>
    12f0:	01a00000 	moveq	r0, r0
    12f4:	00090d07 	andeq	r0, r9, r7, lsl #26
    12f8:	0701a400 	streq	sl, [r1, -r0, lsl #8]
    12fc:	00000272 	andeq	r0, r0, r2, ror r2
    1300:	8e0701a8 	adfhidp	f0, f7, #0.0
    1304:	ac000009 	stcge	0, cr0, [r0], {9}
    1308:	03d80701 	bicseq	r0, r8, #262144	; 0x40000
    130c:	01b00000 	movseq	r0, r0
    1310:	00057d07 	andeq	r7, r5, r7, lsl #26
    1314:	0701b400 	streq	fp, [r1, -r0, lsl #8]
    1318:	00000b25 	andeq	r0, r0, r5, lsr #22
    131c:	890701b8 	stmdbhi	r7, {r3, r4, r5, r7, r8}
    1320:	bc00000a 	stclt	0, cr0, [r0], {10}
    1324:	05490701 	strbeq	r0, [r9, #-1793]	; 0xfffff8ff
    1328:	01c00000 	biceq	r0, r0, r0
    132c:	0009e607 	andeq	lr, r9, r7, lsl #12
    1330:	0701c400 	streq	ip, [r1, -r0, lsl #8]
    1334:	000005e6 	andeq	r0, r0, r6, ror #11
    1338:	e00701c8 	and	r0, r7, r8, asr #3
    133c:	cc000008 	stcgt	0, cr0, [r0], {8}
    1340:	043d0701 	ldrteq	r0, [sp], #-1793	; 0xfffff8ff
    1344:	01d40000 	bicseq	r0, r4, r0
    1348:	00067907 	andeq	r7, r6, r7, lsl #18
    134c:	0001d800 	andeq	sp, r1, r0, lsl #16
    1350:	001c7508 	andseq	r7, ip, r8, lsl #10
    1354:	c0080100 	andgt	r0, r8, r0, lsl #2
    1358:	58800004 	stmpl	r0, {r2}
    135c:	01000000 	mrseq	r0, (UNDEF: 0)
    1360:	0005609c 	muleq	r5, ip, r0
    1364:	1c980900 	ldcne	9, cr0, [r8], {0}
    1368:	0a010000 	beq	41370 <_start-0x7ffbec90>
    136c:	00000030 	andeq	r0, r0, r0, lsr r0
    1370:	00749102 	rsbseq	r9, r4, r2, lsl #2
    1374:	001ca60a 	andseq	sl, ip, sl, lsl #12
    1378:	18130100 	ldmdane	r3, {r8}
    137c:	f8800005 			; <UNDEFINED> instruction: 0xf8800005
    1380:	01000001 	tsteq	r0, r1
    1384:	0005ae9c 	muleq	r5, ip, lr
    1388:	1c550b00 	mrrcne	11, 0, r0, r5, cr0
    138c:	13010000 	movwne	r0, #4096	; 0x1000
    1390:	00000030 	andeq	r0, r0, r0, lsr r0
    1394:	09649102 	stmdbeq	r4!, {r1, r8, ip, pc}^
    1398:	000001e1 	andeq	r0, r0, r1, ror #3
    139c:	00301601 	eorseq	r1, r0, r1, lsl #12
    13a0:	91020000 	mrsls	r0, (UNDEF: 2)
    13a4:	69640c74 	stmdbvs	r4!, {r2, r4, r5, r6, sl, fp}^
    13a8:	34010076 	strcc	r0, [r1], #-118	; 0xffffff8a
    13ac:	000005ae 	andeq	r0, r0, lr, lsr #11
    13b0:	09709102 	ldmdbeq	r0!, {r1, r8, ip, pc}^
    13b4:	00001cd7 	ldrdeq	r1, [r0], -r7
    13b8:	00303501 	eorseq	r3, r0, r1, lsl #10
    13bc:	91020000 	mrsls	r0, (UNDEF: 2)
    13c0:	0403006c 	streq	r0, [r3], #-108	; 0xffffff94
    13c4:	001ca004 	andseq	sl, ip, r4
    13c8:	1d500d00 	ldclne	13, cr0, [r0, #-0]
    13cc:	3f010000 	svccc	0x00010000
    13d0:	80000710 	andhi	r0, r0, r0, lsl r7
    13d4:	0000004c 	andeq	r0, r0, ip, asr #32
    13d8:	06039c01 	streq	r9, [r3], -r1, lsl #24
    13dc:	550b0000 	strpl	r0, [fp, #-0]
    13e0:	0100001c 	tsteq	r0, ip, lsl r0
    13e4:	0000303f 	andeq	r3, r0, pc, lsr r0
    13e8:	74910200 	ldrvc	r0, [r1], #512	; 0x200
    13ec:	001d820b 	andseq	r8, sp, fp, lsl #4
    13f0:	c83f0100 	ldmdagt	pc!, {r8}	; <UNPREDICTABLE>
    13f4:	02000001 	andeq	r0, r0, #1
    13f8:	370b7391 			; <UNDEFINED> instruction: 0x370b7391
    13fc:	0100001d 	tsteq	r0, sp, lsl r0
    1400:	0001a23f 	andeq	sl, r1, pc, lsr r2
    1404:	72910200 	addsvc	r0, r1, #0, 4
    1408:	001d6f0b 	andseq	r6, sp, fp, lsl #30
    140c:	7c3f0100 	ldfvcs	f0, [pc], #-0	; 1414 <_start-0x7fffebec>
    1410:	02000001 	andeq	r0, r0, #1
    1414:	0d007191 	stfeqs	f7, [r0, #-580]	; 0xfffffdbc
    1418:	00001c8e 	andeq	r1, r0, lr, lsl #25
    141c:	075c4e01 	ldrbeq	r4, [ip, -r1, lsl #28]
    1420:	00608000 	rsbeq	r8, r0, r0
    1424:	9c010000 	stcls	0, cr0, [r1], {-0}
    1428:	00000625 	andeq	r0, r0, r5, lsr #12
    142c:	0100630e 	tsteq	r0, lr, lsl #6
    1430:	00005e4e 	andeq	r5, r0, lr, asr #28
    1434:	77910200 	ldrvc	r0, [r1, r0, lsl #4]
    1438:	1d2d0f00 	stcne	15, cr0, [sp, #-0]
    143c:	59010000 	stmdbpl	r1, {}	; <UNPREDICTABLE>
    1440:	0000005e 	andeq	r0, r0, lr, asr r0
    1444:	800007bc 			; <UNDEFINED> instruction: 0x800007bc
    1448:	00000048 	andeq	r0, r0, r8, asr #32
    144c:	1e109c01 	cdpne	12, 1, cr9, cr0, cr1, {0}
    1450:	0100001d 	tsteq	r0, sp, lsl r0
    1454:	0000505f 	andeq	r5, r0, pc, asr r0
    1458:	00080400 	andeq	r0, r8, r0, lsl #8
    145c:	00006c80 	andeq	r6, r0, r0, lsl #25
    1460:	869c0100 	ldrhi	r0, [ip], r0, lsl #2
    1464:	0e000006 	cdpeq	0, 0, cr0, cr0, cr6, {0}
    1468:	00727473 	rsbseq	r7, r2, r3, ror r4
    146c:	06865f01 	streq	r5, [r6], r1, lsl #30
    1470:	91020000 	mrsls	r0, (UNDEF: 2)
    1474:	1d49096c 	stclne	9, cr0, [r9, #-432]	; 0xfffffe50
    1478:	61010000 	mrsvs	r0, (UNDEF: 1)
    147c:	00000050 	andeq	r0, r0, r0, asr r0
    1480:	11709102 	cmnne	r0, r2, lsl #2
    1484:	80000820 	andhi	r0, r0, r0, lsr #16
    1488:	00000040 	andeq	r0, r0, r0, asr #32
    148c:	0100690c 	tsteq	r0, ip, lsl #18
    1490:	00005062 	andeq	r5, r0, r2, rrx
    1494:	74910200 	ldrvc	r0, [r1], #512	; 0x200
    1498:	04120000 	ldreq	r0, [r2], #-0
    149c:	0000005e 	andeq	r0, r0, lr, asr r0
    14a0:	001cb210 	andseq	fp, ip, r0, lsl r2
    14a4:	50690100 	rsbpl	r0, r9, r0, lsl #2
    14a8:	70000000 	andvc	r0, r0, r0
    14ac:	6c800008 	stcvs	0, cr0, [r0], {8}
    14b0:	01000000 	mrseq	r0, (UNDEF: 0)
    14b4:	0006d89c 	muleq	r6, ip, r8
    14b8:	75620e00 	strbvc	r0, [r2, #-3584]!	; 0xfffff200
    14bc:	69010066 	stmdbvs	r1, {r1, r2, r5, r6}
    14c0:	00000686 	andeq	r0, r0, r6, lsl #13
    14c4:	09649102 	stmdbeq	r4!, {r1, r8, ip, pc}^
    14c8:	00001d49 	andeq	r1, r0, r9, asr #26
    14cc:	00506b01 	subseq	r6, r0, r1, lsl #22
    14d0:	91020000 	mrsls	r0, (UNDEF: 2)
    14d4:	088c1168 	stmeq	ip, {r3, r5, r6, r8, ip}
    14d8:	00408000 	subeq	r8, r0, r0
    14dc:	690c0000 	stmdbvs	ip, {}	; <UNPREDICTABLE>
    14e0:	506c0100 	rsbpl	r0, ip, r0, lsl #2
    14e4:	02000000 	andeq	r0, r0, #0
    14e8:	00006c91 	muleq	r0, r1, ip
    14ec:	00023d13 	andeq	r3, r2, r3, lsl sp
    14f0:	37070100 	strcc	r0, [r7, -r0, lsl #2]
    14f4:	05000000 	streq	r0, [r0, #-0]
    14f8:	00152a03 	andseq	r2, r5, r3, lsl #20
    14fc:	02910080 	addseq	r0, r1, #128	; 0x80
    1500:	00040000 	andeq	r0, r4, r0
    1504:	000004e3 	andeq	r0, r0, r3, ror #9
    1508:	00800104 	addeq	r0, r0, r4, lsl #2
    150c:	a8010000 	stmdage	r1, {}	; <UNPREDICTABLE>
    1510:	2700001d 	smladcs	r0, sp, r0, r0
    1514:	dc00001e 	stcle	0, cr0, [r0], {30}
    1518:	9c800008 	stcls	0, cr0, [r0], {8}
    151c:	f5000006 			; <UNDEFINED> instruction: 0xf5000006
    1520:	02000002 	andeq	r0, r0, #2
    1524:	00001c29 	andeq	r1, r0, r9, lsr #24
    1528:	00301502 	eorseq	r1, r0, r2, lsl #10
    152c:	04030000 	streq	r0, [r3], #-0
    1530:	00000036 	andeq	r0, r0, r6, lsr r0
    1534:	00004104 	andeq	r4, r0, r4, lsl #2
    1538:	00410500 	subeq	r0, r1, r0, lsl #10
    153c:	06000000 	streq	r0, [r0], -r0
    1540:	007b0801 	rsbseq	r0, fp, r1, lsl #16
    1544:	b7070000 	strlt	r0, [r7, -r0]
    1548:	0100001d 	tsteq	r0, sp, lsl r0
    154c:	0008dc13 	andeq	sp, r8, r3, lsl ip
    1550:	00016080 	andeq	r6, r1, r0, lsl #1
    1554:	ce9c0100 	fmlgte	f0, f4, f0
    1558:	08000000 	stmdaeq	r0, {}	; <UNPREDICTABLE>
    155c:	0074756f 	rsbseq	r7, r4, pc, ror #10
    1560:	00251301 	eoreq	r1, r5, r1, lsl #6
    1564:	91020000 	mrsls	r0, (UNDEF: 2)
    1568:	756e0864 	strbvc	r0, [lr, #-2148]!	; 0xfffff79c
    156c:	1401006d 	strne	r0, [r1], #-109	; 0xffffff93
    1570:	000000ce 	andeq	r0, r0, lr, asr #1
    1574:	09609102 	stmdbeq	r0!, {r1, r8, ip, pc}^
    1578:	00001e0c 	andeq	r1, r0, ip, lsl #28
    157c:	00da1401 	sbcseq	r1, sl, r1, lsl #8
    1580:	91020000 	mrsls	r0, (UNDEF: 2)
    1584:	1e02095c 	mcrne	9, 0, r0, cr2, cr12, {2}
    1588:	15010000 	strne	r0, [r1, #-0]
    158c:	000000da 	ldrdeq	r0, [r0], -sl
    1590:	0a589102 	beq	16259a0 <_start-0x7e9da660>
    1594:	00736f70 	rsbseq	r6, r3, r0, ror pc
    1598:	00e11b01 	rsceq	r1, r1, r1, lsl #22
    159c:	91020000 	mrsls	r0, (UNDEF: 2)
    15a0:	1ddb0b74 	vldrne	d16, [fp, #464]	; 0x1d0
    15a4:	1c010000 	stcne	0, cr0, [r1], {-0}
    15a8:	000000e1 	andeq	r0, r0, r1, ror #1
    15ac:	0b709102 	bleq	1c259bc <_start-0x7e3da644>
    15b0:	00001de5 	andeq	r1, r0, r5, ror #27
    15b4:	00da1d01 	sbcseq	r1, sl, r1, lsl #26
    15b8:	91020000 	mrsls	r0, (UNDEF: 2)
    15bc:	1e940b6c 	vfnmane.f64	d0, d4, d28
    15c0:	1e010000 	cdpne	0, 0, cr0, cr1, cr0, {0}
    15c4:	000000da 	ldrdeq	r0, [r0], -sl
    15c8:	00689102 	rsbeq	r9, r8, r2, lsl #2
    15cc:	0000d30c 	andeq	sp, r0, ip, lsl #6
    15d0:	07040600 	streq	r0, [r4, -r0, lsl #12]
    15d4:	00001dc9 	andeq	r1, r0, r9, asr #27
    15d8:	6905040d 	stmdbvs	r5, {r0, r2, r3, sl}
    15dc:	0600746e 	streq	r7, [r0], -lr, ror #8
    15e0:	1e710504 	cdpne	5, 7, cr0, cr1, cr4, {0}
    15e4:	15070000 	strne	r0, [r7, #-0]
    15e8:	0100001e 	tsteq	r0, lr, lsl r0
    15ec:	000a3c3c 	andeq	r3, sl, ip, lsr ip
    15f0:	00011880 	andeq	r1, r1, r0, lsl #17
    15f4:	789c0100 	ldmvc	ip, {r8}
    15f8:	08000001 	stmdaeq	r0, {r0}
    15fc:	0074756f 	rsbseq	r7, r4, pc, ror #10
    1600:	00253c01 	eoreq	r3, r5, r1, lsl #24
    1604:	91020000 	mrsls	r0, (UNDEF: 2)
    1608:	756e0864 	strbvc	r0, [lr, #-2148]!	; 0xfffff79c
    160c:	3d01006d 	stccc	0, cr0, [r1, #-436]	; 0xfffffe4c
    1610:	000000ce 	andeq	r0, r0, lr, asr #1
    1614:	09609102 	stmdbeq	r0!, {r1, r8, ip, pc}^
    1618:	00001e0c 	andeq	r1, r0, ip, lsl #28
    161c:	00da3d01 	sbcseq	r3, sl, r1, lsl #26
    1620:	91020000 	mrsls	r0, (UNDEF: 2)
    1624:	1e02095c 	mcrne	9, 0, r0, cr2, cr12, {2}
    1628:	3e010000 	cdpcc	0, 0, cr0, cr1, cr0, {0}
    162c:	000000da 	ldrdeq	r0, [r0], -sl
    1630:	0b589102 	bleq	1625a40 <_start-0x7e9da5c0>
    1634:	00001da3 	andeq	r1, r0, r3, lsr #27
    1638:	00da4001 	sbcseq	r4, sl, r1
    163c:	91020000 	mrsls	r0, (UNDEF: 2)
    1640:	1de50b74 	stclne	11, cr0, [r5, #464]!	; 0x1d0
    1644:	41010000 	mrsmi	r0, (UNDEF: 1)
    1648:	000000da 	ldrdeq	r0, [r0], -sl
    164c:	0b709102 	bleq	1c25a5c <_start-0x7e3da5a4>
    1650:	00001e94 	muleq	r0, r4, lr
    1654:	00da4201 	sbcseq	r4, sl, r1, lsl #4
    1658:	91020000 	mrsls	r0, (UNDEF: 2)
    165c:	0a740e6c 	beq	1d05014 <_start-0x7e2fafec>
    1660:	00c08000 	sbceq	r8, r0, r0
    1664:	8d0b0000 	stchi	0, cr0, [fp, #-0]
    1668:	0100001e 	tsteq	r0, lr, lsl r0
    166c:	00004145 	andeq	r4, r0, r5, asr #2
    1670:	6b910200 	blvs	fe441e78 <value+0x7e44094e>
    1674:	f90f0000 			; <UNDEFINED> instruction: 0xf90f0000
    1678:	0100001d 	tsteq	r0, sp, lsl r0
    167c:	000b545f 	andeq	r5, fp, pc, asr r4
    1680:	00042480 	andeq	r2, r4, r0, lsl #9
    1684:	6a9c0100 	bvs	fe701a8c <value+0x7e700562>
    1688:	08000002 	stmdaeq	r0, {r1}
    168c:	0074756f 	rsbseq	r7, r4, pc, ror #10
    1690:	00255f01 	eoreq	r5, r5, r1, lsl #30
    1694:	91020000 	mrsls	r0, (UNDEF: 2)
    1698:	6d660854 	stclvs	8, cr0, [r6, #-336]!	; 0xfffffeb0
    169c:	5f010074 	svcpl	0x00010074
    16a0:	0000026a 	andeq	r0, r0, sl, ror #4
    16a4:	08509102 	ldmdaeq	r0, {r1, r8, ip, pc}^
    16a8:	01007061 	tsteq	r0, r1, rrx
    16ac:	0002755f 	andeq	r7, r2, pc, asr r5
    16b0:	4c910200 	lfmmi	f0, 4, [r1], {0}
    16b4:	001e800b 	andseq	r8, lr, fp
    16b8:	da610100 	ble	1841ac0 <_start-0x7e7be540>
    16bc:	02000000 	andeq	r0, r0, #0
    16c0:	0c0b7491 	cfstrseq	mvf7, [fp], {145}	; 0x91
    16c4:	0100001e 	tsteq	r0, lr, lsl r0
    16c8:	0000da62 	andeq	sp, r0, r2, ror #20
    16cc:	70910200 	addsvc	r0, r1, r0, lsl #4
    16d0:	001e020b 	andseq	r0, lr, fp, lsl #4
    16d4:	da630100 	ble	18c1adc <_start-0x7e73e524>
    16d8:	02000000 	andeq	r0, r0, #0
    16dc:	7a106c91 	bvc	41c928 <_start-0x7fbe36d8>
    16e0:	0100001e 	tsteq	r0, lr, lsl r0
    16e4:	000f54bf 			; <UNDEFINED> instruction: 0x000f54bf
    16e8:	0dbc1180 	ldfeqs	f1, [ip, #512]!	; 0x200
    16ec:	00608000 	rsbeq	r8, r0, r0
    16f0:	02050000 	andeq	r0, r5, #0
    16f4:	640a0000 	strvs	r0, [sl], #-0
    16f8:	e1860100 	orr	r0, r6, r0, lsl #2
    16fc:	02000000 	andeq	r0, r0, #0
    1700:	11006891 			; <UNDEFINED> instruction: 0x11006891
    1704:	80000e1c 	andhi	r0, r0, ip, lsl lr
    1708:	0000002c 	andeq	r0, r0, ip, lsr #32
    170c:	0000021f 	andeq	r0, r0, pc, lsl r2
    1710:	0100750a 	tsteq	r0, sl, lsl #10
    1714:	0000d392 	muleq	r0, r2, r3
    1718:	60910200 	addsvs	r0, r1, r0, lsl #4
    171c:	0e701100 	rpweqs	f1, f0, f0
    1720:	002c8000 	eoreq	r8, ip, r0
    1724:	02390000 	eorseq	r0, r9, #0
    1728:	780a0000 	stmdavc	sl, {}	; <UNPREDICTABLE>
    172c:	d3a10100 			; <UNDEFINED> instruction: 0xd3a10100
    1730:	02000000 	andeq	r0, r0, #0
    1734:	11005c91 			; <UNDEFINED> instruction: 0x11005c91
    1738:	80000e9c 	mulhi	r0, ip, lr
    173c:	00000048 	andeq	r0, r0, r8, asr #32
    1740:	00000253 	andeq	r0, r0, r3, asr r2
    1744:	0100730a 	tsteq	r0, sl, lsl #6
    1748:	00028ea8 	andeq	r8, r2, r8, lsr #29
    174c:	64910200 	ldrvs	r0, [r1], #512	; 0x200
    1750:	0ee40e00 	cdpeq	14, 14, cr0, cr4, cr0, {0}
    1754:	002c8000 	eoreq	r8, ip, r0
    1758:	630a0000 	movwvs	r0, #40960	; 0xa000
    175c:	daaf0100 	ble	febc1b64 <value+0x7ebc063a>
    1760:	02000000 	andeq	r0, r0, #0
    1764:	00005891 	muleq	r0, r1, r8
    1768:	02700403 	rsbseq	r0, r0, #50331648	; 0x3000000
    176c:	410c0000 	mrsmi	r0, (UNDEF: 12)
    1770:	12000000 	andne	r0, r0, #0
    1774:	00001bec 	andeq	r1, r0, ip, ror #23
    1778:	8c000304 	stchi	3, cr0, [r0], {4}
    177c:	13000002 	movwne	r0, #2
    1780:	00001c4b 	andeq	r1, r0, fp, asr #24
    1784:	0000028c 	andeq	r0, r0, ip, lsl #5
    1788:	04140000 	ldreq	r0, [r4], #-0
    178c:	00410403 	subeq	r0, r1, r3, lsl #8
    1790:	f8000000 			; <UNDEFINED> instruction: 0xf8000000
    1794:	04000002 	streq	r0, [r0], #-2
    1798:	0005ec00 	andeq	lr, r5, r0, lsl #24
    179c:	80010400 	andhi	r0, r1, r0, lsl #8
    17a0:	01000000 	mrseq	r0, (UNDEF: 0)
    17a4:	00001eb3 			; <UNDEFINED> instruction: 0x00001eb3
    17a8:	00001ee0 	andeq	r1, r0, r0, ror #29
    17ac:	80000f78 	andhi	r0, r0, r8, ror pc
    17b0:	00000560 	andeq	r0, r0, r0, ror #10
    17b4:	00000427 	andeq	r0, r0, r7, lsr #8
    17b8:	001eac02 	andseq	sl, lr, r2, lsl #24
    17bc:	7f0a0100 	svcvc	0x000a0100
    17c0:	78000000 	stmdavc	r0, {}	; <UNPREDICTABLE>
    17c4:	a480000f 	strge	r0, [r0], #15
    17c8:	01000000 	mrseq	r0, (UNDEF: 0)
    17cc:	00007f9c 	muleq	r0, ip, pc	; <UNPREDICTABLE>
    17d0:	73640300 	cmnvc	r4, #0, 6
    17d4:	0a010074 	beq	419ac <_start-0x7ffbe654>
    17d8:	00000086 	andeq	r0, r0, r6, lsl #1
    17dc:	036c9102 	cmneq	ip, #-2147483648	; 0x80000000
    17e0:	00637273 	rsbeq	r7, r3, r3, ror r2
    17e4:	00860a01 	addeq	r0, r6, r1, lsl #20
    17e8:	91020000 	mrsls	r0, (UNDEF: 2)
    17ec:	006e0368 	rsbeq	r0, lr, r8, ror #6
    17f0:	007f0a01 	rsbseq	r0, pc, r1, lsl #20
    17f4:	91020000 	mrsls	r0, (UNDEF: 2)
    17f8:	00610464 	rsbeq	r0, r1, r4, ror #8
    17fc:	008d0c01 	addeq	r0, sp, r1, lsl #24
    1800:	91020000 	mrsls	r0, (UNDEF: 2)
    1804:	00620474 	rsbeq	r0, r2, r4, ror r4
    1808:	008d0d01 	addeq	r0, sp, r1, lsl #26
    180c:	91020000 	mrsls	r0, (UNDEF: 2)
    1810:	04050070 	streq	r0, [r5], #-112	; 0xffffff90
    1814:	746e6905 	strbtvc	r6, [lr], #-2309	; 0xfffff6fb
    1818:	8c040600 	stchi	6, cr0, [r4], {-0}
    181c:	07000000 	streq	r0, [r0, -r0]
    1820:	00930406 	addseq	r0, r3, r6, lsl #8
    1824:	98080000 	stmdals	r8, {}	; <UNPREDICTABLE>
    1828:	09000000 	stmdbeq	r0, {}	; <UNPREDICTABLE>
    182c:	007b0801 	rsbseq	r0, fp, r1, lsl #16
    1830:	3c020000 	stccc	0, cr0, [r2], {-0}
    1834:	0100001f 	tsteq	r0, pc, lsl r0
    1838:	00007f16 	andeq	r7, r0, r6, lsl pc
    183c:	00101c00 	andseq	r1, r0, r0, lsl #24
    1840:	00005480 	andeq	r5, r0, r0, lsl #9
    1844:	d39c0100 	orrsle	r0, ip, #0, 2
    1848:	03000000 	movweq	r0, #0
    184c:	00727473 	rsbseq	r7, r2, r3, ror r4
    1850:	008d1601 	addeq	r1, sp, r1, lsl #12
    1854:	91020000 	mrsls	r0, (UNDEF: 2)
    1858:	0069046c 	rsbeq	r0, r9, ip, ror #8
    185c:	007f1801 	rsbseq	r1, pc, r1, lsl #16
    1860:	91020000 	mrsls	r0, (UNDEF: 2)
    1864:	9e020074 	mcrls	0, 0, r0, cr2, cr4, {3}
    1868:	0100001e 	tsteq	r0, lr, lsl r0
    186c:	0001151e 	andeq	r1, r1, lr, lsl r5
    1870:	00107000 	andseq	r7, r0, r0
    1874:	00006080 	andeq	r6, r0, r0, lsl #1
    1878:	159c0100 	ldrne	r0, [ip, #256]	; 0x100
    187c:	03000001 	movweq	r0, #1
    1880:	00747364 	rsbseq	r7, r4, r4, ror #6
    1884:	01151e01 	tsteq	r5, r1, lsl #28
    1888:	91020000 	mrsls	r0, (UNDEF: 2)
    188c:	7273036c 	rsbsvc	r0, r3, #108, 6	; 0xb0000001
    1890:	1e010063 	cdpne	0, 0, cr0, cr1, cr3, {3}
    1894:	0000008d 	andeq	r0, r0, sp, lsl #1
    1898:	04689102 	strbteq	r9, [r8], #-258	; 0xfffffefe
    189c:	20010064 	andcs	r0, r1, r4, rrx
    18a0:	00000115 	andeq	r0, r0, r5, lsl r1
    18a4:	00749102 	rsbseq	r9, r4, r2, lsl #2
    18a8:	00980406 	addseq	r0, r8, r6, lsl #8
    18ac:	c2020000 	andgt	r0, r2, #0
    18b0:	0100001e 	tsteq	r0, lr, lsl r0
    18b4:	00011526 	andeq	r1, r1, r6, lsr #10
    18b8:	0010d000 	andseq	sp, r0, r0
    18bc:	0000a880 	andeq	sl, r0, r0, lsl #17
    18c0:	699c0100 	ldmibvs	ip, {r8}
    18c4:	03000001 	movweq	r0, #1
    18c8:	00747364 	rsbseq	r7, r4, r4, ror #6
    18cc:	01152601 	tsteq	r5, r1, lsl #12
    18d0:	91020000 	mrsls	r0, (UNDEF: 2)
    18d4:	7273036c 	rsbsvc	r0, r3, #108, 6	; 0xb0000001
    18d8:	26010063 	strcs	r0, [r1], -r3, rrx
    18dc:	0000008d 	andeq	r0, r0, sp, lsl #1
    18e0:	03689102 	cmneq	r8, #-2147483648	; 0x80000000
    18e4:	2601006e 	strcs	r0, [r1], -lr, rrx
    18e8:	0000007f 	andeq	r0, r0, pc, ror r0
    18ec:	04649102 	strbteq	r9, [r4], #-258	; 0xfffffefe
    18f0:	28010064 	stmdacs	r1, {r2, r5, r6}
    18f4:	00000115 	andeq	r0, r0, r5, lsl r1
    18f8:	00749102 	rsbseq	r9, r4, r2, lsl #2
    18fc:	001eca0a 	andseq	ip, lr, sl, lsl #20
    1900:	15300100 	ldrne	r0, [r0, #-256]!	; 0xffffff00
    1904:	78000001 	stmdavc	r0, {r0}
    1908:	6c800011 	stcvs	0, cr0, [r0], {17}
    190c:	01000000 	mrseq	r0, (UNDEF: 0)
    1910:	0001ab9c 	muleq	r1, ip, fp
    1914:	73640300 	cmnvc	r4, #0, 6
    1918:	30010074 	andcc	r0, r1, r4, ror r0
    191c:	00000115 	andeq	r0, r0, r5, lsl r1
    1920:	036c9102 	cmneq	ip, #-2147483648	; 0x80000000
    1924:	00637273 	rsbeq	r7, r3, r3, ror r2
    1928:	008d3001 	addeq	r3, sp, r1
    192c:	91020000 	mrsls	r0, (UNDEF: 2)
    1930:	00690468 	rsbeq	r0, r9, r8, ror #8
    1934:	007f3201 	rsbseq	r3, pc, r1, lsl #4
    1938:	91020000 	mrsls	r0, (UNDEF: 2)
    193c:	2c0a0074 	stccs	0, cr0, [sl], {116}	; 0x74
    1940:	0100001f 	tsteq	r0, pc, lsl r0
    1944:	00011537 	andeq	r1, r1, r7, lsr r5
    1948:	0011e400 	andseq	lr, r1, r0, lsl #8
    194c:	0000c080 	andeq	ip, r0, r0, lsl #1
    1950:	f99c0100 			; <UNDEFINED> instruction: 0xf99c0100
    1954:	03000001 	movweq	r0, #1
    1958:	00747364 	rsbseq	r7, r4, r4, ror #6
    195c:	01153701 	tsteq	r5, r1, lsl #14
    1960:	91020000 	mrsls	r0, (UNDEF: 2)
    1964:	7273036c 	rsbsvc	r0, r3, #108, 6	; 0xb0000001
    1968:	37010063 	strcc	r0, [r1, -r3, rrx]
    196c:	0000008d 	andeq	r0, r0, sp, lsl #1
    1970:	03689102 	cmneq	r8, #-2147483648	; 0x80000000
    1974:	3701006e 	strcc	r0, [r1, -lr, rrx]
    1978:	0000007f 	andeq	r0, r0, pc, ror r0
    197c:	04649102 	strbteq	r9, [r4], #-258	; 0xfffffefe
    1980:	39010069 	stmdbcc	r1, {r0, r3, r5, r6}
    1984:	0000007f 	andeq	r0, r0, pc, ror r0
    1988:	00749102 	rsbseq	r9, r4, r2, lsl #2
    198c:	001ed102 	andseq	sp, lr, r2, lsl #2
    1990:	7f430100 	svcvc	0x00430100
    1994:	a4000000 	strge	r0, [r0], #-0
    1998:	94800012 	strls	r0, [r0], #18
    199c:	01000000 	mrseq	r0, (UNDEF: 0)
    19a0:	00022f9c 	muleq	r2, ip, pc	; <UNPREDICTABLE>
    19a4:	73640300 	cmnvc	r4, #0, 6
    19a8:	43010074 	movwmi	r0, #4212	; 0x1074
    19ac:	0000008d 	andeq	r0, r0, sp, lsl #1
    19b0:	03749102 	cmneq	r4, #-2147483648	; 0x80000000
    19b4:	00637273 	rsbeq	r7, r3, r3, ror r2
    19b8:	008d4301 	addeq	r4, sp, r1, lsl #6
    19bc:	91020000 	mrsls	r0, (UNDEF: 2)
    19c0:	34020070 	strcc	r0, [r2], #-112	; 0xffffff90
    19c4:	0100001f 	tsteq	r0, pc, lsl r0
    19c8:	00007f50 	andeq	r7, r0, r0, asr pc
    19cc:	00133800 	andseq	r3, r3, r0, lsl #16
    19d0:	0000b080 	andeq	fp, r0, r0, lsl #1
    19d4:	719c0100 	orrsvc	r0, ip, r0, lsl #2
    19d8:	03000002 	movweq	r0, #2
    19dc:	00747364 	rsbseq	r7, r4, r4, ror #6
    19e0:	008d5001 	addeq	r5, sp, r1
    19e4:	91020000 	mrsls	r0, (UNDEF: 2)
    19e8:	72730374 	rsbsvc	r0, r3, #116, 6	; 0xd0000001
    19ec:	50010063 	andpl	r0, r1, r3, rrx
    19f0:	0000008d 	andeq	r0, r0, sp, lsl #1
    19f4:	03709102 	cmneq	r0, #-2147483648	; 0x80000000
    19f8:	5001006e 	andpl	r0, r1, lr, rrx
    19fc:	0000007f 	andeq	r0, r0, pc, ror r0
    1a00:	006c9102 	rsbeq	r9, ip, r2, lsl #2
    1a04:	001ea502 	andseq	sl, lr, r2, lsl #10
    1a08:	155c0100 	ldrbne	r0, [ip, #-256]	; 0xffffff00
    1a0c:	e8000001 	stmda	r0, {r0}
    1a10:	7c800013 	stcvc	0, cr0, [r0], {19}
    1a14:	01000000 	mrseq	r0, (UNDEF: 0)
    1a18:	0002b19c 	muleq	r2, ip, r1
    1a1c:	74700300 	ldrbtvc	r0, [r0], #-768	; 0xfffffd00
    1a20:	5c010072 	stcpl	0, cr0, [r1], {114}	; 0x72
    1a24:	0000008d 	andeq	r0, r0, sp, lsl #1
    1a28:	036c9102 	cmneq	ip, #-2147483648	; 0x80000000
    1a2c:	5c010063 	stcpl	0, cr0, [r1], {99}	; 0x63
    1a30:	0000007f 	andeq	r0, r0, pc, ror r0
    1a34:	04689102 	strbteq	r9, [r8], #-258	; 0xfffffefe
    1a38:	5e010073 	mcrpl	0, 0, r0, cr1, cr3, {3}
    1a3c:	00000098 	muleq	r0, r8, r0
    1a40:	00779102 	rsbseq	r9, r7, r2, lsl #2
    1a44:	001ed80b 	andseq	sp, lr, fp, lsl #16
    1a48:	15650100 	strbne	r0, [r5, #-256]!	; 0xffffff00
    1a4c:	64000001 	strvs	r0, [r0], #-1
    1a50:	74800014 	strvc	r0, [r0], #20
    1a54:	01000000 	mrseq	r0, (UNDEF: 0)
    1a58:	7470039c 	ldrbtvc	r0, [r0], #-924	; 0xfffffc64
    1a5c:	65010072 	strvs	r0, [r1, #-114]	; 0xffffff8e
    1a60:	0000008d 	andeq	r0, r0, sp, lsl #1
    1a64:	036c9102 	cmneq	ip, #-2147483648	; 0x80000000
    1a68:	65010063 	strvs	r0, [r1, #-99]	; 0xffffff9d
    1a6c:	0000007f 	andeq	r0, r0, pc, ror r0
    1a70:	0c689102 	stfeqp	f1, [r8], #-8
    1a74:	000001e1 	andeq	r0, r0, r1, ror #3
    1a78:	01156701 	tsteq	r5, r1, lsl #14
    1a7c:	91020000 	mrsls	r0, (UNDEF: 2)
    1a80:	00730474 	rsbseq	r0, r3, r4, ror r4
    1a84:	00986801 	addseq	r6, r8, r1, lsl #16
    1a88:	91020000 	mrsls	r0, (UNDEF: 2)
    1a8c:	Address 0x0000000000001a8c is out of bounds.


Disassembly of section .debug_abbrev:

00000000 <.debug_abbrev>:
   0:	25011101 	strcs	r1, [r1, #-257]	; 0xfffffeff
   4:	030b130e 	movweq	r1, #45838	; 0xb30e
   8:	110e1b0e 	tstne	lr, lr, lsl #22
   c:	10061201 	andne	r1, r6, r1, lsl #4
  10:	02000017 	andeq	r0, r0, #23
  14:	0e030016 	mcreq	0, 0, r0, cr3, cr6, {0}
  18:	0b3b0b3a 	bleq	ec2d08 <_start-0x7f13d2f8>
  1c:	00001349 	andeq	r1, r0, r9, asr #6
  20:	0b002403 	bleq	9034 <_start-0x7fff6fcc>
  24:	030b3e0b 	movweq	r3, #48651	; 0xbe0b
  28:	0400000e 	streq	r0, [r0], #-14
  2c:	0b0b0024 	bleq	2c00c4 <_start-0x7fd3ff3c>
  30:	08030b3e 	stmdaeq	r3, {r1, r2, r3, r4, r5, r8, r9, fp}
  34:	2e050000 	cdpcs	0, 0, cr0, cr5, cr0, {0}
  38:	03193f01 	tsteq	r9, #1, 30
  3c:	3b0b3a0e 	blcc	2ce87c <_start-0x7fd31784>
  40:	1119270b 	tstne	r9, fp, lsl #14
  44:	40061201 	andmi	r1, r6, r1, lsl #4
  48:	19429718 	stmdbne	r2, {r3, r4, r8, r9, sl, ip, pc}^
  4c:	00001301 	andeq	r1, r0, r1, lsl #6
  50:	03003406 	movweq	r3, #1030	; 0x406
  54:	3b0b3a08 	blcc	2ce87c <_start-0x7fd31784>
  58:	0213490b 	andseq	r4, r3, #180224	; 0x2c000
  5c:	07000018 	smladeq	r0, r8, r0, r0
  60:	13490035 	movtne	r0, #36917	; 0x9035
  64:	01000000 	mrseq	r0, (UNDEF: 0)
  68:	0e250111 	mcreq	1, 1, r0, cr5, cr1, {0}
  6c:	0e030b13 	vmoveq.32	d3[0], r0
  70:	01110e1b 	tsteq	r1, fp, lsl lr
  74:	17100612 			; <UNDEFINED> instruction: 0x17100612
  78:	16020000 	strne	r0, [r2], -r0
  7c:	3a0e0300 	bcc	380c84 <_start-0x7fc7f37c>
  80:	490b3b0b 	stmdbmi	fp, {r0, r1, r3, r8, r9, fp, ip, sp}
  84:	03000013 	movweq	r0, #19
  88:	0b0b0024 	bleq	2c0120 <_start-0x7fd3fee0>
  8c:	0e030b3e 	vmoveq.16	d3[0], r0
  90:	24040000 	strcs	r0, [r4], #-0
  94:	3e0b0b00 	vmlacc.f64	d0, d11, d0
  98:	0008030b 	andeq	r0, r8, fp, lsl #6
  9c:	01040500 	tsteq	r4, r0, lsl #10
  a0:	0b3a0b0b 	bleq	e82cd4 <_start-0x7f17d32c>
  a4:	13010b3b 	movwne	r0, #6971	; 0x1b3b
  a8:	28060000 	stmdacs	r6, {}	; <UNPREDICTABLE>
  ac:	1c0e0300 	stcne	3, cr0, [lr], {-0}
  b0:	0700000d 	streq	r0, [r0, -sp]
  b4:	193f012e 	ldmdbne	pc!, {r1, r2, r3, r5, r8}	; <UNPREDICTABLE>
  b8:	0b3a0e03 	bleq	e838cc <_start-0x7f17c734>
  bc:	19270b3b 	stmdbne	r7!, {r0, r1, r3, r4, r5, r8, r9, fp}
  c0:	06120111 			; <UNDEFINED> instruction: 0x06120111
  c4:	42971840 	addsmi	r1, r7, #64, 16	; 0x400000
  c8:	00130119 	andseq	r0, r3, r9, lsl r1
  cc:	00050800 	andeq	r0, r5, r0, lsl #16
  d0:	0b3a0e03 	bleq	e838e4 <_start-0x7f17c71c>
  d4:	13490b3b 	movtne	r0, #39739	; 0x9b3b
  d8:	00001802 	andeq	r1, r0, r2, lsl #16
  dc:	03000509 	movweq	r0, #1289	; 0x509
  e0:	3b0b3a08 	blcc	2ce908 <_start-0x7fd316f8>
  e4:	0213490b 	andseq	r4, r3, #180224	; 0x2c000
  e8:	0a000018 	beq	150 <_start-0x7ffffeb0>
  ec:	193f012e 	ldmdbne	pc!, {r1, r2, r3, r5, r8}	; <UNPREDICTABLE>
  f0:	0b3a0e03 	bleq	e83904 <_start-0x7f17c6fc>
  f4:	19270b3b 	stmdbne	r7!, {r0, r1, r3, r4, r5, r8, r9, fp}
  f8:	01111349 	tsteq	r1, r9, asr #6
  fc:	18400612 	stmdane	r0, {r1, r4, r9, sl}^
 100:	01194297 			; <UNDEFINED> instruction: 0x01194297
 104:	0b000013 	bleq	158 <_start-0x7ffffea8>
 108:	193f012e 	ldmdbne	pc!, {r1, r2, r3, r5, r8}	; <UNPREDICTABLE>
 10c:	0b3a0e03 	bleq	e83920 <_start-0x7f17c6e0>
 110:	01110b3b 	tsteq	r1, fp, lsr fp
 114:	18400612 	stmdane	r0, {r1, r4, r9, sl}^
 118:	00194296 	mulseq	r9, r6, r2
 11c:	00340c00 	eorseq	r0, r4, r0, lsl #24
 120:	0b3a0e03 	bleq	e83934 <_start-0x7f17c6cc>
 124:	13490b3b 	movtne	r0, #39739	; 0x9b3b
 128:	00001802 	andeq	r1, r0, r2, lsl #16
 12c:	01110100 	tsteq	r1, r0, lsl #2
 130:	0b130e25 	bleq	4c39cc <_start-0x7fb3c634>
 134:	0e1b0e03 	cdpeq	14, 1, cr0, cr11, cr3, {0}
 138:	06120111 			; <UNDEFINED> instruction: 0x06120111
 13c:	00001710 	andeq	r1, r0, r0, lsl r7
 140:	03001602 	movweq	r1, #1538	; 0x602
 144:	3b0b3a0e 	blcc	2ce984 <_start-0x7fd3167c>
 148:	0013490b 	andseq	r4, r3, fp, lsl #18
 14c:	00240300 	eoreq	r0, r4, r0, lsl #6
 150:	0b3e0b0b 	bleq	f82d84 <_start-0x7f07d27c>
 154:	00000e03 	andeq	r0, r0, r3, lsl #28
 158:	0b002404 	bleq	9170 <_start-0x7fff6e90>
 15c:	030b3e0b 	movweq	r3, #48651	; 0xbe0b
 160:	05000008 	streq	r0, [r0, #-8]
 164:	0b0b0104 	bleq	2c057c <_start-0x7fd3fa84>
 168:	0b3b0b3a 	bleq	ec2e58 <_start-0x7f13d1a8>
 16c:	00001301 	andeq	r1, r0, r1, lsl #6
 170:	03002806 	movweq	r2, #2054	; 0x806
 174:	000d1c0e 	andeq	r1, sp, lr, lsl #24
 178:	012e0700 			; <UNDEFINED> instruction: 0x012e0700
 17c:	0e03193f 	mcreq	9, 0, r1, cr3, cr15, {1}
 180:	0b3b0b3a 	bleq	ec2e70 <_start-0x7f13d190>
 184:	01111927 	tsteq	r1, r7, lsr #18
 188:	18400612 	stmdane	r0, {r1, r4, r9, sl}^
 18c:	01194297 			; <UNDEFINED> instruction: 0x01194297
 190:	08000013 	stmdaeq	r0, {r0, r1, r4}
 194:	0e030005 	cdpeq	0, 0, cr0, cr3, cr5, {0}
 198:	0b3b0b3a 	bleq	ec2e88 <_start-0x7f13d178>
 19c:	18021349 	stmdane	r2, {r0, r3, r6, r8, r9, ip}
 1a0:	2e090000 	cdpcs	0, 0, cr0, cr9, cr0, {0}
 1a4:	03193f01 	tsteq	r9, #1, 30
 1a8:	3b0b3a0e 	blcc	2ce9e8 <_start-0x7fd31618>
 1ac:	4919270b 	ldmdbmi	r9, {r0, r1, r3, r8, r9, sl, sp}
 1b0:	12011113 	andne	r1, r1, #-1073741820	; 0xc0000004
 1b4:	97184006 	ldrls	r4, [r8, -r6]
 1b8:	13011942 	movwne	r1, #6466	; 0x1942
 1bc:	2e0a0000 	cdpcs	0, 0, cr0, cr10, cr0, {0}
 1c0:	03193f01 	tsteq	r9, #1, 30
 1c4:	3b0b3a0e 	blcc	2cea04 <_start-0x7fd315fc>
 1c8:	1119270b 	tstne	r9, fp, lsl #14
 1cc:	40061201 	andmi	r1, r6, r1, lsl #4
 1d0:	19429618 	stmdbne	r2, {r3, r4, r9, sl, ip, pc}^
 1d4:	00001301 	andeq	r1, r0, r1, lsl #6
 1d8:	0300340b 	movweq	r3, #1035	; 0x40b
 1dc:	3b0b3a0e 	blcc	2cea1c <_start-0x7fd315e4>
 1e0:	0213490b 	andseq	r4, r3, #180224	; 0x2c000
 1e4:	0c000018 	stceq	0, cr0, [r0], {24}
 1e8:	193f002e 	ldmdbne	pc!, {r1, r2, r3, r5}	; <UNPREDICTABLE>
 1ec:	0b3a0e03 	bleq	e83a00 <_start-0x7f17c600>
 1f0:	01110b3b 	tsteq	r1, fp, lsr fp
 1f4:	18400612 	stmdane	r0, {r1, r4, r9, sl}^
 1f8:	00194296 	mulseq	r9, r6, r2
 1fc:	11010000 	mrsne	r0, (UNDEF: 1)
 200:	130e2501 	movwne	r2, #58625	; 0xe501
 204:	1b0e030b 	blne	380e38 <_start-0x7fc7f1c8>
 208:	1201110e 	andne	r1, r1, #-2147483645	; 0x80000003
 20c:	00171006 	andseq	r1, r7, r6
 210:	01130200 	tsteq	r3, r0, lsl #4
 214:	0b3a0b0b 	bleq	e82e48 <_start-0x7f17d1b8>
 218:	13010b3b 	movwne	r0, #6971	; 0x1b3b
 21c:	0d030000 	stceq	0, cr0, [r3, #-0]
 220:	3a0e0300 	bcc	380e28 <_start-0x7fc7f1d8>
 224:	490b3b0b 	stmdbmi	fp, {r0, r1, r3, r8, r9, fp, ip, sp}
 228:	000b3813 	andeq	r3, fp, r3, lsl r8
 22c:	000d0400 	andeq	r0, sp, r0, lsl #8
 230:	0b3a0803 	bleq	e82244 <_start-0x7f17ddbc>
 234:	13490b3b 	movtne	r0, #39739	; 0x9b3b
 238:	00000b38 	andeq	r0, r0, r8, lsr fp
 23c:	0b002405 	bleq	9258 <_start-0x7fff6da8>
 240:	030b3e0b 	movweq	r3, #48651	; 0xbe0b
 244:	06000008 	streq	r0, [r0], -r8
 248:	0e030016 	mcreq	0, 0, r0, cr3, cr6, {0}
 24c:	0b3b0b3a 	bleq	ec2f3c <_start-0x7f13d0c4>
 250:	00001349 	andeq	r1, r0, r9, asr #6
 254:	3f012e07 	svccc	0x00012e07
 258:	3a0e0319 	bcc	380ec4 <_start-0x7fc7f13c>
 25c:	270b3b0b 	strcs	r3, [fp, -fp, lsl #22]
 260:	11134919 	tstne	r3, r9, lsl r9
 264:	40061201 	andmi	r1, r6, r1, lsl #4
 268:	19429718 	stmdbne	r2, {r3, r4, r8, r9, sl, ip, pc}^
 26c:	00001301 	andeq	r1, r0, r1, lsl #6
 270:	03000508 	movweq	r0, #1288	; 0x508
 274:	3b0b3a08 	blcc	2cea9c <_start-0x7fd31564>
 278:	0213490b 	andseq	r4, r3, #180224	; 0x2c000
 27c:	09000018 	stmdbeq	r0, {r3, r4}
 280:	0e030005 	cdpeq	0, 0, cr0, cr3, cr5, {0}
 284:	0b3b0b3a 	bleq	ec2f74 <_start-0x7f13d08c>
 288:	18021349 	stmdane	r2, {r0, r3, r6, r8, r9, ip}
 28c:	340a0000 	strcc	r0, [sl], #-0
 290:	3a080300 	bcc	200e98 <_start-0x7fdff168>
 294:	490b3b0b 	stmdbmi	fp, {r0, r1, r3, r8, r9, fp, ip, sp}
 298:	00180213 	andseq	r0, r8, r3, lsl r2
 29c:	012e0b00 			; <UNDEFINED> instruction: 0x012e0b00
 2a0:	0e03193f 	mcreq	9, 0, r1, cr3, cr15, {1}
 2a4:	0b3b0b3a 	bleq	ec2f94 <_start-0x7f13d06c>
 2a8:	13491927 	movtne	r1, #39207	; 0x9927
 2ac:	06120111 			; <UNDEFINED> instruction: 0x06120111
 2b0:	42971840 	addsmi	r1, r7, #64, 16	; 0x400000
 2b4:	00000019 	andeq	r0, r0, r9, lsl r0
 2b8:	25011101 	strcs	r1, [r1, #-257]	; 0xfffffeff
 2bc:	030b130e 	movweq	r1, #45838	; 0xb30e
 2c0:	110e1b0e 	tstne	lr, lr, lsl #22
 2c4:	10061201 	andne	r1, r6, r1, lsl #4
 2c8:	02000017 	andeq	r0, r0, #23
 2cc:	0b0b0024 	bleq	2c0364 <_start-0x7fd3fc9c>
 2d0:	0e030b3e 	vmoveq.16	d3[0], r0
 2d4:	24030000 	strcs	r0, [r3], #-0
 2d8:	3e0b0b00 	vmlacc.f64	d0, d11, d0
 2dc:	0008030b 	andeq	r0, r8, fp, lsl #6
 2e0:	01040400 	tsteq	r4, r0, lsl #8
 2e4:	0b3a0b0b 	bleq	e82f18 <_start-0x7f17d0e8>
 2e8:	13010b3b 	movwne	r0, #6971	; 0x1b3b
 2ec:	28050000 	stmdacs	r5, {}	; <UNPREDICTABLE>
 2f0:	1c0e0300 	stcne	3, cr0, [lr], {-0}
 2f4:	0600000d 	streq	r0, [r0], -sp
 2f8:	0e030016 	mcreq	0, 0, r0, cr3, cr6, {0}
 2fc:	0b3b0b3a 	bleq	ec2fec <_start-0x7f13d014>
 300:	00001349 	andeq	r1, r0, r9, asr #6
 304:	0b000f07 	bleq	3f28 <_start-0x7fffc0d8>
 308:	0013490b 	andseq	r4, r3, fp, lsl #18
 30c:	01150800 	tsteq	r5, r0, lsl #16
 310:	13011927 	movwne	r1, #6439	; 0x1927
 314:	05090000 	streq	r0, [r9, #-0]
 318:	00134900 	andseq	r4, r3, r0, lsl #18
 31c:	012e0a00 			; <UNDEFINED> instruction: 0x012e0a00
 320:	0e03193f 	mcreq	9, 0, r1, cr3, cr15, {1}
 324:	0b3b0b3a 	bleq	ec3014 <_start-0x7f13cfec>
 328:	01111927 	tsteq	r1, r7, lsr #18
 32c:	18400612 	stmdane	r0, {r1, r4, r9, sl}^
 330:	01194296 			; <UNDEFINED> instruction: 0x01194296
 334:	0b000013 	bleq	388 <_start-0x7ffffc78>
 338:	08030005 	stmdaeq	r3, {r0, r2}
 33c:	0b3b0b3a 	bleq	ec302c <_start-0x7f13cfd4>
 340:	18021349 	stmdane	r2, {r0, r3, r6, r8, r9, ip}
 344:	180c0000 	stmdane	ip, {}	; <UNPREDICTABLE>
 348:	0d000000 	stceq	0, cr0, [r0, #-0]
 34c:	08030034 	stmdaeq	r3, {r2, r4, r5}
 350:	0b3b0b3a 	bleq	ec3040 <_start-0x7f13cfc0>
 354:	18021349 	stmdane	r2, {r0, r3, r6, r8, r9, ip}
 358:	260e0000 	strcs	r0, [lr], -r0
 35c:	00134900 	andseq	r4, r3, r0, lsl #18
 360:	01130f00 	tsteq	r3, r0, lsl #30
 364:	0b0b0e03 	bleq	2c3b78 <_start-0x7fd3c488>
 368:	0b3b0b3a 	bleq	ec3058 <_start-0x7f13cfa8>
 36c:	00001301 	andeq	r1, r0, r1, lsl #6
 370:	03000d10 	movweq	r0, #3344	; 0xd10
 374:	3813490e 	ldmdacc	r3, {r1, r2, r3, r8, fp, lr}
 378:	0019340b 	andseq	r3, r9, fp, lsl #8
 37c:	000f1100 	andeq	r1, pc, r0, lsl #2
 380:	00000b0b 	andeq	r0, r0, fp, lsl #22
 384:	3f002e12 	svccc	0x00002e12
 388:	3a0e0319 	bcc	380ff4 <_start-0x7fc7f00c>
 38c:	270b3b0b 	strcs	r3, [fp, -fp, lsl #22]
 390:	12011119 	andne	r1, r1, #1073741830	; 0x40000006
 394:	96184006 	ldrls	r4, [r8], -r6
 398:	00001942 	andeq	r1, r0, r2, asr #18
 39c:	03003413 	movweq	r3, #1043	; 0x413
 3a0:	3b0b3a0e 	blcc	2cebe0 <_start-0x7fd31420>
 3a4:	3f13490b 	svccc	0x0013490b
 3a8:	00193c19 	andseq	r3, r9, r9, lsl ip
 3ac:	11010000 	mrsne	r0, (UNDEF: 1)
 3b0:	130e2501 	movwne	r2, #58625	; 0xe501
 3b4:	1b0e030b 	blne	380fe8 <_start-0x7fc7f018>
 3b8:	1201110e 	andne	r1, r1, #-2147483645	; 0x80000003
 3bc:	00171006 	andseq	r1, r7, r6
 3c0:	00160200 	andseq	r0, r6, r0, lsl #4
 3c4:	0b3a0e03 	bleq	e83bd8 <_start-0x7f17c428>
 3c8:	13490b3b 	movtne	r0, #39739	; 0x9b3b
 3cc:	24030000 	strcs	r0, [r3], #-0
 3d0:	3e0b0b00 	vmlacc.f64	d0, d11, d0
 3d4:	000e030b 	andeq	r0, lr, fp, lsl #6
 3d8:	00240400 	eoreq	r0, r4, r0, lsl #8
 3dc:	0b3e0b0b 	bleq	f83010 <_start-0x7f07cff0>
 3e0:	00000803 	andeq	r0, r0, r3, lsl #16
 3e4:	0b010405 	bleq	41400 <_start-0x7ffbec00>
 3e8:	3b0b3a0b 	blcc	2cec1c <_start-0x7fd313e4>
 3ec:	0013010b 	andseq	r0, r3, fp, lsl #2
 3f0:	00280600 	eoreq	r0, r8, r0, lsl #12
 3f4:	0d1c0803 	ldceq	8, cr0, [ip, #-12]
 3f8:	28070000 	stmdacs	r7, {}	; <UNPREDICTABLE>
 3fc:	1c0e0300 	stcne	3, cr0, [lr], {-0}
 400:	0800000d 	stmdaeq	r0, {r0, r2, r3}
 404:	193f012e 	ldmdbne	pc!, {r1, r2, r3, r5, r8}	; <UNPREDICTABLE>
 408:	0b3a0e03 	bleq	e83c1c <_start-0x7f17c3e4>
 40c:	01110b3b 	tsteq	r1, fp, lsr fp
 410:	18400612 	stmdane	r0, {r1, r4, r9, sl}^
 414:	01194296 			; <UNDEFINED> instruction: 0x01194296
 418:	09000013 	stmdbeq	r0, {r0, r1, r4}
 41c:	0e030034 	mcreq	0, 0, r0, cr3, cr4, {1}
 420:	0b3b0b3a 	bleq	ec3110 <_start-0x7f13cef0>
 424:	18021349 	stmdane	r2, {r0, r3, r6, r8, r9, ip}
 428:	2e0a0000 	cdpcs	0, 0, cr0, cr10, cr0, {0}
 42c:	03193f01 	tsteq	r9, #1, 30
 430:	3b0b3a0e 	blcc	2cec70 <_start-0x7fd31390>
 434:	1119270b 	tstne	r9, fp, lsl #14
 438:	40061201 	andmi	r1, r6, r1, lsl #4
 43c:	19429718 	stmdbne	r2, {r3, r4, r8, r9, sl, ip, pc}^
 440:	00001301 	andeq	r1, r0, r1, lsl #6
 444:	0300050b 	movweq	r0, #1291	; 0x50b
 448:	3b0b3a0e 	blcc	2cec88 <_start-0x7fd31378>
 44c:	0213490b 	andseq	r4, r3, #180224	; 0x2c000
 450:	0c000018 	stceq	0, cr0, [r0], {24}
 454:	08030034 	stmdaeq	r3, {r2, r4, r5}
 458:	0b3b0b3a 	bleq	ec3148 <_start-0x7f13ceb8>
 45c:	18021349 	stmdane	r2, {r0, r3, r6, r8, r9, ip}
 460:	2e0d0000 	cdpcs	0, 0, cr0, cr13, cr0, {0}
 464:	03193f01 	tsteq	r9, #1, 30
 468:	3b0b3a0e 	blcc	2ceca8 <_start-0x7fd31358>
 46c:	1119270b 	tstne	r9, fp, lsl #14
 470:	40061201 	andmi	r1, r6, r1, lsl #4
 474:	19429618 	stmdbne	r2, {r3, r4, r9, sl, ip, pc}^
 478:	00001301 	andeq	r1, r0, r1, lsl #6
 47c:	0300050e 	movweq	r0, #1294	; 0x50e
 480:	3b0b3a08 	blcc	2ceca8 <_start-0x7fd31358>
 484:	0213490b 	andseq	r4, r3, #180224	; 0x2c000
 488:	0f000018 	svceq	0x00000018
 48c:	193f002e 	ldmdbne	pc!, {r1, r2, r3, r5}	; <UNPREDICTABLE>
 490:	0b3a0e03 	bleq	e83ca4 <_start-0x7f17c35c>
 494:	13490b3b 	movtne	r0, #39739	; 0x9b3b
 498:	06120111 			; <UNDEFINED> instruction: 0x06120111
 49c:	42971840 	addsmi	r1, r7, #64, 16	; 0x400000
 4a0:	10000019 	andne	r0, r0, r9, lsl r0
 4a4:	193f012e 	ldmdbne	pc!, {r1, r2, r3, r5, r8}	; <UNPREDICTABLE>
 4a8:	0b3a0e03 	bleq	e83cbc <_start-0x7f17c344>
 4ac:	19270b3b 	stmdbne	r7!, {r0, r1, r3, r4, r5, r8, r9, fp}
 4b0:	01111349 	tsteq	r1, r9, asr #6
 4b4:	18400612 	stmdane	r0, {r1, r4, r9, sl}^
 4b8:	01194296 			; <UNDEFINED> instruction: 0x01194296
 4bc:	11000013 	tstne	r0, r3, lsl r0
 4c0:	0111010b 	tsteq	r1, fp, lsl #2
 4c4:	00000612 	andeq	r0, r0, r2, lsl r6
 4c8:	0b000f12 	bleq	4118 <_start-0x7fffbee8>
 4cc:	0013490b 	andseq	r4, r3, fp, lsl #18
 4d0:	00341300 	eorseq	r1, r4, r0, lsl #6
 4d4:	0b3a0e03 	bleq	e83ce8 <_start-0x7f17c318>
 4d8:	13490b3b 	movtne	r0, #39739	; 0x9b3b
 4dc:	1802193f 	stmdane	r2, {r0, r1, r2, r3, r4, r5, r8, fp, ip}
 4e0:	01000000 	mrseq	r0, (UNDEF: 0)
 4e4:	0e250111 	mcreq	1, 1, r0, cr5, cr1, {0}
 4e8:	0e030b13 	vmoveq.32	d3[0], r0
 4ec:	01110e1b 	tsteq	r1, fp, lsl lr
 4f0:	17100612 			; <UNDEFINED> instruction: 0x17100612
 4f4:	16020000 	strne	r0, [r2], -r0
 4f8:	3a0e0300 	bcc	381100 <_start-0x7fc7ef00>
 4fc:	490b3b0b 	stmdbmi	fp, {r0, r1, r3, r8, r9, fp, ip, sp}
 500:	03000013 	movweq	r0, #19
 504:	0b0b000f 	bleq	2c0548 <_start-0x7fd3fab8>
 508:	00001349 	andeq	r1, r0, r9, asr #6
 50c:	27011504 	strcs	r1, [r1, -r4, lsl #10]
 510:	00130119 	andseq	r0, r3, r9, lsl r1
 514:	00050500 	andeq	r0, r5, r0, lsl #10
 518:	00001349 	andeq	r1, r0, r9, asr #6
 51c:	0b002406 	bleq	953c <_start-0x7fff6ac4>
 520:	030b3e0b 	movweq	r3, #48651	; 0xbe0b
 524:	0700000e 	streq	r0, [r0, -lr]
 528:	0e03012e 	adfeqsp	f0, f3, #0.5
 52c:	0b3b0b3a 	bleq	ec321c <_start-0x7f13cde4>
 530:	01111927 	tsteq	r1, r7, lsr #18
 534:	18400612 	stmdane	r0, {r1, r4, r9, sl}^
 538:	01194296 			; <UNDEFINED> instruction: 0x01194296
 53c:	08000013 	stmdaeq	r0, {r0, r1, r4}
 540:	08030005 	stmdaeq	r3, {r0, r2}
 544:	0b3b0b3a 	bleq	ec3234 <_start-0x7f13cdcc>
 548:	18021349 	stmdane	r2, {r0, r3, r6, r8, r9, ip}
 54c:	05090000 	streq	r0, [r9, #-0]
 550:	3a0e0300 	bcc	381158 <_start-0x7fc7eea8>
 554:	490b3b0b 	stmdbmi	fp, {r0, r1, r3, r8, r9, fp, ip, sp}
 558:	00180213 	andseq	r0, r8, r3, lsl r2
 55c:	00340a00 	eorseq	r0, r4, r0, lsl #20
 560:	0b3a0803 	bleq	e82574 <_start-0x7f17da8c>
 564:	13490b3b 	movtne	r0, #39739	; 0x9b3b
 568:	00001802 	andeq	r1, r0, r2, lsl #16
 56c:	0300340b 	movweq	r3, #1035	; 0x40b
 570:	3b0b3a0e 	blcc	2cedb0 <_start-0x7fd31250>
 574:	0213490b 	andseq	r4, r3, #180224	; 0x2c000
 578:	0c000018 	stceq	0, cr0, [r0], {24}
 57c:	13490026 	movtne	r0, #36902	; 0x9026
 580:	240d0000 	strcs	r0, [sp], #-0
 584:	3e0b0b00 	vmlacc.f64	d0, d11, d0
 588:	0008030b 	andeq	r0, r8, fp, lsl #6
 58c:	010b0e00 	tsteq	fp, r0, lsl #28
 590:	06120111 			; <UNDEFINED> instruction: 0x06120111
 594:	2e0f0000 	cdpcs	0, 0, cr0, cr15, cr0, {0}
 598:	03193f01 	tsteq	r9, #1, 30
 59c:	3b0b3a0e 	blcc	2ceddc <_start-0x7fd31224>
 5a0:	1119270b 	tstne	r9, fp, lsl #14
 5a4:	40061201 	andmi	r1, r6, r1, lsl #4
 5a8:	19429618 	stmdbne	r2, {r3, r4, r9, sl, ip, pc}^
 5ac:	00001301 	andeq	r1, r0, r1, lsl #6
 5b0:	03000a10 	movweq	r0, #2576	; 0xa10
 5b4:	3b0b3a0e 	blcc	2cedf4 <_start-0x7fd3120c>
 5b8:	0001110b 	andeq	r1, r1, fp, lsl #2
 5bc:	010b1100 	mrseq	r1, (UNDEF: 27)
 5c0:	06120111 			; <UNDEFINED> instruction: 0x06120111
 5c4:	00001301 	andeq	r1, r0, r1, lsl #6
 5c8:	03011312 	movweq	r1, #4882	; 0x1312
 5cc:	3a0b0b0e 	bcc	2c320c <_start-0x7fd3cdf4>
 5d0:	010b3b0b 	tsteq	fp, fp, lsl #22
 5d4:	13000013 	movwne	r0, #19
 5d8:	0e03000d 	cdpeq	0, 0, cr0, cr3, cr13, {0}
 5dc:	0b381349 	bleq	e05308 <_start-0x7f1facf8>
 5e0:	00001934 	andeq	r1, r0, r4, lsr r9
 5e4:	0b000f14 	bleq	423c <_start-0x7fffbdc4>
 5e8:	0000000b 	andeq	r0, r0, fp
 5ec:	25011101 	strcs	r1, [r1, #-257]	; 0xfffffeff
 5f0:	030b130e 	movweq	r1, #45838	; 0xb30e
 5f4:	110e1b0e 	tstne	lr, lr, lsl #22
 5f8:	10061201 	andne	r1, r6, r1, lsl #4
 5fc:	02000017 	andeq	r0, r0, #23
 600:	193f012e 	ldmdbne	pc!, {r1, r2, r3, r5, r8}	; <UNPREDICTABLE>
 604:	0b3a0e03 	bleq	e83e18 <_start-0x7f17c1e8>
 608:	19270b3b 	stmdbne	r7!, {r0, r1, r3, r4, r5, r8, r9, fp}
 60c:	01111349 	tsteq	r1, r9, asr #6
 610:	18400612 	stmdane	r0, {r1, r4, r9, sl}^
 614:	01194297 			; <UNDEFINED> instruction: 0x01194297
 618:	03000013 	movweq	r0, #19
 61c:	08030005 	stmdaeq	r3, {r0, r2}
 620:	0b3b0b3a 	bleq	ec3310 <_start-0x7f13ccf0>
 624:	18021349 	stmdane	r2, {r0, r3, r6, r8, r9, ip}
 628:	34040000 	strcc	r0, [r4], #-0
 62c:	3a080300 	bcc	201234 <_start-0x7fdfedcc>
 630:	490b3b0b 	stmdbmi	fp, {r0, r1, r3, r8, r9, fp, ip, sp}
 634:	00180213 	andseq	r0, r8, r3, lsl r2
 638:	00240500 	eoreq	r0, r4, r0, lsl #10
 63c:	0b3e0b0b 	bleq	f83270 <_start-0x7f07cd90>
 640:	00000803 	andeq	r0, r0, r3, lsl #16
 644:	0b000f06 	bleq	4264 <_start-0x7fffbd9c>
 648:	0013490b 	andseq	r4, r3, fp, lsl #18
 64c:	00260700 	eoreq	r0, r6, r0, lsl #14
 650:	26080000 	strcs	r0, [r8], -r0
 654:	00134900 	andseq	r4, r3, r0, lsl #18
 658:	00240900 	eoreq	r0, r4, r0, lsl #18
 65c:	0b3e0b0b 	bleq	f83290 <_start-0x7f07cd70>
 660:	00000e03 	andeq	r0, r0, r3, lsl #28
 664:	3f012e0a 	svccc	0x00012e0a
 668:	3a0e0319 	bcc	3812d4 <_start-0x7fc7ed2c>
 66c:	270b3b0b 	strcs	r3, [fp, -fp, lsl #22]
 670:	11134919 	tstne	r3, r9, lsl r9
 674:	40061201 	andmi	r1, r6, r1, lsl #4
 678:	19429618 	stmdbne	r2, {r3, r4, r9, sl, ip, pc}^
 67c:	00001301 	andeq	r1, r0, r1, lsl #6
 680:	3f012e0b 	svccc	0x00012e0b
 684:	3a0e0319 	bcc	3812f0 <_start-0x7fc7ed10>
 688:	270b3b0b 	strcs	r3, [fp, -fp, lsl #22]
 68c:	11134919 	tstne	r3, r9, lsl r9
 690:	40061201 	andmi	r1, r6, r1, lsl #4
 694:	19429718 	stmdbne	r2, {r3, r4, r8, r9, sl, ip, pc}^
 698:	340c0000 	strcc	r0, [ip], #-0
 69c:	3a0e0300 	bcc	3812a4 <_start-0x7fc7ed5c>
 6a0:	490b3b0b 	stmdbmi	fp, {r0, r1, r3, r8, r9, fp, ip, sp}
 6a4:	00180213 	andseq	r0, r8, r3, lsl r2
	...

Disassembly of section .debug_aranges:

00000000 <.debug_aranges>:
   0:	0000001c 	andeq	r0, r0, ip, lsl r0
   4:	00000002 	andeq	r0, r0, r2
   8:	00040000 	andeq	r0, r4, r0
   c:	00000000 	andeq	r0, r0, r0
  10:	8000003c 	andhi	r0, r0, ip, lsr r0
  14:	00000068 	andeq	r0, r0, r8, rrx
	...
  20:	0000001c 	andeq	r0, r0, ip, lsl r0
  24:	00830002 	addeq	r0, r3, r2
  28:	00040000 	andeq	r0, r4, r0
  2c:	00000000 	andeq	r0, r0, r0
  30:	800000a4 	andhi	r0, r0, r4, lsr #1
  34:	0000014c 	andeq	r0, r0, ip, asr #2
	...
  40:	0000001c 	andeq	r0, r0, ip, lsl r0
  44:	04f30002 	ldrbteq	r0, [r3], #2
  48:	00040000 	andeq	r0, r4, r0
  4c:	00000000 	andeq	r0, r0, r0
  50:	800001f0 	strdhi	r0, [r0], -r0	; <UNPREDICTABLE>
  54:	000000ec 	andeq	r0, r0, ip, ror #1
	...
  60:	0000001c 	andeq	r0, r0, ip, lsl r0
  64:	0bf90002 	bleq	ffe40074 <value+0x7fe3eb4a>
  68:	00040000 	andeq	r0, r4, r0
  6c:	00000000 	andeq	r0, r0, r0
  70:	800002dc 	ldrdhi	r0, [r0], -ip
  74:	000000e4 	andeq	r0, r0, r4, ror #1
	...
  80:	0000001c 	andeq	r0, r0, ip, lsl r0
  84:	0cde0002 	ldcleq	0, cr0, [lr], {2}
  88:	00040000 	andeq	r0, r4, r0
  8c:	00000000 	andeq	r0, r0, r0
  90:	800003c0 	andhi	r0, r0, r0, asr #7
  94:	000000fc 	strdeq	r0, [r0], -ip
	...
  a0:	0000001c 	andeq	r0, r0, ip, lsl r0
  a4:	0e140002 	cdpeq	0, 1, cr0, cr4, cr2, {0}
  a8:	00040000 	andeq	r0, r4, r0
  ac:	00000000 	andeq	r0, r0, r0
  b0:	800004c0 	andhi	r0, r0, r0, asr #9
  b4:	0000041c 	andeq	r0, r0, ip, lsl r4
	...
  c0:	0000001c 	andeq	r0, r0, ip, lsl r0
  c4:	14fe0002 	ldrbtne	r0, [lr], #2
  c8:	00040000 	andeq	r0, r4, r0
  cc:	00000000 	andeq	r0, r0, r0
  d0:	800008dc 	ldrdhi	r0, [r0], -ip
  d4:	0000069c 	muleq	r0, ip, r6
	...
  e0:	0000001c 	andeq	r0, r0, ip, lsl r0
  e4:	17930002 	ldrne	r0, [r3, r2]
  e8:	00040000 	andeq	r0, r4, r0
  ec:	00000000 	andeq	r0, r0, r0
  f0:	80000f78 	andhi	r0, r0, r8, ror pc
  f4:	00000560 	andeq	r0, r0, r0, ror #10
	...

Disassembly of section .debug_line:

00000000 <.debug_line>:
   0:	00000041 	andeq	r0, r0, r1, asr #32
   4:	00280002 	eoreq	r0, r8, r2
   8:	01020000 	mrseq	r0, (UNDEF: 2)
   c:	000d0efb 	strdeq	r0, [sp], -fp
  10:	01010101 	tsteq	r1, r1, lsl #2
  14:	01000000 	mrseq	r0, (UNDEF: 0)
  18:	00010000 	andeq	r0, r1, r0
  1c:	4f495047 	svcmi	0x00495047
  20:	0000632e 	andeq	r6, r0, lr, lsr #6
  24:	79740000 	ldmdbvc	r4!, {}^	; <UNPREDICTABLE>
  28:	2e736570 	mrccs	5, 3, r6, cr3, cr0, {3}
  2c:	00000068 	andeq	r0, r0, r8, rrx
  30:	05000000 	streq	r0, [r0, #-0]
  34:	00003c02 	andeq	r3, r0, r2, lsl #24
  38:	9f6b1580 	svcls	0x006b1580
  3c:	83846783 	orrhi	r6, r4, #34340864	; 0x20c0000
  40:	01000602 	tsteq	r0, r2, lsl #12
  44:	00005c01 	andeq	r5, r0, r1, lsl #24
  48:	34000200 	strcc	r0, [r0], #-512	; 0xfffffe00
  4c:	02000000 	andeq	r0, r0, #0
  50:	0d0efb01 	vstreq	d15, [lr, #-4]
  54:	01010100 	mrseq	r0, (UNDEF: 17)
  58:	00000001 	andeq	r0, r0, r1
  5c:	01000001 	tsteq	r0, r1
  60:	6f6c6300 	svcvs	0x006c6300
  64:	632e6b63 			; <UNDEFINED> instruction: 0x632e6b63
  68:	00000000 	andeq	r0, r0, r0
  6c:	65707974 	ldrbvs	r7, [r0, #-2420]!	; 0xfffff68c
  70:	00682e73 	rsbeq	r2, r8, r3, ror lr
  74:	63000000 	movwvs	r0, #0
  78:	6b636f6c 	blvs	18dbe30 <_start-0x7e7241d0>
  7c:	0000682e 	andeq	r6, r0, lr, lsr #16
  80:	00000000 	andeq	r0, r0, r0
  84:	00a40205 	adceq	r0, r4, r5, lsl #4
  88:	d8158000 	ldmdale	r5, {pc}
  8c:	83bb69bb 			; <UNDEFINED> instruction: 0x83bb69bb
  90:	679f6a85 	ldrvs	r6, [pc, r5, lsl #21]
  94:	679fa167 	ldrvs	sl, [pc, r7, ror #2]
  98:	679fa167 	ldrvs	sl, [pc, r7, ror #2]
  9c:	9e0c0367 	cdpls	3, 0, cr0, cr12, cr7, {3}
  a0:	01000402 	tsteq	r0, r2, lsl #8
  a4:	00006801 	andeq	r6, r0, r1, lsl #16
  a8:	46000200 	strmi	r0, [r0], -r0, lsl #4
  ac:	02000000 	andeq	r0, r0, #0
  b0:	0d0efb01 	vstreq	d15, [lr, #-4]
  b4:	01010100 	mrseq	r0, (UNDEF: 17)
  b8:	00000001 	andeq	r0, r0, r1
  bc:	01000001 	tsteq	r0, r1
  c0:	6e6f6300 	cdpvs	3, 6, cr6, cr15, cr0, {0}
  c4:	6c6f7274 	sfmvs	f7, 2, [pc], #-464	; fffffefc <value+0x7fffe9d2>
  c8:	646f6d5f 	strbtvs	r6, [pc], #-3423	; d0 <_start-0x7fffff30>
  cc:	2e656c75 	mcrcs	12, 3, r6, cr5, cr5, {3}
  d0:	00000063 	andeq	r0, r0, r3, rrx
  d4:	70797400 	rsbsvc	r7, r9, r0, lsl #8
  d8:	682e7365 	stmdavs	lr!, {r0, r2, r5, r6, r8, r9, ip, sp, lr}
  dc:	00000000 	andeq	r0, r0, r0
  e0:	746e6f63 	strbtvc	r6, [lr], #-3939	; 0xfffff09d
  e4:	5f6c6f72 	svcpl	0x006c6f72
  e8:	75646f6d 	strbvc	r6, [r4, #-3949]!	; 0xfffff093
  ec:	682e656c 	stmdavs	lr!, {r2, r3, r5, r6, r8, sl, sp, lr}
  f0:	00000000 	andeq	r0, r0, r0
  f4:	02050000 	andeq	r0, r5, #0
  f8:	800001f0 	strdhi	r0, [r0], -r0	; <UNPREDICTABLE>
  fc:	69bbbc15 	ldmibvs	fp!, {r0, r2, r4, sl, fp, ip, sp, pc}
 100:	bb85839f 	bllt	fe160f84 <value+0x7e15fa5a>
 104:	85836767 	strhi	r6, [r3, #1895]	; 0x767
 108:	6b674c52 	blvs	19d3258 <_start-0x7e62cda8>
 10c:	01000202 	tsteq	r0, r2, lsl #4
 110:	00004001 	andeq	r4, r0, r1
 114:	1c000200 	sfmne	f0, 4, [r0], {-0}
 118:	02000000 	andeq	r0, r0, #0
 11c:	0d0efb01 	vstreq	d15, [lr, #-4]
 120:	01010100 	mrseq	r0, (UNDEF: 17)
 124:	00000001 	andeq	r0, r0, r1
 128:	01000001 	tsteq	r0, r1
 12c:	76696400 	strbtvc	r6, [r9], -r0, lsl #8
 130:	0000632e 	andeq	r6, r0, lr, lsr #6
 134:	00000000 	andeq	r0, r0, r0
 138:	02dc0205 	sbcseq	r0, ip, #1342177280	; 0x50000000
 13c:	bc148000 	ldclt	0, cr8, [r4], {-0}
 140:	64832f4c 	strvs	r2, [r3], #3916	; 0xf4c
 144:	9f4c4b87 	svcls	0x004c4b87
 148:	2f4c9f84 	svccs	0x004c9f84
 14c:	2f876483 	svccs	0x00876483
 150:	01000802 	tsteq	r0, r2, lsl #16
 154:	0000a901 	andeq	sl, r0, r1, lsl #18
 158:	71000200 	mrsvc	r0, R8_usr
 15c:	02000000 	andeq	r0, r0, #0
 160:	0d0efb01 	vstreq	d15, [lr, #-4]
 164:	01010100 	mrseq	r0, (UNDEF: 17)
 168:	00000001 	andeq	r0, r0, r1
 16c:	01000001 	tsteq	r0, r1
 170:	2e2e2f2e 	cdpcs	15, 2, cr2, cr14, cr14, {1}
 174:	6e696d2f 	cdpvs	13, 6, cr6, cr9, cr15, {1}
 178:	6c756d69 	ldclvs	13, cr6, [r5], #-420	; 0xfffffe5c
 17c:	6c5f635f 	mrrcvs	3, 5, r6, pc, cr15	; <UNPREDICTABLE>
 180:	6d2f6269 	sfmvs	f6, 4, [pc, #-420]!	; ffffffe4 <value+0x7fffeaba>
 184:	2f637369 	svccs	0x00637369
 188:	6c636e69 	stclvs	14, cr6, [r3], #-420	; 0xfffffe5c
 18c:	00656475 	rsbeq	r6, r5, r5, ror r4
 190:	69616d00 	stmdbvs	r1!, {r8, sl, fp, sp, lr}^
 194:	00632e6e 	rsbeq	r2, r3, lr, ror #28
 198:	75000000 	strvc	r0, [r0, #-0]
 19c:	5f747261 	svcpl	0x00747261
 1a0:	736e6f63 	cmnvc	lr, #396	; 0x18c
 1a4:	5f656c6f 	svcpl	0x00656c6f
 1a8:	64616568 	strbtvs	r6, [r1], #-1384	; 0xfffffa98
 1ac:	682e7265 	stmdavs	lr!, {r0, r2, r5, r6, r9, ip, sp, lr}
 1b0:	00000000 	andeq	r0, r0, r0
 1b4:	5f737973 	svcpl	0x00737973
 1b8:	2e676f6c 	cdpcs	15, 6, cr6, cr7, cr12, {3}
 1bc:	00010068 	andeq	r0, r1, r8, rrx
 1c0:	75623c00 	strbvc	r3, [r2, #-3072]!	; 0xfffff400
 1c4:	2d746c69 	ldclcs	12, cr6, [r4, #-420]!	; 0xfffffe5c
 1c8:	003e6e69 	eorseq	r6, lr, r9, ror #28
 1cc:	00000000 	andeq	r0, r0, r0
 1d0:	c0020500 	andgt	r0, r2, r0, lsl #10
 1d4:	03800003 	orreq	r0, r0, #3
 1d8:	6883010a 	stmvs	r3, {r1, r3, r8}
 1dc:	4b85844b 	blmi	fe161310 <value+0x7e15fde6>
 1e0:	674bbb2f 	strbvs	fp, [fp, -pc, lsr #22]
 1e4:	67676767 	strbvs	r6, [r7, -r7, ror #14]!
 1e8:	04020067 	streq	r0, [r2], #-103	; 0xffffff99
 1ec:	0200d801 	andeq	sp, r0, #65536	; 0x10000
 1f0:	00670104 	rsbeq	r0, r7, r4, lsl #2
 1f4:	83010402 	movwhi	r0, #5122	; 0x1402
 1f8:	01040200 	mrseq	r0, R12_usr
 1fc:	0002024b 	andeq	r0, r2, fp, asr #4
 200:	00ef0101 	rsceq	r0, pc, r1, lsl #2
 204:	00020000 	andeq	r0, r2, r0
 208:	0000005e 	andeq	r0, r0, lr, asr r0
 20c:	0efb0102 	cdpeq	1, 15, cr0, cr11, cr2, {0}
 210:	0101000d 	tsteq	r1, sp
 214:	00000101 	andeq	r0, r0, r1, lsl #2
 218:	00000100 	andeq	r0, r0, r0, lsl #2
 21c:	61750001 	cmnvs	r5, r1
 220:	635f7472 	cmpvs	pc, #1912602624	; 0x72000000
 224:	6f736e6f 	svcvs	0x00736e6f
 228:	632e656c 			; <UNDEFINED> instruction: 0x632e656c
 22c:	00000000 	andeq	r0, r0, r0
 230:	65707974 	ldrbvs	r7, [r0, #-2420]!	; 0xfffff68c
 234:	00682e73 	rsbeq	r2, r8, r3, ror lr
 238:	75000000 	strvc	r0, [r0, #-0]
 23c:	2e747261 	cdpcs	2, 7, cr7, cr4, cr1, {3}
 240:	00000068 	andeq	r0, r0, r8, rrx
 244:	72617500 	rsbvc	r7, r1, #0, 10
 248:	6f635f74 	svcvs	0x00635f74
 24c:	6c6f736e 	stclvs	3, cr7, [pc], #-440	; 9c <_start-0x7fffff64>
 250:	65685f65 	strbvs	r5, [r8, #-3941]!	; 0xfffff09b
 254:	72656461 	rsbvc	r6, r5, #1627389952	; 0x61000000
 258:	0000682e 	andeq	r6, r0, lr, lsr #16
 25c:	6c630000 	stclvs	0, cr0, [r3], #-0
 260:	2e6b636f 	cdpcs	3, 6, cr6, cr11, cr15, {3}
 264:	00000068 	andeq	r0, r0, r8, rrx
 268:	05000000 	streq	r0, [r0, #-0]
 26c:	0004c002 	andeq	ip, r4, r2
 270:	67671a80 	strbvs	r1, [r7, -r0, lsl #21]!
 274:	0402009f 	streq	r0, [r2], #-159	; 0xffffff61
 278:	062e0601 	strteq	r0, [lr], -r1, lsl #12
 27c:	838450f4 	orrhi	r5, r4, #244	; 0xf4
 280:	02008367 	andeq	r8, r0, #-1677721599	; 0x9c000001
 284:	2e060104 	adfcss	f0, f6, f4
 288:	679fbb06 	ldrvs	fp, [pc, r6, lsl #22]
 28c:	040200a2 	streq	r0, [r2], #-162	; 0xffffff5e
 290:	062e0601 	strteq	r0, [lr], -r1, lsl #12
 294:	848383bd 	strhi	r8, [r3], #957	; 0x3bd
 298:	838383f3 	orrhi	r8, r3, #-872415229	; 0xcc000003
 29c:	3d088a83 	vstrcc	s16, [r8, #-524]	; 0xfffffdf4
 2a0:	f49f8383 			; <UNDEFINED> instruction: 0xf49f8383
 2a4:	08a18483 	stmiaeq	r1!, {r0, r1, r7, sl, pc}
 2a8:	4b313195 	blmi	c4c904 <_start-0x7f3b36fc>
 2ac:	4c67a04d 	stclmi	0, cr10, [r7], #-308	; 0xfffffecc
 2b0:	01040200 	mrseq	r0, R12_usr
 2b4:	d9062e06 	stmdble	r6, {r1, r2, r9, sl, fp, sp}
 2b8:	004b4c83 	subeq	r4, fp, r3, lsl #25
 2bc:	06010402 	streq	r0, [r1], -r2, lsl #8
 2c0:	83d7062e 	bicshi	r0, r7, #48234496	; 0x2e00000
 2c4:	00678385 	rsbeq	r8, r7, r5, lsl #7
 2c8:	68030402 	stmdavs	r3, {r1, sl}
 2cc:	03040200 	movweq	r0, #16896	; 0x4200
 2d0:	040200b8 	streq	r0, [r2], #-184	; 0xffffff48
 2d4:	06660601 	strbteq	r0, [r6], -r1, lsl #12
 2d8:	83692f86 	cmnhi	r9, #536	; 0x218
 2dc:	04020067 	streq	r0, [r2], #-103	; 0xffffff99
 2e0:	02006803 	andeq	r6, r0, #196608	; 0x30000
 2e4:	00b80304 	adcseq	r0, r8, r4, lsl #6
 2e8:	06010402 	streq	r0, [r1], -r2, lsl #8
 2ec:	2f860666 	svccs	0x00860666
 2f0:	01000602 	tsteq	r0, r2, lsl #12
 2f4:	00012e01 	andeq	r2, r1, r1, lsl #28
 2f8:	4a000200 	bmi	b00 <_start-0x7ffff500>
 2fc:	02000000 	andeq	r0, r0, #0
 300:	0d0efb01 	vstreq	d15, [lr, #-4]
 304:	01010100 	mrseq	r0, (UNDEF: 17)
 308:	00000001 	andeq	r0, r0, r1
 30c:	01000001 	tsteq	r0, r1
 310:	72732f2e 	rsbsvc	r2, r3, #46, 30	; 0xb8
 314:	2f2e0063 	svccs	0x002e0063
 318:	6c636e69 	stclvs	14, cr6, [r3], #-420	; 0xfffffe5c
 31c:	00656475 	rsbeq	r6, r5, r5, ror r4
 320:	69727000 	ldmdbvs	r2!, {ip, sp, lr}^
 324:	2e6b746e 	cdpcs	4, 6, cr7, cr11, cr14, {3}
 328:	00010063 	andeq	r0, r1, r3, rrx
 32c:	73797300 	cmnvc	r9, #0, 6
 330:	676f6c5f 			; <UNDEFINED> instruction: 0x676f6c5f
 334:	0200682e 	andeq	r6, r0, #3014656	; 0x2e0000
 338:	623c0000 	eorsvs	r0, ip, #0
 33c:	746c6975 	strbtvc	r6, [ip], #-2421	; 0xfffff68b
 340:	3e6e692d 	cdpcc	9, 6, cr6, cr14, cr13, {1}
 344:	00000000 	andeq	r0, r0, r0
 348:	02050000 	andeq	r0, r5, #0
 34c:	800008dc 	ldrdhi	r0, [r0], -ip
 350:	db011503 	blle	45764 <_start-0x7ffba89c>
 354:	4d4b4b67 	vstrmi	d20, [fp, #-412]	; 0xfffffe64
 358:	002f4d67 	eoreq	r4, pc, r7, ror #26
 35c:	06010402 	streq	r0, [r1], -r2, lsl #8
 360:	4b830666 	blmi	fe0c1d00 <value+0x7e0c07d6>
 364:	00839108 	addeq	r9, r3, r8, lsl #2
 368:	06010402 	streq	r0, [r1], -r2, lsl #8
 36c:	04020066 	streq	r0, [r2], #-102	; 0xffffff9a
 370:	02004a02 	andeq	r4, r0, #8192	; 0x2000
 374:	062e0404 	strteq	r0, [lr], -r4, lsl #8
 378:	03f36768 	mvnseq	r6, #104, 14	; 0x1a00000
 37c:	0b03f277 	bleq	fcd60 <_start-0x7ff032a0>
 380:	0e03d766 	cdpeq	7, 0, cr13, cr3, cr6, {3}
 384:	4b4bd74a 	blmi	12f60b4 <_start-0x7ed09f4c>
 388:	00f42f4c 	rscseq	r2, r4, ip, asr #30
 38c:	06010402 	streq	r0, [r1], -r2, lsl #8
 390:	04020066 	streq	r0, [r2], #-102	; 0xffffff9a
 394:	67066602 	strvs	r6, [r6, -r2, lsl #12]
 398:	0402004b 	streq	r0, [r2], #-75	; 0xffffffb5
 39c:	00660601 	rsbeq	r0, r6, r1, lsl #12
 3a0:	4a020402 	bmi	813b0 <_start-0x7ff7ec50>
 3a4:	04040200 	streq	r0, [r4], #-512	; 0xfffffe00
 3a8:	0402002e 	streq	r0, [r2], #-46	; 0xffffffd2
 3ac:	00670604 	rsbeq	r0, r7, r4, lsl #12
 3b0:	83040402 	movwhi	r0, #17410	; 0x4402
 3b4:	0200bb31 	andeq	fp, r0, #50176	; 0xc400
 3b8:	66060104 	strvs	r0, [r6], -r4, lsl #2
 3bc:	02040200 	andeq	r0, r4, #0, 4
 3c0:	0402004a 	streq	r0, [r2], #-74	; 0xffffffb6
 3c4:	03062e04 	movweq	r2, #28164	; 0x6e04
 3c8:	02006675 	andeq	r6, r0, #122683392	; 0x7500000
 3cc:	66060104 	strvs	r0, [r6], -r4, lsl #2
 3d0:	660e0306 	strvs	r0, [lr], -r6, lsl #6
 3d4:	bb4a0e03 	bllt	1283be8 <_start-0x7ed7c418>
 3d8:	2f4e4b4b 	svccs	0x004e4b4b
 3dc:	4bbc8367 	blmi	fef21180 <value+0x7ef1fc56>
 3e0:	b802694b 	stmdalt	r2, {r0, r1, r3, r6, r8, fp, sp, lr}
 3e4:	02001401 	andeq	r1, r0, #16777216	; 0x1000000
 3e8:	66060104 	strvs	r0, [r6], -r4, lsl #2
 3ec:	324b6706 	subcc	r6, fp, #1572864	; 0x180000
 3f0:	082c8667 	stmdaeq	ip!, {r0, r1, r2, r5, r6, r9, sl, pc}
 3f4:	67a0365a 	sbfxvs	r3, sl, #12, #1
 3f8:	bc686767 	stcllt	7, cr6, [r8], #-412	; 0xfffffe64
 3fc:	31a0a031 	lsrcc	sl, r1, r0
 400:	4e4b6867 	cdpmi	8, 4, cr6, cr11, cr7, {3}
 404:	a031a0a0 	eorsge	sl, r1, r0, lsr #1
 408:	3184d52f 	orrcc	sp, r4, pc, lsr #10
 40c:	67319fa0 	ldrvs	r9, [r1, -r0, lsr #31]!
 410:	309f6731 	addscc	r6, pc, r1, lsr r7	; <UNPREDICTABLE>
 414:	03664603 	cmneq	r6, #3145728	; 0x300000
 418:	a7032e3d 	smladxge	r3, sp, lr, r2
 41c:	db03667f 	blle	d9e20 <_start-0x7ff261e0>
 420:	04028200 	streq	r8, [r2], #-512	; 0xfffffe00
 424:	e9010100 	stmdb	r1, {r8}
 428:	02000000 	andeq	r0, r0, #0
 42c:	00002500 	andeq	r2, r0, r0, lsl #10
 430:	fb010200 	blx	40c3a <_start-0x7ffbf3c6>
 434:	01000d0e 	tsteq	r0, lr, lsl #26
 438:	00010101 	andeq	r0, r1, r1, lsl #2
 43c:	00010000 	andeq	r0, r1, r0
 440:	2f2e0100 	svccs	0x002e0100
 444:	00637273 	rsbeq	r7, r3, r3, ror r2
 448:	72747300 	rsbsvc	r7, r4, #0, 6
 44c:	2e676e69 	cdpcs	14, 6, cr6, cr7, cr9, {3}
 450:	00010063 	andeq	r0, r1, r3, rrx
 454:	05000000 	streq	r0, [r0, #-0]
 458:	000f7802 	andeq	r7, pc, r2, lsl #16
 45c:	010a0380 	smlabbeq	sl, r0, r3, r0
 460:	674b4bbb 			; <UNDEFINED> instruction: 0x674b4bbb
 464:	0402004c 	streq	r0, [r2], #-76	; 0xffffffb4
 468:	002e0602 	eoreq	r0, lr, r2, lsl #12
 46c:	9e010402 	cdpls	4, 0, cr0, cr1, cr2, {0}
 470:	bb3f0806 	bllt	fc2490 <_start-0x7f03db70>
 474:	2f4b8384 	svccs	0x004b8384
 478:	852fbc65 	strhi	fp, [pc, #-3173]!	; fffff81b <value+0x7fffe2f1>
 47c:	02004b9f 	andeq	r4, r0, #162816	; 0x27c00
 480:	2e060104 	adfcss	f0, f6, f4
 484:	2f590806 	svccs	0x00590806
 488:	004bbb86 	subeq	fp, fp, r6, lsl #23
 48c:	06020402 	streq	r0, [r2], -r2, lsl #8
 490:	0402002e 	streq	r0, [r2], #-46	; 0xffffffd2
 494:	08069e01 	stmdaeq	r6, {r0, r9, sl, fp, ip, pc}
 498:	649f2f59 	ldrvs	r2, [pc], #3929	; 4a0 <_start-0x7ffffb60>
 49c:	9f842f6a 	svcls	0x00842f6a
 4a0:	04020067 	streq	r0, [r2], #-103	; 0xffffff99
 4a4:	062e0601 	strteq	r0, [lr], -r1, lsl #12
 4a8:	682fae08 	stmdavs	pc!, {r3, r9, sl, fp, sp, pc}	; <UNPREDICTABLE>
 4ac:	020067bb 	andeq	r6, r0, #49020928	; 0x2ec0000
 4b0:	2e060204 	cdpcs	2, 0, cr0, cr6, cr4, {0}
 4b4:	01040200 	mrseq	r0, R12_usr
 4b8:	ad08069e 	stcge	6, cr0, [r8, #-632]	; 0xfffffd88
 4bc:	6a64f32f 	bvs	193d180 <_start-0x7e6c2e80>
 4c0:	2f9f6930 	svccs	0x009f6930
 4c4:	62672fbb 	rsbvs	r2, r7, #748	; 0x2ec
 4c8:	01040200 	mrseq	r0, R12_usr
 4cc:	88068206 	stmdahi	r6, {r1, r2, r9, pc}
 4d0:	2fbc86bc 	svccs	0x00bc86bc
 4d4:	67672fbb 			; <UNDEFINED> instruction: 0x67672fbb
 4d8:	04020061 	streq	r0, [r2], #-97	; 0xffffff9f
 4dc:	00820601 	addeq	r0, r2, r1, lsl #12
 4e0:	82020402 	andhi	r0, r2, #33554432	; 0x2000000
 4e4:	84bb6d06 	ldrthi	r6, [fp], #3334	; 0xd06
 4e8:	64304b9f 	ldrtvs	r4, [r0], #-2975	; 0xfffff461
 4ec:	01040200 	mrseq	r0, R12_usr
 4f0:	a2068206 	andge	r8, r6, #1610612736	; 0x60000000
 4f4:	01040200 	mrseq	r0, R12_usr
 4f8:	02008206 	andeq	r8, r0, #1610612736	; 0x60000000
 4fc:	004a0204 	subeq	r0, sl, r4, lsl #4
 500:	06040402 	streq	r0, [r4], -r2, lsl #8
 504:	4b9f842f 	blmi	fe7e15c8 <value+0x7e7e009e>
 508:	4b9f2f4b 	blmi	fe7cc23c <value+0x7e7cad12>
 50c:	022f8763 	eoreq	r8, pc, #25952256	; 0x18c0000
 510:	01010008 	tsteq	r1, r8

Disassembly of section .debug_str:

00000000 <.debug_str>:
       0:	5f44454c 	svcpl	0x0044454c
       4:	74696e69 	strbtvc	r6, [r9], #-3689	; 0xfffff197
       8:	6f687300 	svcvs	0x00687300
       c:	75207472 	strvc	r7, [r0, #-1138]!	; 0xfffffb8e
      10:	6769736e 	strbvs	r7, [r9, -lr, ror #6]!
      14:	2064656e 	rsbcs	r6, r4, lr, ror #10
      18:	00746e69 	rsbseq	r6, r4, r9, ror #28
      1c:	746e6975 	strbtvc	r6, [lr], #-2421	; 0xfffff68b
      20:	745f3233 	ldrbvc	r3, [pc], #-563	; 28 <_start-0x7fffffd8>
      24:	6f687300 	svcvs	0x00687300
      28:	69207472 	stmdbvs	r0!, {r1, r4, r5, r6, sl, ip, sp, lr}
      2c:	4700746e 	strmi	r7, [r0, -lr, ror #8]
      30:	2e4f4950 	mcrcs	9, 2, r4, cr15, cr0, {2}
      34:	682f0063 	stmdavs	pc!, {r0, r1, r5, r6}	; <UNPREDICTABLE>
      38:	2f656d6f 	svccs	0x00656d6f
      3c:	73616873 	cmnvc	r1, #7536640	; 0x730000
      40:	642f6968 	strtvs	r6, [pc], #-2408	; 48 <_start-0x7fffffb8>
      44:	61626261 	cmnvs	r2, r1, ror #4
      48:	7261622f 	rsbvc	r6, r1, #-268435454	; 0xf0000002
      4c:	74656d65 	strbtvc	r6, [r5], #-3429	; 0xfffff29b
      50:	775f6c61 	ldrbvc	r6, [pc, -r1, ror #24]
      54:	736b726f 	cmnvc	fp, #-268435450	; 0xf0000006
      58:	65636170 	strbvs	r6, [r3, #-368]!	; 0xfffffe90
      5c:	6165422f 	cmnvs	r5, pc, lsr #4
      60:	42656c67 	rsbmi	r6, r5, #26368	; 0x6700
      64:	42656e6f 	rsbmi	r6, r5, #1776	; 0x6f0
      68:	6b63616c 	blvs	18d8620 <_start-0x7e7279e0>
      6c:	5241552f 	subpl	r5, r1, #197132288	; 0xbc00000
      70:	6e750054 	mrcvs	0, 3, r0, cr5, cr4, {2}
      74:	6e676973 	mcrvs	9, 3, r6, cr7, cr3, {3}
      78:	63206465 			; <UNDEFINED> instruction: 0x63206465
      7c:	00726168 	rsbseq	r6, r2, r8, ror #2
      80:	20554e47 	subscs	r4, r5, r7, asr #28
      84:	2e342043 	cdpcs	0, 3, cr2, cr4, cr3, {2}
      88:	20332e39 	eorscs	r2, r3, r9, lsr lr
      8c:	35313032 	ldrcc	r3, [r1, #-50]!	; 0xffffffce
      90:	39323530 	ldmdbcc	r2!, {r4, r5, r8, sl, ip, sp}
      94:	72702820 	rsbsvc	r2, r0, #32, 16	; 0x200000
      98:	6c657265 	sfmvs	f7, 2, [r5], #-404	; 0xfffffe6c
      9c:	65736165 	ldrbvs	r6, [r3, #-357]!	; 0xfffffe9b
      a0:	6d2d2029 	stcvs	0, cr2, [sp, #-164]!	; 0xffffff5c
      a4:	3d757066 	ldclcc	0, cr7, [r5, #-408]!	; 0xfffffe68
      a8:	6e6f656e 	cdpvs	5, 6, cr6, cr15, cr14, {3}
      ac:	666d2d20 	strbtvs	r2, [sp], -r0, lsr #26
      b0:	74616f6c 	strbtvc	r6, [r1], #-3948	; 0xfffff094
      b4:	6962612d 	stmdbvs	r2!, {r0, r2, r3, r5, r8, sp, lr}^
      b8:	7261683d 	rsbvc	r6, r1, #3997696	; 0x3d0000
      bc:	6d2d2064 	stcvs	0, cr2, [sp, #-400]!	; 0xfffffe70
      c0:	3d757063 	ldclcc	0, cr7, [r5, #-396]!	; 0xfffffe74
      c4:	74726f63 	ldrbtvc	r6, [r2], #-3939	; 0xfffff09d
      c8:	612d7865 			; <UNDEFINED> instruction: 0x612d7865
      cc:	672d2038 			; <UNDEFINED> instruction: 0x672d2038
      d0:	74732d20 	ldrbtvc	r2, [r3], #-3360	; 0xfffff2e0
      d4:	6e673d64 	cdpvs	13, 6, cr3, cr7, cr4, {3}
      d8:	00393975 	eorseq	r3, r9, r5, ror r9
      dc:	505f4d43 	subspl	r4, pc, r3, asr #26
      e0:	4c5f5245 	lfmmi	f5, 2, [pc], {69}	; 0x45
      e4:	4c435f33 	mcrrmi	15, 3, r5, r3, cr3
      e8:	4354534b 	cmpmi	r4, #738197505	; 0x2c000001
      ec:	004c5254 	subeq	r5, ip, r4, asr r2
      f0:	505f4d43 	subspl	r4, pc, r3, asr #26
      f4:	4d5f5245 	lfmmi	f5, 2, [pc, #-276]	; ffffffe8 <value+0x7fffeabe>
      f8:	50534143 	subspl	r4, r3, r3, asr #2
      fc:	4c435f30 	mcrrmi	15, 3, r5, r3, cr0
     100:	5254434b 	subspl	r4, r4, #738197505	; 0x2c000001
     104:	4d43004c 	stclmi	0, cr0, [r3, #-304]	; 0xfffffed0
     108:	5245505f 	subpl	r5, r5, #95	; 0x5f
     10c:	4950535f 	ldmdbmi	r0, {r0, r1, r2, r3, r4, r6, r8, r9, ip, lr}^
     110:	4c435f30 	mcrrmi	15, 3, r5, r3, cr0
     114:	5254434b 	subspl	r4, r4, #738197505	; 0x2c000001
     118:	4d43004c 	stclmi	0, cr0, [r3, #-304]	; 0xfffffed0
     11c:	5245505f 	subpl	r5, r5, #95	; 0x5f
     120:	48344c5f 	ldmdami	r4!, {r0, r1, r2, r3, r4, r6, sl, fp, lr}
     124:	4c435f53 	mcrrmi	15, 5, r5, r3, cr3
     128:	4354534b 	cmpmi	r4, #738197505	; 0x2c000001
     12c:	004c5254 	subeq	r5, ip, r4, asr r2
     130:	505f4d43 	subspl	r4, pc, r3, asr #26
     134:	555f5245 	ldrbpl	r5, [pc, #-581]	; fffffef7 <value+0x7fffe9cd>
     138:	34545241 	ldrbcc	r5, [r4], #-577	; 0xfffffdbf
     13c:	4b4c435f 	blmi	1310ec0 <_start-0x7ecef140>
     140:	4c525443 	cfldrdmi	mvd5, [r2], {67}	; 0x43
     144:	5f4d4300 	svcpl	0x004d4300
     148:	5f524550 	svcpl	0x00524550
     14c:	5341434d 	movtpl	r4, #4941	; 0x134d
     150:	435f3150 	cmpmi	pc, #80, 2
     154:	54434b4c 	strbpl	r4, [r3], #-2892	; 0xfffff4b4
     158:	43004c52 	movwmi	r4, #3154	; 0xc52
     15c:	45505f4d 	ldrbmi	r5, [r0, #-3917]	; 0xfffff0b3
     160:	50545f52 	subspl	r5, r4, r2, asr pc
     164:	5f304354 	svcpl	0x00304354
     168:	434b4c43 	movtmi	r4, #48195	; 0xbc43
     16c:	004c5254 	subeq	r5, ip, r4, asr r2
     170:	505f4d43 	subspl	r4, pc, r3, asr #26
     174:	4c5f5245 	lfmmi	f5, 2, [pc], {69}	; 0x45
     178:	5f574634 	svcpl	0x00574634
     17c:	534b4c43 	movtpl	r4, #48195	; 0xbc43
     180:	52544354 	subspl	r4, r4, #84, 6	; 0x50000001
     184:	4d43004c 	stclmi	0, cr0, [r3, #-304]	; 0xfffffed0
     188:	4353535f 	cmpmi	r3, #2080374785	; 0x7c000001
     18c:	444f4d5f 	strbmi	r4, [pc], #-3423	; 194 <_start-0x7ffffe6c>
     190:	51455246 	cmppl	r5, r6, asr #4
     194:	5f564944 	svcpl	0x00564944
     198:	4c4c5044 	mcrrmi	0, 4, r5, ip, cr4
     19c:	5244445f 	subpl	r4, r4, #1593835520	; 0x5f000000
     1a0:	696e4900 	stmdbvs	lr!, {r8, fp, lr}^
     1a4:	41555f74 	cmpmi	r5, r4, ror pc
     1a8:	5f305452 	svcpl	0x00305452
     1ac:	006b6c43 	rsbeq	r6, fp, r3, asr #24
     1b0:	505f4d43 	subspl	r4, pc, r3, asr #26
     1b4:	555f5245 	ldrbpl	r5, [pc, #-581]	; ffffff77 <value+0x7fffea4d>
     1b8:	35545241 	ldrbcc	r5, [r4, #-577]	; 0xfffffdbf
     1bc:	4b4c435f 	blmi	1310f40 <_start-0x7ecef0c0>
     1c0:	4c525443 	cfldrdmi	mvd5, [r2], {67}	; 0x43
     1c4:	5f4d4300 	svcpl	0x004d4300
     1c8:	5f435353 	svcpl	0x00435353
     1cc:	544c4544 	strbpl	r4, [ip], #-1348	; 0xfffffabc
     1d0:	54534d41 	ldrbpl	r4, [r3], #-3393	; 0xfffff2bf
     1d4:	445f5045 	ldrbmi	r5, [pc], #-69	; 1dc <_start-0x7ffffe24>
     1d8:	5f4c4c50 	svcpl	0x004c4c50
     1dc:	50534944 	subspl	r4, r3, r4, asr #18
     1e0:	6d657400 	cfstrdvs	mvd7, [r5, #-0]
     1e4:	4d430070 	stclmi	0, cr0, [r3, #-448]	; 0xfffffe40
     1e8:	4c44495f 	mcrrmi	9, 5, r4, r4, cr15
     1ec:	5f545345 	svcpl	0x00545345
     1f0:	4c4c5044 	mcrrmi	0, 4, r5, ip, cr4
     1f4:	5244445f 	subpl	r4, r4, #1593835520	; 0x5f000000
     1f8:	5f4d4300 	svcpl	0x004d4300
     1fc:	4f545541 	svcmi	0x00545541
     200:	454c4449 	strbmi	r4, [ip, #-1097]	; 0xfffffbb7
     204:	4c50445f 	cfldrdmi	mvd4, [r0], {95}	; 0x5f
     208:	45505f4c 	ldrbmi	r5, [r0, #-3916]	; 0xfffff0b4
     20c:	4d430052 	stclmi	0, cr0, [r3, #-328]	; 0xfffffeb8
     210:	5649445f 			; <UNDEFINED> instruction: 0x5649445f
     214:	5f354d5f 	svcpl	0x00354d5f
     218:	4c4c5044 	mcrrmi	0, 4, r5, ip, cr4
     21c:	524f435f 	subpl	r4, pc, #2080374785	; 0x7c000001
     220:	4d430045 	stclmi	0, cr0, [r3, #-276]	; 0xfffffeec
     224:	4353535f 	cmpmi	r3, #2080374785	; 0x7c000001
     228:	4c45445f 	cfstrdmi	mvd4, [r5], {95}	; 0x5f
     22c:	534d4154 	movtpl	r4, #53588	; 0xd154
     230:	5f504554 	svcpl	0x00504554
     234:	4c4c5044 	mcrrmi	0, 4, r5, ip, cr4
     238:	5245505f 	subpl	r5, r5, #95	; 0x5f
     23c:	6c617600 	stclvs	6, cr7, [r1], #-0
     240:	43006575 	movwmi	r6, #1397	; 0x575
     244:	45505f4d 	ldrbmi	r5, [r0, #-3917]	; 0xfffff0b3
     248:	4c435f52 	mcrrmi	15, 5, r5, r3, cr2
     24c:	5649444b 	strbpl	r4, [r9], -fp, asr #8
     250:	5f4b3233 	svcpl	0x004b3233
     254:	434b4c43 	movtmi	r4, #48195	; 0xbc43
     258:	004c5254 	subeq	r5, ip, r4, asr r2
     25c:	415f4d43 	cmpmi	pc, r3, asr #26
     260:	494f5455 	stmdbmi	pc, {r0, r2, r4, r6, sl, ip, lr}^	; <UNPREDICTABLE>
     264:	5f454c44 	svcpl	0x00454c44
     268:	4c4c5044 	mcrrmi	0, 4, r5, ip, cr4
     26c:	524f435f 	subpl	r4, pc, #2080374785	; 0x7c000001
     270:	4d430045 	stclmi	0, cr0, [r3, #-276]	; 0xfffffeec
     274:	5649445f 			; <UNDEFINED> instruction: 0x5649445f
     278:	5f324d5f 	svcpl	0x00324d5f
     27c:	4c4c5044 	mcrrmi	0, 4, r5, ip, cr4
     280:	55504d5f 	ldrbpl	r4, [r0, #-3423]	; 0xfffff2a1
     284:	5f4d4300 	svcpl	0x004d4300
     288:	5f524550 	svcpl	0x00524550
     28c:	4e414344 	cdpmi	3, 4, cr4, cr1, cr4, {2}
     290:	4c435f30 	mcrrmi	15, 3, r5, r3, cr0
     294:	5254434b 	subspl	r4, r4, #738197505	; 0x2c000001
     298:	4d43004c 	stclmi	0, cr0, [r3, #-304]	; 0xfffffed0
     29c:	5245505f 	subpl	r5, r5, #95	; 0x5f
     2a0:	46344c5f 			; <UNDEFINED> instruction: 0x46344c5f
     2a4:	4c435f57 	mcrrmi	15, 5, r5, r3, cr7
     2a8:	5254434b 	subspl	r4, r4, #738197505	; 0x2c000001
     2ac:	4d43004c 	stclmi	0, cr0, [r3, #-304]	; 0xfffffed0
     2b0:	4354525f 	cmpmi	r4, #-268435451	; 0xf0000005
     2b4:	5f4d4300 	svcpl	0x004d4300
     2b8:	5f524550 	svcpl	0x00524550
     2bc:	30434d4d 	subcc	r4, r3, sp, asr #26
     2c0:	4b4c435f 	blmi	1311044 <_start-0x7eceefbc>
     2c4:	4c525443 	cfldrdmi	mvd5, [r2], {67}	; 0x43
     2c8:	5f4d4300 	svcpl	0x004d4300
     2cc:	534b4c43 	movtpl	r4, #48195	; 0xbc43
     2d0:	445f4c45 	ldrbmi	r4, [pc], #-3141	; 2d8 <_start-0x7ffffd28>
     2d4:	5f4c4c50 	svcpl	0x004c4c50
     2d8:	45524f43 	ldrbmi	r4, [r2, #-3907]	; 0xfffff0bd
     2dc:	5f4d4300 	svcpl	0x004d4300
     2e0:	5f524550 	svcpl	0x00524550
     2e4:	31433249 	cmpcc	r3, r9, asr #4
     2e8:	4b4c435f 	blmi	131106c <_start-0x7eceef94>
     2ec:	4c525443 	cfldrdmi	mvd5, [r2], {67}	; 0x43
     2f0:	5f4d4300 	svcpl	0x004d4300
     2f4:	5f564944 	svcpl	0x00564944
     2f8:	445f344d 	ldrbmi	r3, [pc], #-1101	; 300 <_start-0x7ffffd00>
     2fc:	5f4c4c50 	svcpl	0x004c4c50
     300:	45524f43 	ldrbmi	r4, [r2, #-3907]	; 0xfffff0bd
     304:	5f4d4300 	svcpl	0x004d4300
     308:	5f524550 	svcpl	0x00524550
     30c:	45454549 	strbmi	r4, [r5, #-1353]	; 0xfffffab7
     310:	30303035 	eorscc	r3, r0, r5, lsr r0
     314:	4b4c435f 	blmi	1311098 <_start-0x7eceef68>
     318:	4c525443 	cfldrdmi	mvd5, [r2], {67}	; 0x43
     31c:	5f4d4300 	svcpl	0x004d4300
     320:	5f524550 	svcpl	0x00524550
     324:	454d4954 	strbmi	r4, [sp, #-2388]	; 0xfffff6ac
     328:	435f3252 	cmpmi	pc, #536870917	; 0x20000005
     32c:	54434b4c 	strbpl	r4, [r3], #-2892	; 0xfffff4b4
     330:	43004c52 	movwmi	r4, #3154	; 0xc52
     334:	45505f4d 	ldrbmi	r5, [r0, #-3917]	; 0xfffff0b3
     338:	4d4d5f52 	stclmi	15, cr5, [sp, #-328]	; 0xfffffeb8
     33c:	435f3143 	cmpmi	pc, #-1073741808	; 0xc0000010
     340:	54434b4c 	strbpl	r4, [r3], #-2892	; 0xfffff4b4
     344:	43004c52 	movwmi	r4, #3154	; 0xc52
     348:	53535f4d 	cmppl	r3, #308	; 0x134
     34c:	4f4d5f43 	svcmi	0x004d5f43
     350:	45524644 	ldrbmi	r4, [r2, #-1604]	; 0xfffff9bc
     354:	56494451 			; <UNDEFINED> instruction: 0x56494451
     358:	4c50445f 	cfldrdmi	mvd4, [r0], {95}	; 0x5f
     35c:	504d5f4c 	subpl	r5, sp, ip, asr #30
     360:	4d430055 	stclmi	0, cr0, [r3, #-340]	; 0xfffffeac
     364:	5245505f 	subpl	r5, r5, #95	; 0x5f
     368:	4332495f 	teqmi	r2, #1556480	; 0x17c000
     36c:	4c435f32 	mcrrmi	15, 3, r5, r3, cr2
     370:	5254434b 	subspl	r4, r4, #738197505	; 0x2c000001
     374:	4d43004c 	stclmi	0, cr0, [r3, #-304]	; 0xfffffed0
     378:	5245505f 	subpl	r5, r5, #95	; 0x5f
     37c:	5241555f 	subpl	r5, r1, #398458880	; 0x17c00000
     380:	435f3354 	cmpmi	pc, #84, 6	; 0x50000001
     384:	54434b4c 	strbpl	r4, [r3], #-2892	; 0xfffff4b4
     388:	43004c52 	movwmi	r4, #3154	; 0xc52
     38c:	45505f4d 	ldrbmi	r5, [r0, #-3917]	; 0xfffff0b3
     390:	49545f52 	ldmdbmi	r4, {r1, r4, r6, r8, r9, sl, fp, ip, lr}^
     394:	3352454d 	cmpcc	r2, #322961408	; 0x13400000
     398:	4b4c435f 	blmi	131111c <_start-0x7eceeee4>
     39c:	4c525443 	cfldrdmi	mvd5, [r2], {67}	; 0x43
     3a0:	5f4d4300 	svcpl	0x004d4300
     3a4:	5f524550 	svcpl	0x00524550
     3a8:	32434d4d 	subcc	r4, r3, #4928	; 0x1340
     3ac:	4b4c435f 	blmi	1311130 <_start-0x7eceeed0>
     3b0:	4c525443 	cfldrdmi	mvd5, [r2], {67}	; 0x43
     3b4:	5f4d4300 	svcpl	0x004d4300
     3b8:	5f524550 	svcpl	0x00524550
     3bc:	4e495053 	mcrmi	0, 2, r5, cr9, cr3, {2}
     3c0:	4b434f4c 	blmi	10d40f8 <_start-0x7ef2bf08>
     3c4:	4b4c435f 	blmi	1311148 <_start-0x7eceeeb8>
     3c8:	4c525443 	cfldrdmi	mvd5, [r2], {67}	; 0x43
     3cc:	5f4d4300 	svcpl	0x004d4300
     3d0:	5f524550 	svcpl	0x00524550
     3d4:	00474552 	subeq	r4, r7, r2, asr r5
     3d8:	575f4d43 	ldrbpl	r4, [pc, -r3, asr #26]
     3dc:	5f50554b 	svcpl	0x0050554b
     3e0:	50554b57 	subspl	r4, r5, r7, asr fp
     3e4:	5f334d5f 	svcpl	0x00334d5f
     3e8:	434b4c43 	movtmi	r4, #48195	; 0xbc43
     3ec:	004c5254 	subeq	r5, ip, r4, asr r2
     3f0:	435f4d43 	cmpmi	pc, #4288	; 0x10c0
     3f4:	4f4d4b4c 	svcmi	0x004d4b4c
     3f8:	445f4544 	ldrbmi	r4, [pc], #-1348	; 400 <_start-0x7ffffc00>
     3fc:	5f4c4c50 	svcpl	0x004c4c50
     400:	45524f43 	ldrbmi	r4, [r2, #-3907]	; 0xfffff0bd
     404:	5f4d4300 	svcpl	0x004d4300
     408:	43746553 	cmnmi	r4, #348127232	; 0x14c00000
     40c:	43006b6c 	movwmi	r6, #2924	; 0xb6c
     410:	45505f4d 	ldrbmi	r5, [r0, #-3917]	; 0xfffff0b3
     414:	49545f52 	ldmdbmi	r4, {r1, r4, r6, r8, r9, sl, fp, ip, lr}^
     418:	3452454d 	ldrbcc	r4, [r2], #-1357	; 0xfffffab3
     41c:	4b4c435f 	blmi	13111a0 <_start-0x7eceee60>
     420:	4c525443 	cfldrdmi	mvd5, [r2], {67}	; 0x43
     424:	5f4d4300 	svcpl	0x004d4300
     428:	50554b57 	subspl	r4, r5, r7, asr fp
     42c:	4e4f435f 	mcrmi	3, 2, r4, cr15, cr15, {2}
     430:	4c4f5254 	sfmmi	f5, 2, [pc], {84}	; 0x54
     434:	4b4c435f 	blmi	13111b8 <_start-0x7eceee48>
     438:	4c525443 	cfldrdmi	mvd5, [r2], {67}	; 0x43
     43c:	5f4d4300 	svcpl	0x004d4300
     440:	50554b57 	subspl	r4, r5, r7, asr fp
     444:	5444575f 	strbpl	r5, [r4], #-1887	; 0xfffff8a1
     448:	4c435f31 	mcrrmi	15, 3, r5, r3, cr1
     44c:	5254434b 	subspl	r4, r4, #738197505	; 0x2c000001
     450:	4d43004c 	stclmi	0, cr0, [r3, #-304]	; 0xfffffed0
     454:	5245505f 	subpl	r5, r5, #95	; 0x5f
     458:	4d49545f 	cfstrdmi	mvd5, [r9, #-380]	; 0xfffffe84
     45c:	5f355245 	svcpl	0x00355245
     460:	434b4c43 	movtmi	r4, #48195	; 0xbc43
     464:	004c5254 	subeq	r5, ip, r4, asr r2
     468:	505f4d43 	subspl	r4, pc, r3, asr #26
     46c:	535f5245 	cmppl	pc, #1342177284	; 0x50000004
     470:	5f314950 	svcpl	0x00314950
     474:	434b4c43 	movtmi	r4, #48195	; 0xbc43
     478:	004c5254 	subeq	r5, ip, r4, asr r2
     47c:	505f4d43 	subspl	r4, pc, r3, asr #26
     480:	4c5f5245 	lfmmi	f5, 2, [pc], {69}	; 0x45
     484:	4c435f33 	mcrrmi	15, 3, r5, r3, cr3
     488:	5254434b 	subspl	r4, r4, #738197505	; 0x2c000001
     48c:	4d43004c 	stclmi	0, cr0, [r3, #-304]	; 0xfffffed0
     490:	5245505f 	subpl	r5, r5, #95	; 0x5f
     494:	4143445f 	cmpmi	r3, pc, asr r4
     498:	435f314e 	cmpmi	pc, #-2147483629	; 0x80000013
     49c:	54434b4c 	strbpl	r4, [r3], #-2892	; 0xfffff4b4
     4a0:	43004c52 	movwmi	r4, #3154	; 0xc52
     4a4:	45505f4d 	ldrbmi	r5, [r0, #-3917]	; 0xfffff0b3
     4a8:	50455f52 	subpl	r5, r5, r2, asr pc
     4ac:	53534d57 	cmppl	r3, #5568	; 0x15c0
     4b0:	4c435f30 	mcrrmi	15, 3, r5, r3, cr0
     4b4:	5254434b 	subspl	r4, r4, #738197505	; 0x2c000001
     4b8:	4d43004c 	stclmi	0, cr0, [r3, #-304]	; 0xfffffed0
     4bc:	5245505f 	subpl	r5, r5, #95	; 0x5f
     4c0:	4d49545f 	cfstrdmi	mvd5, [r9, #-380]	; 0xfffffe84
     4c4:	5f365245 	svcpl	0x00365245
     4c8:	434b4c43 	movtmi	r4, #48195	; 0xbc43
     4cc:	004c5254 	subeq	r5, ip, r4, asr r2
     4d0:	505f4d43 	subspl	r4, pc, r3, asr #26
     4d4:	435f5245 	cmpmi	pc, #1342177284	; 0x50000004
     4d8:	414d4750 	cmpmi	sp, r0, asr r7
     4dc:	435f3043 	cmpmi	pc, #67	; 0x43
     4e0:	54434b4c 	strbpl	r4, [r3], #-2892	; 0xfffff4b4
     4e4:	43004c52 	movwmi	r4, #3154	; 0xc52
     4e8:	53535f4d 	cmppl	r3, #308	; 0x134
     4ec:	45445f43 	strbmi	r5, [r4, #-3907]	; 0xfffff0bd
     4f0:	4d41544c 	cfstrdmi	mvd5, [r1, #-304]	; 0xfffffed0
     4f4:	50455453 	subpl	r5, r5, r3, asr r4
     4f8:	4c50445f 	cfldrdmi	mvd4, [r0], {95}	; 0x5f
     4fc:	4f435f4c 	svcmi	0x00435f4c
     500:	43004552 	movwmi	r4, #1362	; 0x552
     504:	45505f4d 	ldrbmi	r5, [r0, #-3917]	; 0xfffff0b3
     508:	49545f52 	ldmdbmi	r4, {r1, r4, r6, r8, r9, sl, fp, ip, lr}^
     50c:	3752454d 	ldrbcc	r4, [r2, -sp, asr #10]
     510:	4b4c435f 	blmi	1311294 <_start-0x7eceed6c>
     514:	4c525443 	cfldrdmi	mvd5, [r2], {67}	; 0x43
     518:	5f4d4300 	svcpl	0x004d4300
     51c:	5f435353 	svcpl	0x00435353
     520:	544c4544 	strbpl	r4, [ip], #-1348	; 0xfffffabc
     524:	54534d41 	ldrbpl	r4, [r3], #-3393	; 0xfffff2bf
     528:	445f5045 	ldrbmi	r5, [pc], #-69	; 530 <_start-0x7ffffad0>
     52c:	5f4c4c50 	svcpl	0x004c4c50
     530:	0055504d 	subseq	r5, r5, sp, asr #32
     534:	505f4d43 	subspl	r4, pc, r3, asr #26
     538:	4f5f5245 	svcmi	0x005f5245
     53c:	50575043 	subspl	r5, r7, r3, asr #32
     540:	4b4c435f 	blmi	13112c4 <_start-0x7eceed3c>
     544:	4c525443 	cfldrdmi	mvd5, [r2], {67}	; 0x43
     548:	5f4d4300 	svcpl	0x004d4300
     54c:	50554b57 	subspl	r4, r5, r7, asr fp
     550:	414d535f 	cmpmi	sp, pc, asr r3
     554:	45525452 	ldrbmi	r5, [r2, #-1106]	; 0xfffffbae
     558:	58454c46 	stmdapl	r5, {r1, r2, r6, sl, fp, lr}^
     55c:	4c435f30 	mcrrmi	15, 3, r5, r3, cr0
     560:	5254434b 	subspl	r4, r4, #738197505	; 0x2c000001
     564:	4d43004c 	stclmi	0, cr0, [r3, #-304]	; 0xfffffed0
     568:	5245505f 	subpl	r5, r5, #95	; 0x5f
     56c:	5750455f 			; <UNDEFINED> instruction: 0x5750455f
     570:	3253534d 	subscc	r5, r3, #872415233	; 0x34000001
     574:	4b4c435f 	blmi	13112f8 <_start-0x7eceed08>
     578:	4c525443 	cfldrdmi	mvd5, [r2], {67}	; 0x43
     57c:	5f4d4300 	svcpl	0x004d4300
     580:	50554b57 	subspl	r4, r5, r7, asr fp
     584:	5241555f 	subpl	r5, r1, #398458880	; 0x17c00000
     588:	435f3054 	cmpmi	pc, #84	; 0x54
     58c:	54434b4c 	strbpl	r4, [r3], #-2892	; 0xfffff4b4
     590:	43004c52 	movwmi	r4, #3154	; 0xc52
     594:	4c435f4d 	mcrrmi	15, 4, r5, r3, cr13
     598:	4c45534b 	mcrrmi	3, 4, r5, r5, cr11
     59c:	4c50445f 	cfldrdmi	mvd4, [r0], {95}	; 0x5f
     5a0:	45505f4c 	ldrbmi	r5, [r0, #-3916]	; 0xfffff0b4
     5a4:	48504952 	ldmdami	r0, {r1, r4, r6, r8, fp, lr}^
     5a8:	5f4d4300 	svcpl	0x004d4300
     5ac:	5f524550 	svcpl	0x00524550
     5b0:	534c344c 	movtpl	r3, #50252	; 0xc44c
     5b4:	4b4c435f 	blmi	1311338 <_start-0x7eceecc8>
     5b8:	4c525443 	cfldrdmi	mvd5, [r2], {67}	; 0x43
     5bc:	5f4d4300 	svcpl	0x004d4300
     5c0:	5f524550 	svcpl	0x00524550
     5c4:	5f53334c 	svcpl	0x0053334c
     5c8:	534b4c43 	movtpl	r4, #48195	; 0xbc43
     5cc:	52544354 	subspl	r4, r4, #84, 6	; 0x50000001
     5d0:	4d43004c 	stclmi	0, cr0, [r3, #-304]	; 0xfffffed0
     5d4:	4b4c435f 	blmi	1311358 <_start-0x7eceeca8>
     5d8:	45444f4d 	strbmi	r4, [r4, #-3917]	; 0xfffff0b3
     5dc:	4c50445f 	cfldrdmi	mvd4, [r0], {95}	; 0x5f
     5e0:	44445f4c 	strbmi	r5, [r4], #-3916	; 0xfffff0b4
     5e4:	4d430052 	stclmi	0, cr0, [r3, #-328]	; 0xfffffeb8
     5e8:	554b575f 	strbpl	r5, [fp, #-1887]	; 0xfffff8a1
     5ec:	4d535f50 	ldclmi	15, cr5, [r3, #-320]	; 0xfffffec0
     5f0:	52545241 	subspl	r5, r4, #268435460	; 0x10000004
     5f4:	454c4645 	strbmi	r4, [ip, #-1605]	; 0xfffff9bb
     5f8:	435f3158 	cmpmi	pc, #88, 2
     5fc:	54434b4c 	strbpl	r4, [r3], #-2892	; 0xfffff4b4
     600:	43004c52 	movwmi	r4, #3154	; 0xc52
     604:	4c435f4d 	mcrrmi	15, 4, r5, r3, cr13
     608:	4c45534b 	mcrrmi	3, 4, r5, r5, cr11
     60c:	4c50445f 	cfldrdmi	mvd4, [r0], {95}	; 0x5f
     610:	49445f4c 	stmdbmi	r4, {r2, r3, r6, r8, r9, sl, fp, ip, lr}^
     614:	43005053 	movwmi	r5, #83	; 0x53
     618:	45505f4d 	ldrbmi	r5, [r0, #-3917]	; 0xfffff0b3
     61c:	4d430052 	stclmi	0, cr0, [r3, #-328]	; 0xfffffeb8
     620:	5245505f 	subpl	r5, r5, #95	; 0x5f
     624:	4b4c435f 	blmi	13113a8 <_start-0x7eceec58>
     628:	4d34325f 	lfmmi	f3, 4, [r4, #-380]!	; 0xfffffe84
     62c:	435f5a48 	cmpmi	pc, #72, 20	; 0x48000
     630:	54534b4c 	ldrbpl	r4, [r3], #-2892	; 0xfffff4b4
     634:	4c525443 	cfldrdmi	mvd5, [r2], {67}	; 0x43
     638:	5f4d4300 	svcpl	0x004d4300
     63c:	5f524550 	svcpl	0x00524550
     640:	30425355 	subcc	r5, r2, r5, asr r3
     644:	4b4c435f 	blmi	13113c8 <_start-0x7eceec38>
     648:	4c525443 	cfldrdmi	mvd5, [r2], {67}	; 0x43
     64c:	5f4d4300 	svcpl	0x004d4300
     650:	5f524550 	svcpl	0x00524550
     654:	4c49414d 	stfmie	f4, [r9], {77}	; 0x4d
     658:	30584f42 	subscc	r4, r8, r2, asr #30
     65c:	4b4c435f 	blmi	13113e0 <_start-0x7eceec20>
     660:	4c525443 	cfldrdmi	mvd5, [r2], {67}	; 0x43
     664:	5f4d4300 	svcpl	0x004d4300
     668:	55464543 	strbpl	r4, [r6, #-1347]	; 0xfffffabd
     66c:	43004553 	movwmi	r4, #1363	; 0x553
     670:	65475f4d 	strbvs	r5, [r7, #-3917]	; 0xfffff0b3
     674:	6b6c4374 	blvs	1b1144c <_start-0x7e4eebb4>
     678:	5f4d4300 	svcpl	0x004d4300
     67c:	5f564944 	svcpl	0x00564944
     680:	445f364d 	ldrbmi	r3, [pc], #-1613	; 688 <_start-0x7ffff978>
     684:	5f4c4c50 	svcpl	0x004c4c50
     688:	45524f43 	ldrbmi	r4, [r2, #-3907]	; 0xfffff0bd
     68c:	5f4d4300 	svcpl	0x004d4300
     690:	50554b57 	subspl	r4, r5, r7, asr fp
     694:	5f4d4300 	svcpl	0x004d4300
     698:	454c4449 	strbmi	r4, [ip, #-1097]	; 0xfffffbb7
     69c:	445f5453 	ldrbmi	r5, [pc], #-1107	; 6a4 <_start-0x7ffff95c>
     6a0:	5f4c4c50 	svcpl	0x004c4c50
     6a4:	45524f43 	ldrbmi	r4, [r2, #-3907]	; 0xfffff0bd
     6a8:	5f4d4300 	svcpl	0x004d4300
     6ac:	454c4449 	strbmi	r4, [ip, #-1097]	; 0xfffffbb7
     6b0:	445f5453 	ldrbmi	r5, [pc], #-1107	; 6b8 <_start-0x7ffff948>
     6b4:	5f4c4c50 	svcpl	0x004c4c50
     6b8:	00524550 	subseq	r4, r2, r0, asr r5
     6bc:	505f4d43 	subspl	r4, pc, r3, asr #26
     6c0:	505f5245 	subspl	r5, pc, r5, asr #4
     6c4:	495f5552 	ldmdbmi	pc, {r1, r4, r6, r8, sl, ip, lr}^	; <UNPREDICTABLE>
     6c8:	5f535343 	svcpl	0x00535343
     6cc:	434b4c43 	movtmi	r4, #48195	; 0xbc43
     6d0:	004c5254 	subeq	r5, ip, r4, asr r2
     6d4:	435f4d43 	cmpmi	pc, #4288	; 0x10c0
     6d8:	4f4d4b4c 	svcmi	0x004d4b4c
     6dc:	445f4544 	ldrbmi	r4, [pc], #-1348	; 6e4 <_start-0x7ffff91c>
     6e0:	5f4c4c50 	svcpl	0x004c4c50
     6e4:	00524550 	subseq	r4, r2, r0, asr r5
     6e8:	505f4d43 	subspl	r4, pc, r3, asr #26
     6ec:	475f5245 	ldrbmi	r5, [pc, -r5, asr #4]
     6f0:	314f4950 	cmpcc	pc, r0, asr r9	; <UNPREDICTABLE>
     6f4:	4b4c435f 	blmi	1311478 <_start-0x7eceeb88>
     6f8:	4c525443 	cfldrdmi	mvd5, [r2], {67}	; 0x43
     6fc:	5f4d4300 	svcpl	0x004d4300
     700:	444b4c43 	strbmi	r4, [fp], #-3139	; 0xfffff3bd
     704:	444c4f43 	strbmi	r4, [ip], #-3907	; 0xfffff0bd
     708:	50445f4f 	subpl	r5, r4, pc, asr #30
     70c:	505f4c4c 	subspl	r4, pc, ip, asr #24
     710:	43005245 	movwmi	r5, #581	; 0x245
     714:	45505f4d 	ldrbmi	r5, [r0, #-3917]	; 0xfffff0b3
     718:	50475f52 	subpl	r5, r7, r2, asr pc
     71c:	5f324f49 	svcpl	0x00324f49
     720:	434b4c43 	movtmi	r4, #48195	; 0xbc43
     724:	004c5254 	subeq	r5, ip, r4, asr r2
     728:	505f4d43 	subspl	r4, pc, r3, asr #26
     72c:	455f5245 	ldrbmi	r5, [pc, #-581]	; 4ef <_start-0x7ffffb11>
     730:	5f46494d 	svcpl	0x0046494d
     734:	434b4c43 	movtmi	r4, #48195	; 0xbc43
     738:	004c5254 	subeq	r5, ip, r4, asr r2
     73c:	505f4d43 	subspl	r4, pc, r3, asr #26
     740:	455f5245 	ldrbmi	r5, [pc, #-581]	; 503 <_start-0x7ffffafd>
     744:	435f4d4c 	cmpmi	pc, #76, 26	; 0x1300
     748:	54434b4c 	strbpl	r4, [r3], #-2892	; 0xfffff4b4
     74c:	43004c52 	movwmi	r4, #3154	; 0xc52
     750:	4c435f4d 	mcrrmi	15, 4, r5, r3, cr13
     754:	444f4d4b 	strbmi	r4, [pc], #-3403	; 75c <_start-0x7ffff8a4>
     758:	50445f45 	subpl	r5, r4, r5, asr #30
     75c:	4d5f4c4c 	ldclmi	12, cr4, [pc, #-304]	; 634 <_start-0x7ffff9cc>
     760:	43005550 	movwmi	r5, #1360	; 0x550
     764:	50445f4d 	subpl	r5, r4, sp, asr #30
     768:	43004c4c 	movwmi	r4, #3148	; 0xc4c
     76c:	45505f4d 	ldrbmi	r5, [r0, #-3917]	; 0xfffff0b3
     770:	50475f52 	subpl	r5, r7, r2, asr pc
     774:	5f334f49 	svcpl	0x00334f49
     778:	434b4c43 	movtmi	r4, #48195	; 0xbc43
     77c:	004c5254 	subeq	r5, ip, r4, asr r2
     780:	505f4d43 	subspl	r4, pc, r3, asr #26
     784:	4c5f5245 	lfmmi	f5, 2, [pc], {69}	; 0x45
     788:	5f534c34 	svcpl	0x00534c34
     78c:	534b4c43 	movtpl	r4, #48195	; 0xbc43
     790:	52544354 	subspl	r4, r4, #84, 6	; 0x50000001
     794:	4d43004c 	stclmi	0, cr0, [r3, #-304]	; 0xfffffed0
     798:	5245505f 	subpl	r5, r5, #95	; 0x5f
     79c:	5450545f 	ldrbpl	r5, [r0], #-1119	; 0xfffffba1
     7a0:	435f3143 	cmpmi	pc, #-1073741808	; 0xc0000010
     7a4:	54434b4c 	strbpl	r4, [r3], #-2892	; 0xfffff4b4
     7a8:	43004c52 	movwmi	r4, #3154	; 0xc52
     7ac:	55415f4d 	strbpl	r5, [r1, #-3917]	; 0xfffff0b3
     7b0:	44494f54 	strbmi	r4, [r9], #-3924	; 0xfffff0ac
     7b4:	445f454c 	ldrbmi	r4, [pc], #-1356	; 7bc <_start-0x7ffff844>
     7b8:	5f4c4c50 	svcpl	0x004c4c50
     7bc:	00524444 	subseq	r4, r2, r4, asr #8
     7c0:	4c5f4d43 	mrrcmi	13, 4, r4, pc, cr3	; <UNPREDICTABLE>
     7c4:	4f415f33 	svcmi	0x00415f33
     7c8:	4c435f4e 	mcrrmi	15, 4, r5, r3, cr14
     7cc:	4354534b 	cmpmi	r4, #738197505	; 0x2c000001
     7d0:	004c5254 	subeq	r5, ip, r4, asr r2
     7d4:	435f4d43 	cmpmi	pc, #4288	; 0x10c0
     7d8:	45534b4c 	ldrbmi	r4, [r3, #-2892]	; 0xfffff4b4
     7dc:	50445f4c 	subpl	r5, r4, ip, asr #30
     7e0:	445f4c4c 	ldrbmi	r4, [pc], #-3148	; 7e8 <_start-0x7ffff818>
     7e4:	43005244 	movwmi	r5, #580	; 0x244
     7e8:	53535f4d 	cmppl	r3, #308	; 0x134
     7ec:	4f4d5f43 	svcmi	0x004d5f43
     7f0:	45524644 	ldrbmi	r4, [r2, #-1604]	; 0xfffff9bc
     7f4:	56494451 			; <UNDEFINED> instruction: 0x56494451
     7f8:	4c50445f 	cfldrdmi	mvd4, [r0], {95}	; 0x5f
     7fc:	4f435f4c 	svcmi	0x00435f4c
     800:	43004552 	movwmi	r4, #1362	; 0x552
     804:	45505f4d 	ldrbmi	r5, [r0, #-3917]	; 0xfffff0b3
     808:	50545f52 	subspl	r5, r4, r2, asr pc
     80c:	5f324354 	svcpl	0x00324354
     810:	434b4c43 	movtmi	r4, #48195	; 0xbc43
     814:	004c5254 	subeq	r5, ip, r4, asr r2
     818:	505f4d43 	subspl	r4, pc, r3, asr #26
     81c:	4f5f5245 	svcmi	0x005f5245
     820:	52434d43 	subpl	r4, r3, #4288	; 0x10c0
     824:	435f4d41 	cmpmi	pc, #4160	; 0x1040
     828:	54434b4c 	strbpl	r4, [r3], #-2892	; 0xfffff4b4
     82c:	43004c52 	movwmi	r4, #3154	; 0xc52
     830:	45505f4d 	ldrbmi	r5, [r0, #-3917]	; 0xfffff0b3
     834:	434c5f52 	movtmi	r5, #53074	; 0xcf52
     838:	435f4344 	cmpmi	pc, #68, 6	; 0x10000001
     83c:	54434b4c 	strbpl	r4, [r3], #-2892	; 0xfffff4b4
     840:	43004c52 	movwmi	r4, #3154	; 0xc52
     844:	44495f4d 	strbmi	r5, [r9], #-3917	; 0xfffff0b3
     848:	5453454c 	ldrbpl	r4, [r3], #-1356	; 0xfffffab4
     84c:	4c50445f 	cfldrdmi	mvd4, [r0], {95}	; 0x5f
     850:	504d5f4c 	subpl	r5, sp, ip, asr #30
     854:	4d430055 	stclmi	0, cr0, [r3, #-340]	; 0xfffffeac
     858:	4b4c435f 	blmi	13115dc <_start-0x7eceea24>
     85c:	45444f4d 	strbmi	r4, [r4, #-3917]	; 0xfffff0b3
     860:	4c50445f 	cfldrdmi	mvd4, [r0], {95}	; 0x5f
     864:	49445f4c 	stmdbmi	r4, {r2, r3, r6, r8, r9, sl, fp, ip, lr}^
     868:	43005053 	movwmi	r5, #83	; 0x53
     86c:	45445f4d 	strbmi	r5, [r4, #-3917]	; 0xfffff0b3
     870:	45434956 	strbmi	r4, [r3, #-2390]	; 0xfffff6aa
     874:	5f4d4300 	svcpl	0x004d4300
     878:	0055504d 	subseq	r5, r5, sp, asr #32
     87c:	505f4d43 	subspl	r4, pc, r3, asr #26
     880:	435f5245 	cmpmi	pc, #1342177284	; 0x50000004
     884:	5f575350 	svcpl	0x00575350
     888:	534b4c43 	movtpl	r4, #48195	; 0xbc43
     88c:	52544354 	subspl	r4, r4, #84, 6	; 0x50000001
     890:	4d43004c 	stclmi	0, cr0, [r3, #-304]	; 0xfffffed0
     894:	4353535f 	cmpmi	r3, #2080374785	; 0x7c000001
     898:	4c45445f 	cfstrdmi	mvd4, [r5], {95}	; 0x5f
     89c:	534d4154 	movtpl	r4, #53588	; 0xd154
     8a0:	5f504554 	svcpl	0x00504554
     8a4:	4c4c5044 	mcrrmi	0, 4, r5, ip, cr4
     8a8:	5244445f 	subpl	r4, r4, #1593835520	; 0x5f000000
     8ac:	5f4d4300 	svcpl	0x004d4300
     8b0:	50554b57 	subspl	r4, r5, r7, asr fp
     8b4:	4245445f 	submi	r4, r5, #1593835520	; 0x5f000000
     8b8:	53534755 	cmppl	r3, #22282240	; 0x1540000
     8bc:	4b4c435f 	blmi	1311640 <_start-0x7ecee9c0>
     8c0:	4c525443 	cfldrdmi	mvd5, [r2], {67}	; 0x43
     8c4:	5f4d4300 	svcpl	0x004d4300
     8c8:	454c4449 	strbmi	r4, [ip, #-1097]	; 0xfffffbb7
     8cc:	445f5453 	ldrbmi	r5, [pc], #-1107	; 8d4 <_start-0x7ffff72c>
     8d0:	5f4c4c50 	svcpl	0x004c4c50
     8d4:	50534944 	subspl	r4, r3, r4, asr #18
     8d8:	5f4d4300 	svcpl	0x004d4300
     8dc:	00584647 	subseq	r4, r8, r7, asr #12
     8e0:	4c5f4d43 	mrrcmi	13, 4, r4, pc, cr3	; <UNPREDICTABLE>
     8e4:	4b575f34 	blmi	15d85bc <_start-0x7ea27a44>
     8e8:	415f5055 	cmpmi	pc, r5, asr r0	; <UNPREDICTABLE>
     8ec:	435f4e4f 	cmpmi	pc, #1264	; 0x4f0
     8f0:	54534b4c 	ldrbpl	r4, [r3], #-2892	; 0xfffff4b4
     8f4:	4c525443 	cfldrdmi	mvd5, [r2], {67}	; 0x43
     8f8:	5f4d4300 	svcpl	0x004d4300
     8fc:	5f524550 	svcpl	0x00524550
     900:	43435054 	movtmi	r5, #12372	; 0x3054
     904:	4b4c435f 	blmi	1311688 <_start-0x7ecee978>
     908:	4c525443 	cfldrdmi	mvd5, [r2], {67}	; 0x43
     90c:	5f4d4300 	svcpl	0x004d4300
     910:	5f564944 	svcpl	0x00564944
     914:	445f324d 	ldrbmi	r3, [pc], #-589	; 91c <_start-0x7ffff6e4>
     918:	5f4c4c50 	svcpl	0x004c4c50
     91c:	50534944 	subspl	r4, r3, r4, asr #18
     920:	5f4d4300 	svcpl	0x004d4300
     924:	5f524550 	svcpl	0x00524550
     928:	5348344c 	movtpl	r3, #33868	; 0x844c
     92c:	4b4c435f 	blmi	13116b0 <_start-0x7ecee950>
     930:	4c525443 	cfldrdmi	mvd5, [r2], {67}	; 0x43
     934:	5f4d4300 	svcpl	0x004d4300
     938:	4f545541 	svcmi	0x00545541
     93c:	454c4449 	strbmi	r4, [ip, #-1097]	; 0xfffffbb7
     940:	4c50445f 	cfldrdmi	mvd4, [r0], {95}	; 0x5f
     944:	504d5f4c 	subpl	r5, sp, ip, asr #30
     948:	4d430055 	stclmi	0, cr0, [r3, #-340]	; 0xfffffeac
     94c:	5245505f 	subpl	r5, r5, #95	; 0x5f
     950:	494d455f 	stmdbmi	sp, {r0, r1, r2, r3, r4, r6, r8, sl, lr}^
     954:	57465f46 	strbpl	r5, [r6, -r6, asr #30]
     958:	4b4c435f 	blmi	13116dc <_start-0x7ecee924>
     95c:	4c525443 	cfldrdmi	mvd5, [r2], {67}	; 0x43
     960:	5f4d4300 	svcpl	0x004d4300
     964:	534b4c43 	movtpl	r4, #48195	; 0xbc43
     968:	445f4c45 	ldrbmi	r4, [pc], #-3141	; 970 <_start-0x7ffff690>
     96c:	5f4c4c50 	svcpl	0x004c4c50
     970:	0055504d 	subseq	r5, r5, sp, asr #32
     974:	636f6c63 	cmnvs	pc, #25344	; 0x6300
     978:	00632e6b 	rsbeq	r2, r3, fp, ror #28
     97c:	575f4d43 	ldrbpl	r4, [pc, -r3, asr #26]
     980:	5f50554b 	svcpl	0x0050554b
     984:	534b4c43 	movtpl	r4, #48195	; 0xbc43
     988:	52544354 	subspl	r4, r4, #84, 6	; 0x50000001
     98c:	4d43004c 	stclmi	0, cr0, [r3, #-304]	; 0xfffffed0
     990:	5649445f 			; <UNDEFINED> instruction: 0x5649445f
     994:	5f324d5f 	svcpl	0x00324d5f
     998:	4c4c5044 	mcrrmi	0, 4, r5, ip, cr4
     99c:	5245505f 	subpl	r5, r5, #95	; 0x5f
     9a0:	5f4d4300 	svcpl	0x004d4300
     9a4:	50554b57 	subspl	r4, r5, r7, asr fp
     9a8:	4d49545f 	cfstrdmi	mvd5, [r9, #-380]	; 0xfffffe84
     9ac:	5f305245 	svcpl	0x00305245
     9b0:	434b4c43 	movtmi	r4, #48195	; 0xbc43
     9b4:	004c5254 	subeq	r5, ip, r4, asr r2
     9b8:	505f4d43 	subspl	r4, pc, r3, asr #26
     9bc:	475f5245 	ldrbmi	r5, [pc, -r5, asr #4]
     9c0:	5f434d50 	svcpl	0x00434d50
     9c4:	434b4c43 	movtmi	r4, #48195	; 0xbc43
     9c8:	004c5254 	subeq	r5, ip, r4, asr r2
     9cc:	505f4d43 	subspl	r4, pc, r3, asr #26
     9d0:	4f5f5245 	svcmi	0x005f5245
     9d4:	50575043 	subspl	r5, r7, r3, asr #32
     9d8:	5f334c5f 	svcpl	0x00334c5f
     9dc:	534b4c43 	movtpl	r4, #48195	; 0xbc43
     9e0:	52544354 	subspl	r4, r4, #84, 6	; 0x50000001
     9e4:	4d43004c 	stclmi	0, cr0, [r3, #-304]	; 0xfffffed0
     9e8:	554b575f 	strbpl	r5, [fp, #-1887]	; 0xfffff8a1
     9ec:	49545f50 	ldmdbmi	r4, {r4, r6, r8, r9, sl, fp, ip, lr}^
     9f0:	3152454d 	cmpcc	r2, sp, asr #10
     9f4:	4b4c435f 	blmi	1311778 <_start-0x7ecee888>
     9f8:	4c525443 	cfldrdmi	mvd5, [r2], {67}	; 0x43
     9fc:	5f4d4300 	svcpl	0x004d4300
     a00:	50554b57 	subspl	r4, r5, r7, asr fp
     a04:	4950475f 	ldmdbmi	r0, {r0, r1, r2, r3, r4, r6, r8, r9, sl, lr}^
     a08:	435f304f 	cmpmi	pc, #79	; 0x4f
     a0c:	54434b4c 	strbpl	r4, [r3], #-2892	; 0xfffff4b4
     a10:	43004c52 	movwmi	r4, #3154	; 0xc52
     a14:	45505f4d 	ldrbmi	r5, [r0, #-3917]	; 0xfffff0b3
     a18:	434c5f52 	movtmi	r5, #53074	; 0xcf52
     a1c:	435f4344 	cmpmi	pc, #68, 6	; 0x10000001
     a20:	54534b4c 	ldrbpl	r4, [r3], #-2892	; 0xfffff4b4
     a24:	4c525443 	cfldrdmi	mvd5, [r2], {67}	; 0x43
     a28:	5f4d4300 	svcpl	0x004d4300
     a2c:	5f524550 	svcpl	0x00524550
     a30:	5f555250 	svcpl	0x00555250
     a34:	53534349 	cmppl	r3, #603979777	; 0x24000001
     a38:	4b4c435f 	blmi	13117bc <_start-0x7ecee844>
     a3c:	54435453 	strbpl	r5, [r3], #-1107	; 0xfffffbad
     a40:	43004c52 	movwmi	r4, #3154	; 0xc52
     a44:	45505f4d 	ldrbmi	r5, [r0, #-3917]	; 0xfffff0b3
     a48:	41555f52 	cmpmi	r5, r2, asr pc
     a4c:	5f315452 	svcpl	0x00315452
     a50:	434b4c43 	movtmi	r4, #48195	; 0xbc43
     a54:	004c5254 	subeq	r5, ip, r4, asr r2
     a58:	415f4d43 	cmpmi	pc, r3, asr #26
     a5c:	494f5455 	stmdbmi	pc, {r0, r2, r4, r6, sl, ip, lr}^	; <UNPREDICTABLE>
     a60:	5f454c44 	svcpl	0x00454c44
     a64:	4c4c5044 	mcrrmi	0, 4, r5, ip, cr4
     a68:	5349445f 	movtpl	r4, #37983	; 0x945f
     a6c:	4d430050 	stclmi	0, cr0, [r3, #-320]	; 0xfffffec0
     a70:	4353535f 	cmpmi	r3, #2080374785	; 0x7c000001
     a74:	444f4d5f 	strbmi	r4, [pc], #-3423	; a7c <_start-0x7ffff584>
     a78:	51455246 	cmppl	r5, r6, asr #4
     a7c:	5f564944 	svcpl	0x00564944
     a80:	4c4c5044 	mcrrmi	0, 4, r5, ip, cr4
     a84:	5245505f 	subpl	r5, r5, #95	; 0x5f
     a88:	5f4d4300 	svcpl	0x004d4300
     a8c:	50554b57 	subspl	r4, r5, r7, asr fp
     a90:	4344415f 	movtmi	r4, #16735	; 0x415f
     a94:	4353545f 	cmpmi	r3, #1593835520	; 0x5f000000
     a98:	4b4c435f 	blmi	131181c <_start-0x7ecee7e4>
     a9c:	4c525443 	cfldrdmi	mvd5, [r2], {67}	; 0x43
     aa0:	5f4d4300 	svcpl	0x004d4300
     aa4:	5f435353 	svcpl	0x00435353
     aa8:	46444f4d 	strbmi	r4, [r4], -sp, asr #30
     aac:	44514552 	ldrbmi	r4, [r1], #-1362	; 0xfffffaae
     ab0:	445f5649 	ldrbmi	r5, [pc], #-1609	; ab8 <_start-0x7ffff548>
     ab4:	5f4c4c50 	svcpl	0x004c4c50
     ab8:	50534944 	subspl	r4, r3, r4, asr #18
     abc:	5f4d4300 	svcpl	0x004d4300
     ac0:	5f524550 	svcpl	0x00524550
     ac4:	4d575045 	ldclmi	0, cr5, [r7, #-276]	; 0xfffffeec
     ac8:	5f315353 	svcpl	0x00315353
     acc:	434b4c43 	movtmi	r4, #48195	; 0xbc43
     ad0:	004c5254 	subeq	r5, ip, r4, asr r2
     ad4:	505f4d43 	subspl	r4, pc, r3, asr #26
     ad8:	4c5f5245 	lfmmi	f5, 2, [pc], {69}	; 0x45
     adc:	4e495f33 	mcrmi	15, 2, r5, cr9, cr3, {1}
     ae0:	5f525453 	svcpl	0x00525453
     ae4:	434b4c43 	movtmi	r4, #48195	; 0xbc43
     ae8:	004c5254 	subeq	r5, ip, r4, asr r2
     aec:	505f4d43 	subspl	r4, pc, r3, asr #26
     af0:	555f5245 	ldrbpl	r5, [pc, #-581]	; 8b3 <_start-0x7ffff74d>
     af4:	32545241 	subscc	r5, r4, #268435460	; 0x10000004
     af8:	4b4c435f 	blmi	131187c <_start-0x7ecee784>
     afc:	4c525443 	cfldrdmi	mvd5, [r2], {67}	; 0x43
     b00:	5f4d4300 	svcpl	0x004d4300
     b04:	50554b57 	subspl	r4, r5, r7, asr fp
     b08:	57344c5f 			; <UNDEFINED> instruction: 0x57344c5f
     b0c:	5f50554b 	svcpl	0x0050554b
     b10:	434b4c43 	movtmi	r4, #48195	; 0xbc43
     b14:	004c5254 	subeq	r5, ip, r4, asr r2
     b18:	5f4b4c43 	svcpl	0x004b4c43
     b1c:	55444f4d 	strbpl	r4, [r4, #-3917]	; 0xfffff0b3
     b20:	745f454c 	ldrbvc	r4, [pc], #-1356	; b28 <_start-0x7ffff4d8>
     b24:	5f4d4300 	svcpl	0x004d4300
     b28:	50554b57 	subspl	r4, r5, r7, asr fp
     b2c:	4332495f 	teqmi	r2, #1556480	; 0x17c000
     b30:	4c435f30 	mcrrmi	15, 3, r5, r3, cr0
     b34:	5254434b 	subspl	r4, r4, #738197505	; 0x2c000001
     b38:	4d43004c 	stclmi	0, cr0, [r3, #-304]	; 0xfffffed0
     b3c:	5649445f 			; <UNDEFINED> instruction: 0x5649445f
     b40:	5f324d5f 	svcpl	0x00324d5f
     b44:	4c4c5044 	mcrrmi	0, 4, r5, ip, cr4
     b48:	5244445f 	subpl	r4, r4, #1593835520	; 0x5f000000
     b4c:	5f4d4300 	svcpl	0x004d4300
     b50:	666e6f63 	strbtvs	r6, [lr], -r3, ror #30
     b54:	6d70675f 	ldclvs	7, cr6, [r0, #-380]!	; 0xfffffe84
     b58:	30615f63 	rsbcc	r5, r1, r3, ror #30
     b5c:	5f4d4300 	svcpl	0x004d4300
     b60:	666e6f63 	strbtvs	r6, [lr], -r3, ror #30
     b64:	6d70675f 	ldclvs	7, cr6, [r0, #-380]!	; 0xfffffe84
     b68:	31615f63 	cmncc	r1, r3, ror #30
     b6c:	5f4d4300 	svcpl	0x004d4300
     b70:	666e6f63 	strbtvs	r6, [lr], -r3, ror #30
     b74:	6d70675f 	ldclvs	7, cr6, [r0, #-380]!	; 0xfffffe84
     b78:	32615f63 	rsbcc	r5, r1, #396	; 0x18c
     b7c:	5f4d4300 	svcpl	0x004d4300
     b80:	666e6f63 	strbtvs	r6, [lr], -r3, ror #30
     b84:	6d70675f 	ldclvs	7, cr6, [r0, #-380]!	; 0xfffffe84
     b88:	33615f63 	cmncc	r1, #396	; 0x18c
     b8c:	5f4d4300 	svcpl	0x004d4300
     b90:	666e6f63 	strbtvs	r6, [lr], -r3, ror #30
     b94:	6d70675f 	ldclvs	7, cr6, [r0, #-380]!	; 0xfffffe84
     b98:	34615f63 	strbtcc	r5, [r1], #-3939	; 0xfffff09d
     b9c:	5f4d4300 	svcpl	0x004d4300
     ba0:	666e6f63 	strbtvs	r6, [lr], -r3, ror #30
     ba4:	6d70675f 	ldclvs	7, cr6, [r0, #-380]!	; 0xfffffe84
     ba8:	35615f63 	strbcc	r5, [r1, #-3939]!	; 0xfffff09d
     bac:	5f4d4300 	svcpl	0x004d4300
     bb0:	666e6f63 	strbtvs	r6, [lr], -r3, ror #30
     bb4:	6d70675f 	ldclvs	7, cr6, [r0, #-380]!	; 0xfffffe84
     bb8:	36615f63 	strbtcc	r5, [r1], -r3, ror #30
     bbc:	5f4d4300 	svcpl	0x004d4300
     bc0:	666e6f63 	strbtvs	r6, [lr], -r3, ror #30
     bc4:	6d70675f 	ldclvs	7, cr6, [r0, #-380]!	; 0xfffffe84
     bc8:	37615f63 	strbcc	r5, [r1, -r3, ror #30]!
     bcc:	5f4d4300 	svcpl	0x004d4300
     bd0:	666e6f63 	strbtvs	r6, [lr], -r3, ror #30
     bd4:	6d70675f 	ldclvs	7, cr6, [r0, #-380]!	; 0xfffffe84
     bd8:	38615f63 	stmdacc	r1!, {r0, r1, r5, r6, r8, r9, sl, fp, ip, lr}^
     bdc:	5f4d4300 	svcpl	0x004d4300
     be0:	666e6f63 	strbtvs	r6, [lr], -r3, ror #30
     be4:	6d70675f 	ldclvs	7, cr6, [r0, #-380]!	; 0xfffffe84
     be8:	39615f63 	stmdbcc	r1!, {r0, r1, r5, r6, r8, r9, sl, fp, ip, lr}^
     bec:	6e6f6300 	cdpvs	3, 6, cr6, cr15, cr0, {0}
     bf0:	6c6f7274 	sfmvs	f7, 2, [pc], #-464	; a28 <_start-0x7ffff5d8>
     bf4:	646f6d5f 	strbtvs	r6, [pc], #-3423	; bfc <_start-0x7ffff404>
     bf8:	2e656c75 	mcrcs	12, 3, r6, cr5, cr5, {3}
     bfc:	4d430063 	stclmi	0, cr0, [r3, #-396]	; 0xfffffe74
     c00:	6e6f635f 	mcrvs	3, 3, r6, cr15, cr15, {2}
     c04:	696d5f66 	stmdbvs	sp!, {r1, r2, r5, r6, r8, r9, sl, fp, ip, lr}^
     c08:	635f3169 	cmpvs	pc, #1073741850	; 0x4000001a
     c0c:	43007372 	movwmi	r7, #882	; 0x372
     c10:	6f635f4d 	svcvs	0x00635f4d
     c14:	745f666e 	ldrbvc	r6, [pc], #-1646	; c1c <_start-0x7ffff3e4>
     c18:	5f636370 	svcpl	0x00636370
     c1c:	5f747665 	svcpl	0x00747665
     c20:	5f78756d 	svcpl	0x0078756d
     c24:	325f3032 	subscc	r3, pc, #50	; 0x32
     c28:	4d430033 	stclmi	0, cr0, [r3, #-204]	; 0xffffff34
     c2c:	6d77705f 	ldclvs	0, cr7, [r7, #-380]!	; 0xfffffe84
     c30:	635f7373 	cmpvs	pc, #-872415231	; 0xcc000001
     c34:	006c7274 	rsbeq	r7, ip, r4, ror r2
     c38:	735f4d43 	cmpvc	pc, #4288	; 0x10c0
     c3c:	74437465 	strbvc	r7, [r3], #-1125	; 0xfffffb9b
     c40:	6f4d6c72 	svcvs	0x004d6c72
     c44:	656c7564 	strbvs	r7, [ip, #-1380]!	; 0xfffffa9c
     c48:	5f4d4300 	svcpl	0x004d4300
     c4c:	73756665 	cmnvc	r5, #105906176	; 0x6500000
     c50:	6d735f65 	ldclvs	15, cr5, [r3, #-404]!	; 0xfffffe6c
     c54:	4d430061 	stclmi	0, cr0, [r3, #-388]	; 0xfffffe7c
     c58:	6e6f635f 	mcrvs	3, 3, r6, cr15, cr15, {2}
     c5c:	70675f66 	rsbvc	r5, r7, r6, ror #30
     c60:	635f636d 	cmpvs	pc, #-1275068415	; 0xb4000001
     c64:	00316e73 	eorseq	r6, r1, r3, ror lr
     c68:	635f4d43 	cmpvs	pc, #4288	; 0x10c0
     c6c:	5f666e6f 	svcpl	0x00666e6f
     c70:	636d7067 	cmnvs	sp, #103	; 0x67
     c74:	6e73635f 	mrcvs	3, 3, r6, cr3, cr15, {2}
     c78:	4d430032 	stclmi	0, cr0, [r3, #-200]	; 0xffffff38
     c7c:	6e6f635f 	mcrvs	3, 3, r6, cr15, cr15, {2}
     c80:	70675f66 	rsbvc	r5, r7, r6, ror #30
     c84:	635f636d 	cmpvs	pc, #-1275068415	; 0xb4000001
     c88:	00336e73 	eorseq	r6, r3, r3, ror lr
     c8c:	635f4d43 	cmpvs	pc, #4288	; 0x10c0
     c90:	5f666e6f 	svcpl	0x00666e6f
     c94:	636d7067 	cmnvs	sp, #103	; 0x67
     c98:	6961775f 	stmdbvs	r1!, {r0, r1, r2, r3, r4, r6, r8, r9, sl, ip, sp, lr}^
     c9c:	43003074 	movwmi	r3, #116	; 0x74
     ca0:	6f635f4d 	svcvs	0x00635f4d
     ca4:	675f666e 	ldrbvs	r6, [pc, -lr, ror #12]
     ca8:	5f636d70 	svcpl	0x00636d70
     cac:	00306461 	eorseq	r6, r0, r1, ror #8
     cb0:	635f4d43 	cmpvs	pc, #4288	; 0x10c0
     cb4:	5f666e6f 	svcpl	0x00666e6f
     cb8:	636d7067 	cmnvs	sp, #103	; 0x67
     cbc:	3164615f 	cmncc	r4, pc, asr r1
     cc0:	5f4d4300 	svcpl	0x004d4300
     cc4:	666e6f63 	strbtvs	r6, [lr], -r3, ror #30
     cc8:	6d70675f 	ldclvs	7, cr6, [r0, #-380]!	; 0xfffffe84
     ccc:	64615f63 	strbtvs	r5, [r1], #-3939	; 0xfffff09d
     cd0:	4d430032 	stclmi	0, cr0, [r3, #-200]	; 0xffffff38
     cd4:	6e6f635f 	mcrvs	3, 3, r6, cr15, cr15, {2}
     cd8:	70675f66 	rsbvc	r5, r7, r6, ror #30
     cdc:	615f636d 	cmpvs	pc, sp, ror #6
     ce0:	43003364 	movwmi	r3, #868	; 0x364
     ce4:	6f635f4d 	svcvs	0x00635f4d
     ce8:	675f666e 	ldrbvs	r6, [pc, -lr, ror #12]
     cec:	5f636d70 	svcpl	0x00636d70
     cf0:	00346461 	eorseq	r6, r4, r1, ror #8
     cf4:	635f4d43 	cmpvs	pc, #4288	; 0x10c0
     cf8:	5f666e6f 	svcpl	0x00666e6f
     cfc:	636d7067 	cmnvs	sp, #103	; 0x67
     d00:	3564615f 	strbcc	r6, [r4, #-351]!	; 0xfffffea1
     d04:	5f4d4300 	svcpl	0x004d4300
     d08:	666e6f63 	strbtvs	r6, [lr], -r3, ror #30
     d0c:	6d70675f 	ldclvs	7, cr6, [r0, #-380]!	; 0xfffffe84
     d10:	64615f63 	strbtvs	r5, [r1], #-3939	; 0xfffff09d
     d14:	4d430036 	stclmi	0, cr0, [r3, #-216]	; 0xffffff28
     d18:	6e6f635f 	mcrvs	3, 3, r6, cr15, cr15, {2}
     d1c:	70675f66 	rsbvc	r5, r7, r6, ror #30
     d20:	615f636d 	cmpvs	pc, sp, ror #6
     d24:	43003764 	movwmi	r3, #1892	; 0x764
     d28:	6f635f4d 	svcvs	0x00635f4d
     d2c:	675f666e 	ldrbvs	r6, [pc, -lr, ror #12]
     d30:	5f636d70 	svcpl	0x00636d70
     d34:	00386461 	eorseq	r6, r8, r1, ror #8
     d38:	635f4d43 	cmpvs	pc, #4288	; 0x10c0
     d3c:	5f666e6f 	svcpl	0x00666e6f
     d40:	636d7067 	cmnvs	sp, #103	; 0x67
     d44:	3964615f 	stmdbcc	r4!, {r0, r1, r2, r3, r4, r6, r8, sp, lr}^
     d48:	5f4d4300 	svcpl	0x004d4300
     d4c:	666e6f63 	strbtvs	r6, [lr], -r3, ror #30
     d50:	6370745f 	cmnvs	r0, #1593835520	; 0x5f000000
     d54:	76655f63 	strbtvc	r5, [r5], -r3, ror #30
     d58:	756d5f74 	strbvc	r5, [sp, #-3956]!	; 0xfffff08c
     d5c:	5f305f78 	svcpl	0x00305f78
     d60:	4d430033 	stclmi	0, cr0, [r3, #-204]	; 0xffffff34
     d64:	6e6f635f 	mcrvs	3, 3, r6, cr15, cr15, {2}
     d68:	63655f66 	cmnvs	r5, #408	; 0x198
     d6c:	5f307061 	svcpl	0x00307061
     d70:	705f6e69 	subsvc	r6, pc, r9, ror #28
     d74:	5f306d77 	svcpl	0x00306d77
     d78:	0074756f 	rsbseq	r7, r4, pc, ror #10
     d7c:	74726155 	ldrbtvc	r6, [r2], #-341	; 0xfffffeab
     d80:	754d5f30 	strbvc	r5, [sp, #-3888]	; 0xfffff0d0
     d84:	4d430078 	stclmi	0, cr0, [r3, #-480]	; 0xfffffe20
     d88:	6e61625f 	mcrvs	2, 3, r6, cr1, cr15, {2}
     d8c:	70616764 	rsbvc	r6, r1, r4, ror #14
     d90:	7274635f 	rsbsvc	r6, r4, #2080374785	; 0x7c000001
     d94:	4d43006c 	stclmi	0, cr0, [r3, #-432]	; 0xfffffe50
     d98:	6e6f635f 	mcrvs	3, 3, r6, cr15, cr15, {2}
     d9c:	636c5f66 	cmnvs	ip, #408	; 0x198
     da0:	61645f64 	cmnvs	r4, r4, ror #30
     da4:	30316174 	eorscc	r6, r1, r4, ror r1
     da8:	5f4d4300 	svcpl	0x004d4300
     dac:	666e6f63 	strbtvs	r6, [lr], -r3, ror #30
     db0:	64636c5f 	strbtvs	r6, [r3], #-3167	; 0xfffff3a1
     db4:	7461645f 	strbtvc	r6, [r1], #-1119	; 0xfffffba1
     db8:	00313161 	eorseq	r3, r1, r1, ror #2
     dbc:	635f4d43 	cmpvs	pc, #4288	; 0x10c0
     dc0:	5f666e6f 	svcpl	0x00666e6f
     dc4:	5f64636c 	svcpl	0x0064636c
     dc8:	61746164 	cmnvs	r4, r4, ror #2
     dcc:	43003231 	movwmi	r3, #561	; 0x231
     dd0:	6f635f4d 	svcvs	0x00635f4d
     dd4:	6c5f666e 	mrrcvs	6, 6, r6, pc, cr14	; <UNPREDICTABLE>
     dd8:	645f6463 	ldrbvs	r6, [pc], #-1123	; de0 <_start-0x7ffff220>
     ddc:	31617461 	cmncc	r1, r1, ror #8
     de0:	4d430033 	stclmi	0, cr0, [r3, #-204]	; 0xffffff34
     de4:	65726d5f 	ldrbvs	r6, [r2, #-3423]!	; 0xfffff2a1
     de8:	69727067 	ldmdbvs	r2!, {r0, r1, r2, r5, r6, ip, sp, lr}^
     dec:	00305f6f 	eorseq	r5, r0, pc, ror #30
     df0:	635f4d43 	cmpvs	pc, #4288	; 0x10c0
     df4:	5f666e6f 	svcpl	0x00666e6f
     df8:	5f64636c 	svcpl	0x0064636c
     dfc:	61746164 	cmnvs	r4, r4, ror #2
     e00:	43003531 	movwmi	r3, #1329	; 0x531
     e04:	6f635f4d 	svcvs	0x00635f4d
     e08:	6e5f666e 	cdpvs	6, 5, cr6, cr15, cr14, {3}
     e0c:	00696d6e 	rsbeq	r6, r9, lr, ror #26
     e10:	635f4d43 	cmpvs	pc, #4288	; 0x10c0
     e14:	5f666e6f 	svcpl	0x00666e6f
     e18:	63637074 	cmnvs	r3, #116	; 0x74
     e1c:	7476655f 	ldrbtvc	r6, [r6], #-1375	; 0xfffffaa1
     e20:	78756d5f 	ldmdavc	r5!, {r0, r1, r2, r3, r4, r6, r8, sl, fp, sp, lr}^
     e24:	5f36335f 	svcpl	0x0036335f
     e28:	43003933 	movwmi	r3, #2355	; 0x933
     e2c:	6f635f4d 	svcvs	0x00635f4d
     e30:	745f666e 	ldrbvc	r6, [pc], #-1646	; e38 <_start-0x7ffff1c8>
     e34:	5f636370 	svcpl	0x00636370
     e38:	5f747665 	svcpl	0x00747665
     e3c:	5f78756d 	svcpl	0x0078756d
     e40:	315f3631 	cmpcc	pc, r1, lsr r6	; <UNPREDICTABLE>
     e44:	4d430039 	stclmi	0, cr0, [r3, #-228]	; 0xffffff1c
     e48:	5f62625f 	svcpl	0x0062625f
     e4c:	6c616373 	stclvs	3, cr6, [r1], #-460	; 0xfffffe34
     e50:	4d430065 	stclmi	0, cr0, [r3, #-404]	; 0xfffffe6c
     e54:	6e6f635f 	mcrvs	3, 3, r6, cr15, cr15, {2}
     e58:	69745f66 	ldmdbvs	r4!, {r1, r2, r5, r6, r8, r9, sl, fp, ip, lr}^
     e5c:	5f72656d 	svcpl	0x0072656d
     e60:	5f747665 	svcpl	0x00747665
     e64:	74706163 	ldrbtvc	r6, [r0], #-355	; 0xfffffe9d
     e68:	5f4d4300 	svcpl	0x004d4300
     e6c:	666e6f63 	strbtvs	r6, [lr], -r3, ror #30
     e70:	7365725f 	cmnvc	r5, #-268435451	; 0xf0000005
     e74:	695f7465 	ldmdbvs	pc, {r0, r2, r5, r6, sl, ip, sp, lr}^	; <UNPREDICTABLE>
     e78:	50006f73 	andpl	r6, r0, r3, ror pc
     e7c:	735f4441 	cmpvc	pc, #1090519040	; 0x41000000
     e80:	6f4d7465 	svcvs	0x004d7465
     e84:	43006564 	movwmi	r6, #1380	; 0x564
     e88:	6f635f4d 	svcvs	0x00635f4d
     e8c:	6c5f666e 	mrrcvs	6, 6, r6, pc, cr14	; <UNPREDICTABLE>
     e90:	645f6463 	ldrbvs	r6, [pc], #-1123	; e98 <_start-0x7ffff168>
     e94:	30617461 	rsbcc	r7, r1, r1, ror #8
     e98:	5f4d4300 	svcpl	0x004d4300
     e9c:	666e6f63 	strbtvs	r6, [lr], -r3, ror #30
     ea0:	64636c5f 	strbtvs	r6, [r3], #-3167	; 0xfffff3a1
     ea4:	7461645f 	strbtvc	r6, [r1], #-1119	; 0xfffffba1
     ea8:	43003161 	movwmi	r3, #353	; 0x161
     eac:	6f635f4d 	svcvs	0x00635f4d
     eb0:	6c5f666e 	mrrcvs	6, 6, r6, pc, cr14	; <UNPREDICTABLE>
     eb4:	645f6463 	ldrbvs	r6, [pc], #-1123	; ebc <_start-0x7ffff144>
     eb8:	32617461 	rsbcc	r7, r1, #1627389952	; 0x61000000
     ebc:	5f4d4300 	svcpl	0x004d4300
     ec0:	666e6f63 	strbtvs	r6, [lr], -r3, ror #30
     ec4:	64636c5f 	strbtvs	r6, [r3], #-3167	; 0xfffff3a1
     ec8:	7461645f 	strbtvc	r6, [r1], #-1119	; 0xfffffba1
     ecc:	43003361 	movwmi	r3, #865	; 0x361
     ed0:	6f635f4d 	svcvs	0x00635f4d
     ed4:	6c5f666e 	mrrcvs	6, 6, r6, pc, cr14	; <UNPREDICTABLE>
     ed8:	645f6463 	ldrbvs	r6, [pc], #-1123	; ee0 <_start-0x7ffff120>
     edc:	34617461 	strbtcc	r7, [r1], #-1121	; 0xfffffb9f
     ee0:	5f4d4300 	svcpl	0x004d4300
     ee4:	666e6f63 	strbtvs	r6, [lr], -r3, ror #30
     ee8:	64636c5f 	strbtvs	r6, [r3], #-3167	; 0xfffff3a1
     eec:	7461645f 	strbtvc	r6, [r1], #-1119	; 0xfffffba1
     ef0:	43003561 	movwmi	r3, #1377	; 0x561
     ef4:	6f635f4d 	svcvs	0x00635f4d
     ef8:	6c5f666e 	mrrcvs	6, 6, r6, pc, cr14	; <UNPREDICTABLE>
     efc:	645f6463 	ldrbvs	r6, [pc], #-1123	; f04 <_start-0x7ffff0fc>
     f00:	36617461 	strbtcc	r7, [r1], -r1, ror #8
     f04:	5f4d4300 	svcpl	0x004d4300
     f08:	666e6f63 	strbtvs	r6, [lr], -r3, ror #30
     f0c:	64636c5f 	strbtvs	r6, [r3], #-3167	; 0xfffff3a1
     f10:	7461645f 	strbtvc	r6, [r1], #-1119	; 0xfffffba1
     f14:	43003761 	movwmi	r3, #1889	; 0x761
     f18:	6d735f4d 	ldclvs	15, cr5, [r3, #-308]!	; 0xfffffecc
     f1c:	635f7472 	cmpvs	pc, #1912602624	; 0x72000000
     f20:	006c7274 	rsbeq	r7, ip, r4, ror r2
     f24:	635f4d43 	cmpvs	pc, #4288	; 0x10c0
     f28:	5f666e6f 	svcpl	0x00666e6f
     f2c:	5f64636c 	svcpl	0x0064636c
     f30:	61746164 	cmnvs	r4, r4, ror #2
     f34:	4d430039 	stclmi	0, cr0, [r3, #-228]	; 0xffffff1c
     f38:	6e6f635f 	mcrvs	3, 3, r6, cr15, cr15, {2}
     f3c:	61755f66 	cmnvs	r5, r6, ror #30
     f40:	5f307472 	svcpl	0x00307472
     f44:	6e737472 	mrcvs	4, 3, r7, cr3, cr2, {3}
     f48:	5f4d4300 	svcpl	0x004d4300
     f4c:	666e6f63 	strbtvs	r6, [lr], -r3, ror #30
     f50:	7264645f 	rsbvc	r6, r4, #1593835520	; 0x5f000000
     f54:	7461645f 	strbtvc	r6, [r1], #-1119	; 0xfffffba1
     f58:	695f3161 	ldmdbvs	pc, {r0, r5, r6, r8, ip, sp}^	; <UNPREDICTABLE>
     f5c:	7274636f 	rsbsvc	r6, r4, #-1140850687	; 0xbc000001
     f60:	4d43006c 	stclmi	0, cr0, [r3, #-432]	; 0xfffffe50
     f64:	6e6f635f 	mcrvs	3, 3, r6, cr15, cr15, {2}
     f68:	70675f66 	rsbvc	r5, r7, r6, ror #30
     f6c:	615f636d 	cmpvs	pc, sp, ror #6
     f70:	5f6e7664 	svcpl	0x006e7664
     f74:	00656c61 	rsbeq	r6, r5, r1, ror #24
     f78:	635f4d43 	cmpvs	pc, #4288	; 0x10c0
     f7c:	5f666e6f 	svcpl	0x00666e6f
     f80:	5f637069 	svcpl	0x00637069
     f84:	5f67736d 	svcpl	0x0067736d
     f88:	37676572 			; <UNDEFINED> instruction: 0x37676572
     f8c:	5f4d4300 	svcpl	0x004d4300
     f90:	6c6c7064 	stclvs	0, cr7, [ip], #-400	; 0xfffffe70
     f94:	7277705f 	rsbsvc	r7, r7, #95	; 0x5f
     f98:	5f77735f 	svcpl	0x0077735f
     f9c:	74617473 	strbtvc	r7, [r1], #-1139	; 0xfffffb8d
     fa0:	43007375 	movwmi	r7, #885	; 0x375
     fa4:	6e695f4d 	cdpvs	15, 6, cr5, cr9, cr13, {2}
     fa8:	705f7469 	subsvc	r7, pc, r9, ror #8
     fac:	726f6972 	rsbvc	r6, pc, #1867776	; 0x1c8000
     fb0:	5f797469 	svcpl	0x00797469
     fb4:	4d430030 	stclmi	0, cr0, [r3, #-192]	; 0xffffff40
     fb8:	6e6f635f 	mcrvs	3, 3, r6, cr15, cr15, {2}
     fbc:	646d5f66 	strbtvs	r5, [sp], #-3942	; 0xfffff09a
     fc0:	4d430063 	stclmi	0, cr0, [r3, #-396]	; 0xfffffe74
     fc4:	6e6f635f 	mcrvs	3, 3, r6, cr15, cr15, {2}
     fc8:	696d5f66 	stmdbvs	sp!, {r1, r2, r5, r6, r8, r9, sl, fp, ip, lr}^
     fcc:	745f3169 	ldrbvc	r3, [pc], #-361	; fd4 <_start-0x7ffff02c>
     fd0:	6c635f78 	stclvs	15, cr5, [r3], #-480	; 0xfffffe20
     fd4:	4d43006b 	stclmi	0, cr0, [r3, #-428]	; 0xfffffe54
     fd8:	75706d5f 	ldrbvc	r6, [r0, #-3423]!	; 0xfffff2a1
     fdc:	646c735f 	strbtvs	r7, [ip], #-863	; 0xfffffca1
     fe0:	74635f6f 	strbtvc	r5, [r3], #-3951	; 0xfffff091
     fe4:	43006c72 	movwmi	r6, #3186	; 0xc72
     fe8:	6f635f4d 	svcvs	0x00635f4d
     fec:	655f666e 	ldrbvs	r6, [pc, #-1646]	; 986 <_start-0x7ffff67a>
     ff0:	0030756d 	eorseq	r7, r0, sp, ror #10
     ff4:	635f4d43 	cmpvs	pc, #4288	; 0x10c0
     ff8:	5f666e6f 	svcpl	0x00666e6f
     ffc:	31756d65 	cmncc	r5, r5, ror #26
    1000:	4e4f4300 	cdpmi	3, 4, cr4, cr15, cr0, {0}
    1004:	4c4f5254 	sfmmi	f5, 2, [pc], {84}	; 0x54
    1008:	444f4d5f 	strbmi	r4, [pc], #-3423	; 1010 <_start-0x7fffeff0>
    100c:	5f454c55 	svcpl	0x00454c55
    1010:	5f474552 	svcpl	0x00474552
    1014:	4d430074 	stclmi	0, cr0, [r3, #-464]	; 0xfffffe30
    1018:	6e6f635f 	mcrvs	3, 3, r6, cr15, cr15, {2}
    101c:	636c5f66 	cmnvs	ip, #408	; 0x198
    1020:	63705f64 	cmnvs	r0, #100, 30	; 0x190
    1024:	43006b6c 	movwmi	r6, #2924	; 0xb6c
    1028:	6f635f4d 	svcvs	0x00635f4d
    102c:	725f666e 	subsvc	r6, pc, #115343360	; 0x6e00000
    1030:	6b5f6374 	blvs	17d9e08 <_start-0x7e8261f8>
    1034:	6f646c61 	svcvs	0x00646c61
    1038:	6e6e655f 	mcrvs	5, 3, r6, cr14, cr15, {2}
    103c:	5f4d4300 	svcpl	0x004d4300
    1040:	666e6f63 	strbtvs	r6, [lr], -r3, ror #30
    1044:	6370745f 	cmnvs	r0, #1593835520	; 0x5f000000
    1048:	76655f63 	strbtvc	r5, [r5], -r3, ror #30
    104c:	756d5f74 	strbvc	r5, [sp, #-3956]!	; 0xfffff08c
    1050:	38325f78 	ldmdacc	r2!, {r3, r4, r5, r6, r8, r9, sl, fp, ip, lr}
    1054:	0031335f 	eorseq	r3, r1, pc, asr r3
    1058:	635f4d43 	cmpvs	pc, #4288	; 0x10c0
    105c:	5f666e6f 	svcpl	0x00666e6f
    1060:	30636d6d 	rsbcc	r6, r3, sp, ror #26
    1064:	7461645f 	strbtvc	r6, [r1], #-1119	; 0xfffffba1
    1068:	4d430030 	stclmi	0, cr0, [r3, #-192]	; 0xffffff40
    106c:	6e6f635f 	mcrvs	3, 3, r6, cr15, cr15, {2}
    1070:	6d6d5f66 	stclvs	15, cr5, [sp, #-408]!	; 0xfffffe68
    1074:	645f3063 	ldrbvs	r3, [pc], #-99	; 107c <_start-0x7fffef84>
    1078:	00317461 	eorseq	r7, r1, r1, ror #8
    107c:	685f4d43 	ldmdavs	pc, {r0, r1, r6, r8, sl, fp, lr}^	; <UNPREDICTABLE>
    1080:	76655f77 	uqsub16vc	r5, r5, r7
    1084:	5f746e65 	svcpl	0x00746e65
    1088:	5f6c6573 	svcpl	0x006c6573
    108c:	31707267 	cmncc	r0, r7, ror #4
    1090:	5f4d4300 	svcpl	0x004d4300
    1094:	655f7768 	ldrbvs	r7, [pc, #-1896]	; 934 <_start-0x7ffff6cc>
    1098:	746e6576 	strbtvc	r6, [lr], #-1398	; 0xfffffa8a
    109c:	6c65735f 	stclvs	3, cr7, [r5], #-380	; 0xfffffe84
    10a0:	7072675f 	rsbsvc	r6, r2, pc, asr r7
    10a4:	4d430032 	stclmi	0, cr0, [r3, #-200]	; 0xffffff38
    10a8:	5f77685f 	svcpl	0x0077685f
    10ac:	6e657665 	cdpvs	6, 6, cr7, cr5, cr5, {3}
    10b0:	65735f74 	ldrbvs	r5, [r3, #-3956]!	; 0xfffff08c
    10b4:	72675f6c 	rsbvc	r5, r7, #108, 30	; 0x1b0
    10b8:	43003370 	movwmi	r3, #880	; 0x370
    10bc:	77685f4d 	strbvc	r5, [r8, -sp, asr #30]!
    10c0:	6576655f 	ldrbvs	r6, [r6, #-1375]!	; 0xfffffaa1
    10c4:	735f746e 	cmpvc	pc, #1845493760	; 0x6e000000
    10c8:	675f6c65 	ldrbvs	r6, [pc, -r5, ror #24]
    10cc:	00347072 	eorseq	r7, r4, r2, ror r0
    10d0:	645f4d43 	ldrbvs	r4, [pc], #-3395	; 10d8 <_start-0x7fffef28>
    10d4:	73706565 	cmnvc	r0, #423624704	; 0x19400000
    10d8:	7065656c 	rsbvc	r6, r5, ip, ror #10
    10dc:	7274635f 	rsbsvc	r6, r4, #2080374785	; 0x7c000001
    10e0:	4d43006c 	stclmi	0, cr0, [r3, #-432]	; 0xfffffe50
    10e4:	6e6f635f 	mcrvs	3, 3, r6, cr15, cr15, {2}
    10e8:	70675f66 	rsbvc	r5, r7, r6, ror #30
    10ec:	775f636d 	ldrbvc	r6, [pc, -sp, ror #6]
    10f0:	43006e70 	movwmi	r6, #3696	; 0xe70
    10f4:	6f635f4d 	svcvs	0x00635f4d
    10f8:	705f666e 	subsvc	r6, pc, lr, ror #12
    10fc:	5f63696d 	svcpl	0x0063696d
    1100:	65776f70 	ldrbvs	r6, [r7, #-3952]!	; 0xfffff090
    1104:	6e655f72 	mcrvs	15, 3, r5, cr5, cr2, {3}
    1108:	5f4d4300 	svcpl	0x004d4300
    110c:	666e6f63 	strbtvs	r6, [lr], -r3, ror #30
    1110:	7261755f 	rsbvc	r7, r1, #398458880	; 0x17c00000
    1114:	725f3174 	subsvc	r3, pc, #116, 2
    1118:	006e7374 	rsbeq	r7, lr, r4, ror r3
    111c:	635f4d43 	cmpvs	pc, #4288	; 0x10c0
    1120:	5f666e6f 	svcpl	0x00666e6f
    1124:	6d726177 	ldfvse	f6, [r2, #-476]!	; 0xfffffe24
    1128:	6e747372 	mrcvs	3, 3, r7, cr4, cr2, {3}
    112c:	5f4d4300 	svcpl	0x004d4300
    1130:	666e6f63 	strbtvs	r6, [lr], -r3, ror #30
    1134:	636d6d5f 	cmnvs	sp, #6080	; 0x17c0
    1138:	6c635f30 	stclvs	15, cr5, [r3], #-192	; 0xffffff40
    113c:	4d43006b 	stclmi	0, cr0, [r3, #-428]	; 0xfffffe54
    1140:	6e6f635f 	mcrvs	3, 3, r6, cr15, cr15, {2}
    1144:	6d745f66 	ldclvs	15, cr5, [r4, #-408]!	; 0xfffffe68
    1148:	4d430073 	stclmi	0, cr0, [r3, #-460]	; 0xfffffe34
    114c:	7465675f 	strbtvc	r6, [r5], #-1887	; 0xfffff8a1
    1150:	6c727443 	cfldrdvs	mvd7, [r2], #-268	; 0xfffffef4
    1154:	75646f4d 	strbvc	r6, [r4, #-3917]!	; 0xfffff0b3
    1158:	4300656c 	movwmi	r6, #1388	; 0x56c
    115c:	6f635f4d 	svcvs	0x00635f4d
    1160:	615f666e 	cmpvs	pc, lr, ror #12
    1164:	655f6364 	ldrbvs	r6, [pc, #-868]	; e08 <_start-0x7ffff1f8>
    1168:	635f7476 	cmpvs	pc, #1979711488	; 0x76000000
    116c:	00747061 	rsbseq	r7, r4, r1, rrx
    1170:	635f4d43 	cmpvs	pc, #4288	; 0x10c0
    1174:	5f666e6f 	svcpl	0x00666e6f
    1178:	636d7067 	cmnvs	sp, #103	; 0x67
    117c:	6e65775f 	mcrvs	7, 3, r7, cr5, cr15, {2}
    1180:	5f4d4300 	svcpl	0x004d4300
    1184:	666e6f63 	strbtvs	r6, [lr], -r3, ror #30
    1188:	6d70675f 	ldclvs	7, cr6, [r0, #-380]!	; 0xfffffe84
    118c:	73635f63 	cmnvc	r3, #396	; 0x18c
    1190:	4300306e 	movwmi	r3, #110	; 0x6e
    1194:	6f635f4d 	svcvs	0x00635f4d
    1198:	675f666e 	ldrbvs	r6, [pc, -lr, ror #12]
    119c:	5f636d70 	svcpl	0x00636d70
    11a0:	00303161 	eorseq	r3, r0, r1, ror #2
    11a4:	635f4d43 	cmpvs	pc, #4288	; 0x10c0
    11a8:	5f666e6f 	svcpl	0x00666e6f
    11ac:	636d7067 	cmnvs	sp, #103	; 0x67
    11b0:	3131615f 	teqcc	r1, pc, asr r1
    11b4:	5f4d4300 	svcpl	0x004d4300
    11b8:	666e6f63 	strbtvs	r6, [lr], -r3, ror #30
    11bc:	7264645f 	rsbvc	r6, r4, #1593835520	; 0x5f000000
    11c0:	7461645f 	strbtvc	r6, [r1], #-1119	; 0xfffffba1
    11c4:	695f3061 	ldmdbvs	pc, {r0, r5, r6, ip, sp}^	; <UNPREDICTABLE>
    11c8:	7274636f 	rsbsvc	r6, r4, #-1140850687	; 0xbc000001
    11cc:	4d43006c 	stclmi	0, cr0, [r3, #-432]	; 0xfffffe50
    11d0:	726f635f 	rsbvc	r6, pc, #2080374785	; 0x7c000001
    11d4:	5f786574 	svcpl	0x00786574
    11d8:	6c626276 	sfmvs	f6, 2, [r2], #-472	; 0xfffffe28
    11dc:	635f6f64 	cmpvs	pc, #100, 30	; 0x190
    11e0:	006c7274 	rsbeq	r7, ip, r4, ror r2
    11e4:	765f4d43 	ldrbvc	r4, [pc], -r3, asr #26
    11e8:	6d5f6464 	cfldrdvs	mvd6, [pc, #-400]	; 1060 <_start-0x7fffefa0>
    11ec:	6f5f7570 	svcvs	0x005f7570
    11f0:	305f7070 	subscc	r7, pc, r0, ror r0	; <UNPREDICTABLE>
    11f4:	43003035 	movwmi	r3, #53	; 0x35
    11f8:	6f635f4d 	svcvs	0x00635f4d
    11fc:	755f666e 	ldrbvc	r6, [pc, #-1646]	; b96 <_start-0x7ffff46a>
    1200:	31747261 	cmncc	r4, r1, ror #4
    1204:	6478745f 	ldrbtvs	r7, [r8], #-1119	; 0xfffffba1
    1208:	5f4d4300 	svcpl	0x004d4300
    120c:	666e6f63 	strbtvs	r6, [lr], -r3, ror #30
    1210:	6370745f 	cmnvs	r0, #1593835520	; 0x5f000000
    1214:	76655f63 	strbtvc	r5, [r5], -r3, ror #30
    1218:	756d5f74 	strbvc	r5, [sp, #-3956]!	; 0xfffff08c
    121c:	5f385f78 	svcpl	0x00385f78
    1220:	43003131 	movwmi	r3, #305	; 0x131
    1224:	616d5f4d 	cmnvs	sp, sp, asr #30
    1228:	64695f63 	strbtvs	r5, [r9], #-3939	; 0xfffff09d
    122c:	6f6c5f31 	svcvs	0x006c5f31
    1230:	5f4d4300 	svcpl	0x004d4300
    1234:	666e6f63 	strbtvs	r6, [lr], -r3, ror #30
    1238:	61636d5f 	cmnvs	r3, pc, asr sp
    123c:	5f307073 	svcpl	0x00307073
    1240:	00727366 	rsbseq	r7, r2, r6, ror #6
    1244:	765f4d43 	ldrbvc	r4, [pc], -r3, asr #26
    1248:	635f6464 	cmpvs	pc, #100, 8	; 0x64000000
    124c:	5f65726f 	svcpl	0x0065726f
    1250:	5f70706f 	svcpl	0x0070706f
    1254:	00303530 	eorseq	r3, r0, r0, lsr r5
    1258:	625f4d43 	subsvs	r4, pc, #4288	; 0x10c0
    125c:	67646e61 	strbvs	r6, [r4, -r1, ror #28]!
    1260:	745f7061 	ldrbvc	r7, [pc], #-97	; 1268 <_start-0x7fffed98>
    1264:	006d6972 	rsbeq	r6, sp, r2, ror r9
    1268:	635f4d43 	cmpvs	pc, #4288	; 0x10c0
    126c:	5f666e6f 	svcpl	0x00666e6f
    1270:	5f726464 	svcpl	0x00726464
    1274:	635f6f69 	cmpvs	pc, #420	; 0x1a4
    1278:	006c7274 	rsbeq	r7, ip, r4, ror r2
    127c:	635f4d43 	cmpvs	pc, #4288	; 0x10c0
    1280:	5f666e6f 	svcpl	0x00666e6f
    1284:	7361636d 	cmnvc	r1, #-1275068415	; 0xb4000001
    1288:	665f3070 			; <UNDEFINED> instruction: 0x665f3070
    128c:	43007873 	movwmi	r7, #2163	; 0x873
    1290:	70745f4d 	rsbsvc	r5, r4, sp, asr #30
    1294:	635f6374 	cmpvs	pc, #116, 6	; 0xd0000001
    1298:	43006766 	movwmi	r6, #1894	; 0x766
    129c:	6f635f4d 	svcvs	0x00635f4d
    12a0:	6d5f666e 	ldclvs	6, cr6, [pc, #-440]	; 10f0 <_start-0x7fffef10>
    12a4:	5f30636d 	svcpl	0x0030636d
    12a8:	00646d63 	rsbeq	r6, r4, r3, ror #26
    12ac:	635f4d43 	cmpvs	pc, #4288	; 0x10c0
    12b0:	5f666e6f 	svcpl	0x00666e6f
    12b4:	5f637472 	svcpl	0x00637472
    12b8:	6f727770 	svcvs	0x00727770
    12bc:	7473726e 	ldrbtvc	r7, [r3], #-622	; 0xfffffd92
    12c0:	4d43006e 	stclmi	0, cr0, [r3, #-440]	; 0xfffffe48
    12c4:	63616d5f 	cmnvs	r1, #6080	; 0x17c0
    12c8:	3164695f 	cmncc	r4, pc, asr r9
    12cc:	0069685f 	rsbeq	r6, r9, pc, asr r8
    12d0:	635f4d43 	cmpvs	pc, #4288	; 0x10c0
    12d4:	5f666e6f 	svcpl	0x00666e6f
    12d8:	5f747865 	svcpl	0x00747865
    12dc:	656b6177 	strbvs	r6, [fp, #-375]!	; 0xfffffe89
    12e0:	43007075 	movwmi	r7, #117	; 0x75
    12e4:	6f635f4d 	svcvs	0x00635f4d
    12e8:	6d5f666e 	ldclvs	6, cr6, [pc, #-440]	; 1138 <_start-0x7fffeec8>
    12ec:	5f316969 	svcpl	0x00316969
    12f0:	645f7872 	ldrbvs	r7, [pc], #-2162	; 12f8 <_start-0x7fffed08>
    12f4:	4d430076 	stclmi	0, cr0, [r3, #-472]	; 0xfffffe28
    12f8:	6e6f635f 	mcrvs	3, 3, r6, cr15, cr15, {2}
    12fc:	64645f66 	strbtvs	r5, [r4], #-3942	; 0xfffff09a
    1300:	6d635f72 	stclvs	15, cr5, [r3, #-456]!	; 0xfffffe38
    1304:	695f3264 	ldmdbvs	pc, {r2, r5, r6, r9, ip, sp}^	; <UNPREDICTABLE>
    1308:	7274636f 	rsbsvc	r6, r4, #-1140850687	; 0xbc000001
    130c:	4d43006c 	stclmi	0, cr0, [r3, #-432]	; 0xfffffe50
    1310:	75706d5f 	ldrbvc	r6, [r0, #-3423]!	; 0xfffff2a1
    1314:	685f7373 	ldmdavs	pc, {r0, r1, r4, r5, r6, r8, r9, ip, sp, lr}^	; <UNPREDICTABLE>
    1318:	65645f77 	strbvs	r5, [r4, #-3959]!	; 0xfffff089
    131c:	5f677562 	svcpl	0x00677562
    1320:	006c6573 	rsbeq	r6, ip, r3, ror r5
    1324:	635f4d43 	cmpvs	pc, #4288	; 0x10c0
    1328:	5f666e6f 	svcpl	0x00666e6f
    132c:	3169696d 	cmncc	r9, sp, ror #18
    1330:	6478725f 	ldrbtvs	r7, [r8], #-607	; 0xfffffda1
    1334:	4d430032 	stclmi	0, cr0, [r3, #-200]	; 0xffffff38
    1338:	6e6f635f 	mcrvs	3, 3, r6, cr15, cr15, {2}
    133c:	70675f66 	rsbvc	r5, r7, r6, ror #30
    1340:	625f636d 	subsvs	r6, pc, #-1275068415	; 0xb4000001
    1344:	5f306e65 	svcpl	0x00306e65
    1348:	00656c63 	rsbeq	r6, r5, r3, ror #24
    134c:	635f4d43 	cmpvs	pc, #4288	; 0x10c0
    1350:	5f666e6f 	svcpl	0x00666e6f
    1354:	30697073 	rsbcc	r7, r9, r3, ror r0
    1358:	3073635f 	rsbscc	r6, r3, pc, asr r3
    135c:	5f4d4300 	svcpl	0x004d4300
    1360:	666e6f63 	strbtvs	r6, [lr], -r3, ror #30
    1364:	6970735f 	ldmdbvs	r0!, {r0, r1, r2, r3, r4, r6, r8, r9, ip, sp, lr}^
    1368:	73635f30 	cmnvc	r3, #48, 30	; 0xc0
    136c:	4d430031 	stclmi	0, cr0, [r3, #-196]	; 0xffffff3c
    1370:	75706d5f 	ldrbvc	r6, [r0, #-3423]!	; 0xfffff2a1
    1374:	685f7373 	ldmdavs	pc, {r0, r1, r4, r5, r6, r8, r9, ip, sp, lr}^	; <UNPREDICTABLE>
    1378:	62645f77 	rsbvs	r5, r4, #476	; 0x1dc
    137c:	6e695f67 	cdpvs	15, 6, cr5, cr9, cr7, {3}
    1380:	43006f66 	movwmi	r6, #3942	; 0xf66
    1384:	616d5f4d 	cmnvs	sp, sp, asr #30
    1388:	64695f63 	strbtvs	r5, [r9], #-3939	; 0xfffff09d
    138c:	6f6c5f30 	svcvs	0x006c5f30
    1390:	5f4d4300 	svcpl	0x004d4300
    1394:	666e6f63 	strbtvs	r6, [lr], -r3, ror #30
    1398:	5f336d5f 	svcpl	0x00336d5f
    139c:	76657874 			; <UNDEFINED> instruction: 0x76657874
    13a0:	696f655f 	stmdbvs	pc!, {r0, r1, r2, r3, r4, r6, r8, sl, sp, lr}^	; <UNPREDICTABLE>
    13a4:	5f4d4300 	svcpl	0x004d4300
    13a8:	746e6f63 	strbtvc	r6, [lr], #-3939	; 0xfffff09d
    13ac:	5f6c6f72 	svcpl	0x006c6f72
    13b0:	6e697768 	cdpvs	7, 6, cr7, cr9, cr8, {3}
    13b4:	43006f66 	movwmi	r6, #3942	; 0xf66
    13b8:	6f635f4d 	svcvs	0x00635f4d
    13bc:	6c5f666e 	mrrcvs	6, 6, r6, pc, cr14	; <UNPREDICTABLE>
    13c0:	615f6463 	cmpvs	pc, r3, ror #8
    13c4:	69625f63 	stmdbvs	r2!, {r0, r1, r5, r6, r8, r9, sl, fp, ip, lr}^
    13c8:	655f7361 	ldrbvs	r7, [pc, #-865]	; 106f <_start-0x7fffef91>
    13cc:	4d43006e 	stclmi	0, cr0, [r3, #-440]	; 0xfffffe48
    13d0:	6e6f635f 	mcrvs	3, 3, r6, cr15, cr15, {2}
    13d4:	63655f66 	cmnvs	r5, #408	; 0x198
    13d8:	655f7061 	ldrbvs	r7, [pc, #-97]	; 137f <_start-0x7fffec81>
    13dc:	635f7476 	cmpvs	pc, #1979711488	; 0x76000000
    13e0:	00747061 	rsbseq	r7, r4, r1, rrx
    13e4:	765f4d43 	ldrbvc	r4, [pc], -r3, asr #26
    13e8:	6d5f6464 	cfldrdvs	mvd6, [pc, #-400]	; 1260 <_start-0x7fffeda0>
    13ec:	6f5f7570 	svcvs	0x005f7570
    13f0:	315f7070 	cmpcc	pc, r0, ror r0	; <UNPREDICTABLE>
    13f4:	43003030 	movwmi	r3, #48	; 0x30
    13f8:	6f635f4d 	svcvs	0x00635f4d
    13fc:	6d5f666e 	ldclvs	6, cr6, [pc, #-440]	; 124c <_start-0x7fffedb4>
    1400:	006f6964 	rsbeq	r6, pc, r4, ror #18
    1404:	635f4d43 	cmpvs	pc, #4288	; 0x10c0
    1408:	5f666e6f 	svcpl	0x00666e6f
    140c:	5f726464 	svcpl	0x00726464
    1410:	31646d63 	cmncc	r4, r3, ror #26
    1414:	636f695f 	cmnvs	pc, #1556480	; 0x17c000
    1418:	006c7274 	rsbeq	r7, ip, r4, ror r2
    141c:	635f4d43 	cmpvs	pc, #4288	; 0x10c0
    1420:	5f666e6f 	svcpl	0x00666e6f
    1424:	74737274 	ldrbtvc	r7, [r3], #-628	; 0xfffffd8c
    1428:	4d43006e 	stclmi	0, cr0, [r3, #-440]	; 0xfffffe48
    142c:	6e6f635f 	mcrvs	3, 3, r6, cr15, cr15, {2}
    1430:	70745f66 	rsbsvc	r5, r4, r6, ror #30
    1434:	655f6363 	ldrbvs	r6, [pc, #-867]	; 10d9 <_start-0x7fffef27>
    1438:	6d5f7476 	cfldrdvs	mvd7, [pc, #-472]	; 1268 <_start-0x7fffed98>
    143c:	355f7875 	ldrbcc	r7, [pc, #-2165]	; bcf <_start-0x7ffff431>
    1440:	35355f32 	ldrcc	r5, [r5, #-3890]!	; 0xfffff0ce
    1444:	5f4d4300 	svcpl	0x004d4300
    1448:	666e6f63 	strbtvs	r6, [lr], -r3, ror #30
    144c:	6370745f 	cmnvs	r0, #1593835520	; 0x5f000000
    1450:	76655f63 	strbtvc	r5, [r5], -r3, ror #30
    1454:	756d5f74 	strbvc	r5, [sp, #-3956]!	; 0xfffff08c
    1458:	30345f78 	eorscc	r5, r4, r8, ror pc
    145c:	0033345f 	eorseq	r3, r3, pc, asr r4
    1460:	765f4d43 	ldrbvc	r4, [pc], -r3, asr #26
    1464:	635f6464 	cmpvs	pc, #100, 8	; 0x64000000
    1468:	5f65726f 	svcpl	0x0065726f
    146c:	5f70706f 	svcpl	0x0070706f
    1470:	00303031 	eorseq	r3, r0, r1, lsr r0
    1474:	635f4d43 	cmpvs	pc, #4288	; 0x10c0
    1478:	5f666e6f 	svcpl	0x00666e6f
    147c:	3169696d 	cmncc	r9, sp, ror #18
    1480:	5f78725f 	svcpl	0x0078725f
    1484:	006b6c63 	rsbeq	r6, fp, r3, ror #24
    1488:	6d5f4d43 	ldclvs	13, cr4, [pc, #-268]	; 1384 <_start-0x7fffec7c>
    148c:	70716572 	rsbsvc	r6, r1, r2, ror r5
    1490:	5f6f6972 	svcpl	0x006f6972
    1494:	4d430031 	stclmi	0, cr0, [r3, #-196]	; 0xffffff3c
    1498:	6e6f635f 	mcrvs	3, 3, r6, cr15, cr15, {2}
    149c:	70745f66 	rsbsvc	r5, r4, r6, ror #30
    14a0:	655f6363 	ldrbvs	r6, [pc, #-867]	; 1145 <_start-0x7fffeebb>
    14a4:	6d5f7476 	cfldrdvs	mvd7, [pc, #-472]	; 12d4 <_start-0x7fffed2c>
    14a8:	335f7875 	cmpcc	pc, #7667712	; 0x750000
    14ac:	35335f32 	ldrcc	r5, [r3, #-3890]!	; 0xfffff0ce
    14b0:	5f4d4300 	svcpl	0x004d4300
    14b4:	666e6f63 	strbtvs	r6, [lr], -r3, ror #30
    14b8:	6370745f 	cmnvs	r0, #1593835520	; 0x5f000000
    14bc:	76655f63 	strbtvc	r5, [r5], -r3, ror #30
    14c0:	756d5f74 	strbvc	r5, [sp, #-3956]!	; 0xfffff08c
    14c4:	32315f78 	eorscc	r5, r1, #120, 30	; 0x1e0
    14c8:	0035315f 	eorseq	r3, r5, pc, asr r1
    14cc:	635f4d43 	cmpvs	pc, #4288	; 0x10c0
    14d0:	5f666e6f 	svcpl	0x00666e6f
    14d4:	65647163 	strbvs	r7, [r4, #-355]!	; 0xfffffe9d
    14d8:	74636574 	strbtvc	r6, [r3], #-1396	; 0xfffffa8c
    14dc:	6174735f 	cmnvs	r4, pc, asr r3
    14e0:	00737574 	rsbseq	r7, r3, r4, ror r5
    14e4:	635f4d43 	cmpvs	pc, #4288	; 0x10c0
    14e8:	5f666e6f 	svcpl	0x00666e6f
    14ec:	74726175 	ldrbtvc	r6, [r2], #-373	; 0xfffffe8b
    14f0:	78725f30 	ldmdavc	r2!, {r4, r5, r8, r9, sl, fp, ip, lr}^
    14f4:	4d430064 	stclmi	0, cr0, [r3, #-400]	; 0xfffffe70
    14f8:	6e6f635f 	mcrvs	3, 3, r6, cr15, cr15, {2}
    14fc:	696d5f66 	stmdbvs	sp!, {r1, r2, r5, r6, r8, r9, sl, fp, ip, lr}^
    1500:	725f3169 	subsvc	r3, pc, #1073741850	; 0x4000001a
    1504:	72655f78 	rsbvc	r5, r5, #120, 30	; 0x1e0
    1508:	5f4d4300 	svcpl	0x004d4300
    150c:	666e6f63 	strbtvs	r6, [lr], -r3, ror #30
    1510:	636d6d5f 	cmnvs	sp, #6080	; 0x17c0
    1514:	61645f30 	cmnvs	r4, r0, lsr pc
    1518:	43003274 	movwmi	r3, #628	; 0x274
    151c:	6f635f4d 	svcvs	0x00635f4d
    1520:	6d5f666e 	ldclvs	6, cr6, [pc, #-440]	; 1370 <_start-0x7fffec90>
    1524:	5f30636d 	svcpl	0x0030636d
    1528:	33746164 	cmncc	r4, #100, 2
    152c:	5f4d4300 	svcpl	0x004d4300
    1530:	666e6f63 	strbtvs	r6, [lr], -r3, ror #30
    1534:	6370745f 	cmnvs	r0, #1593835520	; 0x5f000000
    1538:	76655f63 	strbtvc	r5, [r5], -r3, ror #30
    153c:	756d5f74 	strbvc	r5, [sp, #-3956]!	; 0xfffff08c
    1540:	34325f78 	ldrtcc	r5, [r2], #-3960	; 0xfffff088
    1544:	0037325f 	eorseq	r3, r7, pc, asr r2
    1548:	635f4d43 	cmpvs	pc, #4288	; 0x10c0
    154c:	5f666e6f 	svcpl	0x00666e6f
    1550:	7361636d 	cmnvc	r1, #-1275068415	; 0xb4000001
    1554:	615f3070 	cmpvs	pc, r0, ror r0	; <UNPREDICTABLE>
    1558:	6b6c6368 	blvs	1b1a300 <_start-0x7e4e5d00>
    155c:	4d430072 	stclmi	0, cr0, [r3, #-456]	; 0xfffffe38
    1560:	6e6f635f 	mcrvs	3, 3, r6, cr15, cr15, {2}
    1564:	636c5f66 	cmnvs	ip, #408	; 0x198
    1568:	73685f64 	cmnvc	r8, #100, 30	; 0x190
    156c:	00636e79 	rsbeq	r6, r3, r9, ror lr
    1570:	6d5f4d43 	ldclvs	13, cr4, [pc, #-268]	; 146c <_start-0x7fffeb94>
    1574:	5f63736f 	svcpl	0x0063736f
    1578:	6c727463 	cfldrdvs	mvd7, [r2], #-396	; 0xfffffe74
    157c:	5f4d4300 	svcpl	0x004d4300
    1580:	666e6f63 	strbtvs	r6, [lr], -r3, ror #30
    1584:	69696d5f 	stmdbvs	r9!, {r0, r1, r2, r3, r4, r6, r8, sl, fp, sp, lr}^
    1588:	6f635f31 	svcvs	0x00635f31
    158c:	4d43006c 	stclmi	0, cr0, [r3, #-432]	; 0xfffffe50
    1590:	6e6f635f 	mcrvs	3, 3, r6, cr15, cr15, {2}
    1594:	636d5f66 	cmnvs	sp, #408	; 0x198
    1598:	30707361 	rsbscc	r7, r0, r1, ror #6
    159c:	6368615f 	cmnvs	r8, #-1073741801	; 0xc0000017
    15a0:	00786b6c 	rsbseq	r6, r8, ip, ror #22
    15a4:	635f4d43 	cmpvs	pc, #4288	; 0x10c0
    15a8:	5f666e6f 	svcpl	0x00666e6f
    15ac:	5f726464 	svcpl	0x00726464
    15b0:	5f656b63 	svcpl	0x00656b63
    15b4:	6c727463 	cfldrdvs	mvd7, [r2], #-396	; 0xfffffe74
    15b8:	5f4d4300 	svcpl	0x004d4300
    15bc:	5f646476 	svcpl	0x00646476
    15c0:	5f75706d 	svcpl	0x0075706d
    15c4:	5f70706f 	svcpl	0x0070706f
    15c8:	62727574 	rsbsvs	r7, r2, #116, 10	; 0x1d000000
    15cc:	4d43006f 	stclmi	0, cr0, [r3, #-444]	; 0xfffffe44
    15d0:	6e6f635f 	mcrvs	3, 3, r6, cr15, cr15, {2}
    15d4:	70695f66 	rsbvc	r5, r9, r6, ror #30
    15d8:	736d5f63 	cmnvc	sp, #396	; 0x18c
    15dc:	65725f67 	ldrbvs	r5, [r2, #-3943]!	; 0xfffff099
    15e0:	43003167 	movwmi	r3, #359	; 0x167
    15e4:	6f635f4d 	svcvs	0x00635f4d
    15e8:	755f666e 	ldrbvc	r6, [pc, #-1646]	; f82 <_start-0x7ffff07e>
    15ec:	31747261 	cmncc	r4, r1, ror #4
    15f0:	6478725f 	ldrbtvs	r7, [r8], #-607	; 0xfffffda1
    15f4:	5f4d4300 	svcpl	0x004d4300
    15f8:	666e6f63 	strbtvs	r6, [lr], -r3, ror #30
    15fc:	6370695f 	cmnvs	r0, #1556480	; 0x17c000
    1600:	67736d5f 			; <UNDEFINED> instruction: 0x67736d5f
    1604:	6765725f 			; <UNDEFINED> instruction: 0x6765725f
    1608:	4d430033 	stclmi	0, cr0, [r3, #-204]	; 0xffffff34
    160c:	6e6f635f 	mcrvs	3, 3, r6, cr15, cr15, {2}
    1610:	70695f66 	rsbvc	r5, r9, r6, ror #30
    1614:	736d5f63 	cmnvc	sp, #396	; 0x18c
    1618:	65725f67 	ldrbvs	r5, [r2, #-3943]!	; 0xfffff099
    161c:	43003467 	movwmi	r3, #1127	; 0x467
    1620:	6f635f4d 	svcvs	0x00635f4d
    1624:	755f666e 	ldrbvc	r6, [pc, #-1646]	; fbe <_start-0x7ffff042>
    1628:	30747261 	rsbscc	r7, r4, r1, ror #4
    162c:	6478745f 	ldrbtvs	r7, [r8], #-1119	; 0xfffffba1
    1630:	5f4d4300 	svcpl	0x004d4300
    1634:	666e6f63 	strbtvs	r6, [lr], -r3, ror #30
    1638:	6370745f 	cmnvs	r0, #1593835520	; 0x5f000000
    163c:	76655f63 	strbtvc	r5, [r5], -r3, ror #30
    1640:	756d5f74 	strbvc	r5, [sp, #-3956]!	; 0xfffff08c
    1644:	36355f78 	shsub16cc	r5, r5, r8
    1648:	0039355f 	eorseq	r3, r9, pc, asr r5
    164c:	635f4d43 	cmpvs	pc, #4288	; 0x10c0
    1650:	5f666e6f 	svcpl	0x00666e6f
    1654:	636d7067 	cmnvs	sp, #103	; 0x67
    1658:	6b6c635f 	blvs	1b1a3dc <_start-0x7e4e5c24>
    165c:	5f4d4300 	svcpl	0x004d4300
    1660:	6e616364 	cdpvs	3, 6, cr6, cr1, cr4, {3}
    1664:	6d61725f 	sfmvs	f7, 2, [r1, #-380]!	; 0xfffffe84
    1668:	74696e69 	strbtvc	r6, [r9], #-3689	; 0xfffff197
    166c:	5f4d4300 	svcpl	0x004d4300
    1670:	666e6f63 	strbtvs	r6, [lr], -r3, ror #30
    1674:	6273755f 	rsbsvs	r7, r3, #398458880	; 0x17c00000
    1678:	72645f31 	rsbvc	r5, r4, #49, 30	; 0xc4
    167c:	75627676 	strbvc	r7, [r2, #-1654]!	; 0xfffff98a
    1680:	4d430073 	stclmi	0, cr0, [r3, #-460]	; 0xfffffe34
    1684:	6e6f635f 	mcrvs	3, 3, r6, cr15, cr15, {2}
    1688:	70675f66 	rsbvc	r5, r7, r6, ror #30
    168c:	6f5f636d 	svcvs	0x005f636d
    1690:	725f6e65 	subsvc	r6, pc, #1616	; 0x650
    1694:	43006e65 	movwmi	r6, #3685	; 0xe65
    1698:	6f635f4d 	svcvs	0x00635f4d
    169c:	6d5f666e 	ldclvs	6, cr6, [pc, #-440]	; 14ec <_start-0x7fffeb14>
    16a0:	5f316969 	svcpl	0x00316969
    16a4:	30647874 	rsbcc	r7, r4, r4, ror r8
    16a8:	5f4d4300 	svcpl	0x004d4300
    16ac:	666e6f63 	strbtvs	r6, [lr], -r3, ror #30
    16b0:	69696d5f 	stmdbvs	r9!, {r0, r1, r2, r3, r4, r6, r8, sl, fp, sp, lr}^
    16b4:	78745f31 	ldmdavc	r4!, {r0, r4, r5, r8, r9, sl, fp, ip, lr}^
    16b8:	43003164 	movwmi	r3, #356	; 0x164
    16bc:	6f635f4d 	svcvs	0x00635f4d
    16c0:	6d5f666e 	ldclvs	6, cr6, [pc, #-440]	; 1510 <_start-0x7fffeaf0>
    16c4:	5f316969 	svcpl	0x00316969
    16c8:	32647874 	rsbcc	r7, r4, #116, 16	; 0x740000
    16cc:	5f4d4300 	svcpl	0x004d4300
    16d0:	666e6f63 	strbtvs	r6, [lr], -r3, ror #30
    16d4:	69696d5f 	stmdbvs	r9!, {r0, r1, r2, r3, r4, r6, r8, sl, fp, sp, lr}^
    16d8:	78745f31 	ldmdavc	r4!, {r0, r4, r5, r8, r9, sl, fp, ip, lr}^
    16dc:	43003364 	movwmi	r3, #868	; 0x364
    16e0:	6f635f4d 	svcvs	0x00635f4d
    16e4:	675f666e 	ldrbvs	r6, [pc, -lr, ror #12]
    16e8:	5f636d70 	svcpl	0x00636d70
    16ec:	316e6562 	cmncc	lr, r2, ror #10
    16f0:	5f4d4300 	svcpl	0x004d4300
    16f4:	666e6f63 	strbtvs	r6, [lr], -r3, ror #30
    16f8:	6572765f 	ldrbvs	r7, [r2, #-1631]!	; 0xfffff9a1
    16fc:	74635f66 	strbtvc	r5, [r3], #-3942	; 0xfffff09a
    1700:	43006c72 	movwmi	r6, #3186	; 0xc72
    1704:	6f635f4d 	svcvs	0x00635f4d
    1708:	735f666e 	cmpvc	pc, #115343360	; 0x6e00000
    170c:	0032616d 	eorseq	r6, r2, sp, ror #2
    1710:	635f4d43 	cmpvs	pc, #4288	; 0x10c0
    1714:	5f666e6f 	svcpl	0x00666e6f
    1718:	30697073 	rsbcc	r7, r9, r3, ror r0
    171c:	6c63735f 	stclvs	3, cr7, [r3], #-380	; 0xfffffe84
    1720:	4d43006b 	stclmi	0, cr0, [r3, #-428]	; 0xfffffe54
    1724:	6e6f635f 	mcrvs	3, 3, r6, cr15, cr15, {2}
    1728:	70695f66 	rsbvc	r5, r9, r6, ror #30
    172c:	736d5f63 	cmnvc	sp, #396	; 0x18c
    1730:	65725f67 	ldrbvs	r5, [r2, #-3943]!	; 0xfffff099
    1734:	43003067 	movwmi	r3, #103	; 0x67
    1738:	6d675f4d 	stclvs	15, cr5, [r7, #-308]!	; 0xfffffecc
    173c:	735f6969 	cmpvc	pc, #1720320	; 0x1a4000
    1740:	43006c65 	movwmi	r6, #3173	; 0xc65
    1744:	6f635f4d 	svcvs	0x00635f4d
    1748:	695f666e 	ldmdbvs	pc, {r1, r2, r3, r5, r6, r9, sl, sp, lr}^	; <UNPREDICTABLE>
    174c:	6d5f6370 	ldclvs	3, cr6, [pc, #-448]	; 1594 <_start-0x7fffea6c>
    1750:	725f6773 	subsvc	r6, pc, #30146560	; 0x1cc0000
    1754:	00326765 	eorseq	r6, r2, r5, ror #14
    1758:	635f4d43 	cmpvs	pc, #4288	; 0x10c0
    175c:	32336b6c 	eorscc	r6, r3, #108, 22	; 0x1b000
    1760:	7669646b 	strbtvc	r6, [r9], -fp, ror #8
    1764:	69746172 	ldmdbvs	r4!, {r1, r4, r5, r6, r8, sp, lr}^
    1768:	74635f6f 	strbtvc	r5, [r3], #-3951	; 0xfffff091
    176c:	43006c72 	movwmi	r6, #3186	; 0xc72
    1770:	6f635f4d 	svcvs	0x00635f4d
    1774:	755f666e 	ldrbvc	r6, [pc, #-1646]	; 110e <_start-0x7fffeef2>
    1778:	5f306273 	svcpl	0x00306273
    177c:	76767264 	ldrbtvc	r7, [r6], -r4, ror #4
    1780:	00737562 	rsbseq	r7, r3, r2, ror #10
    1784:	635f4d43 	cmpvs	pc, #4288	; 0x10c0
    1788:	5f666e6f 	svcpl	0x00666e6f
    178c:	5f637069 	svcpl	0x00637069
    1790:	5f67736d 	svcpl	0x0067736d
    1794:	35676572 	strbcc	r6, [r7, #-1394]!	; 0xfffffa8e
    1798:	5f4d4300 	svcpl	0x004d4300
    179c:	666e6f63 	strbtvs	r6, [lr], -r3, ror #30
    17a0:	6370695f 	cmnvs	r0, #1556480	; 0x17c000
    17a4:	67736d5f 			; <UNDEFINED> instruction: 0x67736d5f
    17a8:	6765725f 			; <UNDEFINED> instruction: 0x6765725f
    17ac:	4d430036 	stclmi	0, cr0, [r3, #-216]	; 0xffffff28
    17b0:	7665645f 			; <UNDEFINED> instruction: 0x7665645f
    17b4:	6165665f 	cmnvs	r5, pc, asr r6
    17b8:	65727574 	ldrbvs	r7, [r2, #-1396]!	; 0xfffffa8c
    17bc:	5f4d4300 	svcpl	0x004d4300
    17c0:	746e6f63 	strbtvc	r6, [lr], #-3939	; 0xfffff09d
    17c4:	5f6c6f72 	svcpl	0x006c6f72
    17c8:	75646f6d 	strbvc	r6, [r4, #-3949]!	; 0xfffff093
    17cc:	6d00656c 	cfstr32vs	mvfx6, [r0, #-432]	; 0xfffffe50
    17d0:	0065646f 	rsbeq	r6, r5, pc, ror #8
    17d4:	645f4d43 	ldrbvs	r4, [pc], #-3395	; 17dc <_start-0x7fffe824>
    17d8:	63697665 	cmnvs	r9, #105906176	; 0x6500000
    17dc:	64695f65 	strbtvs	r5, [r9], #-3941	; 0xfffff09b
    17e0:	5f4d4300 	svcpl	0x004d4300
    17e4:	74696e69 	strbtvc	r6, [r9], #-3689	; 0xfffff197
    17e8:	6972705f 	ldmdbvs	r2!, {r0, r1, r2, r3, r4, r6, ip, sp, lr}^
    17ec:	7469726f 	strbtvc	r7, [r9], #-623	; 0xfffffd91
    17f0:	00315f79 	eorseq	r5, r1, r9, ror pc
    17f4:	755f4d43 	ldrbvc	r4, [pc, #-3395]	; ab9 <_start-0x7ffff547>
    17f8:	735f6273 	cmpvc	pc, #805306375	; 0x30000007
    17fc:	00307374 	eorseq	r7, r0, r4, ror r3
    1800:	755f4d43 	ldrbvc	r4, [pc, #-3395]	; ac5 <_start-0x7ffff53b>
    1804:	735f6273 	cmpvc	pc, #805306375	; 0x30000007
    1808:	00317374 	eorseq	r7, r1, r4, ror r3
    180c:	635f4d43 	cmpvs	pc, #4288	; 0x10c0
    1810:	5f666e6f 	svcpl	0x00666e6f
    1814:	5f64636c 	svcpl	0x0064636c
    1818:	61746164 	cmnvs	r4, r4, ror #2
    181c:	43003431 	movwmi	r3, #1073	; 0x431
    1820:	64765f4d 	ldrbtvs	r5, [r6], #-3917	; 0xfffff0b3
    1824:	706d5f64 	rsbvc	r5, sp, r4, ror #30
    1828:	706f5f75 	rsbvc	r5, pc, r5, ror pc	; <UNPREDICTABLE>
    182c:	32315f70 	eorscc	r5, r1, #112, 30	; 0x1c0
    1830:	4d430030 	stclmi	0, cr0, [r3, #-192]	; 0xffffff40
    1834:	6e6f635f 	mcrvs	3, 3, r6, cr15, cr15, {2}
    1838:	70645f66 	rsbvc	r5, r4, r6, ror #30
    183c:	705f6c6c 	subsvc	r6, pc, ip, ror #24
    1840:	735f7277 	cmpvc	pc, #1879048199	; 0x70000007
    1844:	74635f77 	strbtvc	r5, [r3], #-3959	; 0xfffff089
    1848:	43006c72 	movwmi	r6, #3186	; 0xc72
    184c:	6f635f4d 	svcvs	0x00635f4d
    1850:	785f666e 	ldmdavc	pc, {r1, r2, r3, r5, r6, r9, sl, sp, lr}^	; <UNPREDICTABLE>
    1854:	5f616d64 	svcpl	0x00616d64
    1858:	6e657665 	cdpvs	6, 6, cr7, cr5, cr5, {3}
    185c:	6e695f74 	mcrvs	15, 3, r5, cr9, cr4, {3}
    1860:	00307274 	eorseq	r7, r0, r4, ror r2
    1864:	635f4d43 	cmpvs	pc, #4288	; 0x10c0
    1868:	5f666e6f 	svcpl	0x00666e6f
    186c:	616d6478 	smcvs	54856	; 0xd648
    1870:	6576655f 	ldrbvs	r6, [r6, #-1375]!	; 0xfffffaa1
    1874:	695f746e 	ldmdbvs	pc, {r1, r2, r3, r5, r6, sl, ip, sp, lr}^	; <UNPREDICTABLE>
    1878:	3172746e 	cmncc	r2, lr, ror #8
    187c:	5f4d4300 	svcpl	0x004d4300
    1880:	666e6f63 	strbtvs	r6, [lr], -r3, ror #30
    1884:	6370745f 	cmnvs	r0, #1593835520	; 0x5f000000
    1888:	76655f63 	strbtvc	r5, [r5], -r3, ror #30
    188c:	756d5f74 	strbvc	r5, [sp, #-3956]!	; 0xfffff08c
    1890:	5f345f78 	svcpl	0x00345f78
    1894:	4d430037 	stclmi	0, cr0, [r3, #-220]	; 0xffffff24
    1898:	6e6f635f 	mcrvs	3, 3, r6, cr15, cr15, {2}
    189c:	70745f66 	rsbsvc	r5, r4, r6, ror #30
    18a0:	655f6363 	ldrbvs	r6, [pc, #-867]	; 1545 <_start-0x7fffeabb>
    18a4:	6d5f7476 	cfldrdvs	mvd7, [pc, #-472]	; 16d4 <_start-0x7fffe92c>
    18a8:	345f7875 	ldrbcc	r7, [pc], #-2165	; 18b0 <_start-0x7fffe750>
    18ac:	31355f38 	teqcc	r5, r8, lsr pc
    18b0:	5f4d4300 	svcpl	0x004d4300
    18b4:	666e6f63 	strbtvs	r6, [lr], -r3, ror #30
    18b8:	6970735f 	ldmdbvs	r0!, {r0, r1, r2, r3, r4, r6, r8, r9, ip, sp, lr}^
    18bc:	30645f30 	rsbcc	r5, r4, r0, lsr pc
    18c0:	5f4d4300 	svcpl	0x004d4300
    18c4:	666e6f63 	strbtvs	r6, [lr], -r3, ror #30
    18c8:	7264645f 	rsbvc	r6, r4, #1593835520	; 0x5f000000
    18cc:	646d635f 	strbtvs	r6, [sp], #-863	; 0xfffffca1
    18d0:	6f695f30 	svcvs	0x00695f30
    18d4:	6c727463 	cfldrdvs	mvd7, [r2], #-396	; 0xfffffe74
    18d8:	5f4d4300 	svcpl	0x004d4300
    18dc:	666e6f63 	strbtvs	r6, [lr], -r3, ror #30
    18e0:	61636d5f 	cmnvs	r3, pc, asr sp
    18e4:	5f307073 	svcpl	0x00307073
    18e8:	30727861 	rsbscc	r7, r2, r1, ror #16
    18ec:	5f4d4300 	svcpl	0x004d4300
    18f0:	666e6f63 	strbtvs	r6, [lr], -r3, ror #30
    18f4:	61636d5f 	cmnvs	r3, pc, asr sp
    18f8:	5f307073 	svcpl	0x00307073
    18fc:	31727861 	cmncc	r2, r1, ror #16
    1900:	5f4d4300 	svcpl	0x004d4300
    1904:	746e6f63 	strbtvc	r6, [lr], #-3939	; 0xfffff09d
    1908:	5f6c6f72 	svcpl	0x006c6f72
    190c:	63737973 	cmnvs	r3, #1884160	; 0x1cc000
    1910:	69666e6f 	stmdbvs	r6!, {r0, r1, r2, r3, r5, r6, r9, sl, fp, sp, lr}^
    1914:	4d430067 	stclmi	0, cr0, [r3, #-412]	; 0xfffffe64
    1918:	6e6f635f 	mcrvs	3, 3, r6, cr15, cr15, {2}
    191c:	636c5f66 	cmnvs	ip, #408	; 0x198
    1920:	61645f64 	cmnvs	r4, r4, ror #30
    1924:	00386174 	eorseq	r6, r8, r4, ror r1
    1928:	635f4d43 	cmpvs	pc, #4288	; 0x10c0
    192c:	5f666e6f 	svcpl	0x00666e6f
    1930:	3169696d 	cmncc	r9, sp, ror #18
    1934:	5f78745f 	svcpl	0x0078745f
    1938:	43006e65 	movwmi	r6, #3685	; 0xe65
    193c:	6f635f4d 	svcvs	0x00635f4d
    1940:	745f666e 	ldrbvc	r6, [pc], #-1646	; 1948 <_start-0x7fffe6b8>
    1944:	43006b63 	movwmi	r6, #2915	; 0xb63
    1948:	6f635f4d 	svcvs	0x00635f4d
    194c:	755f666e 	ldrbvc	r6, [pc, #-1646]	; 12e6 <_start-0x7fffed1a>
    1950:	30747261 	rsbscc	r7, r4, r1, ror #4
    1954:	7374635f 	cmnvc	r4, #2080374785	; 0x7c000001
    1958:	4d43006e 	stclmi	0, cr0, [r3, #-440]	; 0xfffffe48
    195c:	6273755f 	rsbsvs	r7, r3, #398458880	; 0x17c00000
    1960:	7274635f 	rsbsvc	r6, r4, #2080374785	; 0x7c000001
    1964:	4300306c 	movwmi	r3, #108	; 0x6c
    1968:	73755f4d 	cmnvc	r5, #308	; 0x134
    196c:	74635f62 	strbtvc	r5, [r3], #-3938	; 0xfffff09e
    1970:	00316c72 	eorseq	r6, r1, r2, ror ip
    1974:	755f4d43 	ldrbvc	r4, [pc, #-3395]	; c39 <_start-0x7ffff3c7>
    1978:	765f6273 			; <UNDEFINED> instruction: 0x765f6273
    197c:	705f6469 	subsvc	r6, pc, r9, ror #8
    1980:	43006469 	movwmi	r6, #1129	; 0x469
    1984:	6f635f4d 	svcvs	0x00635f4d
    1988:	695f666e 	ldmdbvs	pc, {r1, r2, r3, r5, r6, r9, sl, sp, lr}^	; <UNPREDICTABLE>
    198c:	5f306332 	svcpl	0x00306332
    1990:	006c6373 	rsbeq	r6, ip, r3, ror r3
    1994:	755f4d43 	ldrbvc	r4, [pc, #-3395]	; c59 <_start-0x7ffff3a7>
    1998:	775f6273 			; <UNDEFINED> instruction: 0x775f6273
    199c:	5f70756b 	svcpl	0x0070756b
    19a0:	6c727463 	cfldrdvs	mvd7, [r2], #-396	; 0xfffffe74
    19a4:	5f4d4300 	svcpl	0x004d4300
    19a8:	666e6f63 	strbtvs	r6, [lr], -r3, ror #30
    19ac:	69696d5f 	stmdbvs	r9!, {r0, r1, r2, r3, r4, r6, r8, sl, fp, sp, lr}^
    19b0:	78725f31 	ldmdavc	r2!, {r0, r4, r5, r8, r9, sl, fp, ip, lr}^
    19b4:	43003064 	movwmi	r3, #100	; 0x64
    19b8:	6f635f4d 	svcvs	0x00635f4d
    19bc:	6d5f666e 	ldclvs	6, cr6, [pc, #-440]	; 180c <_start-0x7fffe7f4>
    19c0:	5f316969 	svcpl	0x00316969
    19c4:	31647872 	smccc	18306	; 0x4782
    19c8:	5f4d4300 	svcpl	0x004d4300
    19cc:	5f756d6d 	svcpl	0x00756d6d
    19d0:	00676663 	rsbeq	r6, r7, r3, ror #12
    19d4:	635f4d43 	cmpvs	pc, #4288	; 0x10c0
    19d8:	5f666e6f 	svcpl	0x00666e6f
    19dc:	3169696d 	cmncc	r9, sp, ror #18
    19e0:	6478725f 	ldrbtvs	r7, [r8], #-607	; 0xfffffda1
    19e4:	4d430033 	stclmi	0, cr0, [r3, #-204]	; 0xffffff34
    19e8:	6e6f635f 	mcrvs	3, 3, r6, cr15, cr15, {2}
    19ec:	64745f66 	ldrbtvs	r5, [r4], #-3942	; 0xfffff09a
    19f0:	4d430069 	stclmi	0, cr0, [r3, #-420]	; 0xfffffe5c
    19f4:	6e6f635f 	mcrvs	3, 3, r6, cr15, cr15, {2}
    19f8:	70745f66 	rsbsvc	r5, r4, r6, ror #30
    19fc:	655f6363 	ldrbvs	r6, [pc, #-867]	; 16a1 <_start-0x7fffe95f>
    1a00:	6d5f7476 	cfldrdvs	mvd7, [pc, #-472]	; 1830 <_start-0x7fffe7d0>
    1a04:	365f7875 			; <UNDEFINED> instruction: 0x365f7875
    1a08:	33365f30 	teqcc	r6, #48, 30	; 0xc0
    1a0c:	5f4d4300 	svcpl	0x004d4300
    1a10:	5f6c6c70 	svcpl	0x006c6c70
    1a14:	696b6c63 	stmdbvs	fp!, {r0, r1, r5, r6, sl, fp, sp, lr}^
    1a18:	6c75706e 	ldclvs	0, cr7, [r5], #-440	; 0xfffffe48
    1a1c:	635f776f 	cmpvs	pc, #29097984	; 0x1bc0000
    1a20:	006c7274 	rsbeq	r7, ip, r4, ror r2
    1a24:	635f4d43 	cmpvs	pc, #4288	; 0x10c0
    1a28:	5f666e6f 	svcpl	0x00666e6f
    1a2c:	636d7067 	cmnvs	sp, #103	; 0x67
    1a30:	3164615f 	cmncc	r4, pc, asr r1
    1a34:	4d430030 	stclmi	0, cr0, [r3, #-192]	; 0xffffff40
    1a38:	6e6f635f 	mcrvs	3, 3, r6, cr15, cr15, {2}
    1a3c:	74765f66 	ldrbtvc	r5, [r6], #-3942	; 0xfffff09a
    1a40:	74635f70 	strbtvc	r5, [r3], #-3952	; 0xfffff090
    1a44:	43006c72 	movwmi	r6, #3186	; 0xc72
    1a48:	6f635f4d 	svcvs	0x00635f4d
    1a4c:	6d5f666e 	ldclvs	6, cr6, [pc, #-440]	; 189c <_start-0x7fffe764>
    1a50:	70736163 	rsbsvc	r6, r3, r3, ror #2
    1a54:	63615f30 	cmnvs	r1, #48, 30	; 0xc0
    1a58:	00726b6c 	rsbseq	r6, r2, ip, ror #22
    1a5c:	635f4d43 	cmpvs	pc, #4288	; 0x10c0
    1a60:	5f666e6f 	svcpl	0x00666e6f
    1a64:	636d7067 	cmnvs	sp, #103	; 0x67
    1a68:	3164615f 	cmncc	r4, pc, asr r1
    1a6c:	4d430032 	stclmi	0, cr0, [r3, #-200]	; 0xffffff38
    1a70:	6e6f635f 	mcrvs	3, 3, r6, cr15, cr15, {2}
    1a74:	6d725f66 	ldclvs	15, cr5, [r2, #-408]!	; 0xfffffe68
    1a78:	5f316969 	svcpl	0x00316969
    1a7c:	5f666572 	svcpl	0x00666572
    1a80:	006b6c63 	rsbeq	r6, fp, r3, ror #24
    1a84:	635f4d43 	cmpvs	pc, #4288	; 0x10c0
    1a88:	5f666e6f 	svcpl	0x00666e6f
    1a8c:	7361636d 	cmnvc	r1, #-1275068415	; 0xb4000001
    1a90:	615f3070 	cmpvs	pc, r0, ror r0	; <UNPREDICTABLE>
    1a94:	786b6c63 	stmdavc	fp!, {r0, r1, r5, r6, sl, fp, sp, lr}^
    1a98:	5f4d4300 	svcpl	0x004d4300
    1a9c:	666e6f63 	strbtvs	r6, [lr], -r3, ror #30
    1aa0:	6d70675f 	ldclvs	7, cr6, [r0, #-380]!	; 0xfffffe84
    1aa4:	64615f63 	strbtvs	r5, [r1], #-3939	; 0xfffff09d
    1aa8:	43003131 	movwmi	r3, #305	; 0x131
    1aac:	6f635f4d 	svcvs	0x00635f4d
    1ab0:	6f72746e 	svcvs	0x0072746e
    1ab4:	74735f6c 	ldrbtvc	r5, [r3], #-3948	; 0xfffff094
    1ab8:	73757461 	cmnvc	r5, #1627389952	; 0x61000000
    1abc:	5f4d4300 	svcpl	0x004d4300
    1ac0:	666e6f63 	strbtvs	r6, [lr], -r3, ror #30
    1ac4:	6d70675f 	ldclvs	7, cr6, [r0, #-380]!	; 0xfffffe84
    1ac8:	64615f63 	strbtvs	r5, [r1], #-3939	; 0xfffff09d
    1acc:	43003331 	movwmi	r3, #817	; 0x331
    1ad0:	6f635f4d 	svcvs	0x00635f4d
    1ad4:	675f666e 	ldrbvs	r6, [pc, -lr, ror #12]
    1ad8:	5f636d70 	svcpl	0x00636d70
    1adc:	34316461 	ldrtcc	r6, [r1], #-1121	; 0xfffffb9f
    1ae0:	5f4d4300 	svcpl	0x004d4300
    1ae4:	666e6f63 	strbtvs	r6, [lr], -r3, ror #30
    1ae8:	6d70675f 	ldclvs	7, cr6, [r0, #-380]!	; 0xfffffe84
    1aec:	64615f63 	strbtvs	r5, [r1], #-3939	; 0xfffff09d
    1af0:	43003531 	movwmi	r3, #1329	; 0x531
    1af4:	6f635f4d 	svcvs	0x00635f4d
    1af8:	735f6572 	cmpvc	pc, #478150656	; 0x1c800000
    1afc:	5f6f646c 	svcpl	0x006f646c
    1b00:	6c727463 	cfldrdvs	mvd7, [r2], #-396	; 0xfffffe74
    1b04:	5f4d4300 	svcpl	0x004d4300
    1b08:	666e6f63 	strbtvs	r6, [lr], -r3, ror #30
    1b0c:	7261755f 	rsbvc	r7, r1, #398458880	; 0x17c00000
    1b10:	635f3174 	cmpvs	pc, #116, 2
    1b14:	006e7374 	rsbeq	r7, lr, r4, ror r3
    1b18:	6d5f4d43 	ldclvs	13, cr4, [pc, #-268]	; 1a14 <_start-0x7fffe5ec>
    1b1c:	695f6361 	ldmdbvs	pc, {r0, r5, r6, r8, r9, sp, lr}^	; <UNPREDICTABLE>
    1b20:	685f3064 	ldmdavs	pc, {r2, r5, r6, ip, sp}^	; <UNPREDICTABLE>
    1b24:	4d430069 	stclmi	0, cr0, [r3, #-420]	; 0xfffffe5c
    1b28:	6e6f635f 	mcrvs	3, 3, r6, cr15, cr15, {2}
    1b2c:	6c6f7274 	sfmvs	f7, 2, [pc], #-464	; 1964 <_start-0x7fffe69c>
    1b30:	696d655f 	stmdbvs	sp!, {r0, r1, r2, r3, r4, r6, r8, sl, sp, lr}^
    1b34:	64735f66 	ldrbtvs	r5, [r3], #-3942	; 0xfffff09a
    1b38:	5f6d6172 	svcpl	0x006d6172
    1b3c:	666e6f63 	strbtvs	r6, [lr], -r3, ror #30
    1b40:	43006769 	movwmi	r6, #1897	; 0x769
    1b44:	6f635f4d 	svcvs	0x00635f4d
    1b48:	6c5f666e 	mrrcvs	6, 6, r6, pc, cr14	; <UNPREDICTABLE>
    1b4c:	765f6463 	ldrbvc	r6, [pc], -r3, ror #8
    1b50:	636e7973 	cmnvs	lr, #1884160	; 0x1cc000
    1b54:	5f4d4300 	svcpl	0x004d4300
    1b58:	666e6f63 	strbtvs	r6, [lr], -r3, ror #30
    1b5c:	6970735f 	ldmdbvs	r0!, {r0, r1, r2, r3, r4, r6, r8, r9, ip, sp, lr}^
    1b60:	31645f30 	cmncc	r4, r0, lsr pc
    1b64:	5f4d4300 	svcpl	0x004d4300
    1b68:	666e6f63 	strbtvs	r6, [lr], -r3, ror #30
    1b6c:	6f64745f 	svcvs	0x0064745f
    1b70:	5f4d4300 	svcpl	0x004d4300
    1b74:	666e6f63 	strbtvs	r6, [lr], -r3, ror #30
    1b78:	6332695f 	teqvs	r2, #1556480	; 0x17c000
    1b7c:	64735f30 	ldrbtvs	r5, [r3], #-3888	; 0xfffff0d0
    1b80:	4d430061 	stclmi	0, cr0, [r3, #-388]	; 0xfffffe7c
    1b84:	6e6f635f 	mcrvs	3, 3, r6, cr15, cr15, {2}
    1b88:	70745f66 	rsbsvc	r5, r4, r6, ror #30
    1b8c:	655f6363 	ldrbvs	r6, [pc, #-867]	; 1831 <_start-0x7fffe7cf>
    1b90:	6d5f7476 	cfldrdvs	mvd7, [pc, #-472]	; 19c0 <_start-0x7fffe640>
    1b94:	345f7875 	ldrbcc	r7, [pc], #-2165	; 1b9c <_start-0x7fffe464>
    1b98:	37345f34 			; <UNDEFINED> instruction: 0x37345f34
    1b9c:	6f757100 	svcvs	0x00757100
    1ba0:	5f5f0074 	svcpl	0x005f0074
    1ba4:	62616561 	rsbvs	r6, r1, #406847488	; 0x18400000
    1ba8:	64695f69 	strbtvs	r5, [r9], #-3945	; 0xfffff097
    1bac:	6f6d7669 	svcvs	0x006d7669
    1bb0:	5f5f0064 	svcpl	0x005f0064
    1bb4:	62616561 	rsbvs	r6, r1, #406847488	; 0x18400000
    1bb8:	64695f69 	strbtvs	r5, [r9], #-3945	; 0xfffff097
    1bbc:	64007669 	strvs	r7, [r0], #-1641	; 0xfffff997
    1bc0:	632e7669 			; <UNDEFINED> instruction: 0x632e7669
    1bc4:	69646900 	stmdbvs	r4!, {r8, fp, sp, lr}^
    1bc8:	65725f76 	ldrbvs	r5, [r2, #-3958]!	; 0xfffff08a
    1bcc:	6e727574 	mrcvs	5, 3, r7, cr2, cr4, {3}
    1bd0:	6e656400 	cdpvs	4, 6, cr6, cr5, cr0, {0}
    1bd4:	5f006d6f 	svcpl	0x00006d6f
    1bd8:	6e69616d 	powvsez	f6, f1, #5.0
    1bdc:	69616d00 	stmdbvs	r1!, {r8, sl, fp, sp, lr}^
    1be0:	00632e6e 	rsbeq	r2, r3, lr, ror #28
    1be4:	504f5453 	subpl	r5, pc, r3, asr r4	; <UNPREDICTABLE>
    1be8:	00355f31 	eorseq	r5, r5, r1, lsr pc
    1bec:	61765f5f 	cmnvs	r6, pc, asr pc
    1bf0:	73696c5f 	cmnvc	r9, #24320	; 0x5f00
    1bf4:	61750074 	cmnvs	r5, r4, ror r0
    1bf8:	705f7472 	subsvc	r7, pc, r2, ror r4	; <UNPREDICTABLE>
    1bfc:	00667475 	rsbeq	r7, r6, r5, ror r4
    1c00:	49524150 	ldmdbmi	r2, {r4, r6, r8, lr}^
    1c04:	455f5954 	ldrbmi	r5, [pc, #-2388]	; 12b8 <_start-0x7fffed48>
    1c08:	004e4556 	subeq	r4, lr, r6, asr r5
    1c0c:	574f4c46 	strbpl	r4, [pc, -r6, asr #24]
    1c10:	46464f5f 			; <UNDEFINED> instruction: 0x46464f5f
    1c14:	4f545300 	svcmi	0x00545300
    1c18:	53003150 	movwpl	r3, #336	; 0x150
    1c1c:	32504f54 	subscc	r4, r0, #84, 30	; 0x150
    1c20:	4f4c4600 	svcmi	0x004c4600
    1c24:	4e4f5f57 	mcrmi	15, 2, r5, cr15, cr7, {2}
    1c28:	74756f00 	ldrbtvc	r6, [r5], #-3840	; 0xfffff100
    1c2c:	6e75665f 	mrcvs	6, 3, r6, cr5, cr15, {2}
    1c30:	00745f63 	rsbseq	r5, r4, r3, ror #30
    1c34:	49524150 	ldmdbmi	r2, {r4, r6, r8, lr}^
    1c38:	4f5f5954 	svcmi	0x005f5954
    1c3c:	50004444 	andpl	r4, r0, r4, asr #8
    1c40:	54495241 	strbpl	r5, [r9], #-577	; 0xfffffdbf
    1c44:	4f4e5f59 	svcmi	0x004e5f59
    1c48:	5f00454e 	svcpl	0x0000454e
    1c4c:	0070615f 	rsbseq	r6, r0, pc, asr r1
    1c50:	32525349 	subscc	r5, r2, #603979777	; 0x24000001
    1c54:	75616200 	strbvc	r6, [r1, #-512]!	; 0xfffffe00
    1c58:	74617264 	strbtvc	r7, [r1], #-612	; 0xfffffd9c
    1c5c:	58540065 	ldmdapl	r4, {r0, r2, r5, r6}^
    1c60:	4f464946 	svcmi	0x00464946
    1c64:	4c564c5f 	mrrcmi	12, 5, r4, r6, cr15
    1c68:	52434100 	subpl	r4, r3, #0, 2
    1c6c:	53004745 	movwpl	r4, #1861	; 0x745
    1c70:	52534c46 	subspl	r4, r3, #17920	; 0x4600
    1c74:	49504700 	ldmdbmi	r0, {r8, r9, sl, lr}^
    1c78:	6e695f4f 	cdpvs	15, 6, cr5, cr9, cr15, {2}
    1c7c:	75007469 	strvc	r7, [r0, #-1129]	; 0xfffffb97
    1c80:	5f747261 	svcpl	0x00747261
    1c84:	736e6f63 	cmnvc	lr, #396	; 0x18c
    1c88:	2e656c6f 	cdpcs	12, 6, cr6, cr5, cr15, {3}
    1c8c:	41550063 	cmpmi	r5, r3, rrx
    1c90:	705f5452 	subsvc	r5, pc, r2, asr r4	; <UNPREDICTABLE>
    1c94:	00437475 	subeq	r7, r3, r5, ror r4
    1c98:	74746573 	ldrbtvc	r6, [r4], #-1395	; 0xfffffa8d
    1c9c:	00676e69 	rsbeq	r6, r7, r9, ror #28
    1ca0:	616f6c66 	cmnvs	pc, r6, ror #24
    1ca4:	61550074 	cmpvs	r5, r4, ror r0
    1ca8:	5f307472 	svcpl	0x00307472
    1cac:	65736552 	ldrbvs	r6, [r3, #-1362]!	; 0xfffffaae
    1cb0:	41550074 	cmpmi	r5, r4, ror r0
    1cb4:	675f5452 			; <UNDEFINED> instruction: 0x675f5452
    1cb8:	74537465 	ldrbvc	r7, [r3], #-1125	; 0xfffffb9b
    1cbc:	676e6972 			; <UNDEFINED> instruction: 0x676e6972
    1cc0:	53595300 	cmppl	r9, #0, 6
    1cc4:	58540043 	ldmdapl	r4, {r0, r1, r6}^
    1cc8:	00484c46 	subeq	r4, r8, r6, asr #24
    1ccc:	4c465854 	mcrrmi	8, 5, r5, r6, cr4
    1cd0:	5953004c 	ldmdbpl	r3, {r2, r3, r6}^
    1cd4:	69005353 	stmdbvs	r0, {r0, r1, r4, r6, r8, r9, ip, lr}
    1cd8:	6964746e 	stmdbvs	r4!, {r1, r2, r3, r5, r6, sl, ip, sp, lr}^
    1cdc:	46430076 			; <UNDEFINED> instruction: 0x46430076
    1ce0:	4d005350 	stcmi	3, cr5, [r0, #-320]	; 0xfffffec0
    1ce4:	00315244 	eorseq	r5, r1, r4, asr #4
    1ce8:	3252444d 	subscc	r4, r2, #1291845632	; 0x4d000000
    1cec:	52444d00 	subpl	r4, r4, #0, 26
    1cf0:	69750033 	ldmdbvs	r5!, {r0, r1, r4, r5}^
    1cf4:	5f38746e 	svcpl	0x0038746e
    1cf8:	45490074 	strbmi	r0, [r9, #-116]	; 0xffffff8c
    1cfc:	54003252 	strpl	r3, [r0], #-594	; 0xfffffdae
    1d00:	414d4458 	cmpmi	sp, r8, asr r4
    1d04:	45524600 	ldrbmi	r4, [r2, #-1536]	; 0xfffffa00
    1d08:	45535f51 	ldrbmi	r5, [r3, #-3921]	; 0xfffff0af
    1d0c:	4245004c 	submi	r0, r5, #76	; 0x4c
    1d10:	5200524c 	andpl	r5, r0, #76, 4	; 0xc0000004
    1d14:	46494658 			; <UNDEFINED> instruction: 0x46494658
    1d18:	564c5f4f 	strbpl	r5, [ip], -pc, asr #30
    1d1c:	4155004c 	cmpmi	r5, ip, asr #32
    1d20:	705f5452 	subsvc	r5, pc, r2, asr r4	; <UNPREDICTABLE>
    1d24:	74537475 	ldrbvc	r7, [r3], #-1141	; 0xfffffb8b
    1d28:	676e6972 			; <UNDEFINED> instruction: 0x676e6972
    1d2c:	52415500 	subpl	r5, r1, #0, 10
    1d30:	65675f54 	strbvs	r5, [r7, #-3924]!	; 0xfffff0ac
    1d34:	70004374 	andvc	r4, r0, r4, ror r3
    1d38:	74697261 	strbtvc	r7, [r9], #-609	; 0xfffffd9f
    1d3c:	54530079 	ldrbpl	r0, [r3], #-121	; 0xffffff87
    1d40:	425f504f 	subsmi	r5, pc, #79	; 0x4f
    1d44:	745f5449 	ldrbvc	r5, [pc], #-1097	; 1d4c <_start-0x7fffe2b4>
    1d48:	6e656c00 	cdpvs	12, 6, cr6, cr5, cr0, {0}
    1d4c:	00687467 	rsbeq	r7, r8, r7, ror #8
    1d50:	54524155 	ldrbpl	r4, [r2], #-341	; 0xfffffeab
    1d54:	696e695f 	stmdbvs	lr!, {r0, r1, r2, r3, r4, r6, r8, fp, sp, lr}^
    1d58:	46530074 			; <UNDEFINED> instruction: 0x46530074
    1d5c:	48474552 	stmdami	r7, {r1, r4, r6, r8, sl, lr}^
    1d60:	52465300 	subpl	r5, r6, #0, 6
    1d64:	004c4745 	subeq	r4, ip, r5, asr #14
    1d68:	55534552 	ldrbpl	r4, [r3, #-1362]	; 0xfffffaae
    1d6c:	6600454d 	strvs	r4, [r0], -sp, asr #10
    1d70:	43776f6c 	cmnmi	r7, #108, 30	; 0x1b0
    1d74:	72746e6f 	rsbsvc	r6, r4, #1776	; 0x6f0
    1d78:	46006c6f 	strmi	r6, [r0], -pc, ror #24
    1d7c:	5f574f4c 	svcpl	0x00574f4c
    1d80:	74730074 	ldrbtvc	r0, [r3], #-116	; 0xffffff8c
    1d84:	6942706f 	stmdbvs	r2, {r0, r1, r2, r3, r5, r6, ip, sp, lr}^
    1d88:	41500074 	cmpmi	r0, r4, ror r0
    1d8c:	59544952 	ldmdbpl	r4, {r1, r4, r6, r8, fp, lr}^
    1d90:	5449425f 	strbpl	r4, [r9], #-607	; 0xfffffda1
    1d94:	5200745f 	andpl	r7, r0, #1593835520	; 0x5f000000
    1d98:	484c4658 	stmdami	ip, {r3, r4, r6, r9, sl, lr}^
    1d9c:	46585200 	ldrbmi	r5, [r8], -r0, lsl #4
    1da0:	73004c4c 	movwvc	r4, #3148	; 0xc4c
    1da4:	00657a69 	rsbeq	r7, r5, r9, ror #20
    1da8:	72732f2e 	rsbsvc	r2, r3, #46, 30	; 0xb8
    1dac:	72702f63 	rsbsvc	r2, r0, #396	; 0x18c
    1db0:	6b746e69 	blvs	1d1d75c <_start-0x7e2e28a4>
    1db4:	5f00632e 	svcpl	0x0000632e
    1db8:	6e697270 	mcrvs	2, 3, r7, cr9, cr0, {3}
    1dbc:	645f6b74 	ldrbvs	r6, [pc], #-2932	; 1dc4 <_start-0x7fffe23c>
    1dc0:	755f6365 	ldrbvc	r6, [pc, #-869]	; 1a63 <_start-0x7fffe59d>
    1dc4:	676e6f6c 	strbvs	r6, [lr, -ip, ror #30]!
    1dc8:	6e6f6c00 	cdpvs	12, 6, cr6, cr15, cr0, {0}
    1dcc:	6e752067 	cdpvs	0, 7, cr2, cr5, cr7, {3}
    1dd0:	6e676973 	mcrvs	9, 3, r6, cr7, cr3, {3}
    1dd4:	69206465 	stmdbvs	r0!, {r0, r2, r5, r6, sl, sp, lr}
    1dd8:	7200746e 	andvc	r7, r0, #1845493760	; 0x6e000000
    1ddc:	69616d65 	stmdbvs	r1!, {r0, r2, r5, r6, r8, sl, fp, sp, lr}^
    1de0:	7265646e 	rsbvc	r6, r5, #1845493760	; 0x6e000000
    1de4:	756f6600 	strbvc	r6, [pc, #-1536]!	; 17ec <_start-0x7fffe814>
    1de8:	6c5f646e 	cfldrdvs	mvd6, [pc], {110}	; 0x6e
    1dec:	65677261 	strbvs	r7, [r7, #-609]!	; 0xfffffd9f
    1df0:	645f7473 	ldrbvs	r7, [pc], #-1139	; 1df8 <_start-0x7fffe208>
    1df4:	74696769 	strbtvc	r6, [r9], #-1897	; 0xfffff897
    1df8:	70765f00 	rsbsvc	r5, r6, r0, lsl #30
    1dfc:	746e6972 	strbtvc	r6, [lr], #-2418	; 0xfffff68e
    1e00:	696d006b 	stmdbvs	sp!, {r0, r1, r3, r5, r6}^
    1e04:	69775f6e 	ldmdbvs	r7!, {r1, r2, r3, r5, r6, r8, r9, sl, fp, ip, lr}^
    1e08:	00687464 	rsbeq	r7, r8, r4, ror #8
    1e0c:	5f646170 	svcpl	0x00646170
    1e10:	6f72657a 	svcvs	0x0072657a
    1e14:	72705f00 	rsbsvc	r5, r0, #0, 30
    1e18:	6b746e69 	blvs	1d1d7c4 <_start-0x7e2e283c>
    1e1c:	7865685f 	stmdavc	r5!, {r0, r1, r2, r3, r4, r6, fp, sp, lr}^
    1e20:	6f6c755f 	svcvs	0x006c755f
    1e24:	2f00676e 	svccs	0x0000676e
    1e28:	656d6f68 	strbvs	r6, [sp, #-3944]!	; 0xfffff098
    1e2c:	6168732f 	cmnvs	r8, pc, lsr #6
    1e30:	2f696873 	svccs	0x00696873
    1e34:	62626164 	rsbvs	r6, r2, #100, 2
    1e38:	61622f61 	cmnvs	r2, r1, ror #30
    1e3c:	656d6572 	strbvs	r6, [sp, #-1394]!	; 0xfffffa8e
    1e40:	5f6c6174 	svcpl	0x006c6174
    1e44:	6b726f77 	blvs	1c9dc28 <_start-0x7e3623d8>
    1e48:	63617073 	cmnvs	r1, #115	; 0x73
    1e4c:	65422f65 	strbvs	r2, [r2, #-3941]	; 0xfffff09b
    1e50:	656c6761 	strbvs	r6, [ip, #-1889]!	; 0xfffff89f
    1e54:	656e6f42 	strbvs	r6, [lr, #-3906]!	; 0xfffff0be
    1e58:	63616c42 	cmnvs	r1, #16896	; 0x4200
    1e5c:	696d2f6b 	stmdbvs	sp!, {r0, r1, r3, r5, r6, r8, r9, sl, fp, sp}^
    1e60:	756d696e 	strbvc	r6, [sp, #-2414]!	; 0xfffff692
    1e64:	5f635f6c 	svcpl	0x00635f6c
    1e68:	2f62696c 	svccs	0x0062696c
    1e6c:	6373696d 	cmnvs	r3, #1785856	; 0x1b4000
    1e70:	6e6f6c00 	cdpvs	12, 6, cr6, cr15, cr0, {0}
    1e74:	6e692067 	cdpvs	0, 6, cr2, cr9, cr7, {3}
    1e78:	74730074 	ldrbtvc	r0, [r3], #-116	; 0xffffff8c
    1e7c:	5f6c6c69 	svcpl	0x006c6c69
    1e80:	6867696d 	stmdavs	r7!, {r0, r2, r3, r5, r6, r8, fp, sp, lr}^
    1e84:	6f665f74 	svcvs	0x00665f74
    1e88:	74616d72 	strbtvc	r6, [r1], #-3442	; 0xfffff28e
    1e8c:	62696e00 	rsbvs	r6, r9, #0, 28
    1e90:	00656c62 	rsbeq	r6, r5, r2, ror #24
    1e94:	616d6572 	smcvs	54866	; 0xd652
    1e98:	6e696e69 	cdpvs	14, 6, cr6, cr9, cr9, {3}
    1e9c:	74730067 	ldrbtvc	r0, [r3], #-103	; 0xffffff99
    1ea0:	79706372 	ldmdbvc	r0!, {r1, r4, r5, r6, r8, r9, sp, lr}^
    1ea4:	72747300 	rsbsvc	r7, r4, #0, 6
    1ea8:	00726863 	rsbseq	r6, r2, r3, ror #16
    1eac:	636d656d 	cmnvs	sp, #457179136	; 0x1b400000
    1eb0:	2e00706d 	cdpcs	0, 0, cr7, cr0, cr13, {3}
    1eb4:	6372732f 	cmnvs	r2, #-1140850688	; 0xbc000000
    1eb8:	7274732f 	rsbsvc	r7, r4, #-1140850688	; 0xbc000000
    1ebc:	2e676e69 	cdpcs	14, 6, cr6, cr7, cr9, {3}
    1ec0:	74730063 	ldrbtvc	r0, [r3], #-99	; 0xffffff9d
    1ec4:	70636e72 	rsbvc	r6, r3, r2, ror lr
    1ec8:	74730079 	ldrbtvc	r0, [r3], #-121	; 0xffffff87
    1ecc:	74616372 	strbtvc	r6, [r1], #-882	; 0xfffffc8e
    1ed0:	72747300 	rsbsvc	r7, r4, #0, 6
    1ed4:	00706d63 	rsbseq	r6, r0, r3, ror #26
    1ed8:	72727473 	rsbsvc	r7, r2, #1929379840	; 0x73000000
    1edc:	00726863 	rsbseq	r6, r2, r3, ror #16
    1ee0:	6d6f682f 	stclvs	8, cr6, [pc, #-188]!	; 1e2c <_start-0x7fffe1d4>
    1ee4:	68732f65 	ldmdavs	r3!, {r0, r2, r5, r6, r8, r9, sl, fp, sp}^
    1ee8:	69687361 	stmdbvs	r8!, {r0, r5, r6, r8, r9, ip, sp, lr}^
    1eec:	6261642f 	rsbvs	r6, r1, #788529152	; 0x2f000000
    1ef0:	622f6162 	eorvs	r6, pc, #-2147483624	; 0x80000018
    1ef4:	6d657261 	sfmvs	f7, 2, [r5, #-388]!	; 0xfffffe7c
    1ef8:	6c617465 	cfstrdvs	mvd7, [r1], #-404	; 0xfffffe6c
    1efc:	726f775f 	rsbvc	r7, pc, #24903680	; 0x17c0000
    1f00:	6170736b 	cmnvs	r0, fp, ror #6
    1f04:	422f6563 	eormi	r6, pc, #415236096	; 0x18c00000
    1f08:	6c676165 	stfvse	f6, [r7], #-404	; 0xfffffe6c
    1f0c:	6e6f4265 	cdpvs	2, 6, cr4, cr15, cr5, {3}
    1f10:	616c4265 	cmnvs	ip, r5, ror #4
    1f14:	6d2f6b63 	fstmdbxvs	pc!, {d6-d54}	;@ Deprecated
    1f18:	6d696e69 	stclvs	14, cr6, [r9, #-420]!	; 0xfffffe5c
    1f1c:	635f6c75 	cmpvs	pc, #29952	; 0x7500
    1f20:	62696c5f 	rsbvs	r6, r9, #24320	; 0x5f00
    1f24:	7274732f 	rsbsvc	r7, r4, #-1140850688	; 0xbc000000
    1f28:	00676e69 	rsbeq	r6, r7, r9, ror #28
    1f2c:	6e727473 	mrcvs	4, 3, r7, cr2, cr3, {3}
    1f30:	00746163 	rsbseq	r6, r4, r3, ror #2
    1f34:	6e727473 	mrcvs	4, 3, r7, cr2, cr3, {3}
    1f38:	00706d63 	rsbseq	r6, r0, r3, ror #26
    1f3c:	6c727473 	cfldrdvs	mvd7, [r2], #-460	; 0xfffffe34
    1f40:	Address 0x0000000000001f40 is out of bounds.


Disassembly of section .debug_frame:

00000000 <.debug_frame>:
   0:	0000000c 	andeq	r0, r0, ip
   4:	ffffffff 			; <UNDEFINED> instruction: 0xffffffff
   8:	7c020001 	stcvc	0, cr0, [r2], {1}
   c:	000d0c0e 	andeq	r0, sp, lr, lsl #24
  10:	0000001c 	andeq	r0, r0, ip, lsl r0
  14:	00000000 	andeq	r0, r0, r0
  18:	8000003c 	andhi	r0, r0, ip, lsr r0
  1c:	00000068 	andeq	r0, r0, r8, rrx
  20:	8b040e42 	blhi	103930 <_start-0x7fefc6d0>
  24:	0b0d4201 	bleq	350830 <_start-0x7fcaf7d0>
  28:	420d0d6c 	andmi	r0, sp, #108, 26	; 0x1b00
  2c:	00000ecb 	andeq	r0, r0, fp, asr #29
  30:	0000000c 	andeq	r0, r0, ip
  34:	ffffffff 			; <UNDEFINED> instruction: 0xffffffff
  38:	7c020001 	stcvc	0, cr0, [r2], {1}
  3c:	000d0c0e 	andeq	r0, sp, lr, lsl #24
  40:	0000001c 	andeq	r0, r0, ip, lsl r0
  44:	00000030 	andeq	r0, r0, r0, lsr r0
  48:	800000a4 	andhi	r0, r0, r4, lsr #1
  4c:	00000040 	andeq	r0, r0, r0, asr #32
  50:	8b040e42 	blhi	103960 <_start-0x7fefc6a0>
  54:	0b0d4201 	bleq	350860 <_start-0x7fcaf7a0>
  58:	420d0d58 	andmi	r0, sp, #88, 26	; 0x1600
  5c:	00000ecb 	andeq	r0, r0, fp, asr #29
  60:	0000001c 	andeq	r0, r0, ip, lsl r0
  64:	00000030 	andeq	r0, r0, r0, lsr r0
  68:	800000e4 	andhi	r0, r0, r4, ror #1
  6c:	00000038 	andeq	r0, r0, r8, lsr r0
  70:	8b040e42 	blhi	103980 <_start-0x7fefc680>
  74:	0b0d4201 	bleq	350880 <_start-0x7fcaf780>
  78:	420d0d54 	andmi	r0, sp, #84, 26	; 0x1500
  7c:	00000ecb 	andeq	r0, r0, fp, asr #29
  80:	0000001c 	andeq	r0, r0, ip, lsl r0
  84:	00000030 	andeq	r0, r0, r0, lsr r0
  88:	8000011c 	andhi	r0, r0, ip, lsl r1
  8c:	000000d4 	ldrdeq	r0, [r0], -r4
  90:	8b080e42 	blhi	2039a0 <_start-0x7fdfc660>
  94:	42018e02 	andmi	r8, r1, #2, 28
  98:	02040b0c 	andeq	r0, r4, #12, 22	; 0x3000
  9c:	080d0c64 	stmdaeq	sp, {r2, r5, r6, sl, fp}
  a0:	0000000c 	andeq	r0, r0, ip
  a4:	ffffffff 			; <UNDEFINED> instruction: 0xffffffff
  a8:	7c020001 	stcvc	0, cr0, [r2], {1}
  ac:	000d0c0e 	andeq	r0, sp, lr, lsl #24
  b0:	0000001c 	andeq	r0, r0, ip, lsl r0
  b4:	000000a0 	andeq	r0, r0, r0, lsr #1
  b8:	800001f0 	strdhi	r0, [r0], -r0	; <UNPREDICTABLE>
  bc:	0000003c 	andeq	r0, r0, ip, lsr r0
  c0:	8b040e42 	blhi	1039d0 <_start-0x7fefc630>
  c4:	0b0d4201 	bleq	3508d0 <_start-0x7fcaf730>
  c8:	420d0d56 	andmi	r0, sp, #5504	; 0x1580
  cc:	00000ecb 	andeq	r0, r0, fp, asr #29
  d0:	0000001c 	andeq	r0, r0, ip, lsl r0
  d4:	000000a0 	andeq	r0, r0, r0, lsr #1
  d8:	8000022c 	andhi	r0, r0, ip, lsr #4
  dc:	00000034 	andeq	r0, r0, r4, lsr r0
  e0:	8b040e42 	blhi	1039f0 <_start-0x7fefc610>
  e4:	0b0d4201 	bleq	3508f0 <_start-0x7fcaf710>
  e8:	420d0d52 	andmi	r0, sp, #5248	; 0x1480
  ec:	00000ecb 	andeq	r0, r0, fp, asr #29
  f0:	0000001c 	andeq	r0, r0, ip, lsl r0
  f4:	000000a0 	andeq	r0, r0, r0, lsr #1
  f8:	80000260 	andhi	r0, r0, r0, ror #4
  fc:	00000058 	andeq	r0, r0, r8, asr r0
 100:	8b080e42 	blhi	203a10 <_start-0x7fdfc5f0>
 104:	42018e02 	andmi	r8, r1, #2, 28
 108:	66040b0c 	strvs	r0, [r4], -ip, lsl #22
 10c:	00080d0c 	andeq	r0, r8, ip, lsl #26
 110:	00000018 	andeq	r0, r0, r8, lsl r0
 114:	000000a0 	andeq	r0, r0, r0, lsr #1
 118:	800002b8 			; <UNDEFINED> instruction: 0x800002b8
 11c:	00000024 	andeq	r0, r0, r4, lsr #32
 120:	8b080e42 	blhi	203a30 <_start-0x7fdfc5d0>
 124:	42018e02 	andmi	r8, r1, #2, 28
 128:	00040b0c 	andeq	r0, r4, ip, lsl #22
 12c:	0000000c 	andeq	r0, r0, ip
 130:	ffffffff 			; <UNDEFINED> instruction: 0xffffffff
 134:	7c020001 	stcvc	0, cr0, [r2], {1}
 138:	000d0c0e 	andeq	r0, sp, lr, lsl #24
 13c:	0000001c 	andeq	r0, r0, ip, lsl r0
 140:	0000012c 	andeq	r0, r0, ip, lsr #2
 144:	800002dc 	ldrdhi	r0, [r0], -ip
 148:	00000084 	andeq	r0, r0, r4, lsl #1
 14c:	8b040e42 	blhi	103a5c <_start-0x7fefc5a4>
 150:	0b0d4201 	bleq	35095c <_start-0x7fcaf6a4>
 154:	420d0d7a 	andmi	r0, sp, #7808	; 0x1e80
 158:	00000ecb 	andeq	r0, r0, fp, asr #29
 15c:	0000001c 	andeq	r0, r0, ip, lsl r0
 160:	0000012c 	andeq	r0, r0, ip, lsr #2
 164:	80000360 	andhi	r0, r0, r0, ror #6
 168:	00000060 	andeq	r0, r0, r0, rrx
 16c:	8b040e42 	blhi	103a7c <_start-0x7fefc584>
 170:	0b0d4201 	bleq	35097c <_start-0x7fcaf684>
 174:	420d0d68 	andmi	r0, sp, #104, 26	; 0x1a00
 178:	00000ecb 	andeq	r0, r0, fp, asr #29
 17c:	0000000c 	andeq	r0, r0, ip
 180:	ffffffff 			; <UNDEFINED> instruction: 0xffffffff
 184:	7c020001 	stcvc	0, cr0, [r2], {1}
 188:	000d0c0e 	andeq	r0, sp, lr, lsl #24
 18c:	00000034 	andeq	r0, r0, r4, lsr r0
 190:	0000017c 	andeq	r0, r0, ip, ror r1
 194:	800003c0 	andhi	r0, r0, r0, asr #7
 198:	00000044 	andeq	r0, r0, r4, asr #32
 19c:	80100e42 	andshi	r0, r0, r2, asr #28
 1a0:	82038104 	andhi	r8, r3, #4, 2
 1a4:	42018302 	andmi	r8, r1, #134217728	; 0x8000000
 1a8:	068b180e 	streq	r1, [fp], lr, lsl #16
 1ac:	0c42058e 	cfstr64eq	mvdx0, [r2], {142}	; 0x8e
 1b0:	0c56140b 	cfldrdeq	mvd1, [r6], {11}
 1b4:	ce42180d 	cdpgt	8, 4, cr1, cr2, cr13, {0}
 1b8:	42100ecb 	andsmi	r0, r0, #3248	; 0xcb0
 1bc:	c0c1c2c3 	sbcgt	ip, r1, r3, asr #5
 1c0:	0000000e 	andeq	r0, r0, lr
 1c4:	00000018 	andeq	r0, r0, r8, lsl r0
 1c8:	0000017c 	andeq	r0, r0, ip, ror r1
 1cc:	80000404 	andhi	r0, r0, r4, lsl #8
 1d0:	000000b8 	strheq	r0, [r0], -r8
 1d4:	8b080e42 	blhi	203ae4 <_start-0x7fdfc51c>
 1d8:	42018e02 	andmi	r8, r1, #2, 28
 1dc:	00040b0c 	andeq	r0, r4, ip, lsl #22
 1e0:	0000000c 	andeq	r0, r0, ip
 1e4:	ffffffff 			; <UNDEFINED> instruction: 0xffffffff
 1e8:	7c020001 	stcvc	0, cr0, [r2], {1}
 1ec:	000d0c0e 	andeq	r0, sp, lr, lsl #24
 1f0:	0000001c 	andeq	r0, r0, ip, lsl r0
 1f4:	000001e0 	andeq	r0, r0, r0, ror #3
 1f8:	800004c0 	andhi	r0, r0, r0, asr #9
 1fc:	00000058 	andeq	r0, r0, r8, asr r0
 200:	8b080e42 	blhi	203b10 <_start-0x7fdfc4f0>
 204:	42018e02 	andmi	r8, r1, #2, 28
 208:	66040b0c 	strvs	r0, [r4], -ip, lsl #22
 20c:	00080d0c 	andeq	r0, r8, ip, lsl #26
 210:	0000001c 	andeq	r0, r0, ip, lsl r0
 214:	000001e0 	andeq	r0, r0, r0, ror #3
 218:	80000518 	andhi	r0, r0, r8, lsl r5
 21c:	000001f8 	strdeq	r0, [r0], -r8
 220:	8b040e42 	blhi	103b30 <_start-0x7fefc4d0>
 224:	0b0d4201 	bleq	350a30 <_start-0x7fcaf5d0>
 228:	0d0df002 	stceq	0, cr15, [sp, #-8]
 22c:	000ecb42 	andeq	ip, lr, r2, asr #22
 230:	0000001c 	andeq	r0, r0, ip, lsl r0
 234:	000001e0 	andeq	r0, r0, r0, ror #3
 238:	80000710 	andhi	r0, r0, r0, lsl r7
 23c:	0000004c 	andeq	r0, r0, ip, asr #32
 240:	8b080e42 	blhi	203b50 <_start-0x7fdfc4b0>
 244:	42018e02 	andmi	r8, r1, #2, 28
 248:	60040b0c 	andvs	r0, r4, ip, lsl #22
 24c:	00080d0c 	andeq	r0, r8, ip, lsl #26
 250:	0000001c 	andeq	r0, r0, ip, lsl r0
 254:	000001e0 	andeq	r0, r0, r0, ror #3
 258:	8000075c 	andhi	r0, r0, ip, asr r7
 25c:	00000060 	andeq	r0, r0, r0, rrx
 260:	8b080e42 	blhi	203b70 <_start-0x7fdfc490>
 264:	42018e02 	andmi	r8, r1, #2, 28
 268:	6a040b0c 	bvs	102ea0 <_start-0x7fefd160>
 26c:	00080d0c 	andeq	r0, r8, ip, lsl #26
 270:	0000001c 	andeq	r0, r0, ip, lsl r0
 274:	000001e0 	andeq	r0, r0, r0, ror #3
 278:	800007bc 			; <UNDEFINED> instruction: 0x800007bc
 27c:	00000048 	andeq	r0, r0, r8, asr #32
 280:	8b040e42 	blhi	103b90 <_start-0x7fefc470>
 284:	0b0d4201 	bleq	350a90 <_start-0x7fcaf570>
 288:	420d0d5c 	andmi	r0, sp, #92, 26	; 0x1700
 28c:	00000ecb 	andeq	r0, r0, fp, asr #29
 290:	0000001c 	andeq	r0, r0, ip, lsl r0
 294:	000001e0 	andeq	r0, r0, r0, ror #3
 298:	80000804 	andhi	r0, r0, r4, lsl #16
 29c:	0000006c 	andeq	r0, r0, ip, rrx
 2a0:	8b080e42 	blhi	203bb0 <_start-0x7fdfc450>
 2a4:	42018e02 	andmi	r8, r1, #2, 28
 2a8:	70040b0c 	andvc	r0, r4, ip, lsl #22
 2ac:	00080d0c 	andeq	r0, r8, ip, lsl #26
 2b0:	00000020 	andeq	r0, r0, r0, lsr #32
 2b4:	000001e0 	andeq	r0, r0, r0, ror #3
 2b8:	80000870 	andhi	r0, r0, r0, ror r8
 2bc:	0000006c 	andeq	r0, r0, ip, rrx
 2c0:	840c0e42 	strhi	r0, [ip], #-3650	; 0xfffff1be
 2c4:	8e028b03 	vmlahi.f64	d8, d2, d3
 2c8:	0b0c4201 	bleq	310ad4 <_start-0x7fcef52c>
 2cc:	0d0c7004 	stceq	0, cr7, [ip, #-16]
 2d0:	0000000c 	andeq	r0, r0, ip
 2d4:	0000000c 	andeq	r0, r0, ip
 2d8:	ffffffff 			; <UNDEFINED> instruction: 0xffffffff
 2dc:	7c020001 	stcvc	0, cr0, [r2], {1}
 2e0:	000d0c0e 	andeq	r0, sp, lr, lsl #24
 2e4:	0000001c 	andeq	r0, r0, ip, lsl r0
 2e8:	000002d4 	ldrdeq	r0, [r0], -r4
 2ec:	800008dc 	ldrdhi	r0, [r0], -ip
 2f0:	00000160 	andeq	r0, r0, r0, ror #2
 2f4:	8b080e42 	blhi	203c04 <_start-0x7fdfc3fc>
 2f8:	42018e02 	andmi	r8, r1, #2, 28
 2fc:	02040b0c 	andeq	r0, r4, #12, 22	; 0x3000
 300:	080d0caa 	stmdaeq	sp, {r1, r3, r5, r7, sl, fp}
 304:	0000001c 	andeq	r0, r0, ip, lsl r0
 308:	000002d4 	ldrdeq	r0, [r0], -r4
 30c:	80000a3c 	andhi	r0, r0, ip, lsr sl
 310:	00000118 	andeq	r0, r0, r8, lsl r1
 314:	8b080e42 	blhi	203c24 <_start-0x7fdfc3dc>
 318:	42018e02 	andmi	r8, r1, #2, 28
 31c:	02040b0c 	andeq	r0, r4, #12, 22	; 0x3000
 320:	080d0c86 	stmdaeq	sp, {r1, r2, r7, sl, fp}
 324:	00000020 	andeq	r0, r0, r0, lsr #32
 328:	000002d4 	ldrdeq	r0, [r0], -r4
 32c:	80000b54 	andhi	r0, r0, r4, asr fp
 330:	00000424 	andeq	r0, r0, r4, lsr #8
 334:	8b080e42 	blhi	203c44 <_start-0x7fdfc3bc>
 338:	42018e02 	andmi	r8, r1, #2, 28
 33c:	03040b0c 	movweq	r0, #19212	; 0x4b0c
 340:	0d0c020c 	sfmeq	f0, 4, [ip, #-48]	; 0xffffffd0
 344:	00000008 	andeq	r0, r0, r8
 348:	0000000c 	andeq	r0, r0, ip
 34c:	ffffffff 			; <UNDEFINED> instruction: 0xffffffff
 350:	7c020001 	stcvc	0, cr0, [r2], {1}
 354:	000d0c0e 	andeq	r0, sp, lr, lsl #24
 358:	0000001c 	andeq	r0, r0, ip, lsl r0
 35c:	00000348 	andeq	r0, r0, r8, asr #6
 360:	80000f78 	andhi	r0, r0, r8, ror pc
 364:	000000a4 	andeq	r0, r0, r4, lsr #1
 368:	8b040e42 	blhi	103c78 <_start-0x7fefc388>
 36c:	0b0d4201 	bleq	350b78 <_start-0x7fcaf488>
 370:	0d0d4a02 	vstreq	s8, [sp, #-8]
 374:	000ecb42 	andeq	ip, lr, r2, asr #22
 378:	0000001c 	andeq	r0, r0, ip, lsl r0
 37c:	00000348 	andeq	r0, r0, r8, asr #6
 380:	8000101c 	andhi	r1, r0, ip, lsl r0
 384:	00000054 	andeq	r0, r0, r4, asr r0
 388:	8b040e42 	blhi	103c98 <_start-0x7fefc368>
 38c:	0b0d4201 	bleq	350b98 <_start-0x7fcaf468>
 390:	420d0d62 	andmi	r0, sp, #6272	; 0x1880
 394:	00000ecb 	andeq	r0, r0, fp, asr #29
 398:	0000001c 	andeq	r0, r0, ip, lsl r0
 39c:	00000348 	andeq	r0, r0, r8, asr #6
 3a0:	80001070 	andhi	r1, r0, r0, ror r0
 3a4:	00000060 	andeq	r0, r0, r0, rrx
 3a8:	8b040e42 	blhi	103cb8 <_start-0x7fefc348>
 3ac:	0b0d4201 	bleq	350bb8 <_start-0x7fcaf448>
 3b0:	420d0d68 	andmi	r0, sp, #104, 26	; 0x1a00
 3b4:	00000ecb 	andeq	r0, r0, fp, asr #29
 3b8:	0000001c 	andeq	r0, r0, ip, lsl r0
 3bc:	00000348 	andeq	r0, r0, r8, asr #6
 3c0:	800010d0 	ldrdhi	r1, [r0], -r0
 3c4:	000000a8 	andeq	r0, r0, r8, lsr #1
 3c8:	8b040e42 	blhi	103cd8 <_start-0x7fefc328>
 3cc:	0b0d4201 	bleq	350bd8 <_start-0x7fcaf428>
 3d0:	0d0d4c02 	stceq	12, cr4, [sp, #-8]
 3d4:	000ecb42 	andeq	ip, lr, r2, asr #22
 3d8:	0000001c 	andeq	r0, r0, ip, lsl r0
 3dc:	00000348 	andeq	r0, r0, r8, asr #6
 3e0:	80001178 	andhi	r1, r0, r8, ror r1
 3e4:	0000006c 	andeq	r0, r0, ip, rrx
 3e8:	8b080e42 	blhi	203cf8 <_start-0x7fdfc308>
 3ec:	42018e02 	andmi	r8, r1, #2, 28
 3f0:	70040b0c 	andvc	r0, r4, ip, lsl #22
 3f4:	00080d0c 	andeq	r0, r8, ip, lsl #26
 3f8:	0000001c 	andeq	r0, r0, ip, lsl r0
 3fc:	00000348 	andeq	r0, r0, r8, asr #6
 400:	800011e4 	andhi	r1, r0, r4, ror #3
 404:	000000c0 	andeq	r0, r0, r0, asr #1
 408:	8b080e42 	blhi	203d18 <_start-0x7fdfc2e8>
 40c:	42018e02 	andmi	r8, r1, #2, 28
 410:	02040b0c 	andeq	r0, r4, #12, 22	; 0x3000
 414:	080d0c5a 	stmdaeq	sp, {r1, r3, r4, r6, sl, fp}
 418:	0000001c 	andeq	r0, r0, ip, lsl r0
 41c:	00000348 	andeq	r0, r0, r8, asr #6
 420:	800012a4 	andhi	r1, r0, r4, lsr #5
 424:	00000094 	muleq	r0, r4, r0
 428:	8b040e42 	blhi	103d38 <_start-0x7fefc2c8>
 42c:	0b0d4201 	bleq	350c38 <_start-0x7fcaf3c8>
 430:	0d0d4202 	sfmeq	f4, 4, [sp, #-8]
 434:	000ecb42 	andeq	ip, lr, r2, asr #22
 438:	0000001c 	andeq	r0, r0, ip, lsl r0
 43c:	00000348 	andeq	r0, r0, r8, asr #6
 440:	80001338 	andhi	r1, r0, r8, lsr r3
 444:	000000b0 	strheq	r0, [r0], -r0	; <UNPREDICTABLE>
 448:	8b040e42 	blhi	103d58 <_start-0x7fefc2a8>
 44c:	0b0d4201 	bleq	350c58 <_start-0x7fcaf3a8>
 450:	0d0d5002 	stceq	0, cr5, [sp, #-8]
 454:	000ecb42 	andeq	ip, lr, r2, asr #22
 458:	0000001c 	andeq	r0, r0, ip, lsl r0
 45c:	00000348 	andeq	r0, r0, r8, asr #6
 460:	800013e8 	andhi	r1, r0, r8, ror #7
 464:	0000007c 	andeq	r0, r0, ip, ror r0
 468:	8b040e42 	blhi	103d78 <_start-0x7fefc288>
 46c:	0b0d4201 	bleq	350c78 <_start-0x7fcaf388>
 470:	420d0d76 	andmi	r0, sp, #7552	; 0x1d80
 474:	00000ecb 	andeq	r0, r0, fp, asr #29
 478:	0000001c 	andeq	r0, r0, ip, lsl r0
 47c:	00000348 	andeq	r0, r0, r8, asr #6
 480:	80001464 	andhi	r1, r0, r4, ror #8
 484:	00000074 	andeq	r0, r0, r4, ror r0
 488:	8b040e42 	blhi	103d98 <_start-0x7fefc268>
 48c:	0b0d4201 	bleq	350c98 <_start-0x7fcaf368>
 490:	420d0d72 	andmi	r0, sp, #7296	; 0x1c80
 494:	00000ecb 	andeq	r0, r0, fp, asr #29
