
obj/main.elf:     file format elf32-littlearm


Disassembly of section .text:

80000000 <_start>:
80000000:	e10f0000 	mrs	r0, CPSR
80000004:	e3c0001f 	bic	r0, r0, #31
80000008:	e3800013 	orr	r0, r0, #19
8000000c:	e38000c0 	orr	r0, r0, #192	; 0xc0
80000010:	e129f000 	msr	CPSR_fc, r0
80000014:	ee110f50 	mrc	15, 0, r0, cr1, cr0, {2}
80000018:	e380060f 	orr	r0, r0, #15728640	; 0xf00000
8000001c:	ee010f50 	mcr	15, 0, r0, cr1, cr0, {2}
80000020:	f57ff06f 	isb	sy
80000024:	e3a00101 	mov	r0, #1073741824	; 0x40000000
80000028:	eee80a10 	vmsr	fpexc, r0
8000002c:	e59fd004 	ldr	sp, [pc, #4]	; 80000038 <.loop+0x4>
80000030:	eb0000fa 	bl	80000420 <_main>

80000034 <.loop>:
80000034:	eafffffe 	b	80000034 <.loop>
80000038:	4030cdfc 	ldrshtmi	ip, [r0], -ip

8000003c <LED_init>:
#include "gpio.h"
#include "clock.h"
void LED_init(void)
{
8000003c:	e52db004 	push	{fp}		; (str fp, [sp, #-4]!)
80000040:	e28db000 	add	fp, sp, #0
80000044:	e24dd00c 	sub	sp, sp, #12


	volatile unsigned int ra;

	PUT32(CM_PER_BASE+CM_PER_GPIO1, 1<<18 | 2);
80000048:	e3a030ac 	mov	r3, #172	; 0xac
8000004c:	e34434e0 	movt	r3, #17632	; 0x44e0
80000050:	e3a02002 	mov	r2, #2
80000054:	e3402004 	movt	r2, #4
80000058:	e5832000 	str	r2, [r3]
	ra = GET32(GPIO1_BASE+GPIO_OE);
8000005c:	e30c3134 	movw	r3, #49460	; 0xc134
80000060:	e3443804 	movt	r3, #18436	; 0x4804
80000064:	e5933000 	ldr	r3, [r3]
80000068:	e50b3008 	str	r3, [fp, #-8]
	ra &= ~(1<<21);
8000006c:	e51b3008 	ldr	r3, [fp, #-8]
80000070:	e3c33602 	bic	r3, r3, #2097152	; 0x200000
80000074:	e50b3008 	str	r3, [fp, #-8]
	PUT32(GPIO1_BASE+GPIO_OE, ra);
80000078:	e30c3134 	movw	r3, #49460	; 0xc134
8000007c:	e3443804 	movt	r3, #18436	; 0x4804
80000080:	e51b2008 	ldr	r2, [fp, #-8]
80000084:	e5832000 	str	r2, [r3]

	PUT32(GPIO1_BASE+GPIO_SETDATAOUT, 1<<21);
80000088:	e30c3194 	movw	r3, #49556	; 0xc194
8000008c:	e3443804 	movt	r3, #18436	; 0x4804
80000090:	e3a02602 	mov	r2, #2097152	; 0x200000
80000094:	e5832000 	str	r2, [r3]
}
80000098:	e320f000 	nop	{0}
8000009c:	e28bd000 	add	sp, fp, #0
800000a0:	e49db004 	pop	{fp}		; (ldr fp, [sp], #4)
800000a4:	e12fff1e 	bx	lr

800000a8 <CM_SetClk>:
#include "clock.h"

void CM_SetClk(CLK_MODULE_t module, CM_PER_REG reg, unsigned int value)
{
800000a8:	e52db004 	push	{fp}		; (str fp, [sp, #-4]!)
800000ac:	e28db000 	add	fp, sp, #0
800000b0:	e24dd014 	sub	sp, sp, #20
800000b4:	e50b0008 	str	r0, [fp, #-8]
800000b8:	e1a03001 	mov	r3, r1
800000bc:	e50b2010 	str	r2, [fp, #-16]
800000c0:	e14b30ba 	strh	r3, [fp, #-10]

	PUT32(module+reg, value);
800000c4:	e15b20ba 	ldrh	r2, [fp, #-10]
800000c8:	e51b3008 	ldr	r3, [fp, #-8]
800000cc:	e0823003 	add	r3, r2, r3
800000d0:	e1a02003 	mov	r2, r3
800000d4:	e51b3010 	ldr	r3, [fp, #-16]
800000d8:	e5823000 	str	r3, [r2]
}
800000dc:	e320f000 	nop	{0}
800000e0:	e28bd000 	add	sp, fp, #0
800000e4:	e49db004 	pop	{fp}		; (ldr fp, [sp], #4)
800000e8:	e12fff1e 	bx	lr

800000ec <CM_GetClk>:

unsigned int CM_GetClk(CLK_MODULE_t module, CM_PER_REG reg)
{
800000ec:	e52db004 	push	{fp}		; (str fp, [sp, #-4]!)
800000f0:	e28db000 	add	fp, sp, #0
800000f4:	e24dd00c 	sub	sp, sp, #12
800000f8:	e50b0008 	str	r0, [fp, #-8]
800000fc:	e1a03001 	mov	r3, r1
80000100:	e14b30ba 	strh	r3, [fp, #-10]
	return GET32(module+reg);
80000104:	e15b20ba 	ldrh	r2, [fp, #-10]
80000108:	e51b3008 	ldr	r3, [fp, #-8]
8000010c:	e0823003 	add	r3, r2, r3
80000110:	e5933000 	ldr	r3, [r3]
}
80000114:	e1a00003 	mov	r0, r3
80000118:	e28bd000 	add	sp, fp, #0
8000011c:	e49db004 	pop	{fp}		; (ldr fp, [sp], #4)
80000120:	e12fff1e 	bx	lr

80000124 <Init_UART0_Clk>:

void Init_UART0_Clk()
{
80000124:	e92d4800 	push	{fp, lr}
80000128:	e28db004 	add	fp, sp, #4
8000012c:	e24dd008 	sub	sp, sp, #8

	unsigned int temp;
	 // software-forced wake-up transition on the "always on clock domain", TRM Table 8-92
	temp = CM_GetClk(CM_WKUP, CM_WKUP_CLKSTCTRL);		//This register enables the domain power state transition. It controls the SW supervised clock domain state transition between ON-ACTIVE and ON-INACTIVE states. It also hold one status bit per clock input of the domain
80000130:	e3a01000 	mov	r1, #0
80000134:	e3a00b01 	mov	r0, #1024	; 0x400
80000138:	e34404e0 	movt	r0, #17632	; 0x44e0
8000013c:	ebffffea 	bl	800000ec <CM_GetClk>
80000140:	e50b0008 	str	r0, [fp, #-8]
	temp &= ~(0x3);
80000144:	e51b3008 	ldr	r3, [fp, #-8]
80000148:	e3c33003 	bic	r3, r3, #3
8000014c:	e50b3008 	str	r3, [fp, #-8]
	temp |= (0x2);
80000150:	e51b3008 	ldr	r3, [fp, #-8]
80000154:	e3833002 	orr	r3, r3, #2
80000158:	e50b3008 	str	r3, [fp, #-8]
	CM_SetClk(CM_WKUP, CM_WKUP_CLKSTCTRL, temp);		//0x2=SW_WKUP
8000015c:	e51b2008 	ldr	r2, [fp, #-8]
80000160:	e3a01000 	mov	r1, #0
80000164:	e3a00b01 	mov	r0, #1024	; 0x400
80000168:	e34404e0 	movt	r0, #17632	; 0x44e0
8000016c:	ebffffcd 	bl	800000a8 <CM_SetClk>

	// software-forced wake up transition on the L4 high speed domain
	temp = CM_GetClk(CM_PER, CM_PER_L4HS_CLKSTCTRL);	//This register enables the domain power state transition. It controls the SW supervised clock domain state transition between ON-ACTIVE and ON-INACTIVE states. It also hold one status bit per clock input of the domain
80000170:	e3a01f47 	mov	r1, #284	; 0x11c
80000174:	e3a00000 	mov	r0, #0
80000178:	e34404e0 	movt	r0, #17632	; 0x44e0
8000017c:	ebffffda 	bl	800000ec <CM_GetClk>
80000180:	e50b0008 	str	r0, [fp, #-8]
	temp &= ~(0x3);
80000184:	e51b3008 	ldr	r3, [fp, #-8]
80000188:	e3c33003 	bic	r3, r3, #3
8000018c:	e50b3008 	str	r3, [fp, #-8]
	temp |= (0x2);
80000190:	e51b3008 	ldr	r3, [fp, #-8]
80000194:	e3833002 	orr	r3, r3, #2
80000198:	e50b3008 	str	r3, [fp, #-8]
	CM_SetClk(CM_PER, CM_PER_L4HS_CLKSTCTRL, temp);		//0x2=SW_WKUP
8000019c:	e51b2008 	ldr	r2, [fp, #-8]
800001a0:	e3a01f47 	mov	r1, #284	; 0x11c
800001a4:	e3a00000 	mov	r0, #0
800001a8:	e34404e0 	movt	r0, #17632	; 0x44e0
800001ac:	ebffffbd 	bl	800000a8 <CM_SetClk>

	// Module is explicitly enabled,    TRM Table 8-137
	temp = CM_GetClk(CM_WKUP, CM_WKUP_UART0_CLKCTRL);		//This register enables the domain power state transition. It controls the SW supervised clock domain state transition between ON-ACTIVE and ON-INACTIVE states. It also hold one status bit per clock input of the domain
800001b0:	e3a010b4 	mov	r1, #180	; 0xb4
800001b4:	e3a00b01 	mov	r0, #1024	; 0x400
800001b8:	e34404e0 	movt	r0, #17632	; 0x44e0
800001bc:	ebffffca 	bl	800000ec <CM_GetClk>
800001c0:	e50b0008 	str	r0, [fp, #-8]
	temp &= ~(0x3);
800001c4:	e51b3008 	ldr	r3, [fp, #-8]
800001c8:	e3c33003 	bic	r3, r3, #3
800001cc:	e50b3008 	str	r3, [fp, #-8]
	temp |= (0x2);
800001d0:	e51b3008 	ldr	r3, [fp, #-8]
800001d4:	e3833002 	orr	r3, r3, #2
800001d8:	e50b3008 	str	r3, [fp, #-8]
	CM_SetClk(CM_WKUP, CM_WKUP_UART0_CLKCTRL, temp);		//0x2=SW_WKUP
800001dc:	e51b2008 	ldr	r2, [fp, #-8]
800001e0:	e3a010b4 	mov	r1, #180	; 0xb4
800001e4:	e3a00b01 	mov	r0, #1024	; 0x400
800001e8:	e34404e0 	movt	r0, #17632	; 0x44e0
800001ec:	ebffffad 	bl	800000a8 <CM_SetClk>
	temp &= ~(0x3);
	temp |= (0x2);
	CM_SetClk(CM_PER, CM_PER_UART1_CLKCTRL, temp);		//0x2=SW_WKUP
*/   

}
800001f0:	e320f000 	nop	{0}
800001f4:	e24bd004 	sub	sp, fp, #4
800001f8:	e8bd8800 	pop	{fp, pc}

800001fc <CM_setCtrlModule>:
#include "control_module.h"

void CM_setCtrlModule(CONTROL_MODULE_REG_t module, unsigned int value)
{
800001fc:	e52db004 	push	{fp}		; (str fp, [sp, #-4]!)
80000200:	e28db000 	add	fp, sp, #0
80000204:	e24dd00c 	sub	sp, sp, #12
80000208:	e1a03000 	mov	r3, r0
8000020c:	e50b100c 	str	r1, [fp, #-12]
80000210:	e14b30b6 	strh	r3, [fp, #-6]

	PUT32(CONTROL_MODULE_REGISTER_BASE + module, value);
80000214:	e15b30b6 	ldrh	r3, [fp, #-6]
80000218:	e2833311 	add	r3, r3, #1140850688	; 0x44000000
8000021c:	e28338e1 	add	r3, r3, #14745600	; 0xe10000
80000220:	e1a02003 	mov	r2, r3
80000224:	e51b300c 	ldr	r3, [fp, #-12]
80000228:	e5823000 	str	r3, [r2]
}
8000022c:	e320f000 	nop	{0}
80000230:	e28bd000 	add	sp, fp, #0
80000234:	e49db004 	pop	{fp}		; (ldr fp, [sp], #4)
80000238:	e12fff1e 	bx	lr

8000023c <CM_getCtrlModule>:

unsigned int CM_getCtrlModule(CONTROL_MODULE_REG_t module)
{
8000023c:	e52db004 	push	{fp}		; (str fp, [sp, #-4]!)
80000240:	e28db000 	add	fp, sp, #0
80000244:	e24dd00c 	sub	sp, sp, #12
80000248:	e1a03000 	mov	r3, r0
8000024c:	e14b30b6 	strh	r3, [fp, #-6]
	return GET32(CONTROL_MODULE_REGISTER_BASE + module);
80000250:	e15b30b6 	ldrh	r3, [fp, #-6]
80000254:	e2833311 	add	r3, r3, #1140850688	; 0x44000000
80000258:	e28338e1 	add	r3, r3, #14745600	; 0xe10000
8000025c:	e5933000 	ldr	r3, [r3]
}
80000260:	e1a00003 	mov	r0, r3
80000264:	e28bd000 	add	sp, fp, #0
80000268:	e49db004 	pop	{fp}		; (ldr fp, [sp], #4)
8000026c:	e12fff1e 	bx	lr

80000270 <PAD_setMode>:

void PAD_setMode(CONTROL_MODULE_REG_t module, unsigned int mode)
{
80000270:	e92d4800 	push	{fp, lr}
80000274:	e28db004 	add	fp, sp, #4
80000278:	e24dd010 	sub	sp, sp, #16
8000027c:	e1a03000 	mov	r3, r0
80000280:	e50b1014 	str	r1, [fp, #-20]	; 0xffffffec
80000284:	e14b30be 	strh	r3, [fp, #-14]
	unsigned int temp = CM_getCtrlModule(0);
80000288:	e3a00000 	mov	r0, #0
8000028c:	ebffffea 	bl	8000023c <CM_getCtrlModule>
80000290:	e50b0008 	str	r0, [fp, #-8]
	temp &= ~(0b111);    // turn down MUXMODE
80000294:	e51b3008 	ldr	r3, [fp, #-8]
80000298:	e3c33007 	bic	r3, r3, #7
8000029c:	e50b3008 	str	r3, [fp, #-8]
	temp |= mode;        // set new MUXMODE
800002a0:	e51b2008 	ldr	r2, [fp, #-8]
800002a4:	e51b3014 	ldr	r3, [fp, #-20]	; 0xffffffec
800002a8:	e1823003 	orr	r3, r2, r3
800002ac:	e50b3008 	str	r3, [fp, #-8]
	CM_setCtrlModule(module, temp);
800002b0:	e15b30be 	ldrh	r3, [fp, #-14]
800002b4:	e51b1008 	ldr	r1, [fp, #-8]
800002b8:	e1a00003 	mov	r0, r3
800002bc:	ebffffce 	bl	800001fc <CM_setCtrlModule>


}
800002c0:	e320f000 	nop	{0}
800002c4:	e24bd004 	sub	sp, fp, #4
800002c8:	e8bd8800 	pop	{fp, pc}

800002cc <Uart0_Mux>:




void Uart0_Mux()
{
800002cc:	e92d4800 	push	{fp, lr}
800002d0:	e28db004 	add	fp, sp, #4

	CM_setCtrlModule(CM_conf_uart0_rxd, (1 << 4) | (1 << 5));		//Rx muxing
800002d4:	e3a01030 	mov	r1, #48	; 0x30
800002d8:	e3a00e97 	mov	r0, #2416	; 0x970
800002dc:	ebffffc6 	bl	800001fc <CM_setCtrlModule>
	CM_setCtrlModule(CM_conf_uart0_txd,0);					//tx muxing
800002e0:	e3a01000 	mov	r1, #0
800002e4:	e3000974 	movw	r0, #2420	; 0x974
800002e8:	ebffffc3 	bl	800001fc <CM_setCtrlModule>
/*
	PAD_setMode(CM_conf_uart0_txd, 0);
	PAD_setMode(CM_conf_uart0_rxd, 0);
*/
}
800002ec:	e320f000 	nop	{0}
800002f0:	e8bd8800 	pop	{fp, pc}

800002f4 <__aeabi_idivmod>:
typedef struct { int quot; int rem; } idiv_return;

idiv_return __aeabi_idivmod(int num, int denom) {
800002f4:	e52db004 	push	{fp}		; (str fp, [sp, #-4]!)
800002f8:	e28db000 	add	fp, sp, #0
800002fc:	e24dd024 	sub	sp, sp, #36	; 0x24
80000300:	e50b0018 	str	r0, [fp, #-24]	; 0xffffffe8
80000304:	e50b101c 	str	r1, [fp, #-28]	; 0xffffffe4
80000308:	e50b2020 	str	r2, [fp, #-32]	; 0xffffffe0
    idiv_return r;
    int q = 0;
8000030c:	e3a03000 	mov	r3, #0
80000310:	e50b3008 	str	r3, [fp, #-8]

    while (num >= denom) {
80000314:	ea000006 	b	80000334 <__aeabi_idivmod+0x40>
        num -= denom;
80000318:	e51b201c 	ldr	r2, [fp, #-28]	; 0xffffffe4
8000031c:	e51b3020 	ldr	r3, [fp, #-32]	; 0xffffffe0
80000320:	e0423003 	sub	r3, r2, r3
80000324:	e50b301c 	str	r3, [fp, #-28]	; 0xffffffe4
        q++;
80000328:	e51b3008 	ldr	r3, [fp, #-8]
8000032c:	e2833001 	add	r3, r3, #1
80000330:	e50b3008 	str	r3, [fp, #-8]
    while (num >= denom) {
80000334:	e51b201c 	ldr	r2, [fp, #-28]	; 0xffffffe4
80000338:	e51b3020 	ldr	r3, [fp, #-32]	; 0xffffffe0
8000033c:	e1520003 	cmp	r2, r3
80000340:	aafffff4 	bge	80000318 <__aeabi_idivmod+0x24>
    }

    r.quot = q;
80000344:	e51b3008 	ldr	r3, [fp, #-8]
80000348:	e50b3010 	str	r3, [fp, #-16]
    r.rem = num;
8000034c:	e51b301c 	ldr	r3, [fp, #-28]	; 0xffffffe4
80000350:	e50b300c 	str	r3, [fp, #-12]

    return r;
80000354:	e51b3018 	ldr	r3, [fp, #-24]	; 0xffffffe8
80000358:	e1a02003 	mov	r2, r3
8000035c:	e24b3010 	sub	r3, fp, #16
80000360:	e8930003 	ldm	r3, {r0, r1}
80000364:	e8820003 	stm	r2, {r0, r1}
}
80000368:	e51b0018 	ldr	r0, [fp, #-24]	; 0xffffffe8
8000036c:	e28bd000 	add	sp, fp, #0
80000370:	e49db004 	pop	{fp}		; (ldr fp, [sp], #4)
80000374:	e12fff1e 	bx	lr

80000378 <__aeabi_idiv>:

int __aeabi_idiv(int num, int denom) {
80000378:	e52db004 	push	{fp}		; (str fp, [sp, #-4]!)
8000037c:	e28db000 	add	fp, sp, #0
80000380:	e24dd014 	sub	sp, sp, #20
80000384:	e50b0010 	str	r0, [fp, #-16]
80000388:	e50b1014 	str	r1, [fp, #-20]	; 0xffffffec
    int q = 0;
8000038c:	e3a03000 	mov	r3, #0
80000390:	e50b3008 	str	r3, [fp, #-8]

    while (num >= denom) {
80000394:	ea000006 	b	800003b4 <__aeabi_idiv+0x3c>
        num -= denom;
80000398:	e51b2010 	ldr	r2, [fp, #-16]
8000039c:	e51b3014 	ldr	r3, [fp, #-20]	; 0xffffffec
800003a0:	e0423003 	sub	r3, r2, r3
800003a4:	e50b3010 	str	r3, [fp, #-16]
        q++;
800003a8:	e51b3008 	ldr	r3, [fp, #-8]
800003ac:	e2833001 	add	r3, r3, #1
800003b0:	e50b3008 	str	r3, [fp, #-8]
    while (num >= denom) {
800003b4:	e51b2010 	ldr	r2, [fp, #-16]
800003b8:	e51b3014 	ldr	r3, [fp, #-20]	; 0xffffffec
800003bc:	e1520003 	cmp	r2, r3
800003c0:	aafffff4 	bge	80000398 <__aeabi_idiv+0x20>
    }

   return q;
800003c4:	e51b3008 	ldr	r3, [fp, #-8]
}
800003c8:	e1a00003 	mov	r0, r3
800003cc:	e28bd000 	add	sp, fp, #0
800003d0:	e49db004 	pop	{fp}		; (ldr fp, [sp], #4)
800003d4:	e12fff1e 	bx	lr

800003d8 <uart_putf>:
#include "sys_log.h"

extern unsigned short int value;

void uart_putf(const char *fmt, ...) 
{
800003d8:	e92d000f 	push	{r0, r1, r2, r3}
800003dc:	e92d4800 	push	{fp, lr}
800003e0:	e28db004 	add	fp, sp, #4
800003e4:	e24dd008 	sub	sp, sp, #8
	out_func_t fn = UART_putC;
800003e8:	e3003780 	movw	r3, #1920	; 0x780
800003ec:	e3483000 	movt	r3, #32768	; 0x8000
800003f0:	e50b3008 	str	r3, [fp, #-8]
	va_list ap;
	va_start(ap, fmt);    
800003f4:	e28b3008 	add	r3, fp, #8
800003f8:	e50b300c 	str	r3, [fp, #-12]
	_vprintk(fn, fmt, ap);                               
800003fc:	e51b200c 	ldr	r2, [fp, #-12]
80000400:	e59b1004 	ldr	r1, [fp, #4]
80000404:	e51b0008 	ldr	r0, [fp, #-8]
80000408:	eb0001dd 	bl	80000b84 <_vprintk>
	va_end(ap); 
}
8000040c:	e320f000 	nop	{0}
80000410:	e24bd004 	sub	sp, fp, #4
80000414:	e8bd4800 	pop	{fp, lr}
80000418:	e28dd010 	add	sp, sp, #16
8000041c:	e12fff1e 	bx	lr

80000420 <_main>:

void _main(void)
{
80000420:	e92d4800 	push	{fp, lr}
80000424:	e28db004 	add	fp, sp, #4
	LED_init();
80000428:	ebffff03 	bl	8000003c <LED_init>
	UART_init(115200,STOP1,PARITY_NONE,FLOW_OFF);
8000042c:	e3a03000 	mov	r3, #0
80000430:	e3a02000 	mov	r2, #0
80000434:	e3a01000 	mov	r1, #0
80000438:	e3a00cc2 	mov	r0, #49664	; 0xc200
8000043c:	e3400001 	movt	r0, #1
80000440:	eb0000ba 	bl	80000730 <UART_init>
	UART_putC('\n');
80000444:	e3a0000a 	mov	r0, #10
80000448:	eb0000cc 	bl	80000780 <UART_putC>
	UART_putString("Uart init done : ");
8000044c:	e3010504 	movw	r0, #5380	; 0x1504
80000450:	e3480000 	movt	r0, #32768	; 0x8000
80000454:	eb0000f4 	bl	8000082c <UART_putString>
	UART_putString("Hi shashi\n");
80000458:	e3010518 	movw	r0, #5400	; 0x1518
8000045c:	e3480000 	movt	r0, #32768	; 0x8000
80000460:	eb0000f1 	bl	8000082c <UART_putString>
	UART_putString("Uart init done : ");
80000464:	e3010504 	movw	r0, #5380	; 0x1504
80000468:	e3480000 	movt	r0, #32768	; 0x8000
8000046c:	eb0000ee 	bl	8000082c <UART_putString>
	UART_putString("Hi dabba\n\n");
80000470:	e3010524 	movw	r0, #5412	; 0x1524
80000474:	e3480000 	movt	r0, #32768	; 0x8000
80000478:	eb0000eb 	bl	8000082c <UART_putString>
	UART_putString("Uart init done : ");
8000047c:	e3010504 	movw	r0, #5380	; 0x1504
80000480:	e3480000 	movt	r0, #32768	; 0x8000
80000484:	eb0000e8 	bl	8000082c <UART_putString>
	UART_putString("Hi dabba\n\n");
80000488:	e3010524 	movw	r0, #5412	; 0x1524
8000048c:	e3480000 	movt	r0, #32768	; 0x8000
80000490:	eb0000e5 	bl	8000082c <UART_putString>
	uart_putf("LCR value = %x\n", value);
80000494:	e3013556 	movw	r3, #5462	; 0x1556
80000498:	e3483000 	movt	r3, #32768	; 0x8000
8000049c:	e1d330b0 	ldrh	r3, [r3]
800004a0:	e1a01003 	mov	r1, r3
800004a4:	e3010530 	movw	r0, #5424	; 0x1530
800004a8:	e3480000 	movt	r0, #32768	; 0x8000
800004ac:	ebffffc9 	bl	800003d8 <uart_putf>
	while (1) {
		UART_putString("Enter a character : ");
800004b0:	e3010540 	movw	r0, #5440	; 0x1540
800004b4:	e3480000 	movt	r0, #32768	; 0x8000
800004b8:	eb0000db 	bl	8000082c <UART_putString>
		UART_putC(UART_getC());
800004bc:	eb0000c8 	bl	800007e4 <UART_getC>
800004c0:	e1a03000 	mov	r3, r0
800004c4:	e1a00003 	mov	r0, r3
800004c8:	eb0000ac 	bl	80000780 <UART_putC>
		UART_putC('\n');
800004cc:	e3a0000a 	mov	r0, #10
800004d0:	eb0000aa 	bl	80000780 <UART_putC>
		UART_putString("Enter a character : ");
800004d4:	eafffff5 	b	800004b0 <_main+0x90>

800004d8 <GPIO_init>:
#include "control_module.h"
#include "string.h"

unsigned short int value = 0;
void GPIO_init()
{
800004d8:	e92d4800 	push	{fp, lr}
800004dc:	e28db004 	add	fp, sp, #4
800004e0:	e24dd008 	sub	sp, sp, #8
	unsigned int setting = (1<<18) | (0x2<<0);
800004e4:	e3a03002 	mov	r3, #2
800004e8:	e3403004 	movt	r3, #4
800004ec:	e50b3008 	str	r3, [fp, #-8]
	CM_SetClk(CM_PER, CM_PER_GPIO1_CLKCTRL, setting);
800004f0:	e51b2008 	ldr	r2, [fp, #-8]
800004f4:	e3a010ac 	mov	r1, #172	; 0xac
800004f8:	e3a00000 	mov	r0, #0
800004fc:	e34404e0 	movt	r0, #17632	; 0x44e0
80000500:	ebfffee8 	bl	800000a8 <CM_SetClk>
	while((CM_GetClk(CM_PER, CM_PER_GPIO1_CLKCTRL) & (0x3<<16)) != 0);
80000504:	e320f000 	nop	{0}
80000508:	e3a010ac 	mov	r1, #172	; 0xac
8000050c:	e3a00000 	mov	r0, #0
80000510:	e34404e0 	movt	r0, #17632	; 0x44e0
80000514:	ebfffef4 	bl	800000ec <CM_GetClk>
80000518:	e1a03000 	mov	r3, r0
8000051c:	e2033803 	and	r3, r3, #196608	; 0x30000
80000520:	e3530000 	cmp	r3, #0
80000524:	1afffff7 	bne	80000508 <GPIO_init+0x30>

}
80000528:	e320f000 	nop	{0}
8000052c:	e24bd004 	sub	sp, fp, #4
80000530:	e8bd8800 	pop	{fp, pc}

80000534 <Uart0_Reset>:
/* 
 * UART procedure described in 19.4 UART/IrDA/CIR Basic Programming Model
 */

void Uart0_Reset(unsigned int baudrate) 
{
80000534:	e52db004 	push	{fp}		; (str fp, [sp, #-4]!)
80000538:	e28db000 	add	fp, sp, #0
8000053c:	e24dd01c 	sub	sp, sp, #28
80000540:	e50b0018 	str	r0, [fp, #-24]	; 0xffffffe8
	/** UART reset --> setting SYSC[1] */
	unsigned int temp = GET32(UART0+SYSC);
80000544:	e3093054 	movw	r3, #36948	; 0x9054
80000548:	e34434e0 	movt	r3, #17632	; 0x44e0
8000054c:	e5933000 	ldr	r3, [r3]
80000550:	e50b3008 	str	r3, [fp, #-8]
	temp |= 0x2;
80000554:	e51b3008 	ldr	r3, [fp, #-8]
80000558:	e3833002 	orr	r3, r3, #2
8000055c:	e50b3008 	str	r3, [fp, #-8]
	PUT32(UART0+SYSC, temp);		
80000560:	e3093054 	movw	r3, #36948	; 0x9054
80000564:	e34434e0 	movt	r3, #17632	; 0x44e0
80000568:	e51b2008 	ldr	r2, [fp, #-8]
8000056c:	e5832000 	str	r2, [r3]
	while (((GET32(UART0+SYSS)) & 0x1) == 0);		/* Wait till reset is complete */
80000570:	e320f000 	nop	{0}
80000574:	e3093058 	movw	r3, #36952	; 0x9058
80000578:	e34434e0 	movt	r3, #17632	; 0x44e0
8000057c:	e5933000 	ldr	r3, [r3]
80000580:	e2033001 	and	r3, r3, #1
80000584:	e3530000 	cmp	r3, #0
80000588:	0afffff9 	beq	80000574 <Uart0_Reset+0x40>
	temp = GET8(UART0+SYSC);
8000058c:	e3093054 	movw	r3, #36948	; 0x9054
80000590:	e34434e0 	movt	r3, #17632	; 0x44e0
80000594:	e5d33000 	ldrb	r3, [r3]
80000598:	e6ef3073 	uxtb	r3, r3
8000059c:	e50b3008 	str	r3, [fp, #-8]
	temp |= (0x1 << 0x3);
800005a0:	e51b3008 	ldr	r3, [fp, #-8]
800005a4:	e3833008 	orr	r3, r3, #8
800005a8:	e50b3008 	str	r3, [fp, #-8]
	PUT8(UART0+SYSC, temp);					/* No idle/Wakeup capability is enabled */
800005ac:	e3093054 	movw	r3, #36948	; 0x9054
800005b0:	e34434e0 	movt	r3, #17632	; 0x44e0
800005b4:	e51b2008 	ldr	r2, [fp, #-8]
800005b8:	e6ef2072 	uxtb	r2, r2
800005bc:	e5c32000 	strb	r2, [r3]

	/* UART init*/
	/* Check below condition is necessary ??*/
	while(!(GET32(UART0+LSR) & 0x40));    		// Transmitter hold (TX	FIFO) and shift	registers are empty
800005c0:	e320f000 	nop	{0}
800005c4:	e3093014 	movw	r3, #36884	; 0x9014
800005c8:	e34434e0 	movt	r3, #17632	; 0x44e0
800005cc:	e5933000 	ldr	r3, [r3]
800005d0:	e2033040 	and	r3, r3, #64	; 0x40
800005d4:	e3530000 	cmp	r3, #0
800005d8:	0afffff9 	beq	800005c4 <Uart0_Reset+0x90>

	/* UART Interrupt Enable Register */
	PUT8(UART0+IER, 0);					//Disable uart interrupts
800005dc:	e3093004 	movw	r3, #36868	; 0x9004
800005e0:	e34434e0 	movt	r3, #17632	; 0x44e0
800005e4:	e3a02000 	mov	r2, #0
800005e8:	e5c32000 	strb	r2, [r3]
	PUT8(UART0+MDR1,0x7);        				/* Disable modeselect (default) 19.5.1.19*/
800005ec:	e3093020 	movw	r3, #36896	; 0x9020
800005f0:	e34434e0 	movt	r3, #17632	; 0x44e0
800005f4:	e3a02007 	mov	r2, #7
800005f8:	e5c32000 	strb	r2, [r3]
	PUT8(UART0+LCR,~(0x7C));    // divisor latch enable, access DLL DHL, set uart as 8bit
800005fc:	e309300c 	movw	r3, #36876	; 0x900c
80000600:	e34434e0 	movt	r3, #17632	; 0x44e0
80000604:	e3e0207c 	mvn	r2, #124	; 0x7c
80000608:	e5c32000 	strb	r2, [r3]

	value = GET8(UART0+LCR);
8000060c:	e309300c 	movw	r3, #36876	; 0x900c
80000610:	e34434e0 	movt	r3, #17632	; 0x44e0
80000614:	e5d33000 	ldrb	r3, [r3]
80000618:	e6ef3073 	uxtb	r3, r3
8000061c:	e6ff2073 	uxth	r2, r3
80000620:	e3013556 	movw	r3, #5462	; 0x1556
80000624:	e3483000 	movt	r3, #32768	; 0x8000
80000628:	e1c320b0 	strh	r2, [r3]
	PUT8(UART0+RHR,0);          // DLL = 0
8000062c:	e3a03a09 	mov	r3, #36864	; 0x9000
80000630:	e34434e0 	movt	r3, #17632	; 0x44e0
80000634:	e3a02000 	mov	r2, #0
80000638:	e5c32000 	strb	r2, [r3]
	PUT8(UART0+IER,0);          // DHL = 0
8000063c:	e3093004 	movw	r3, #36868	; 0x9004
80000640:	e34434e0 	movt	r3, #17632	; 0x44e0
80000644:	e3a02000 	mov	r2, #0
80000648:	e5c32000 	strb	r2, [r3]
	PUT8(UART0+LCR,0x3);        // set uart as 8bit
8000064c:	e309300c 	movw	r3, #36876	; 0x900c
80000650:	e34434e0 	movt	r3, #17632	; 0x44e0
80000654:	e3a02003 	mov	r2, #3
80000658:	e5c32000 	strb	r2, [r3]
	PUT8(UART0+MCR,0x3);        // force /rts & /drt to active (low) (?!)
8000065c:	e3093010 	movw	r3, #36880	; 0x9010
80000660:	e34434e0 	movt	r3, #17632	; 0x44e0
80000664:	e3a02003 	mov	r2, #3
80000668:	e5c32000 	strb	r2, [r3]
	PUT8(UART0+FCR,0x7);        // clear rx&tx FIFOs, and enables them (each 64 bytes deep)
8000066c:	e3093008 	movw	r3, #36872	; 0x9008
80000670:	e34434e0 	movt	r3, #17632	; 0x44e0
80000674:	e3a02007 	mov	r2, #7
80000678:	e5c32000 	strb	r2, [r3]
	  1 . UART 16x mode: Divisor value = Operating frequency/(16x baud rate) , Operating frequency = 48 MHz	 
	  2 . For 115200/16x speed DLL = 0x00, DLH = 0x1A
	  3 . The divisor latches high register(DLH) with the DLL register stores the 14-bit divisor for generation
	      of the baud clock in the baud rate generator
	  */
	float div = 48000000.0/(16.0*(float)baudrate);
8000067c:	e51b3018 	ldr	r3, [fp, #-24]	; 0xffffffe8
80000680:	ee073a90 	vmov	s15, r3
80000684:	eef87a67 	vcvt.f32.u32	s15, s15
80000688:	eef70ae7 	vcvt.f64.f32	d16, s15
8000068c:	eef31b00 	vmov.f64	d17, #48	; 0x41800000  16.0
80000690:	ee601ba1 	vmul.f64	d17, d16, d17
80000694:	eddf2b23 	vldr	d18, [pc, #140]	; 80000728 <Uart0_Reset+0x1f4>
80000698:	eec20ba1 	vdiv.f64	d16, d18, d17
8000069c:	eef77be0 	vcvt.f32.f64	s15, d16
800006a0:	ed4b7a03 	vstr	s15, [fp, #-12]
	unsigned int intdiv = (unsigned int) div; 
800006a4:	ed5b7a03 	vldr	s15, [fp, #-12]
800006a8:	eefc7ae7 	vcvt.u32.f32	s15, s15
800006ac:	ee173a90 	vmov	r3, s15
800006b0:	e50b3010 	str	r3, [fp, #-16]
	PUT8(UART0+LCR,~(0x7C));    		   /* divisor latch enable, access DLL DHL, set uart as 8bit*/
800006b4:	e309300c 	movw	r3, #36876	; 0x900c
800006b8:	e34434e0 	movt	r3, #17632	; 0x44e0
800006bc:	e3e0207c 	mvn	r2, #124	; 0x7c
800006c0:	e5c32000 	strb	r2, [r3]
	PUT8(UART0+RHR,intdiv&0xFF);          	   /* DLL = 26 */
800006c4:	e3a03a09 	mov	r3, #36864	; 0x9000
800006c8:	e34434e0 	movt	r3, #17632	; 0x44e0
800006cc:	e51b2010 	ldr	r2, [fp, #-16]
800006d0:	e6ef2072 	uxtb	r2, r2
800006d4:	e5c32000 	strb	r2, [r3]
	PUT8(UART0+IER,(intdiv>>8)&0x3F);          /* DHL = 0  IER now DLH*/
800006d8:	e3093004 	movw	r3, #36868	; 0x9004
800006dc:	e34434e0 	movt	r3, #17632	; 0x44e0
800006e0:	e51b2010 	ldr	r2, [fp, #-16]
800006e4:	e1a02422 	lsr	r2, r2, #8
800006e8:	e6ef2072 	uxtb	r2, r2
800006ec:	e202203f 	and	r2, r2, #63	; 0x3f
800006f0:	e6ef2072 	uxtb	r2, r2
800006f4:	e5c32000 	strb	r2, [r3]

	PUT8(UART0+LCR,0x3);        // set uart as 8 bit
800006f8:	e309300c 	movw	r3, #36876	; 0x900c
800006fc:	e34434e0 	movt	r3, #17632	; 0x44e0
80000700:	e3a02003 	mov	r2, #3
80000704:	e5c32000 	strb	r2, [r3]
	PUT8(UART0+MDR1,0);          // uart 16x oversampling
80000708:	e3093020 	movw	r3, #36896	; 0x9020
8000070c:	e34434e0 	movt	r3, #17632	; 0x44e0
80000710:	e3a02000 	mov	r2, #0
80000714:	e5c32000 	strb	r2, [r3]

}
80000718:	e320f000 	nop	{0}
8000071c:	e28bd000 	add	sp, fp, #0
80000720:	e49db004 	pop	{fp}		; (ldr fp, [sp], #4)
80000724:	e12fff1e 	bx	lr
80000728:	00000000 	andeq	r0, r0, r0
8000072c:	4186e360 	orrmi	lr, r6, r0, ror #6

80000730 <UART_init>:

void UART_init(unsigned int baudrate, STOP_BIT_t stopBit, PARITY_BIT_t parity, FLOW_t flowControl) 
{
80000730:	e92d4800 	push	{fp, lr}
80000734:	e28db004 	add	fp, sp, #4
80000738:	e24dd008 	sub	sp, sp, #8
8000073c:	e50b0008 	str	r0, [fp, #-8]
80000740:	e1a00001 	mov	r0, r1
80000744:	e1a01002 	mov	r1, r2
80000748:	e1a02003 	mov	r2, r3
8000074c:	e1a03000 	mov	r3, r0
80000750:	e54b3009 	strb	r3, [fp, #-9]
80000754:	e1a03001 	mov	r3, r1
80000758:	e54b300a 	strb	r3, [fp, #-10]
8000075c:	e1a03002 	mov	r3, r2
80000760:	e54b300b 	strb	r3, [fp, #-11]

	//	GPIO_init();

	//UART mux config
	Uart0_Mux();
80000764:	ebfffed8 	bl	800002cc <Uart0_Mux>

	//Init clock and muxing of pins
	Init_UART0_Clk();
80000768:	ebfffe6d 	bl	80000124 <Init_UART0_Clk>

	//Uart soft reset
	Uart0_Reset(baudrate);
8000076c:	e51b0008 	ldr	r0, [fp, #-8]
80000770:	ebffff6f 	bl	80000534 <Uart0_Reset>
}
80000774:	e320f000 	nop	{0}
80000778:	e24bd004 	sub	sp, fp, #4
8000077c:	e8bd8800 	pop	{fp, pc}

80000780 <UART_putC>:

void UART_putC( char c)
{
80000780:	e92d4800 	push	{fp, lr}
80000784:	e28db004 	add	fp, sp, #4
80000788:	e24dd008 	sub	sp, sp, #8
8000078c:	e1a03000 	mov	r3, r0
80000790:	e54b3005 	strb	r3, [fp, #-5]

	if (c == '\n')
80000794:	e55b3005 	ldrb	r3, [fp, #-5]
80000798:	e353000a 	cmp	r3, #10
8000079c:	1a000001 	bne	800007a8 <UART_putC+0x28>
		UART_putC('\r');
800007a0:	e3a0000d 	mov	r0, #13
800007a4:	ebfffff5 	bl	80000780 <UART_putC>

	while((GET8(UART0+LSR)&0x20) != 0x20)	/* wait until txfifo is empty (check exact bit is set) */ 
800007a8:	e320f000 	nop	{0}
800007ac:	e3093014 	movw	r3, #36884	; 0x9014
800007b0:	e34434e0 	movt	r3, #17632	; 0x44e0
800007b4:	e5d33000 	ldrb	r3, [r3]
800007b8:	e6ef3073 	uxtb	r3, r3
800007bc:	e2033020 	and	r3, r3, #32
800007c0:	e3530020 	cmp	r3, #32
800007c4:	1afffff8 	bne	800007ac <UART_putC+0x2c>
		;

	PUT8(UART0 +RHR,c);
800007c8:	e3a03a09 	mov	r3, #36864	; 0x9000
800007cc:	e34434e0 	movt	r3, #17632	; 0x44e0
800007d0:	e55b2005 	ldrb	r2, [fp, #-5]
800007d4:	e5c32000 	strb	r2, [r3]
}
800007d8:	e320f000 	nop	{0}
800007dc:	e24bd004 	sub	sp, fp, #4
800007e0:	e8bd8800 	pop	{fp, pc}

800007e4 <UART_getC>:
char UART_getC()
{
800007e4:	e52db004 	push	{fp}		; (str fp, [sp, #-4]!)
800007e8:	e28db000 	add	fp, sp, #0
	while((GET8(UART0+LSR)&0x1) == 0);     //wait for a character to be in the rx fifo
800007ec:	e320f000 	nop	{0}
800007f0:	e3093014 	movw	r3, #36884	; 0x9014
800007f4:	e34434e0 	movt	r3, #17632	; 0x44e0
800007f8:	e5d33000 	ldrb	r3, [r3]
800007fc:	e6ef3073 	uxtb	r3, r3
80000800:	e2033001 	and	r3, r3, #1
80000804:	e3530000 	cmp	r3, #0
80000808:	0afffff8 	beq	800007f0 <UART_getC+0xc>
	return GET8(UART0+RHR);
8000080c:	e3a03a09 	mov	r3, #36864	; 0x9000
80000810:	e34434e0 	movt	r3, #17632	; 0x44e0
80000814:	e5d33000 	ldrb	r3, [r3]
80000818:	e6ef3073 	uxtb	r3, r3
}
8000081c:	e1a00003 	mov	r0, r3
80000820:	e28bd000 	add	sp, fp, #0
80000824:	e49db004 	pop	{fp}		; (ldr fp, [sp], #4)
80000828:	e12fff1e 	bx	lr

8000082c <UART_putString>:

int UART_putString(char *str)
{
8000082c:	e92d4800 	push	{fp, lr}
80000830:	e28db004 	add	fp, sp, #4
80000834:	e24dd010 	sub	sp, sp, #16
80000838:	e50b0010 	str	r0, [fp, #-16]
   int length = strlen(str);
8000083c:	e51b0010 	ldr	r0, [fp, #-16]
80000840:	eb0001fe 	bl	80001040 <strlen>
80000844:	e50b000c 	str	r0, [fp, #-12]
   for(int i = 0; i < length; i++)
80000848:	e3a03000 	mov	r3, #0
8000084c:	e50b3008 	str	r3, [fp, #-8]
80000850:	ea000008 	b	80000878 <UART_putString+0x4c>
   {
      UART_putC(str[i]);
80000854:	e51b3008 	ldr	r3, [fp, #-8]
80000858:	e51b2010 	ldr	r2, [fp, #-16]
8000085c:	e0823003 	add	r3, r2, r3
80000860:	e5d33000 	ldrb	r3, [r3]
80000864:	e1a00003 	mov	r0, r3
80000868:	ebffffc4 	bl	80000780 <UART_putC>
   for(int i = 0; i < length; i++)
8000086c:	e51b3008 	ldr	r3, [fp, #-8]
80000870:	e2833001 	add	r3, r3, #1
80000874:	e50b3008 	str	r3, [fp, #-8]
80000878:	e51b2008 	ldr	r2, [fp, #-8]
8000087c:	e51b300c 	ldr	r3, [fp, #-12]
80000880:	e1520003 	cmp	r2, r3
80000884:	bafffff2 	blt	80000854 <UART_putString+0x28>
   }
   return length;
80000888:	e51b300c 	ldr	r3, [fp, #-12]
}
8000088c:	e1a00003 	mov	r0, r3
80000890:	e24bd004 	sub	sp, fp, #4
80000894:	e8bd8800 	pop	{fp, pc}

80000898 <UART_getString>:

int UART_getString(char *buf)
{
80000898:	e92d4810 	push	{r4, fp, lr}
8000089c:	e28db008 	add	fp, sp, #8
800008a0:	e24dd014 	sub	sp, sp, #20
800008a4:	e50b0018 	str	r0, [fp, #-24]	; 0xffffffe8
   int length = strlen(buf);
800008a8:	e51b0018 	ldr	r0, [fp, #-24]	; 0xffffffe8
800008ac:	eb0001e3 	bl	80001040 <strlen>
800008b0:	e50b0014 	str	r0, [fp, #-20]	; 0xffffffec
   for(int i = 0; i < length; i ++)
800008b4:	e3a03000 	mov	r3, #0
800008b8:	e50b3010 	str	r3, [fp, #-16]
800008bc:	ea000008 	b	800008e4 <UART_getString+0x4c>
   {
      buf[i] = UART_getC();
800008c0:	e51b3010 	ldr	r3, [fp, #-16]
800008c4:	e51b2018 	ldr	r2, [fp, #-24]	; 0xffffffe8
800008c8:	e0824003 	add	r4, r2, r3
800008cc:	ebffffc4 	bl	800007e4 <UART_getC>
800008d0:	e1a03000 	mov	r3, r0
800008d4:	e5c43000 	strb	r3, [r4]
   for(int i = 0; i < length; i ++)
800008d8:	e51b3010 	ldr	r3, [fp, #-16]
800008dc:	e2833001 	add	r3, r3, #1
800008e0:	e50b3010 	str	r3, [fp, #-16]
800008e4:	e51b2010 	ldr	r2, [fp, #-16]
800008e8:	e51b3014 	ldr	r3, [fp, #-20]	; 0xffffffec
800008ec:	e1520003 	cmp	r2, r3
800008f0:	bafffff2 	blt	800008c0 <UART_getString+0x28>
   }
   return length;
800008f4:	e51b3014 	ldr	r3, [fp, #-20]	; 0xffffffec
}
800008f8:	e1a00003 	mov	r0, r3
800008fc:	e24bd008 	sub	sp, fp, #8
80000900:	e8bd8810 	pop	{r4, fp, pc}

80000904 <_printk_dec_ulong>:
 * @return N/A
 */
static void _printk_dec_ulong(out_func_t out,
		const unsigned long num, int pad_zero,
		int min_width)
{
80000904:	e92d4800 	push	{fp, lr}
80000908:	e28db004 	add	fp, sp, #4
8000090c:	e24dd020 	sub	sp, sp, #32
80000910:	e50b0018 	str	r0, [fp, #-24]	; 0xffffffe8
80000914:	e50b101c 	str	r1, [fp, #-28]	; 0xffffffe4
80000918:	e50b2020 	str	r2, [fp, #-32]	; 0xffffffe0
8000091c:	e50b3024 	str	r3, [fp, #-36]	; 0xffffffdc
	/*
	unsigned long pos = 999999999;
	unsigned long remainder = num;
	*/
	long pos = 999999999;
80000920:	e30c39ff 	movw	r3, #51711	; 0xc9ff
80000924:	e3433b9a 	movt	r3, #15258	; 0x3b9a
80000928:	e50b3008 	str	r3, [fp, #-8]
	long remainder = num;
8000092c:	e51b301c 	ldr	r3, [fp, #-28]	; 0xffffffe4
80000930:	e50b300c 	str	r3, [fp, #-12]
	int found_largest_digit = 0;
80000934:	e3a03000 	mov	r3, #0
80000938:	e50b3010 	str	r3, [fp, #-16]
	int remaining = 10; /* 10 digits max */
8000093c:	e3a0300a 	mov	r3, #10
80000940:	e50b3014 	str	r3, [fp, #-20]	; 0xffffffec

	/* make sure we don't skip if value is zero */
	if (min_width <= 0) {
80000944:	e51b3024 	ldr	r3, [fp, #-36]	; 0xffffffdc
80000948:	e3530000 	cmp	r3, #0
8000094c:	ca000038 	bgt	80000a34 <_printk_dec_ulong+0x130>
		min_width = 1;
80000950:	e3a03001 	mov	r3, #1
80000954:	e50b3024 	str	r3, [fp, #-36]	; 0xffffffdc
	}

	while (pos >= 9) {
80000958:	ea000035 	b	80000a34 <_printk_dec_ulong+0x130>
		if (found_largest_digit || remainder > pos) {
8000095c:	e51b3010 	ldr	r3, [fp, #-16]
80000960:	e3530000 	cmp	r3, #0
80000964:	1a000003 	bne	80000978 <_printk_dec_ulong+0x74>
80000968:	e51b200c 	ldr	r2, [fp, #-12]
8000096c:	e51b3008 	ldr	r3, [fp, #-8]
80000970:	e1520003 	cmp	r2, r3
80000974:	da00000e 	ble	800009b4 <_printk_dec_ulong+0xb0>
			found_largest_digit = 1;
80000978:	e3a03001 	mov	r3, #1
8000097c:	e50b3010 	str	r3, [fp, #-16]
			out((char)((remainder / (pos + 1)) + 48));
80000980:	e51b3008 	ldr	r3, [fp, #-8]
80000984:	e2833001 	add	r3, r3, #1
80000988:	e1a01003 	mov	r1, r3
8000098c:	e51b000c 	ldr	r0, [fp, #-12]
80000990:	ebfffe78 	bl	80000378 <__aeabi_idiv>
80000994:	e1a03000 	mov	r3, r0
80000998:	e6ef3073 	uxtb	r3, r3
8000099c:	e2833030 	add	r3, r3, #48	; 0x30
800009a0:	e6ef2073 	uxtb	r2, r3
800009a4:	e51b3018 	ldr	r3, [fp, #-24]	; 0xffffffe8
800009a8:	e1a00002 	mov	r0, r2
800009ac:	e12fff33 	blx	r3
800009b0:	ea00000c 	b	800009e8 <_printk_dec_ulong+0xe4>
		} else if (remaining <= min_width) {
800009b4:	e51b2014 	ldr	r2, [fp, #-20]	; 0xffffffec
800009b8:	e51b3024 	ldr	r3, [fp, #-36]	; 0xffffffdc
800009bc:	e1520003 	cmp	r2, r3
800009c0:	ca000008 	bgt	800009e8 <_printk_dec_ulong+0xe4>
			out((char)(pad_zero ? '0' : ' '));
800009c4:	e51b3020 	ldr	r3, [fp, #-32]	; 0xffffffe0
800009c8:	e3530000 	cmp	r3, #0
800009cc:	0a000001 	beq	800009d8 <_printk_dec_ulong+0xd4>
800009d0:	e3a02030 	mov	r2, #48	; 0x30
800009d4:	ea000000 	b	800009dc <_printk_dec_ulong+0xd8>
800009d8:	e3a02020 	mov	r2, #32
800009dc:	e51b3018 	ldr	r3, [fp, #-24]	; 0xffffffe8
800009e0:	e1a00002 	mov	r0, r2
800009e4:	e12fff33 	blx	r3
		}
		remaining--;
800009e8:	e51b3014 	ldr	r3, [fp, #-20]	; 0xffffffec
800009ec:	e2433001 	sub	r3, r3, #1
800009f0:	e50b3014 	str	r3, [fp, #-20]	; 0xffffffec
		remainder %= (pos + 1); 
800009f4:	e51b3008 	ldr	r3, [fp, #-8]
800009f8:	e2832001 	add	r2, r3, #1
800009fc:	e51b300c 	ldr	r3, [fp, #-12]
80000a00:	e1a01002 	mov	r1, r2
80000a04:	e1a00003 	mov	r0, r3
80000a08:	ebfffe39 	bl	800002f4 <__aeabi_idivmod>
80000a0c:	e1a03001 	mov	r3, r1
80000a10:	e50b300c 	str	r3, [fp, #-12]
		pos /= 10; 
80000a14:	e51b1008 	ldr	r1, [fp, #-8]
80000a18:	e3063667 	movw	r3, #26215	; 0x6667
80000a1c:	e3463666 	movt	r3, #26214	; 0x6666
80000a20:	e0c32391 	smull	r2, r3, r1, r3
80000a24:	e1a02143 	asr	r2, r3, #2
80000a28:	e1a03fc1 	asr	r3, r1, #31
80000a2c:	e0423003 	sub	r3, r2, r3
80000a30:	e50b3008 	str	r3, [fp, #-8]
	while (pos >= 9) {
80000a34:	e51b3008 	ldr	r3, [fp, #-8]
80000a38:	e3530008 	cmp	r3, #8
80000a3c:	caffffc6 	bgt	8000095c <_printk_dec_ulong+0x58>
	}
	out((char)(remainder + 48));
80000a40:	e51b300c 	ldr	r3, [fp, #-12]
80000a44:	e6ef3073 	uxtb	r3, r3
80000a48:	e2833030 	add	r3, r3, #48	; 0x30
80000a4c:	e6ef2073 	uxtb	r2, r3
80000a50:	e51b3018 	ldr	r3, [fp, #-24]	; 0xffffffe8
80000a54:	e1a00002 	mov	r0, r2
80000a58:	e12fff33 	blx	r3
}
80000a5c:	e320f000 	nop	{0}
80000a60:	e24bd004 	sub	sp, fp, #4
80000a64:	e8bd8800 	pop	{fp, pc}

80000a68 <_printk_hex_ulong>:
 * @return N/A
 */
static void _printk_hex_ulong(out_func_t out,
		const unsigned long num, int pad_zero,
		int min_width)
{
80000a68:	e92d4800 	push	{fp, lr}
80000a6c:	e28db004 	add	fp, sp, #4
80000a70:	e24dd020 	sub	sp, sp, #32
80000a74:	e50b0018 	str	r0, [fp, #-24]	; 0xffffffe8
80000a78:	e50b101c 	str	r1, [fp, #-28]	; 0xffffffe4
80000a7c:	e50b2020 	str	r2, [fp, #-32]	; 0xffffffe0
80000a80:	e50b3024 	str	r3, [fp, #-36]	; 0xffffffdc
	int size = sizeof(num) * 2;
80000a84:	e3a03008 	mov	r3, #8
80000a88:	e50b3008 	str	r3, [fp, #-8]
	int found_largest_digit = 0;
80000a8c:	e3a03000 	mov	r3, #0
80000a90:	e50b300c 	str	r3, [fp, #-12]
	int remaining = 8; /* 8 digits max */
80000a94:	e3a03008 	mov	r3, #8
80000a98:	e50b3010 	str	r3, [fp, #-16]

	for (; size; size--) {
80000a9c:	ea000032 	b	80000b6c <_printk_hex_ulong+0x104>
		char nibble = (num >> ((size - 1) << 2) & 0xf);
80000aa0:	e51b3008 	ldr	r3, [fp, #-8]
80000aa4:	e2433001 	sub	r3, r3, #1
80000aa8:	e1a03103 	lsl	r3, r3, #2
80000aac:	e51b201c 	ldr	r2, [fp, #-28]	; 0xffffffe4
80000ab0:	e1a03332 	lsr	r3, r2, r3
80000ab4:	e6ef3073 	uxtb	r3, r3
80000ab8:	e203300f 	and	r3, r3, #15
80000abc:	e54b3011 	strb	r3, [fp, #-17]	; 0xffffffef

		if (nibble || found_largest_digit || size == 1) {
80000ac0:	e55b3011 	ldrb	r3, [fp, #-17]	; 0xffffffef
80000ac4:	e3530000 	cmp	r3, #0
80000ac8:	1a000005 	bne	80000ae4 <_printk_hex_ulong+0x7c>
80000acc:	e51b300c 	ldr	r3, [fp, #-12]
80000ad0:	e3530000 	cmp	r3, #0
80000ad4:	1a000002 	bne	80000ae4 <_printk_hex_ulong+0x7c>
80000ad8:	e51b3008 	ldr	r3, [fp, #-8]
80000adc:	e3530001 	cmp	r3, #1
80000ae0:	1a00000f 	bne	80000b24 <_printk_hex_ulong+0xbc>
			found_largest_digit = 1;
80000ae4:	e3a03001 	mov	r3, #1
80000ae8:	e50b300c 	str	r3, [fp, #-12]
			nibble += nibble > 9 ? 87 : 48;
80000aec:	e55b3011 	ldrb	r3, [fp, #-17]	; 0xffffffef
80000af0:	e3530009 	cmp	r3, #9
80000af4:	9a000001 	bls	80000b00 <_printk_hex_ulong+0x98>
80000af8:	e3a02057 	mov	r2, #87	; 0x57
80000afc:	ea000000 	b	80000b04 <_printk_hex_ulong+0x9c>
80000b00:	e3a02030 	mov	r2, #48	; 0x30
80000b04:	e55b3011 	ldrb	r3, [fp, #-17]	; 0xffffffef
80000b08:	e0823003 	add	r3, r2, r3
80000b0c:	e54b3011 	strb	r3, [fp, #-17]	; 0xffffffef
			out((char)nibble);
80000b10:	e55b2011 	ldrb	r2, [fp, #-17]	; 0xffffffef
80000b14:	e51b3018 	ldr	r3, [fp, #-24]	; 0xffffffe8
80000b18:	e1a00002 	mov	r0, r2
80000b1c:	e12fff33 	blx	r3
			continue;
80000b20:	ea00000e 	b	80000b60 <_printk_hex_ulong+0xf8>
		}

		if (remaining-- <= min_width) {
80000b24:	e51b3010 	ldr	r3, [fp, #-16]
80000b28:	e2432001 	sub	r2, r3, #1
80000b2c:	e50b2010 	str	r2, [fp, #-16]
80000b30:	e51b2024 	ldr	r2, [fp, #-36]	; 0xffffffdc
80000b34:	e1530002 	cmp	r3, r2
80000b38:	ca000008 	bgt	80000b60 <_printk_hex_ulong+0xf8>
			out((char)(pad_zero ? '0' : ' '));
80000b3c:	e51b3020 	ldr	r3, [fp, #-32]	; 0xffffffe0
80000b40:	e3530000 	cmp	r3, #0
80000b44:	0a000001 	beq	80000b50 <_printk_hex_ulong+0xe8>
80000b48:	e3a02030 	mov	r2, #48	; 0x30
80000b4c:	ea000000 	b	80000b54 <_printk_hex_ulong+0xec>
80000b50:	e3a02020 	mov	r2, #32
80000b54:	e51b3018 	ldr	r3, [fp, #-24]	; 0xffffffe8
80000b58:	e1a00002 	mov	r0, r2
80000b5c:	e12fff33 	blx	r3
	for (; size; size--) {
80000b60:	e51b3008 	ldr	r3, [fp, #-8]
80000b64:	e2433001 	sub	r3, r3, #1
80000b68:	e50b3008 	str	r3, [fp, #-8]
80000b6c:	e51b3008 	ldr	r3, [fp, #-8]
80000b70:	e3530000 	cmp	r3, #0
80000b74:	1affffc9 	bne	80000aa0 <_printk_hex_ulong+0x38>
		}
	}
}
80000b78:	e320f000 	nop	{0}
80000b7c:	e24bd004 	sub	sp, fp, #4
80000b80:	e8bd8800 	pop	{fp, pc}

80000b84 <_vprintk>:
 * @param ap Variable parameters
 *
 * @return N/A
 */
void _vprintk(out_func_t out, const char *fmt, va_list ap)
{
80000b84:	e92d4800 	push	{fp, lr}
80000b88:	e28db004 	add	fp, sp, #4
80000b8c:	e24dd030 	sub	sp, sp, #48	; 0x30
80000b90:	e50b0028 	str	r0, [fp, #-40]	; 0xffffffd8
80000b94:	e50b102c 	str	r1, [fp, #-44]	; 0xffffffd4
80000b98:	e50b2030 	str	r2, [fp, #-48]	; 0xffffffd0
	int might_format = 0; /* 1 if encountered a '%' */
80000b9c:	e3a03000 	mov	r3, #0
80000ba0:	e50b3008 	str	r3, [fp, #-8]
	int pad_zero = 0;
80000ba4:	e3a03000 	mov	r3, #0
80000ba8:	e50b300c 	str	r3, [fp, #-12]
	int min_width = -1;
80000bac:	e3e03000 	mvn	r3, #0
80000bb0:	e50b3010 	str	r3, [fp, #-16]

	/* fmt has already been adjusted if needed */

	while (*fmt) {
80000bb4:	ea0000f1 	b	80000f80 <_vprintk+0x3fc>
		if (!might_format) {
80000bb8:	e51b3008 	ldr	r3, [fp, #-8]
80000bbc:	e3530000 	cmp	r3, #0
80000bc0:	1a000010 	bne	80000c08 <_vprintk+0x84>
			if (*fmt != '%') {
80000bc4:	e51b302c 	ldr	r3, [fp, #-44]	; 0xffffffd4
80000bc8:	e5d33000 	ldrb	r3, [r3]
80000bcc:	e3530025 	cmp	r3, #37	; 0x25
80000bd0:	0a000005 	beq	80000bec <_vprintk+0x68>
				out((char)*fmt);
80000bd4:	e51b302c 	ldr	r3, [fp, #-44]	; 0xffffffd4
80000bd8:	e5d32000 	ldrb	r2, [r3]
80000bdc:	e51b3028 	ldr	r3, [fp, #-40]	; 0xffffffd8
80000be0:	e1a00002 	mov	r0, r2
80000be4:	e12fff33 	blx	r3
80000be8:	ea0000e1 	b	80000f74 <_vprintk+0x3f0>
			} else {
				might_format = 1;
80000bec:	e3a03001 	mov	r3, #1
80000bf0:	e50b3008 	str	r3, [fp, #-8]
				min_width = -1;
80000bf4:	e3e03000 	mvn	r3, #0
80000bf8:	e50b3010 	str	r3, [fp, #-16]
				pad_zero = 0;
80000bfc:	e3a03000 	mov	r3, #0
80000c00:	e50b300c 	str	r3, [fp, #-12]
80000c04:	ea0000da 	b	80000f74 <_vprintk+0x3f0>
			}
		} else {
			switch (*fmt) {
80000c08:	e51b302c 	ldr	r3, [fp, #-44]	; 0xffffffd4
80000c0c:	e5d33000 	ldrb	r3, [r3]
80000c10:	e2433025 	sub	r3, r3, #37	; 0x25
80000c14:	e3530055 	cmp	r3, #85	; 0x55
80000c18:	979ff103 	ldrls	pc, [pc, r3, lsl #2]
80000c1c:	ea0000c7 	b	80000f40 <_vprintk+0x3bc>
80000c20:	80000f30 	andhi	r0, r0, r0, lsr pc
80000c24:	80000f40 	andhi	r0, r0, r0, asr #30
80000c28:	80000f40 	andhi	r0, r0, r0, asr #30
80000c2c:	80000f40 	andhi	r0, r0, r0, asr #30
80000c30:	80000f40 	andhi	r0, r0, r0, asr #30
80000c34:	80000f40 	andhi	r0, r0, r0, asr #30
80000c38:	80000f40 	andhi	r0, r0, r0, asr #30
80000c3c:	80000f40 	andhi	r0, r0, r0, asr #30
80000c40:	80000f40 	andhi	r0, r0, r0, asr #30
80000c44:	80000f40 	andhi	r0, r0, r0, asr #30
80000c48:	80000f40 	andhi	r0, r0, r0, asr #30
80000c4c:	80000d78 	andhi	r0, r0, r8, ror sp
80000c50:	80000d9c 	mulhi	r0, ip, sp
80000c54:	80000d9c 	mulhi	r0, ip, sp
80000c58:	80000d9c 	mulhi	r0, ip, sp
80000c5c:	80000d9c 	mulhi	r0, ip, sp
80000c60:	80000d9c 	mulhi	r0, ip, sp
80000c64:	80000d9c 	mulhi	r0, ip, sp
80000c68:	80000d9c 	mulhi	r0, ip, sp
80000c6c:	80000d9c 	mulhi	r0, ip, sp
80000c70:	80000d9c 	mulhi	r0, ip, sp
80000c74:	80000f40 	andhi	r0, r0, r0, asr #30
80000c78:	80000f40 	andhi	r0, r0, r0, asr #30
80000c7c:	80000f40 	andhi	r0, r0, r0, asr #30
80000c80:	80000f40 	andhi	r0, r0, r0, asr #30
80000c84:	80000f40 	andhi	r0, r0, r0, asr #30
80000c88:	80000f40 	andhi	r0, r0, r0, asr #30
80000c8c:	80000f40 	andhi	r0, r0, r0, asr #30
80000c90:	80000f40 	andhi	r0, r0, r0, asr #30
80000c94:	80000f40 	andhi	r0, r0, r0, asr #30
80000c98:	80000f40 	andhi	r0, r0, r0, asr #30
80000c9c:	80000f40 	andhi	r0, r0, r0, asr #30
80000ca0:	80000f40 	andhi	r0, r0, r0, asr #30
80000ca4:	80000f40 	andhi	r0, r0, r0, asr #30
80000ca8:	80000f40 	andhi	r0, r0, r0, asr #30
80000cac:	80000f40 	andhi	r0, r0, r0, asr #30
80000cb0:	80000f40 	andhi	r0, r0, r0, asr #30
80000cb4:	80000f40 	andhi	r0, r0, r0, asr #30
80000cb8:	80000f40 	andhi	r0, r0, r0, asr #30
80000cbc:	80000f40 	andhi	r0, r0, r0, asr #30
80000cc0:	80000f40 	andhi	r0, r0, r0, asr #30
80000cc4:	80000f40 	andhi	r0, r0, r0, asr #30
80000cc8:	80000f40 	andhi	r0, r0, r0, asr #30
80000ccc:	80000f40 	andhi	r0, r0, r0, asr #30
80000cd0:	80000f40 	andhi	r0, r0, r0, asr #30
80000cd4:	80000f40 	andhi	r0, r0, r0, asr #30
80000cd8:	80000f40 	andhi	r0, r0, r0, asr #30
80000cdc:	80000f40 	andhi	r0, r0, r0, asr #30
80000ce0:	80000f40 	andhi	r0, r0, r0, asr #30
80000ce4:	80000f40 	andhi	r0, r0, r0, asr #30
80000ce8:	80000f40 	andhi	r0, r0, r0, asr #30
80000cec:	80000e90 	mulhi	r0, r0, lr
80000cf0:	80000f40 	andhi	r0, r0, r0, asr #30
80000cf4:	80000f40 	andhi	r0, r0, r0, asr #30
80000cf8:	80000f40 	andhi	r0, r0, r0, asr #30
80000cfc:	80000f40 	andhi	r0, r0, r0, asr #30
80000d00:	80000f40 	andhi	r0, r0, r0, asr #30
80000d04:	80000f40 	andhi	r0, r0, r0, asr #30
80000d08:	80000f40 	andhi	r0, r0, r0, asr #30
80000d0c:	80000f40 	andhi	r0, r0, r0, asr #30
80000d10:	80000f40 	andhi	r0, r0, r0, asr #30
80000d14:	80000f40 	andhi	r0, r0, r0, asr #30
80000d18:	80000f04 	andhi	r0, r0, r4, lsl #30
80000d1c:	80000de0 	andhi	r0, r0, r0, ror #27
80000d20:	80000f40 	andhi	r0, r0, r0, asr #30
80000d24:	80000f40 	andhi	r0, r0, r0, asr #30
80000d28:	80000f40 	andhi	r0, r0, r0, asr #30
80000d2c:	80000f70 	andhi	r0, r0, r0, ror pc
80000d30:	80000de0 	andhi	r0, r0, r0, ror #27
80000d34:	80000f40 	andhi	r0, r0, r0, asr #30
80000d38:	80000f40 	andhi	r0, r0, r0, asr #30
80000d3c:	80000f70 	andhi	r0, r0, r0, ror pc
80000d40:	80000f40 	andhi	r0, r0, r0, asr #30
80000d44:	80000f40 	andhi	r0, r0, r0, asr #30
80000d48:	80000f40 	andhi	r0, r0, r0, asr #30
80000d4c:	80000e68 	andhi	r0, r0, r8, ror #28
80000d50:	80000f40 	andhi	r0, r0, r0, asr #30
80000d54:	80000f40 	andhi	r0, r0, r0, asr #30
80000d58:	80000ebc 			; <UNDEFINED> instruction: 0x80000ebc
80000d5c:	80000f40 	andhi	r0, r0, r0, asr #30
80000d60:	80000e3c 	andhi	r0, r0, ip, lsr lr
80000d64:	80000f40 	andhi	r0, r0, r0, asr #30
80000d68:	80000f40 	andhi	r0, r0, r0, asr #30
80000d6c:	80000e90 	mulhi	r0, r0, lr
80000d70:	80000f40 	andhi	r0, r0, r0, asr #30
80000d74:	80000f70 	andhi	r0, r0, r0, ror pc
				case '0':
					if (min_width < 0 && pad_zero == 0) {
80000d78:	e51b3010 	ldr	r3, [fp, #-16]
80000d7c:	e3530000 	cmp	r3, #0
80000d80:	aa000005 	bge	80000d9c <_vprintk+0x218>
80000d84:	e51b300c 	ldr	r3, [fp, #-12]
80000d88:	e3530000 	cmp	r3, #0
80000d8c:	1a000002 	bne	80000d9c <_vprintk+0x218>
						pad_zero = 1;
80000d90:	e3a03001 	mov	r3, #1
80000d94:	e50b300c 	str	r3, [fp, #-12]
						goto still_might_format;
80000d98:	ea000075 	b	80000f74 <_vprintk+0x3f0>
					}
					/* Fall through */
				case '1' ... '9':
					if (min_width < 0) {
80000d9c:	e51b3010 	ldr	r3, [fp, #-16]
80000da0:	e3530000 	cmp	r3, #0
80000da4:	aa000004 	bge	80000dbc <_vprintk+0x238>
						min_width = *fmt - '0';
80000da8:	e51b302c 	ldr	r3, [fp, #-44]	; 0xffffffd4
80000dac:	e5d33000 	ldrb	r3, [r3]
80000db0:	e2433030 	sub	r3, r3, #48	; 0x30
80000db4:	e50b3010 	str	r3, [fp, #-16]
					} else {
						min_width = 10 * min_width + *fmt - '0';
					}
					goto still_might_format;
80000db8:	ea00006d 	b	80000f74 <_vprintk+0x3f0>
						min_width = 10 * min_width + *fmt - '0';
80000dbc:	e51b3010 	ldr	r3, [fp, #-16]
80000dc0:	e3a0200a 	mov	r2, #10
80000dc4:	e0030392 	mul	r3, r2, r3
80000dc8:	e51b202c 	ldr	r2, [fp, #-44]	; 0xffffffd4
80000dcc:	e5d22000 	ldrb	r2, [r2]
80000dd0:	e0833002 	add	r3, r3, r2
80000dd4:	e2433030 	sub	r3, r3, #48	; 0x30
80000dd8:	e50b3010 	str	r3, [fp, #-16]
					goto still_might_format;
80000ddc:	ea000064 	b	80000f74 <_vprintk+0x3f0>
				case 'h':
					/* FIXME: do nothing for these modifiers */
					goto still_might_format;
				case 'd':
				case 'i': {
						  long d = va_arg(ap, long);
80000de0:	e51b3030 	ldr	r3, [fp, #-48]	; 0xffffffd0
80000de4:	e2832004 	add	r2, r3, #4
80000de8:	e50b2030 	str	r2, [fp, #-48]	; 0xffffffd0
80000dec:	e5933000 	ldr	r3, [r3]
80000df0:	e50b3014 	str	r3, [fp, #-20]	; 0xffffffec

						  if (d < 0) {
80000df4:	e51b3014 	ldr	r3, [fp, #-20]	; 0xffffffec
80000df8:	e3530000 	cmp	r3, #0
80000dfc:	aa000008 	bge	80000e24 <_vprintk+0x2a0>
							  out((char)'-');
80000e00:	e51b3028 	ldr	r3, [fp, #-40]	; 0xffffffd8
80000e04:	e3a0002d 	mov	r0, #45	; 0x2d
80000e08:	e12fff33 	blx	r3
							  d = -d;
80000e0c:	e51b3014 	ldr	r3, [fp, #-20]	; 0xffffffec
80000e10:	e2633000 	rsb	r3, r3, #0
80000e14:	e50b3014 	str	r3, [fp, #-20]	; 0xffffffec
							  min_width--;
80000e18:	e51b3010 	ldr	r3, [fp, #-16]
80000e1c:	e2433001 	sub	r3, r3, #1
80000e20:	e50b3010 	str	r3, [fp, #-16]
						  }
						  _printk_dec_ulong(out, d, pad_zero,
80000e24:	e51b1014 	ldr	r1, [fp, #-20]	; 0xffffffec
80000e28:	e51b3010 	ldr	r3, [fp, #-16]
80000e2c:	e51b200c 	ldr	r2, [fp, #-12]
80000e30:	e51b0028 	ldr	r0, [fp, #-40]	; 0xffffffd8
80000e34:	ebfffeb2 	bl	80000904 <_printk_dec_ulong>
								  min_width);
						  break;
80000e38:	ea000049 	b	80000f64 <_vprintk+0x3e0>
					  }
				case 'u': {
						  unsigned long u = va_arg(
80000e3c:	e51b3030 	ldr	r3, [fp, #-48]	; 0xffffffd0
80000e40:	e2832004 	add	r2, r3, #4
80000e44:	e50b2030 	str	r2, [fp, #-48]	; 0xffffffd0
80000e48:	e5933000 	ldr	r3, [r3]
80000e4c:	e50b301c 	str	r3, [fp, #-28]	; 0xffffffe4
								  ap, unsigned long);
						  _printk_dec_ulong(out, u, pad_zero,
80000e50:	e51b3010 	ldr	r3, [fp, #-16]
80000e54:	e51b200c 	ldr	r2, [fp, #-12]
80000e58:	e51b101c 	ldr	r1, [fp, #-28]	; 0xffffffe4
80000e5c:	e51b0028 	ldr	r0, [fp, #-40]	; 0xffffffd8
80000e60:	ebfffea7 	bl	80000904 <_printk_dec_ulong>
								  min_width);
						  break;
80000e64:	ea00003e 	b	80000f64 <_vprintk+0x3e0>
					  }
				case 'p':
					  out('0');
80000e68:	e51b3028 	ldr	r3, [fp, #-40]	; 0xffffffd8
80000e6c:	e3a00030 	mov	r0, #48	; 0x30
80000e70:	e12fff33 	blx	r3
					  out('x');
80000e74:	e51b3028 	ldr	r3, [fp, #-40]	; 0xffffffd8
80000e78:	e3a00078 	mov	r0, #120	; 0x78
80000e7c:	e12fff33 	blx	r3
					  /* left-pad pointers with zeros */
					  pad_zero = 1;
80000e80:	e3a03001 	mov	r3, #1
80000e84:	e50b300c 	str	r3, [fp, #-12]
					  min_width = 8;
80000e88:	e3a03008 	mov	r3, #8
80000e8c:	e50b3010 	str	r3, [fp, #-16]
					  /* Fall through */
				case 'x':
				case 'X': {
						  unsigned long x = va_arg(
80000e90:	e51b3030 	ldr	r3, [fp, #-48]	; 0xffffffd0
80000e94:	e2832004 	add	r2, r3, #4
80000e98:	e50b2030 	str	r2, [fp, #-48]	; 0xffffffd0
80000e9c:	e5933000 	ldr	r3, [r3]
80000ea0:	e50b3020 	str	r3, [fp, #-32]	; 0xffffffe0
								  ap, unsigned long);
						  _printk_hex_ulong(out, x, pad_zero,
80000ea4:	e51b3010 	ldr	r3, [fp, #-16]
80000ea8:	e51b200c 	ldr	r2, [fp, #-12]
80000eac:	e51b1020 	ldr	r1, [fp, #-32]	; 0xffffffe0
80000eb0:	e51b0028 	ldr	r0, [fp, #-40]	; 0xffffffd8
80000eb4:	ebfffeeb 	bl	80000a68 <_printk_hex_ulong>
								  min_width);
						  break;
80000eb8:	ea000029 	b	80000f64 <_vprintk+0x3e0>
					  }
				case 's': {
						  char *s = va_arg(ap, char *);
80000ebc:	e51b3030 	ldr	r3, [fp, #-48]	; 0xffffffd0
80000ec0:	e2832004 	add	r2, r3, #4
80000ec4:	e50b2030 	str	r2, [fp, #-48]	; 0xffffffd0
80000ec8:	e5933000 	ldr	r3, [r3]
80000ecc:	e50b3018 	str	r3, [fp, #-24]	; 0xffffffe8

						  while (*s)
80000ed0:	ea000006 	b	80000ef0 <_vprintk+0x36c>
							  out((char)(*s++));
80000ed4:	e51b3018 	ldr	r3, [fp, #-24]	; 0xffffffe8
80000ed8:	e2832001 	add	r2, r3, #1
80000edc:	e50b2018 	str	r2, [fp, #-24]	; 0xffffffe8
80000ee0:	e5d32000 	ldrb	r2, [r3]
80000ee4:	e51b3028 	ldr	r3, [fp, #-40]	; 0xffffffd8
80000ee8:	e1a00002 	mov	r0, r2
80000eec:	e12fff33 	blx	r3
						  while (*s)
80000ef0:	e51b3018 	ldr	r3, [fp, #-24]	; 0xffffffe8
80000ef4:	e5d33000 	ldrb	r3, [r3]
80000ef8:	e3530000 	cmp	r3, #0
80000efc:	1afffff4 	bne	80000ed4 <_vprintk+0x350>
						  break;
80000f00:	ea000017 	b	80000f64 <_vprintk+0x3e0>
					  }
				case 'c': {
						  int c = va_arg(ap, int);
80000f04:	e51b3030 	ldr	r3, [fp, #-48]	; 0xffffffd0
80000f08:	e2832004 	add	r2, r3, #4
80000f0c:	e50b2030 	str	r2, [fp, #-48]	; 0xffffffd0
80000f10:	e5933000 	ldr	r3, [r3]
80000f14:	e50b3024 	str	r3, [fp, #-36]	; 0xffffffdc

						  out(c);
80000f18:	e51b3024 	ldr	r3, [fp, #-36]	; 0xffffffdc
80000f1c:	e6ef2073 	uxtb	r2, r3
80000f20:	e51b3028 	ldr	r3, [fp, #-40]	; 0xffffffd8
80000f24:	e1a00002 	mov	r0, r2
80000f28:	e12fff33 	blx	r3
						  break;
80000f2c:	ea00000c 	b	80000f64 <_vprintk+0x3e0>
					  }
				case '%': {
						  out((char)'%');
80000f30:	e51b3028 	ldr	r3, [fp, #-40]	; 0xffffffd8
80000f34:	e3a00025 	mov	r0, #37	; 0x25
80000f38:	e12fff33 	blx	r3
						  break;
80000f3c:	ea000008 	b	80000f64 <_vprintk+0x3e0>
					  }
				default:
					  out((char)'%');
80000f40:	e51b3028 	ldr	r3, [fp, #-40]	; 0xffffffd8
80000f44:	e3a00025 	mov	r0, #37	; 0x25
80000f48:	e12fff33 	blx	r3
					  out((char)*fmt);
80000f4c:	e51b302c 	ldr	r3, [fp, #-44]	; 0xffffffd4
80000f50:	e5d32000 	ldrb	r2, [r3]
80000f54:	e51b3028 	ldr	r3, [fp, #-40]	; 0xffffffd8
80000f58:	e1a00002 	mov	r0, r2
80000f5c:	e12fff33 	blx	r3
					  break;
80000f60:	e320f000 	nop	{0}
			}
			might_format = 0;
80000f64:	e3a03000 	mov	r3, #0
80000f68:	e50b3008 	str	r3, [fp, #-8]
80000f6c:	ea000000 	b	80000f74 <_vprintk+0x3f0>
					goto still_might_format;
80000f70:	e320f000 	nop	{0}
		}
still_might_format:
		++fmt;
80000f74:	e51b302c 	ldr	r3, [fp, #-44]	; 0xffffffd4
80000f78:	e2833001 	add	r3, r3, #1
80000f7c:	e50b302c 	str	r3, [fp, #-44]	; 0xffffffd4
	while (*fmt) {
80000f80:	e51b302c 	ldr	r3, [fp, #-44]	; 0xffffffd4
80000f84:	e5d33000 	ldrb	r3, [r3]
80000f88:	e3530000 	cmp	r3, #0
80000f8c:	1affff09 	bne	80000bb8 <_vprintk+0x34>
	}
}
80000f90:	e320f000 	nop	{0}
80000f94:	e24bd004 	sub	sp, fp, #4
80000f98:	e8bd8800 	pop	{fp, pc}

80000f9c <memcmp>:
   void *memmove (void *, const void *, int)
   void *memset (void *, int, int)
   void *memchr (const void *, int, int)
 */
int memcmp (const void *dst, const void *src, int n) 
{
80000f9c:	e52db004 	push	{fp}		; (str fp, [sp, #-4]!)
80000fa0:	e28db000 	add	fp, sp, #0
80000fa4:	e24dd01c 	sub	sp, sp, #28
80000fa8:	e50b0010 	str	r0, [fp, #-16]
80000fac:	e50b1014 	str	r1, [fp, #-20]	; 0xffffffec
80000fb0:	e50b2018 	str	r2, [fp, #-24]	; 0xffffffe8
	const char *a = dst;
80000fb4:	e51b3010 	ldr	r3, [fp, #-16]
80000fb8:	e50b3008 	str	r3, [fp, #-8]
	const char *b = src;
80000fbc:	e51b3014 	ldr	r3, [fp, #-20]	; 0xffffffec
80000fc0:	e50b300c 	str	r3, [fp, #-12]
	if (!n)
80000fc4:	e51b3018 	ldr	r3, [fp, #-24]	; 0xffffffe8
80000fc8:	e3530000 	cmp	r3, #0
80000fcc:	1a000001 	bne	80000fd8 <memcmp+0x3c>
		return 0;
80000fd0:	e3a03000 	mov	r3, #0
80000fd4:	ea000015 	b	80001030 <memcmp+0x94>

	while ((n-- > 0) && (*a++ == *b++))
80000fd8:	e320f000 	nop	{0}
80000fdc:	e51b3018 	ldr	r3, [fp, #-24]	; 0xffffffe8
80000fe0:	e2432001 	sub	r2, r3, #1
80000fe4:	e50b2018 	str	r2, [fp, #-24]	; 0xffffffe8
80000fe8:	e3530000 	cmp	r3, #0
80000fec:	da000009 	ble	80001018 <memcmp+0x7c>
80000ff0:	e51b3008 	ldr	r3, [fp, #-8]
80000ff4:	e2832001 	add	r2, r3, #1
80000ff8:	e50b2008 	str	r2, [fp, #-8]
80000ffc:	e5d32000 	ldrb	r2, [r3]
80001000:	e51b300c 	ldr	r3, [fp, #-12]
80001004:	e2831001 	add	r1, r3, #1
80001008:	e50b100c 	str	r1, [fp, #-12]
8000100c:	e5d33000 	ldrb	r3, [r3]
80001010:	e1520003 	cmp	r2, r3
80001014:	0afffff0 	beq	80000fdc <memcmp+0x40>
		;
	
	return (*a - *b);
80001018:	e51b3008 	ldr	r3, [fp, #-8]
8000101c:	e5d33000 	ldrb	r3, [r3]
80001020:	e1a02003 	mov	r2, r3
80001024:	e51b300c 	ldr	r3, [fp, #-12]
80001028:	e5d33000 	ldrb	r3, [r3]
8000102c:	e0423003 	sub	r3, r2, r3
}
80001030:	e1a00003 	mov	r0, r3
80001034:	e28bd000 	add	sp, fp, #0
80001038:	e49db004 	pop	{fp}		; (ldr fp, [sp], #4)
8000103c:	e12fff1e 	bx	lr

80001040 <strlen>:
int strlen (const char *str)
{ 
80001040:	e52db004 	push	{fp}		; (str fp, [sp, #-4]!)
80001044:	e28db000 	add	fp, sp, #0
80001048:	e24dd014 	sub	sp, sp, #20
8000104c:	e50b0010 	str	r0, [fp, #-16]
	int i = 0;
80001050:	e3a03000 	mov	r3, #0
80001054:	e50b3008 	str	r3, [fp, #-8]
	while(*(str+i) !='\0') 
80001058:	ea000002 	b	80001068 <strlen+0x28>
		i++;
8000105c:	e51b3008 	ldr	r3, [fp, #-8]
80001060:	e2833001 	add	r3, r3, #1
80001064:	e50b3008 	str	r3, [fp, #-8]
	while(*(str+i) !='\0') 
80001068:	e51b3008 	ldr	r3, [fp, #-8]
8000106c:	e51b2010 	ldr	r2, [fp, #-16]
80001070:	e0823003 	add	r3, r2, r3
80001074:	e5d33000 	ldrb	r3, [r3]
80001078:	e3530000 	cmp	r3, #0
8000107c:	1afffff6 	bne	8000105c <strlen+0x1c>
	return i;
80001080:	e51b3008 	ldr	r3, [fp, #-8]
}
80001084:	e1a00003 	mov	r0, r3
80001088:	e28bd000 	add	sp, fp, #0
8000108c:	e49db004 	pop	{fp}		; (ldr fp, [sp], #4)
80001090:	e12fff1e 	bx	lr

80001094 <strcpy>:

char *strcpy (char *dst, const char *src) 
{
80001094:	e52db004 	push	{fp}		; (str fp, [sp, #-4]!)
80001098:	e28db000 	add	fp, sp, #0
8000109c:	e24dd014 	sub	sp, sp, #20
800010a0:	e50b0010 	str	r0, [fp, #-16]
800010a4:	e50b1014 	str	r1, [fp, #-20]	; 0xffffffec
	char *d = dst;
800010a8:	e51b3010 	ldr	r3, [fp, #-16]
800010ac:	e50b3008 	str	r3, [fp, #-8]
	while ((*dst++ = *src++));
800010b0:	e320f000 	nop	{0}
800010b4:	e51b3010 	ldr	r3, [fp, #-16]
800010b8:	e2832001 	add	r2, r3, #1
800010bc:	e50b2010 	str	r2, [fp, #-16]
800010c0:	e51b2014 	ldr	r2, [fp, #-20]	; 0xffffffec
800010c4:	e2821001 	add	r1, r2, #1
800010c8:	e50b1014 	str	r1, [fp, #-20]	; 0xffffffec
800010cc:	e5d22000 	ldrb	r2, [r2]
800010d0:	e5c32000 	strb	r2, [r3]
800010d4:	e5d33000 	ldrb	r3, [r3]
800010d8:	e3530000 	cmp	r3, #0
800010dc:	1afffff4 	bne	800010b4 <strcpy+0x20>
	return d;
800010e0:	e51b3008 	ldr	r3, [fp, #-8]
}
800010e4:	e1a00003 	mov	r0, r3
800010e8:	e28bd000 	add	sp, fp, #0
800010ec:	e49db004 	pop	{fp}		; (ldr fp, [sp], #4)
800010f0:	e12fff1e 	bx	lr

800010f4 <strncpy>:


char *strncpy (char *dst, const char *src, int n)
{
800010f4:	e52db004 	push	{fp}		; (str fp, [sp, #-4]!)
800010f8:	e28db000 	add	fp, sp, #0
800010fc:	e24dd01c 	sub	sp, sp, #28
80001100:	e50b0010 	str	r0, [fp, #-16]
80001104:	e50b1014 	str	r1, [fp, #-20]	; 0xffffffec
80001108:	e50b2018 	str	r2, [fp, #-24]	; 0xffffffe8
	char *d = dst;
8000110c:	e51b3010 	ldr	r3, [fp, #-16]
80001110:	e50b3008 	str	r3, [fp, #-8]
	while ((n-- > 0) && (*dst++ = *src++) );
80001114:	e320f000 	nop	{0}
80001118:	e51b3018 	ldr	r3, [fp, #-24]	; 0xffffffe8
8000111c:	e2432001 	sub	r2, r3, #1
80001120:	e50b2018 	str	r2, [fp, #-24]	; 0xffffffe8
80001124:	e3530000 	cmp	r3, #0
80001128:	da000013 	ble	8000117c <strncpy+0x88>
8000112c:	e51b3010 	ldr	r3, [fp, #-16]
80001130:	e2832001 	add	r2, r3, #1
80001134:	e50b2010 	str	r2, [fp, #-16]
80001138:	e51b2014 	ldr	r2, [fp, #-20]	; 0xffffffec
8000113c:	e2821001 	add	r1, r2, #1
80001140:	e50b1014 	str	r1, [fp, #-20]	; 0xffffffec
80001144:	e5d22000 	ldrb	r2, [r2]
80001148:	e5c32000 	strb	r2, [r3]
8000114c:	e5d33000 	ldrb	r3, [r3]
80001150:	e3530000 	cmp	r3, #0
80001154:	1affffef 	bne	80001118 <strncpy+0x24>
	while (n > 0) {
80001158:	ea000007 	b	8000117c <strncpy+0x88>
		*dst++ = '\0';
8000115c:	e51b3010 	ldr	r3, [fp, #-16]
80001160:	e2832001 	add	r2, r3, #1
80001164:	e50b2010 	str	r2, [fp, #-16]
80001168:	e3a02000 	mov	r2, #0
8000116c:	e5c32000 	strb	r2, [r3]
		n--;
80001170:	e51b3018 	ldr	r3, [fp, #-24]	; 0xffffffe8
80001174:	e2433001 	sub	r3, r3, #1
80001178:	e50b3018 	str	r3, [fp, #-24]	; 0xffffffe8
	while (n > 0) {
8000117c:	e51b3018 	ldr	r3, [fp, #-24]	; 0xffffffe8
80001180:	e3530000 	cmp	r3, #0
80001184:	cafffff4 	bgt	8000115c <strncpy+0x68>
	}
	return d;
80001188:	e51b3008 	ldr	r3, [fp, #-8]
}
8000118c:	e1a00003 	mov	r0, r3
80001190:	e28bd000 	add	sp, fp, #0
80001194:	e49db004 	pop	{fp}		; (ldr fp, [sp], #4)
80001198:	e12fff1e 	bx	lr

8000119c <strcat>:
char *strcat (char *dst, const char *src) 
{
8000119c:	e92d4800 	push	{fp, lr}
800011a0:	e28db004 	add	fp, sp, #4
800011a4:	e24dd010 	sub	sp, sp, #16
800011a8:	e50b0010 	str	r0, [fp, #-16]
800011ac:	e50b1014 	str	r1, [fp, #-20]	; 0xffffffec
	int i = strlen(dst);
800011b0:	e51b0010 	ldr	r0, [fp, #-16]
800011b4:	ebffffa1 	bl	80001040 <strlen>
800011b8:	e50b0008 	str	r0, [fp, #-8]
	while ((*(dst + i++) = (*src++)));
800011bc:	e320f000 	nop	{0}
800011c0:	e51b3008 	ldr	r3, [fp, #-8]
800011c4:	e2832001 	add	r2, r3, #1
800011c8:	e50b2008 	str	r2, [fp, #-8]
800011cc:	e1a02003 	mov	r2, r3
800011d0:	e51b3010 	ldr	r3, [fp, #-16]
800011d4:	e0833002 	add	r3, r3, r2
800011d8:	e51b2014 	ldr	r2, [fp, #-20]	; 0xffffffec
800011dc:	e2821001 	add	r1, r2, #1
800011e0:	e50b1014 	str	r1, [fp, #-20]	; 0xffffffec
800011e4:	e5d22000 	ldrb	r2, [r2]
800011e8:	e5c32000 	strb	r2, [r3]
800011ec:	e5d33000 	ldrb	r3, [r3]
800011f0:	e3530000 	cmp	r3, #0
800011f4:	1afffff1 	bne	800011c0 <strcat+0x24>

	return dst;
800011f8:	e51b3010 	ldr	r3, [fp, #-16]
}
800011fc:	e1a00003 	mov	r0, r3
80001200:	e24bd004 	sub	sp, fp, #4
80001204:	e8bd8800 	pop	{fp, pc}

80001208 <strncat>:
char *strncat (char *dst, const char *src, int n)
{
80001208:	e92d4800 	push	{fp, lr}
8000120c:	e28db004 	add	fp, sp, #4
80001210:	e24dd018 	sub	sp, sp, #24
80001214:	e50b0010 	str	r0, [fp, #-16]
80001218:	e50b1014 	str	r1, [fp, #-20]	; 0xffffffec
8000121c:	e50b2018 	str	r2, [fp, #-24]	; 0xffffffe8
	int i = strlen(dst);
80001220:	e51b0010 	ldr	r0, [fp, #-16]
80001224:	ebffff85 	bl	80001040 <strlen>
80001228:	e50b0008 	str	r0, [fp, #-8]
	while ((n-- > 0) && (*(dst+i++) = (*src++)));
8000122c:	e320f000 	nop	{0}
80001230:	e51b3018 	ldr	r3, [fp, #-24]	; 0xffffffe8
80001234:	e2432001 	sub	r2, r3, #1
80001238:	e50b2018 	str	r2, [fp, #-24]	; 0xffffffe8
8000123c:	e3530000 	cmp	r3, #0
80001240:	da000019 	ble	800012ac <strncat+0xa4>
80001244:	e51b3008 	ldr	r3, [fp, #-8]
80001248:	e2832001 	add	r2, r3, #1
8000124c:	e50b2008 	str	r2, [fp, #-8]
80001250:	e1a02003 	mov	r2, r3
80001254:	e51b3010 	ldr	r3, [fp, #-16]
80001258:	e0833002 	add	r3, r3, r2
8000125c:	e51b2014 	ldr	r2, [fp, #-20]	; 0xffffffec
80001260:	e2821001 	add	r1, r2, #1
80001264:	e50b1014 	str	r1, [fp, #-20]	; 0xffffffec
80001268:	e5d22000 	ldrb	r2, [r2]
8000126c:	e5c32000 	strb	r2, [r3]
80001270:	e5d33000 	ldrb	r3, [r3]
80001274:	e3530000 	cmp	r3, #0
80001278:	1affffec 	bne	80001230 <strncat+0x28>
	while (n > 0) {
8000127c:	ea00000a 	b	800012ac <strncat+0xa4>
		*(dst + i++) = '\0';
80001280:	e51b3008 	ldr	r3, [fp, #-8]
80001284:	e2832001 	add	r2, r3, #1
80001288:	e50b2008 	str	r2, [fp, #-8]
8000128c:	e1a02003 	mov	r2, r3
80001290:	e51b3010 	ldr	r3, [fp, #-16]
80001294:	e0833002 	add	r3, r3, r2
80001298:	e3a02000 	mov	r2, #0
8000129c:	e5c32000 	strb	r2, [r3]
		n--;
800012a0:	e51b3018 	ldr	r3, [fp, #-24]	; 0xffffffe8
800012a4:	e2433001 	sub	r3, r3, #1
800012a8:	e50b3018 	str	r3, [fp, #-24]	; 0xffffffe8
	while (n > 0) {
800012ac:	e51b3018 	ldr	r3, [fp, #-24]	; 0xffffffe8
800012b0:	e3530000 	cmp	r3, #0
800012b4:	cafffff1 	bgt	80001280 <strncat+0x78>
	}		
	return dst;
800012b8:	e51b3010 	ldr	r3, [fp, #-16]

}
800012bc:	e1a00003 	mov	r0, r3
800012c0:	e24bd004 	sub	sp, fp, #4
800012c4:	e8bd8800 	pop	{fp, pc}

800012c8 <strcmp>:

int strcmp (char const* dst, const char *src)
{
800012c8:	e52db004 	push	{fp}		; (str fp, [sp, #-4]!)
800012cc:	e28db000 	add	fp, sp, #0
800012d0:	e24dd00c 	sub	sp, sp, #12
800012d4:	e50b0008 	str	r0, [fp, #-8]
800012d8:	e50b100c 	str	r1, [fp, #-12]
	while ( *dst && *src) {
800012dc:	ea00000b 	b	80001310 <strcmp+0x48>
		if (*dst != *src)
800012e0:	e51b3008 	ldr	r3, [fp, #-8]
800012e4:	e5d32000 	ldrb	r2, [r3]
800012e8:	e51b300c 	ldr	r3, [fp, #-12]
800012ec:	e5d33000 	ldrb	r3, [r3]
800012f0:	e1520003 	cmp	r2, r3
800012f4:	1a00000e 	bne	80001334 <strcmp+0x6c>
			break;
		dst++;
800012f8:	e51b3008 	ldr	r3, [fp, #-8]
800012fc:	e2833001 	add	r3, r3, #1
80001300:	e50b3008 	str	r3, [fp, #-8]
		src++;
80001304:	e51b300c 	ldr	r3, [fp, #-12]
80001308:	e2833001 	add	r3, r3, #1
8000130c:	e50b300c 	str	r3, [fp, #-12]
	while ( *dst && *src) {
80001310:	e51b3008 	ldr	r3, [fp, #-8]
80001314:	e5d33000 	ldrb	r3, [r3]
80001318:	e3530000 	cmp	r3, #0
8000131c:	0a000005 	beq	80001338 <strcmp+0x70>
80001320:	e51b300c 	ldr	r3, [fp, #-12]
80001324:	e5d33000 	ldrb	r3, [r3]
80001328:	e3530000 	cmp	r3, #0
8000132c:	1affffeb 	bne	800012e0 <strcmp+0x18>
80001330:	ea000000 	b	80001338 <strcmp+0x70>
			break;
80001334:	e320f000 	nop	{0}
	}
	return (*dst - *src);
80001338:	e51b3008 	ldr	r3, [fp, #-8]
8000133c:	e5d33000 	ldrb	r3, [r3]
80001340:	e1a02003 	mov	r2, r3
80001344:	e51b300c 	ldr	r3, [fp, #-12]
80001348:	e5d33000 	ldrb	r3, [r3]
8000134c:	e0423003 	sub	r3, r2, r3

}
80001350:	e1a00003 	mov	r0, r3
80001354:	e28bd000 	add	sp, fp, #0
80001358:	e49db004 	pop	{fp}		; (ldr fp, [sp], #4)
8000135c:	e12fff1e 	bx	lr

80001360 <strncmp>:


int strncmp (char const *dst, const char *src, int n)
{  
80001360:	e52db004 	push	{fp}		; (str fp, [sp, #-4]!)
80001364:	e28db000 	add	fp, sp, #0
80001368:	e24dd014 	sub	sp, sp, #20
8000136c:	e50b0008 	str	r0, [fp, #-8]
80001370:	e50b100c 	str	r1, [fp, #-12]
80001374:	e50b2010 	str	r2, [fp, #-16]

	while ( *dst && *src && n > 0) {
80001378:	ea00000e 	b	800013b8 <strncmp+0x58>
		if (*dst != *src)
8000137c:	e51b3008 	ldr	r3, [fp, #-8]
80001380:	e5d32000 	ldrb	r2, [r3]
80001384:	e51b300c 	ldr	r3, [fp, #-12]
80001388:	e5d33000 	ldrb	r3, [r3]
8000138c:	e1520003 	cmp	r2, r3
80001390:	1a000014 	bne	800013e8 <strncmp+0x88>
			break;
		dst++;
80001394:	e51b3008 	ldr	r3, [fp, #-8]
80001398:	e2833001 	add	r3, r3, #1
8000139c:	e50b3008 	str	r3, [fp, #-8]
		src++;
800013a0:	e51b300c 	ldr	r3, [fp, #-12]
800013a4:	e2833001 	add	r3, r3, #1
800013a8:	e50b300c 	str	r3, [fp, #-12]
		n--;
800013ac:	e51b3010 	ldr	r3, [fp, #-16]
800013b0:	e2433001 	sub	r3, r3, #1
800013b4:	e50b3010 	str	r3, [fp, #-16]
	while ( *dst && *src && n > 0) {
800013b8:	e51b3008 	ldr	r3, [fp, #-8]
800013bc:	e5d33000 	ldrb	r3, [r3]
800013c0:	e3530000 	cmp	r3, #0
800013c4:	0a000008 	beq	800013ec <strncmp+0x8c>
800013c8:	e51b300c 	ldr	r3, [fp, #-12]
800013cc:	e5d33000 	ldrb	r3, [r3]
800013d0:	e3530000 	cmp	r3, #0
800013d4:	0a000004 	beq	800013ec <strncmp+0x8c>
800013d8:	e51b3010 	ldr	r3, [fp, #-16]
800013dc:	e3530000 	cmp	r3, #0
800013e0:	caffffe5 	bgt	8000137c <strncmp+0x1c>
800013e4:	ea000000 	b	800013ec <strncmp+0x8c>
			break;
800013e8:	e320f000 	nop	{0}
	}
	return (*dst - *src);
800013ec:	e51b3008 	ldr	r3, [fp, #-8]
800013f0:	e5d33000 	ldrb	r3, [r3]
800013f4:	e1a02003 	mov	r2, r3
800013f8:	e51b300c 	ldr	r3, [fp, #-12]
800013fc:	e5d33000 	ldrb	r3, [r3]
80001400:	e0423003 	sub	r3, r2, r3
}
80001404:	e1a00003 	mov	r0, r3
80001408:	e28bd000 	add	sp, fp, #0
8000140c:	e49db004 	pop	{fp}		; (ldr fp, [sp], #4)
80001410:	e12fff1e 	bx	lr

80001414 <strchr>:
char *strchr (char const *ptr, int c) 
{
80001414:	e52db004 	push	{fp}		; (str fp, [sp, #-4]!)
80001418:	e28db000 	add	fp, sp, #0
8000141c:	e24dd014 	sub	sp, sp, #20
80001420:	e50b0010 	str	r0, [fp, #-16]
80001424:	e50b1014 	str	r1, [fp, #-20]	; 0xffffffec
	char s = (char)c;
80001428:	e51b3014 	ldr	r3, [fp, #-20]	; 0xffffffec
8000142c:	e54b3005 	strb	r3, [fp, #-5]
	while ( (*ptr != '\0') && (*ptr != s))
80001430:	ea000002 	b	80001440 <strchr+0x2c>
	{
		ptr++;
80001434:	e51b3010 	ldr	r3, [fp, #-16]
80001438:	e2833001 	add	r3, r3, #1
8000143c:	e50b3010 	str	r3, [fp, #-16]
	while ( (*ptr != '\0') && (*ptr != s))
80001440:	e51b3010 	ldr	r3, [fp, #-16]
80001444:	e5d33000 	ldrb	r3, [r3]
80001448:	e3530000 	cmp	r3, #0
8000144c:	0a000004 	beq	80001464 <strchr+0x50>
80001450:	e51b3010 	ldr	r3, [fp, #-16]
80001454:	e5d33000 	ldrb	r3, [r3]
80001458:	e55b2005 	ldrb	r2, [fp, #-5]
8000145c:	e1520003 	cmp	r2, r3
80001460:	1afffff3 	bne	80001434 <strchr+0x20>
	}
	return (*ptr == '\0' ? NULL : (char *)ptr);
80001464:	e51b3010 	ldr	r3, [fp, #-16]
80001468:	e5d33000 	ldrb	r3, [r3]
8000146c:	e3530000 	cmp	r3, #0
80001470:	0a000001 	beq	8000147c <strchr+0x68>
80001474:	e51b3010 	ldr	r3, [fp, #-16]
80001478:	ea000000 	b	80001480 <strchr+0x6c>
8000147c:	e3a03000 	mov	r3, #0
}
80001480:	e1a00003 	mov	r0, r3
80001484:	e28bd000 	add	sp, fp, #0
80001488:	e49db004 	pop	{fp}		; (ldr fp, [sp], #4)
8000148c:	e12fff1e 	bx	lr

80001490 <strrchr>:
char *strrchr (char const *ptr, int c)
{
80001490:	e52db004 	push	{fp}		; (str fp, [sp, #-4]!)
80001494:	e28db000 	add	fp, sp, #0
80001498:	e24dd014 	sub	sp, sp, #20
8000149c:	e50b0010 	str	r0, [fp, #-16]
800014a0:	e50b1014 	str	r1, [fp, #-20]	; 0xffffffec
	char *temp = NULL;
800014a4:	e3a03000 	mov	r3, #0
800014a8:	e50b3008 	str	r3, [fp, #-8]
	char s = (char) c;
800014ac:	e51b3014 	ldr	r3, [fp, #-20]	; 0xffffffec
800014b0:	e54b3009 	strb	r3, [fp, #-9]
	while (*ptr != '\0') {
800014b4:	ea000009 	b	800014e0 <strrchr+0x50>
		if (*ptr == s)
800014b8:	e51b3010 	ldr	r3, [fp, #-16]
800014bc:	e5d33000 	ldrb	r3, [r3]
800014c0:	e55b2009 	ldrb	r2, [fp, #-9]
800014c4:	e1520003 	cmp	r2, r3
800014c8:	1a000001 	bne	800014d4 <strrchr+0x44>
			temp = (char *)ptr;
800014cc:	e51b3010 	ldr	r3, [fp, #-16]
800014d0:	e50b3008 	str	r3, [fp, #-8]
		ptr++;
800014d4:	e51b3010 	ldr	r3, [fp, #-16]
800014d8:	e2833001 	add	r3, r3, #1
800014dc:	e50b3010 	str	r3, [fp, #-16]
	while (*ptr != '\0') {
800014e0:	e51b3010 	ldr	r3, [fp, #-16]
800014e4:	e5d33000 	ldrb	r3, [r3]
800014e8:	e3530000 	cmp	r3, #0
800014ec:	1afffff1 	bne	800014b8 <strrchr+0x28>
	}
	return temp;
800014f0:	e51b3008 	ldr	r3, [fp, #-8]
}
800014f4:	e1a00003 	mov	r0, r3
800014f8:	e28bd000 	add	sp, fp, #0
800014fc:	e49db004 	pop	{fp}		; (ldr fp, [sp], #4)
80001500:	e12fff1e 	bx	lr

Disassembly of section .rodata:

80001504 <.LC0>:
80001504:	74726155 	ldrbtvc	r6, [r2], #-341	; 0xfffffeab
80001508:	696e6920 	stmdbvs	lr!, {r5, r8, fp, sp, lr}^
8000150c:	6f642074 	svcvs	0x00642074
80001510:	3a20656e 	bcc	8081aad0 <value+0x81957a>
80001514:	00000020 	andeq	r0, r0, r0, lsr #32

80001518 <.LC1>:
80001518:	73206948 			; <UNDEFINED> instruction: 0x73206948
8000151c:	68736168 	ldmdavs	r3!, {r3, r5, r6, r8, sp, lr}^
80001520:	00000a69 	andeq	r0, r0, r9, ror #20

80001524 <.LC2>:
80001524:	64206948 	strtvs	r6, [r0], #-2376	; 0xfffff6b8
80001528:	61626261 	cmnvs	r2, r1, ror #4
8000152c:	00000a0a 	andeq	r0, r0, sl, lsl #20

80001530 <.LC3>:
80001530:	2052434c 	subscs	r4, r2, ip, asr #6
80001534:	756c6176 	strbvc	r6, [ip, #-374]!	; 0xfffffe8a
80001538:	203d2065 	eorscs	r2, sp, r5, rrx
8000153c:	000a7825 	andeq	r7, sl, r5, lsr #16

80001540 <.LC4>:
80001540:	65746e45 	ldrbvs	r6, [r4, #-3653]!	; 0xfffff1bb
80001544:	20612072 	rsbcs	r2, r1, r2, ror r0
80001548:	72616863 	rsbvc	r6, r1, #6488064	; 0x630000
8000154c:	65746361 	ldrbvs	r6, [r4, #-865]!	; 0xfffffc9f
80001550:	203a2072 	eorscs	r2, sl, r2, ror r0
	...

Disassembly of section .bss:

80001556 <value>:
	...

Disassembly of section .ARM.attributes:

00000000 <.ARM.attributes>:
   0:	00003841 	andeq	r3, r0, r1, asr #16
   4:	61656100 	cmnvs	r5, r0, lsl #2
   8:	01006962 	tsteq	r0, r2, ror #18
   c:	0000002e 	andeq	r0, r0, lr, lsr #32
  10:	726f4305 	rsbvc	r4, pc, #335544320	; 0x14000000
  14:	2d786574 	cfldr64cs	mvdx6, [r8, #-464]!	; 0xfffffe30
  18:	06003841 	streq	r3, [r0], -r1, asr #16
  1c:	0841070a 	stmdaeq	r1, {r1, r3, r8, r9, sl}^
  20:	0a020901 	beq	8242c <_start-0x7ff7dbd4>
  24:	12010c03 	andne	r0, r1, #768	; 0x300
  28:	15011404 	strne	r1, [r1, #-1028]	; 0xfffffbfc
  2c:	18031701 	stmdane	r3, {r0, r8, r9, sl, ip}
  30:	1c011a01 			; <UNDEFINED> instruction: 0x1c011a01
  34:	44012201 	strmi	r2, [r1], #-513	; 0xfffffdff
  38:	Address 0x0000000000000038 is out of bounds.


Disassembly of section .comment:

00000000 <.comment>:
   0:	3a434347 	bcc	10d0d24 <_start-0x7ef2f2dc>
   4:	35312820 	ldrcc	r2, [r1, #-2080]!	; 0xfffff7e0
   8:	332e363a 			; <UNDEFINED> instruction: 0x332e363a
   c:	732b312e 			; <UNDEFINED> instruction: 0x732b312e
  10:	35326e76 	ldrcc	r6, [r2, #-3702]!	; 0xfffff18a
  14:	39333033 	ldmdbcc	r3!, {r0, r1, r4, r5, ip, sp}
  18:	7562312d 	strbvc	r3, [r2, #-301]!	; 0xfffffed3
  1c:	31646c69 	cmncc	r4, r9, ror #24
  20:	2e362029 	cdpcs	0, 3, cr2, cr6, cr9, {1}
  24:	20312e33 	eorscs	r2, r1, r3, lsr lr
  28:	37313032 			; <UNDEFINED> instruction: 0x37313032
  2c:	30323630 	eorscc	r3, r2, r0, lsr r6
	...

Disassembly of section .debug_info:

00000000 <.debug_info>:
       0:	0000007b 	andeq	r0, r0, fp, ror r0
       4:	00000004 	andeq	r0, r0, r4
       8:	01040000 	mrseq	r0, (UNDEF: 4)
       c:	00000077 	andeq	r0, r0, r7, ror r0
      10:	0000620c 	andeq	r6, r0, ip, lsl #4
      14:	00000900 	andeq	r0, r0, r0, lsl #18
      18:	00003c00 	andeq	r3, r0, r0, lsl #24
      1c:	00006c80 	andeq	r6, r0, r0, lsl #25
      20:	00000000 	andeq	r0, r0, r0
      24:	004f0200 	subeq	r0, pc, r0, lsl #4
      28:	04020000 	streq	r0, [r2], #-0
      2c:	00000030 	andeq	r0, r0, r0, lsr r0
      30:	c9070403 	stmdbgt	r7, {r0, r1, sl}
      34:	0400001d 	streq	r0, [r0], #-29	; 0xffffffe3
      38:	00000030 	andeq	r0, r0, r0, lsr r0
      3c:	3c070203 	sfmcc	f0, 4, [r7], {3}
      40:	03000000 	movweq	r0, #0
      44:	00690801 	rsbeq	r0, r9, r1, lsl #16
      48:	04050000 	streq	r0, [r5], #-0
      4c:	746e6905 	strbtvc	r6, [lr], #-2309	; 0xfffff6fb
      50:	05020300 	streq	r0, [r2, #-768]	; 0xfffffd00
      54:	00000058 	andeq	r0, r0, r8, asr r0
      58:	72080103 	andvc	r0, r8, #-1073741824	; 0xc0000000
      5c:	06000000 	streq	r0, [r0], -r0
      60:	00000000 	andeq	r0, r0, r0
      64:	003c0301 	eorseq	r0, ip, r1, lsl #6
      68:	006c8000 	rsbeq	r8, ip, r0
      6c:	9c010000 	stcls	0, cr0, [r1], {-0}
      70:	00617207 	rsbeq	r7, r1, r7, lsl #4
      74:	00370701 	eorseq	r0, r7, r1, lsl #14
      78:	91020000 	mrsls	r0, (UNDEF: 2)
      7c:	23000074 	movwcs	r0, #116	; 0x74
      80:	04000004 	streq	r0, [r0], #-4
      84:	00006500 	andeq	r6, r0, r0, lsl #10
      88:	77010400 	strvc	r0, [r1, -r0, lsl #8]
      8c:	0c000000 	stceq	0, cr0, [r0], {-0}
      90:	00000989 	andeq	r0, r0, r9, lsl #19
      94:	00000009 	andeq	r0, r0, r9
      98:	800000a8 	andhi	r0, r0, r8, lsr #1
      9c:	00000154 	andeq	r0, r0, r4, asr r1
      a0:	00000045 	andeq	r0, r0, r5, asr #32
      a4:	00004f02 	andeq	r4, r0, r2, lsl #30
      a8:	30040200 	andcc	r0, r4, r0, lsl #4
      ac:	03000000 	movweq	r0, #0
      b0:	1dc90704 	stclne	7, cr0, [r9, #16]
      b4:	02030000 	andeq	r0, r3, #0
      b8:	00003c07 	andeq	r3, r0, r7, lsl #24
      bc:	08010300 	stmdaeq	r1, {r8, r9}
      c0:	00000069 	andeq	r0, r0, r9, rrx
      c4:	69050404 	stmdbvs	r5, {r2, sl}
      c8:	0300746e 	movweq	r7, #1134	; 0x46e
      cc:	00580502 	subseq	r0, r8, r2, lsl #10
      d0:	01030000 	mrseq	r0, (UNDEF: 3)
      d4:	00007208 	andeq	r7, r0, r8, lsl #4
      d8:	30040500 	andcc	r0, r4, r0, lsl #10
      dc:	03000000 	movweq	r0, #0
      e0:	0000af0b 	andeq	sl, r0, fp, lsl #30
      e4:	062c0600 	strteq	r0, [ip], -r0, lsl #12
      e8:	00000000 	andeq	r0, r0, r0
      ec:	a20644e0 	andge	r4, r6, #224, 8	; 0xe0000000
      f0:	00000006 	andeq	r0, r0, r6
      f4:	0644e004 	strbeq	lr, [r4], -r4
      f8:	00000778 	andeq	r0, r0, r8, ror r7
      fc:	44e00500 	strbtmi	r0, [r0], #1280	; 0x500
     100:	00088a06 	andeq	r8, r8, r6, lsl #20
     104:	e0060000 	and	r0, r6, r0
     108:	08800644 	stmeq	r0, {r2, r6, r9, sl}
     10c:	07000000 	streq	r0, [r0, -r0]
     110:	9a0644e0 	bls	191498 <_start-0x7fe6eb68>
     114:	00000002 	andeq	r0, r0, r2
     118:	0644e008 	strbeq	lr, [r4], -r8
     11c:	000008ee 	andeq	r0, r0, lr, ror #17
     120:	44e00900 	strbtmi	r0, [r0], #2304	; 0x900
     124:	00067a06 	andeq	r7, r6, r6, lsl #20
     128:	e00a0000 	and	r0, sl, r0
     12c:	04020044 	streq	r0, [r2], #-68	; 0xffffffbc
     130:	0300000b 	movweq	r0, #11
     134:	00005a14 	andeq	r5, r0, r4, lsl sl
     138:	37020500 	strcc	r0, [r2, -r0, lsl #10]
     13c:	03000000 	movweq	r0, #0
     140:	0003851c 	andeq	r8, r3, ip, lsl r5
     144:	07950700 	ldreq	r0, [r5, r0, lsl #14]
     148:	07000000 	streq	r0, [r0, -r0]
     14c:	000005d2 	ldrdeq	r0, [r0], -r2
     150:	015c0704 	cmpeq	ip, r4, lsl #14
     154:	07080000 	streq	r0, [r8, -r0]
     158:	000000c8 	andeq	r0, r0, r8, asr #1
     15c:	04e5070c 	strbteq	r0, [r5], #1804	; 0x70c
     160:	07140000 	ldreq	r0, [r4, -r0]
     164:	00000844 	andeq	r0, r0, r4, asr #16
     168:	064e0718 			; <UNDEFINED> instruction: 0x064e0718
     16c:	071c0000 	ldreq	r0, [ip, -r0]
     170:	00000147 	andeq	r0, r0, r7, asr #2
     174:	073d0724 	ldreq	r0, [sp, -r4, lsr #14]!
     178:	07280000 	streq	r0, [r8, -r0]!
     17c:	0000082d 	andeq	r0, r0, sp, lsr #16
     180:	09ba072c 	ldmibeq	sl!, {r2, r3, r5, r8, r9, sl}
     184:	07300000 	ldreq	r0, [r0, -r0]!
     188:	000000dc 	ldrdeq	r0, [r0], -ip
     18c:	019c0734 	orrseq	r0, ip, r4, lsr r7
     190:	07380000 	ldreq	r0, [r8, -r0]!
     194:	000002a1 	andeq	r0, r0, r1, lsr #5
     198:	0751073c 	smmlareq	r1, ip, r7, r0
     19c:	07400000 	strbeq	r0, [r0, -r0]
     1a0:	0000034e 	andeq	r0, r0, lr, asr #6
     1a4:	02c90744 	sbceq	r0, r9, #68, 14	; 0x1100000
     1a8:	07480000 	strbeq	r0, [r8, -r0]
     1ac:	000000f2 	strdeq	r0, [r0], -r2
     1b0:	0467074c 	strbteq	r0, [r7], #-1868	; 0xfffff8b4
     1b4:	07500000 	ldrbeq	r0, [r0, -r0]
     1b8:	000005be 			; <UNDEFINED> instruction: 0x000005be
     1bc:	02860760 	addeq	r0, r6, #96, 14	; 0x1800000
     1c0:	07640000 	strbeq	r0, [r4, -r0]!
     1c4:	00000131 	andeq	r0, r0, r1, lsr r1
     1c8:	0a2f0768 	beq	bc1f70 <_start-0x7f43e090>
     1cc:	076c0000 	strbeq	r0, [ip, -r0]!
     1d0:	00000ad8 	ldrdeq	r0, [r0], -r8
     1d4:	03750770 	cmneq	r5, #112, 14	; 0x1c00000
     1d8:	07740000 	ldrbeq	r0, [r4, -r0]!
     1dc:	0000011c 	andeq	r0, r0, ip, lsl r1
     1e0:	05180778 	ldreq	r0, [r8, #-1912]	; 0xfffff888
     1e4:	077c0000 	ldrbeq	r0, [ip, -r0]!
     1e8:	00000309 	andeq	r0, r0, r9, lsl #6
     1ec:	038a0780 	orreq	r0, sl, #128, 14	; 0x2000000
     1f0:	07840000 	streq	r0, [r4, r0]
     1f4:	0000040e 	andeq	r0, r0, lr, lsl #8
     1f8:	06fd0788 	ldrbteq	r0, [sp], r8, lsl #15
     1fc:	07ac0000 	streq	r0, [ip, r0]!
     200:	00000728 	andeq	r0, r0, r8, lsr #14
     204:	078007b0 			; <UNDEFINED> instruction: 0x078007b0
     208:	07b40000 	ldreq	r0, [r4, r0]!
     20c:	0000090e 	andeq	r0, r0, lr, lsl #18
     210:	027107bc 	rsbseq	r0, r1, #188, 14	; 0x2f00000
     214:	07c00000 	strbeq	r0, [r0, r0]
     218:	0000048d 	andeq	r0, r0, sp, lsl #9
     21c:	0aa907c4 	beq	fea42134 <value+0x7ea40bde>
     220:	07cc0000 	strbeq	r0, [ip, r0]
     224:	0000095f 	andeq	r0, r0, pc, asr r9
     228:	04a207d0 	strteq	r0, [r2], #2000	; 0x7d0
     22c:	07d40000 	ldrbeq	r0, [r4, r0]
     230:	0000057b 	andeq	r0, r0, fp, ror r5
     234:	0ac007d8 	beq	ff00219c <value+0x7f000c46>
     238:	07dc0000 	ldrbeq	r0, [ip, r0]
     23c:	0000047b 	andeq	r0, r0, fp, ror r4
     240:	02f107e0 	rscseq	r0, r1, #224, 14	; 0x3800000
     244:	07e40000 	strbeq	r0, [r4, r0]!
     248:	000006d1 	ldrdeq	r0, [r0], -r1
     24c:	045107e8 	ldrbeq	r0, [r1], #-2024	; 0xfffff818
     250:	07ec0000 	strbeq	r0, [ip, r0]!
     254:	000004b9 			; <UNDEFINED> instruction: 0x000004b9
     258:	031f07f0 	tsteq	pc, #240, 14	; 0x3c00000
     25c:	07f40000 	ldrbeq	r0, [r4, r0]!
     260:	000003a0 	andeq	r0, r0, r0, lsr #7
     264:	07ab07f8 			; <UNDEFINED> instruction: 0x07ab07f8
     268:	08fc0000 	ldmeq	ip!, {}^	; <UNPREDICTABLE>
     26c:	00000818 	andeq	r0, r0, r8, lsl r8
     270:	b4080100 	strlt	r0, [r8], #-256	; 0xffffff00
     274:	0c000003 	stceq	0, cr0, [r0], {3}
     278:	06620801 	strbteq	r0, [r2], -r1, lsl #16
     27c:	01100000 	tsteq	r0, r0
     280:	00010608 	andeq	r0, r1, r8, lsl #12
     284:	08011c00 	stmdaeq	r1, {sl, fp, ip}
     288:	00000936 	andeq	r0, r0, r6, lsr r9
     28c:	ce080120 	adfgtep	f0, f0, f0
     290:	2c000009 	stccs	0, cr0, [r0], {9}
     294:	05490801 	strbeq	r0, [r9, #-2049]	; 0xfffff7ff
     298:	01300000 	teqeq	r0, r0
     29c:	000a1508 	andeq	r1, sl, r8, lsl #10
     2a0:	08014000 	stmdaeq	r1, {lr}
     2a4:	00000891 	muleq	r0, r1, r8
     2a8:	ff080144 			; <UNDEFINED> instruction: 0xff080144
     2ac:	48000009 	stmdami	r0, {r0, r3}
     2b0:	022f0801 	eoreq	r0, pc, #65536	; 0x10000
     2b4:	014c0000 	mrseq	r0, (UNDEF: 76)
     2b8:	00063308 	andeq	r3, r6, r8, lsl #6
     2bc:	07015000 	streq	r5, [r1, -r0]
     2c0:	00000991 	muleq	r0, r1, r9
     2c4:	04240700 	strteq	r0, [r4], #-1792	; 0xfffff900
     2c8:	07040000 	streq	r0, [r4, -r0]
     2cc:	000004cf 	andeq	r0, r0, pc, asr #9
     2d0:	0aed0708 	beq	ffb41ef8 <value+0x7fb409a2>
     2d4:	070c0000 	streq	r0, [ip, -r0]
     2d8:	000009a3 	andeq	r0, r0, r3, lsr #19
     2dc:	08c20710 	stmiaeq	r2, {r4, r8, r9, sl}^
     2e0:	07140000 	ldreq	r0, [r4, -r0]
     2e4:	000007d5 	ldrdeq	r0, [r0], -r5
     2e8:	094a0718 	stmdbeq	sl, {r3, r4, r8, r9, sl}^
     2ec:	071c0000 	ldreq	r0, [ip, -r0]
     2f0:	00000858 	andeq	r0, r0, r8, asr r8
     2f4:	052e0720 	streq	r0, [lr, #-1824]!	; 0xfffff8e0
     2f8:	07240000 	streq	r0, [r4, -r0]!
     2fc:	00000333 	andeq	r0, r0, r3, lsr r3
     300:	09760728 	ldmdbeq	r6!, {r3, r5, r8, r9, sl}^
     304:	072c0000 	streq	r0, [ip, -r0]!
     308:	000007c0 	andeq	r0, r0, r0, asr #15
     30c:	01d20730 	bicseq	r0, r2, r0, lsr r7
     310:	07340000 	ldreq	r0, [r4, -r0]!
     314:	000008a7 	andeq	r0, r0, r7, lsr #17
     318:	01720738 	cmneq	r2, r8, lsr r7
     31c:	073c0000 	ldreq	r0, [ip, -r0]!
     320:	000007e9 	andeq	r0, r0, r9, ror #15
     324:	0a440740 	beq	110202c <_start-0x7eefdfd4>
     328:	07440000 	strbeq	r0, [r4, -r0]
     32c:	000008da 	ldrdeq	r0, [r0], -sl
     330:	01b10748 			; <UNDEFINED> instruction: 0x01b10748
     334:	074c0000 	strbeq	r0, [ip, -r0]
     338:	00000a8d 	andeq	r0, r0, sp, lsl #21
     33c:	06180750 			; <UNDEFINED> instruction: 0x06180750
     340:	07540000 	ldrbeq	r0, [r4, -r0]
     344:	00000248 	andeq	r0, r0, r8, asr #4
     348:	06aa0758 	ssateq	r0, #11, r8, asr #14
     34c:	075c0000 	ldrbeq	r0, [ip, -r0]
     350:	000004fc 	strdeq	r0, [r0], -ip
     354:	07fc0760 	ldrbeq	r0, [ip, r0, ror #14]!
     358:	07640000 	strbeq	r0, [r4, -r0]!
     35c:	000002b5 			; <UNDEFINED> instruction: 0x000002b5
     360:	01e50768 	mvneq	r0, r8, ror #14
     364:	076c0000 	strbeq	r0, [ip, -r0]!
     368:	000006be 			; <UNDEFINED> instruction: 0x000006be
     36c:	020e0770 	andeq	r0, lr, #112, 14	; 0x1c00000
     370:	07740000 	ldrbeq	r0, [r4, -r0]!
     374:	00000a5a 	andeq	r0, r0, sl, asr sl
     378:	07120778 			; <UNDEFINED> instruction: 0x07120778
     37c:	077c0000 	ldrbeq	r0, [ip, -r0]!
     380:	000002dd 	ldrdeq	r0, [r0], -sp
     384:	01fa0780 	mvnseq	r0, r0, lsl #15
     388:	07840000 	streq	r0, [r4, r0]
     38c:	00000764 	andeq	r0, r0, r4, ror #14
     390:	06e90788 	strbteq	r0, [r9], r8, lsl #15
     394:	078c0000 	streq	r0, [ip, r0]
     398:	000003ef 	andeq	r0, r0, pc, ror #7
     39c:	05e70790 	strbeq	r0, [r7, #1936]!	; 0x790
     3a0:	07940000 	ldreq	r0, [r4, r0]
     3a4:	0000086b 	andeq	r0, r0, fp, ror #16
     3a8:	05a80798 	streq	r0, [r8, #1944]!	; 0x798
     3ac:	079c0000 	ldreq	r0, [ip, r0]
     3b0:	00000b26 	andeq	r0, r0, r6, lsr #22
     3b4:	092207a0 	stmdbeq	r2!, {r5, r7, r8, r9, sl}
     3b8:	07a40000 	streq	r0, [r4, r0]!
     3bc:	0000025e 	andeq	r0, r0, lr, asr r2
     3c0:	036207a8 	cmneq	r2, #168, 14	; 0x2a00000
     3c4:	07ac0000 	streq	r0, [ip, r0]!
     3c8:	000003d7 	ldrdeq	r0, [r0], -r7
     3cc:	059207b0 	ldreq	r0, [r2, #1968]	; 0x7b0
     3d0:	07b40000 	ldreq	r0, [r4, r0]!
     3d4:	00000b11 	andeq	r0, r0, r1, lsl fp
     3d8:	0a7507b8 	beq	1d422c0 <_start-0x7e2bdd40>
     3dc:	07bc0000 	ldreq	r0, [ip, r0]!
     3e0:	0000055e 	andeq	r0, r0, lr, asr r5
     3e4:	09e807c0 	stmibeq	r8!, {r6, r7, r8, r9, sl}^
     3e8:	07c40000 	strbeq	r0, [r4, r0]
     3ec:	000005fb 	strdeq	r0, [r0], -fp
     3f0:	08f507c8 	ldmeq	r5!, {r3, r6, r7, r8, r9, sl}^
     3f4:	07cc0000 	strbeq	r0, [ip, r0]
     3f8:	0000043c 	andeq	r0, r0, ip, lsr r4
     3fc:	068e07d4 	pkhtbeq	r0, lr, r4, asr #15
     400:	00d80000 	sbcseq	r0, r8, r0
     404:	0003cc02 	andeq	ip, r3, r2, lsl #24
     408:	ba930300 	blt	fe4c1010 <value+0x7e4bfaba>
     40c:	09000000 	stmdbeq	r0, {}	; <UNPREDICTABLE>
     410:	0000018d 	andeq	r0, r0, sp, lsl #3
     414:	01240e01 			; <UNDEFINED> instruction: 0x01240e01
     418:	00d88000 	sbcseq	r8, r8, r0
     41c:	9c010000 	stcls	0, cr0, [r1], {-0}
     420:	000003b4 			; <UNDEFINED> instruction: 0x000003b4
     424:	0001cd0a 	andeq	ip, r1, sl, lsl #26
     428:	30110100 	andscc	r0, r1, r0, lsl #2
     42c:	02000000 	andeq	r0, r0, #0
     430:	0b007491 	bleq	1d67c <_start-0x7ffe2984>
     434:	00000684 	andeq	r0, r0, r4, lsl #13
     438:	00300901 	eorseq	r0, r0, r1, lsl #18
     43c:	00ec0000 	rsceq	r0, ip, r0
     440:	00388000 	eorseq	r8, r8, r0
     444:	9c010000 	stcls	0, cr0, [r1], {-0}
     448:	000003ea 	andeq	r0, r0, sl, ror #7
     44c:	0017b40c 	andseq	fp, r7, ip, lsl #8
     450:	af090100 	svcge	0x00090100
     454:	02000000 	andeq	r0, r0, #0
     458:	720d7491 	andvc	r7, sp, #-1862270976	; 0x91000000
     45c:	01006765 	tsteq	r0, r5, ror #14
     460:	00038509 	andeq	r8, r3, r9, lsl #10
     464:	72910200 	addsvc	r0, r1, #0, 4
     468:	04040e00 	streq	r0, [r4], #-3584	; 0xfffff200
     46c:	03010000 	movweq	r0, #4096	; 0x1000
     470:	800000a8 	andhi	r0, r0, r8, lsr #1
     474:	00000044 	andeq	r0, r0, r4, asr #32
     478:	b40c9c01 	strlt	r9, [ip], #-3073	; 0xfffff3ff
     47c:	01000017 	tsteq	r0, r7, lsl r0
     480:	0000af03 	andeq	sl, r0, r3, lsl #30
     484:	74910200 	ldrvc	r0, [r1], #512	; 0x200
     488:	6765720d 	strbvs	r7, [r5, -sp, lsl #4]!
     48c:	85030100 	strhi	r0, [r3, #-256]	; 0xffffff00
     490:	02000003 	andeq	r0, r0, #3
     494:	290c7291 	stmdbcs	ip, {r0, r4, r7, r9, ip, sp, lr}
     498:	01000002 	tsteq	r0, r2
     49c:	00003003 	andeq	r3, r0, r3
     4a0:	6c910200 	lfmvs	f0, 4, [r1], {0}
     4a4:	07010000 	streq	r0, [r1, -r0]
     4a8:	00040000 	andeq	r0, r4, r0
     4ac:	0000013f 	andeq	r0, r0, pc, lsr r1
     4b0:	00770104 	rsbseq	r0, r7, r4, lsl #2
     4b4:	d90c0000 	stmdble	ip, {}	; <UNPREDICTABLE>
     4b8:	0900000b 	stmdbeq	r0, {r0, r1, r3}
     4bc:	fc000000 	stc2	0, cr0, [r0], {-0}
     4c0:	f8800001 			; <UNDEFINED> instruction: 0xf8800001
     4c4:	a5000000 	strge	r0, [r0, #-0]
     4c8:	02000000 	andeq	r0, r0, #0
     4cc:	0000004f 	andeq	r0, r0, pc, asr #32
     4d0:	00300402 	eorseq	r0, r0, r2, lsl #8
     4d4:	04030000 	streq	r0, [r3], #-0
     4d8:	001dc907 	andseq	ip, sp, r7, lsl #18
     4dc:	07020300 	streq	r0, [r2, -r0, lsl #6]
     4e0:	0000003c 	andeq	r0, r0, ip, lsr r0
     4e4:	69080103 	stmdbvs	r8, {r0, r1, r8}
     4e8:	04000000 	streq	r0, [r0], #-0
     4ec:	6e690504 	cdpvs	5, 6, cr0, cr9, cr4, {0}
     4f0:	02030074 	andeq	r0, r3, #116	; 0x74
     4f4:	00005805 	andeq	r5, r0, r5, lsl #16
     4f8:	08010300 	stmdaeq	r1, {r8, r9}
     4fc:	00000072 	andeq	r0, r0, r2, ror r0
     500:	00370205 	eorseq	r0, r7, r5, lsl #4
     504:	09030000 	stmdbeq	r3, {}	; <UNPREDICTABLE>
     508:	00000652 	andeq	r0, r0, r2, asr r6
     50c:	0017a906 	andseq	sl, r7, r6, lsl #18
     510:	a5060000 	strge	r0, [r6, #-0]
     514:	04000013 	streq	r0, [r0], #-19	; 0xffffffed
     518:	0018ed06 	andseq	lr, r8, r6, lsl #26
     51c:	97061000 	strls	r1, [r6, -r0]
     520:	4000001a 	andmi	r0, r0, sl, lsl r0
     524:	001b1207 	andseq	r1, fp, r7, lsl #4
     528:	07011000 	streq	r1, [r1, -r0]
     52c:	000011ba 			; <UNDEFINED> instruction: 0x000011ba
     530:	df07041c 	svcle	0x0007041c
     534:	2800001a 	stmdacs	r0, {r1, r3, r4}
     538:	0fc20704 	svceq	0x00c20704
     53c:	042c0000 	strteq	r0, [ip], #-0
     540:	00174407 	andseq	r4, r7, r7, lsl #8
     544:	07044400 	streq	r4, [r4, -r0, lsl #8]
     548:	00000d72 	andeq	r0, r0, r2, ror sp
     54c:	44070448 	strmi	r0, [r7], #-1096	; 0xfffffbb8
     550:	4c000012 	stcmi	0, cr0, [r0], {18}
     554:	19f90704 	ldmibne	r9!, {r2, r8, r9, sl}^
     558:	04580000 	ldrbeq	r0, [r8], #-0
     55c:	00155c07 	andseq	r5, r5, r7, lsl #24
     560:	07046800 	streq	r6, [r4, -r0, lsl #16]
     564:	000010bc 	strheq	r1, [r0], -ip
     568:	79070470 	stmdbvc	r7, {r4, r5, r6, sl}
     56c:	0c00000f 	stceq	0, cr0, [r0], {15}
     570:	17c00705 	strbne	r0, [r0, r5, lsl #14]
     574:	06000000 	streq	r0, [r0], -r0
     578:	00179a07 	andseq	r9, r7, r7, lsl #20
     57c:	07060400 	streq	r0, [r6, -r0, lsl #8]
     580:	00000f8f 	andeq	r0, r0, pc, lsl #31
     584:	cd070608 	stcgt	6, cr0, [r7, #-32]	; 0xffffffe0
     588:	0c000017 	stceq	0, cr0, [r0], {23}
     58c:	19b50706 	ldmibne	r5!, {r1, r2, r8, r9, sl}
     590:	06100000 	ldreq	r0, [r0], -r0
     594:	00127b07 	andseq	r7, r2, r7, lsl #22
     598:	07061400 	streq	r1, [r6, -r0, lsl #8]
     59c:	00001946 	andeq	r1, r0, r6, asr #18
     5a0:	e0070620 	and	r0, r7, r0, lsr #12
     5a4:	24000017 	strcs	r0, [r0], #-23	; 0xffffffe9
     5a8:	19530706 	ldmdbne	r3, {r1, r2, r8, r9, sl}^
     5ac:	06280000 	strteq	r0, [r8], -r0
     5b0:	0017ec07 	andseq	lr, r7, r7, lsl #24
     5b4:	07062c00 	streq	r2, [r6, -r0, lsl #24]
     5b8:	00001383 	andeq	r1, r0, r3, lsl #7
     5bc:	04070630 	streq	r0, [r7], #-1584	; 0xfffff9d0
     5c0:	3400001b 	strcc	r0, [r0], #-27	; 0xffffffe5
     5c4:	120f0706 	andne	r0, pc, #1572864	; 0x180000
     5c8:	06380000 	ldrteq	r0, [r8], -r0
     5cc:	0012c207 	andseq	ip, r2, r7, lsl #4
     5d0:	07063c00 	streq	r3, [r6, -r0, lsl #24]
     5d4:	00001649 	andeq	r1, r0, r9, asr #12
     5d8:	80070644 	andhi	r0, r7, r4, asr #12
     5dc:	48000019 	stmdami	r0, {r0, r3, r4}
     5e0:	17230706 	strne	r0, [r3, -r6, lsl #14]!
     5e4:	06500000 	ldrbeq	r0, [r0], -r0
     5e8:	000c1607 	andeq	r1, ip, r7, lsl #12
     5ec:	07066400 	streq	r6, [r6, -r0, lsl #8]
     5f0:	00000dce 	andeq	r0, r0, lr, asr #27
     5f4:	74070670 	strvc	r0, [r7], #-1648	; 0xfffff990
     5f8:	74000014 	strvc	r0, [r0], #-20	; 0xffffffec
     5fc:	10680706 	rsbne	r0, r8, r6, lsl #14
     600:	06900000 	ldreq	r0, [r0], r0
     604:	00107d07 	andseq	r7, r0, r7, lsl #26
     608:	07069400 	streq	r9, [r6, -r0, lsl #8]
     60c:	00001092 	muleq	r0, r2, r0
     610:	a7070698 			; <UNDEFINED> instruction: 0xa7070698
     614:	9c000010 	stcls	0, cr0, [r0], {16}
     618:	0f030706 	svceq	0x00030706
     61c:	06a00000 	strteq	r0, [r0], r0
     620:	00130e07 	andseq	r0, r3, r7, lsl #28
     624:	0706a400 	streq	sl, [r6, -r0, lsl #8]
     628:	0000136e 	andeq	r1, r0, lr, ror #6
     62c:	d00706a8 	andle	r0, r7, r8, lsr #13
     630:	70000011 	andvc	r0, r0, r1, lsl r0
     634:	13cd0707 	bicne	r0, sp, #1835008	; 0x1c0000
     638:	07740000 	ldrbeq	r0, [r4, -r0]!
     63c:	00180b07 	andseq	r0, r8, r7, lsl #22
     640:	07077800 	streq	r7, [r7, -r0, lsl #16]
     644:	000015a5 	andeq	r1, r0, r5, lsr #11
     648:	3007077c 	andcc	r0, r7, ip, ror r7
     64c:	b8000012 	stmdalt	r0, {r1, r4}
     650:	14490707 	strbne	r0, [r9], #-1799	; 0xfffff8f9
     654:	07bc0000 	ldreq	r0, [ip, r0]!
     658:	000e3207 	andeq	r3, lr, r7, lsl #4
     65c:	0707d000 	streq	sp, [r7, -r0]
     660:	00001960 	andeq	r1, r0, r0, ror #18
     664:	350707f4 	strcc	r0, [r7, #-2036]	; 0xfffff80c
     668:	fc00000c 	stc2	0, cr0, [r0], {12}
     66c:	0c8b0707 	stceq	7, cr0, [fp], {7}
     670:	08000000 	stmdaeq	r0, {}	; <UNPREDICTABLE>
     674:	000c9c07 	andeq	r9, ip, r7, lsl #24
     678:	07080400 	streq	r0, [r8, -r0, lsl #8]
     67c:	00000cad 	andeq	r0, r0, sp, lsr #25
     680:	be070808 	cdplt	8, 0, cr0, cr7, cr8, {0}
     684:	0c00000c 	stceq	0, cr0, [r0], {12}
     688:	0ccf0708 	stcleq	7, cr0, [pc], {8}
     68c:	08100000 	ldmdaeq	r0, {}	; <UNPREDICTABLE>
     690:	000ce007 	andeq	lr, ip, r7
     694:	07081400 	streq	r1, [r8, -r0, lsl #8]
     698:	00000cf1 	strdeq	r0, [r0], -r1
     69c:	02070818 	andeq	r0, r7, #24, 16	; 0x180000
     6a0:	1c00000d 	stcne	0, cr0, [r0], {13}
     6a4:	0d130708 	ldceq	7, cr0, [r3, #-32]	; 0xffffffe0
     6a8:	08200000 	stmdaeq	r0!, {}	; <UNPREDICTABLE>
     6ac:	000d2407 	andeq	r2, sp, r7, lsl #8
     6b0:	07082400 	streq	r2, [r8, -r0, lsl #8]
     6b4:	00001a73 	andeq	r1, r0, r3, ror sl
     6b8:	85070828 	strhi	r0, [r7, #-2088]	; 0xfffff7d8
     6bc:	2c00001a 	stccs	0, cr0, [r0], {26}
     6c0:	1a360708 	bne	d822e8 <_start-0x7f27dd18>
     6c4:	08300000 	ldmdaeq	r0!, {}	; <UNPREDICTABLE>
     6c8:	001aa907 	andseq	sl, sl, r7, lsl #18
     6cc:	07083400 	streq	r3, [r8, -r0, lsl #8]
     6d0:	00001abb 			; <UNDEFINED> instruction: 0x00001abb
     6d4:	cd070838 	stcgt	8, cr0, [r7, #-224]	; 0xffffff20
     6d8:	3c00001a 	stccc	0, cr0, [r0], {26}
     6dc:	0b390708 	bleq	e42304 <_start-0x7f1bdcfc>
     6e0:	08400000 	stmdaeq	r0, {}^	; <UNPREDICTABLE>
     6e4:	000b4907 	andeq	r4, fp, r7, lsl #18
     6e8:	07084400 	streq	r4, [r8, -r0, lsl #8]
     6ec:	00000b59 	andeq	r0, r0, r9, asr fp
     6f0:	69070848 	stmdbvs	r7, {r3, r6, fp}
     6f4:	4c00000b 	stcmi	0, cr0, [r0], {11}
     6f8:	0b790708 	bleq	1e42320 <_start-0x7e1bdce0>
     6fc:	08500000 	ldmdaeq	r0, {}^	; <UNPREDICTABLE>
     700:	000b8907 	andeq	r8, fp, r7, lsl #18
     704:	07085400 	streq	r5, [r8, -r0, lsl #8]
     708:	00000b99 	muleq	r0, r9, fp
     70c:	a9070858 	stmdbge	r7, {r3, r4, r6, fp}
     710:	5c00000b 	stcpl	0, cr0, [r0], {11}
     714:	0bb90708 	bleq	fee4233c <value+0x7ee40de6>
     718:	08600000 	stmdaeq	r0!, {}^	; <UNPREDICTABLE>
     71c:	000bc907 	andeq	ip, fp, r7, lsl #18
     720:	07086400 	streq	r6, [r8, -r0, lsl #8]
     724:	0000117f 	andeq	r1, r0, pc, ror r1
     728:	90070868 	andls	r0, r7, r8, ror #16
     72c:	6c000011 	stcvs	0, cr0, [r0], {17}
     730:	0c780708 	ldcleq	7, cr0, [r8], #-32	; 0xffffffe0
     734:	08700000 	ldmdaeq	r0!, {}^	; <UNPREDICTABLE>
     738:	0010ce07 	andseq	ip, r0, r7, lsl #28
     73c:	07087400 	streq	r7, [r8, -r0, lsl #8]
     740:	000016cb 	andeq	r1, r0, fp, asr #13
     744:	6d070878 	stcvs	8, cr0, [r7, #-480]	; 0xfffffe20
     748:	7c000011 	stcvc	0, cr0, [r0], {17}
     74c:	0c420708 	mcrreq	7, 0, r0, r2, cr8
     750:	08800000 	stmeq	r0, {}	; <UNPREDICTABLE>
     754:	000c5407 	andeq	r5, ip, r7, lsl #8
     758:	07088400 	streq	r8, [r8, -r0, lsl #8]
     75c:	00000c66 	andeq	r0, r0, r6, ror #24
     760:	38070888 	stmdacc	r7, {r3, r7, fp}
     764:	8c000016 	stchi	0, cr0, [r0], {22}
     768:	0f4e0708 	svceq	0x004e0708
     76c:	08900000 	ldmeq	r0, {}	; <UNPREDICTABLE>
     770:	00166e07 	andseq	r6, r6, r7, lsl #28
     774:	07089400 	streq	r9, [r8, -r0, lsl #8]
     778:	0000115c 	andeq	r1, r0, ip, asr r1
     77c:	36070898 			; <UNDEFINED> instruction: 0x36070898
     780:	9c000013 	stcls	0, cr0, [r0], {19}
     784:	0e730708 	cdpeq	7, 7, cr0, cr3, cr8, {0}
     788:	08a00000 	stmiaeq	r0!, {}	; <UNPREDICTABLE>
     78c:	000e8507 	andeq	r8, lr, r7, lsl #10
     790:	0708a400 	streq	sl, [r8, -r0, lsl #8]
     794:	00000e97 	muleq	r0, r7, lr
     798:	a90708a8 	stmdbge	r7, {r3, r5, r7, fp}
     79c:	ac00000e 	stcge	0, cr0, [r0], {14}
     7a0:	0ebb0708 	cdpeq	7, 11, cr0, cr11, cr8, {0}
     7a4:	08b00000 	ldmeq	r0!, {}	; <UNPREDICTABLE>
     7a8:	000ecd07 	andeq	ip, lr, r7, lsl #26
     7ac:	0708b400 	streq	fp, [r8, -r0, lsl #8]
     7b0:	00000edf 	ldrdeq	r0, [r0], -pc	; <UNPREDICTABLE>
     7b4:	f10708b8 			; <UNDEFINED> instruction: 0xf10708b8
     7b8:	bc00000e 	stclt	0, cr0, [r0], {14}
     7bc:	19020708 	stmdbne	r2, {r3, r8, r9, sl}
     7c0:	08c00000 	stmiaeq	r0, {}^	; <UNPREDICTABLE>
     7c4:	000f1007 	andeq	r1, pc, r7
     7c8:	0708c400 	streq	ip, [r8, -r0, lsl #8]
     7cc:	00000d82 	andeq	r0, r0, r2, lsl #27
     7d0:	950708c8 	strls	r0, [r7, #-2248]	; 0xfffff738
     7d4:	cc00000d 	stcgt	0, cr0, [r0], {13}
     7d8:	0da80708 	stceq	7, cr0, [r8, #32]!
     7dc:	08d00000 	ldmeq	r0, {}^	; <UNPREDICTABLE>
     7e0:	000dbb07 	andeq	fp, sp, r7, lsl #22
     7e4:	0708d400 	streq	sp, [r8, -r0, lsl #8]
     7e8:	000017f8 	strdeq	r1, [r0], -r8
     7ec:	dc0708d8 	stcle	8, cr0, [r7], {216}	; 0xd8
     7f0:	dc00000d 	stcle	0, cr0, [r0], {13}
     7f4:	1b2f0708 	blne	bc241c <_start-0x7f43dbe4>
     7f8:	08e00000 	stmiaeq	r0!, {}^	; <UNPREDICTABLE>
     7fc:	00154a07 	andseq	r4, r5, r7, lsl #20
     800:	0708e400 	streq	lr, [r8, -r0, lsl #8]
     804:	00001002 	andeq	r1, r0, r2
     808:	5d0708e8 	stcpl	8, cr0, [r7, #-928]	; 0xfffffc60
     80c:	ec000014 	stc	0, cr0, [r0], {20}
     810:	15070708 	strne	r0, [r7, #-1800]	; 0xfffff8f8
     814:	08f00000 	ldmeq	r0!, {}^	; <UNPREDICTABLE>
     818:	0014f507 	andseq	pc, r4, r7, lsl #10
     81c:	0708f400 	streq	pc, [r8, -r0, lsl #8]
     820:	00001056 	andeq	r1, r0, r6, asr r0
     824:	440708f8 	strmi	r0, [r7], #-2296	; 0xfffff708
     828:	fc000010 	stc2	0, cr0, [r0], {16}
     82c:	11190708 	tstne	r9, r8, lsl #14
     830:	09000000 	stmdbeq	r0, {}	; <UNPREDICTABLE>
     834:	00128707 	andseq	r8, r2, r7, lsl #14
     838:	07090400 	streq	r0, [r9, -r0, lsl #8]
     83c:	00001569 	andeq	r1, r0, r9, ror #10
     840:	ea070908 	b	1c2c68 <_start-0x7fe3d398>
     844:	0c00000b 	stceq	0, cr0, [r0], {11}
     848:	14e20709 	strbtne	r0, [r2], #1801	; 0x709
     84c:	09100000 	ldmdbeq	r0, {}	; <UNPREDICTABLE>
     850:	00191407 	andseq	r1, r9, r7, lsl #8
     854:	07091400 	streq	r1, [r9, -r0, lsl #8]
     858:	000012e3 	andeq	r1, r0, r3, ror #5
     85c:	b9070918 	stmdblt	r7, {r3, r4, r8, fp}
     860:	1c000016 	stcne	0, cr0, [r0], {22}
     864:	16a70709 	strtne	r0, [r7], r9, lsl #14
     868:	09200000 	stmdbeq	r0!, {}	; <UNPREDICTABLE>
     86c:	00169507 	andseq	r9, r6, r7, lsl #10
     870:	07092400 	streq	r2, [r9, -r0, lsl #8]
     874:	00001683 	andeq	r1, r0, r3, lsl #13
     878:	ae070928 	vmlage.f16	s0, s14, s17	; <UNPREDICTABLE>
     87c:	2c00000f 	stccs	0, cr0, [r0], {15}
     880:	12980709 	addsne	r0, r8, #2359296	; 0x240000
     884:	09300000 	ldmdbeq	r0!, {}	; <UNPREDICTABLE>
     888:	0019c007 	andseq	ip, r9, r7
     88c:	07093400 	streq	r3, [r9, -r0, lsl #8]
     890:	00001324 	andeq	r1, r0, r4, lsr #6
     894:	a3070938 	movwge	r0, #31032	; 0x7938
     898:	3c000019 	stccc	0, cr0, [r0], {25}
     89c:	19910709 	ldmibne	r1, {r0, r3, r8, r9, sl}
     8a0:	09400000 	stmdbeq	r0, {}^	; <UNPREDICTABLE>
     8a4:	001a4807 	andseq	r4, sl, r7, lsl #16
     8a8:	07094400 	streq	r4, [r9, -r0, lsl #8]
     8ac:	000013e0 	andeq	r1, r0, r0, ror #7
     8b0:	a2070948 	andge	r0, r7, #72, 18	; 0x120000
     8b4:	4c00000f 	stcmi	0, cr0, [r0], {15}
     8b8:	16fc0709 	ldrbtne	r0, [ip], r9, lsl #14
     8bc:	09500000 	ldmdbeq	r0, {}^	; <UNPREDICTABLE>
     8c0:	00189d07 	andseq	r9, r8, r7, lsl #26
     8c4:	07095400 	streq	r5, [r9, -r0, lsl #8]
     8c8:	00001b41 	andeq	r1, r0, r1, asr #22
     8cc:	4c070958 			; <UNDEFINED> instruction: 0x4c070958
     8d0:	5c000013 	stcpl	0, cr0, [r0], {19}
     8d4:	135d0709 	cmpne	sp, #2359296	; 0x240000
     8d8:	09600000 	stmdbeq	r0!, {}^	; <UNPREDICTABLE>
     8dc:	000d4e07 	andeq	r4, sp, r7, lsl #28
     8e0:	07096400 	streq	r6, [r9, -r0, lsl #8]
     8e4:	00001933 	andeq	r1, r0, r3, lsr r9
     8e8:	22070968 	andcs	r0, r7, #104, 18	; 0x1a0000
     8ec:	6c00000f 	stcvs	0, cr0, [r0], {15}
     8f0:	14d00709 	ldrbne	r0, [r0], #1801	; 0x709
     8f4:	09700000 	ldmdbeq	r0!, {}^	; <UNPREDICTABLE>
     8f8:	00160b07 	andseq	r0, r6, r7, lsl #22
     8fc:	07097400 	streq	r7, [r9, -r0, lsl #8]
     900:	00001af1 	strdeq	r1, [r0], -r1	; <UNPREDICTABLE>
     904:	f5070978 			; <UNDEFINED> instruction: 0xf5070978
     908:	7c000010 	stcvc	0, cr0, [r0], {16}
     90c:	15cf0709 	strbne	r0, [pc, #1801]	; 101d <_start-0x7fffefe3>
     910:	09800000 	stmibeq	r0, {}	; <UNPREDICTABLE>
     914:	0011e307 	andseq	lr, r1, r7, lsl #6
     918:	07098400 	streq	r8, [r9, -r0, lsl #8]
     91c:	00001b5d 	andeq	r1, r0, sp, asr fp
     920:	6f070988 	svcvs	0x00070988
     924:	8c000019 	stchi	0, cr0, [r0], {25}
     928:	1a5e0709 	bne	1782554 <_start-0x7e87daac>
     92c:	09900000 	ldmibeq	r0, {}	; <UNPREDICTABLE>
     930:	00126807 	andseq	r6, r2, r7, lsl #16
     934:	07099400 	streq	r9, [r9, -r0, lsl #8]
     938:	000018c5 	andeq	r1, r0, r5, asr #17
     93c:	34070998 	strcc	r0, [r7], #-2456	; 0xfffff668
     940:	9c000015 	stcls	0, cr0, [r0], {21}
     944:	1a210709 	bne	842570 <_start-0x7f7bda90>
     948:	09a00000 	stmibeq	r0!, {}	; <UNPREDICTABLE>
     94c:	00121d07 	andseq	r1, r2, r7, lsl #26
     950:	0709a400 	streq	sl, [r9, -r0, lsl #8]
     954:	000018d9 	ldrdeq	r1, [r0], -r9
     958:	7a0709a8 	bvc	1c3000 <_start-0x7fe3d000>
     95c:	ac000015 	stcge	0, cr0, [r0], {21}
     960:	18370709 	ldmdane	r7!, {r0, r3, r8, r9, sl}
     964:	09b00000 	ldmibeq	r0!, {}	; <UNPREDICTABLE>
     968:	00185007 	andseq	r5, r8, r7
     96c:	0709b400 	streq	fp, [r9, -r0, lsl #8]
     970:	00001108 	andeq	r1, r0, r8, lsl #2
     974:	ef0709b8 	svc	0x000709b8
     978:	c000000d 	andgt	r0, r0, sp
     97c:	112a0709 			; <UNDEFINED> instruction: 0x112a0709
     980:	09d00000 	ldmibeq	r0, {}^	; <UNPREDICTABLE>
     984:	0019d207 	andseq	sp, r9, r7, lsl #4
     988:	0709d400 	streq	sp, [r9, -r0, lsl #8]
     98c:	00001b51 	andeq	r1, r0, r1, asr fp
     990:	270709d8 			; <UNDEFINED> instruction: 0x270709d8
     994:	dc000019 	stcle	0, cr0, [r0], {25}
     998:	14050709 	strne	r0, [r5], #-1801	; 0xfffff8f7
     99c:	09e00000 	stmibeq	r0!, {}^	; <UNPREDICTABLE>
     9a0:	000fd307 	andeq	sp, pc, r7, lsl #6
     9a4:	0709e400 	streq	lr, [r9, -r0, lsl #8]
     9a8:	00000fe0 	andeq	r0, r0, r0, ror #31
     9ac:	ac0709e8 			; <UNDEFINED> instruction: 0xac0709e8
     9b0:	f8000012 			; <UNDEFINED> instruction: 0xf8000012
     9b4:	10df0709 	sbcsne	r0, pc, r9, lsl #14
     9b8:	09fc0000 	ldmibeq	ip!, {}^	; <UNPREDICTABLE>
     9bc:	0012d007 	andseq	sp, r2, r7
     9c0:	070a0000 	streq	r0, [sl, -r0]
     9c4:	00001013 	andeq	r1, r0, r3, lsl r0
     9c8:	5b070a04 	blpl	1c31e0 <_start-0x7fe3ce20>
     9cc:	1c000017 	stcne	0, cr0, [r0], {23}
     9d0:	1659070a 	ldrbne	r0, [r9], -sl, lsl #14
     9d4:	0a340000 	beq	d009dc <_start-0x7f2ff624>
     9d8:	0014b807 	andseq	fp, r4, r7, lsl #16
     9dc:	070e0000 	streq	r0, [lr, -r0]
     9e0:	00001254 	andeq	r1, r0, r4, asr r2
     9e4:	10070e04 	andne	r0, r7, r4, lsl #28
     9e8:	0c00001a 	stceq	0, cr0, [r0], {26}
     9ec:	16dd070e 	ldrbne	r0, [sp], lr, lsl #14
     9f0:	0e140000 	cdpeq	0, 1, cr0, cr4, cr0, {0}
     9f4:	000d3507 	andeq	r3, sp, r7, lsl #10
     9f8:	070f9000 	streq	r9, [pc, -r0]
     9fc:	00001869 	andeq	r1, r0, r9, ror #16
     a00:	f5070f94 			; <UNDEFINED> instruction: 0xf5070f94
     a04:	98000011 	stmdals	r0, {r0, r4}
     a08:	149d070f 	ldrne	r0, [sp], #1807	; 0x70f
     a0c:	0f9c0000 	svceq	0x009c0000
     a10:	000e1707 	andeq	r1, lr, r7, lsl #14
     a14:	070fa000 	streq	sl, [pc, -r0]
     a18:	00000bfb 	strdeq	r0, [r0], -fp
     a1c:	19070fa4 	stmdbne	r7, {r2, r5, r7, r8, r9, sl, fp}
     a20:	a8000015 	stmdage	r0, {r0, r2, r4}
     a24:	1029070f 	eorne	r0, r9, pc, lsl #14
     a28:	0fac0000 	svceq	0x00ac0000
     a2c:	00148207 	andseq	r8, r4, r7, lsl #4
     a30:	070fb000 	streq	fp, [pc, -r0]
     a34:	00000dfc 	strdeq	r0, [r0], -ip
     a38:	2e070fb4 	mcrcs	15, 0, r0, cr7, cr4, {5}
     a3c:	b8000014 	stmdalt	r0, {r2, r4}
     a40:	1b6e070f 	blne	1b82684 <_start-0x7e47d97c>
     a44:	0fbc0000 	svceq	0x00bc0000
     a48:	00188207 	andseq	r8, r8, r7, lsl #4
     a4c:	070fc000 	streq	ip, [pc, -r0]
     a50:	00001413 	andeq	r1, r0, r3, lsl r4
     a54:	1d070fc4 	stcne	15, cr0, [r7, #-784]	; 0xfffffcf0
     a58:	c8000016 	stmdagt	r0, {r1, r2, r4}
     a5c:	19de070f 	ldmibne	lr, {r0, r1, r2, r3, r8, r9, sl}^
     a60:	0fcc0000 	svceq	0x00cc0000
     a64:	000e3e07 	andeq	r3, lr, r7, lsl #28
     a68:	070fd000 	streq	sp, [pc, -r0]
     a6c:	000013b7 			; <UNDEFINED> instruction: 0x000013b7
     a70:	47070fd4 			; <UNDEFINED> instruction: 0x47070fd4
     a74:	d8000011 	stmdale	r0, {r0, r4}
     a78:	0e55070f 	cdpeq	7, 5, cr0, cr5, cr15, {0}
     a7c:	10000000 	andne	r0, r0, r0
     a80:	00181e07 	andseq	r1, r8, r7, lsl #28
     a84:	07131800 	ldreq	r1, [r3, -r0, lsl #16]
     a88:	00001590 	muleq	r0, r0, r5
     a8c:	ef07131c 	svc	0x0007131c
     a90:	20000016 	andcs	r0, r0, r6, lsl r0
     a94:	13910713 	orrsne	r0, r1, #4980736	; 0x4c0000
     a98:	13240000 			; <UNDEFINED> instruction: 0x13240000
     a9c:	00170e07 	andseq	r0, r7, r7, lsl #28
     aa0:	07132800 	ldreq	r2, [r3, -r0, lsl #16]
     aa4:	000015ba 			; <UNDEFINED> instruction: 0x000015ba
     aa8:	2f07132c 	svccs	0x0007132c
     aac:	30000017 	andcc	r0, r0, r7, lsl r0
     ab0:	15e10713 	strbne	r0, [r1, #1811]!	; 0x713
     ab4:	13340000 	teqne	r4, #0
     ab8:	0015f607 	andseq	pc, r5, r7, lsl #12
     abc:	07133800 	ldreq	r3, [r3, -r0, lsl #16]
     ac0:	00001770 	andeq	r1, r0, r0, ror r7
     ac4:	8507133c 	strhi	r1, [r7, #-828]	; 0xfffffcc4
     ac8:	40000017 	andmi	r0, r0, r7, lsl r0
     acc:	0f640713 	svceq	0x00640713
     ad0:	13440000 	movtne	r0, #16384	; 0x4000
     ad4:	0018ad07 	andseq	sl, r8, r7, lsl #26
     ad8:	07140400 	ldreq	r0, [r4, -r0, lsl #8]
     adc:	000013ed 	andeq	r1, r0, sp, ror #7
     ae0:	f6071408 			; <UNDEFINED> instruction: 0xf6071408
     ae4:	0c000012 	stceq	0, cr0, [r0], {18}
     ae8:	11a10714 			; <UNDEFINED> instruction: 0x11a10714
     aec:	14400000 	strbne	r0, [r0], #-0
     af0:	000f3507 	andeq	r3, pc, r7, lsl #10
     af4:	00144400 	andseq	r4, r4, r0, lsl #8
     af8:	000fed02 	andeq	lr, pc, r2, lsl #26
     afc:	5ae30300 	bpl	ff8c1704 <value+0x7f8c01ae>
     b00:	08000000 	stmdaeq	r0, {}	; <UNPREDICTABLE>
     b04:	00000d68 	andeq	r0, r0, r8, ror #26
     b08:	02cc1d01 	sbceq	r1, ip, #1, 26	; 0x40
     b0c:	00288000 	eoreq	r8, r8, r0
     b10:	9c010000 	stcls	0, cr0, [r1], {-0}
     b14:	000e6709 	andeq	r6, lr, r9, lsl #14
     b18:	700e0100 	andvc	r0, lr, r0, lsl #2
     b1c:	5c800002 	stcpl	0, cr0, [r0], {2}
     b20:	01000000 	mrseq	r0, (UNDEF: 0)
     b24:	0006ae9c 	muleq	r6, ip, lr
     b28:	17b40a00 	ldrne	r0, [r4, r0, lsl #20]!
     b2c:	0e010000 	cdpeq	0, 0, cr0, cr1, cr0, {0}
     b30:	00000652 	andeq	r0, r0, r2, asr r6
     b34:	0a6e9102 	beq	1ba4f44 <_start-0x7e45b0bc>
     b38:	000017bb 			; <UNDEFINED> instruction: 0x000017bb
     b3c:	00300e01 	eorseq	r0, r0, r1, lsl #28
     b40:	91020000 	mrsls	r0, (UNDEF: 2)
     b44:	01cd0b68 	biceq	r0, sp, r8, ror #22
     b48:	10010000 	andne	r0, r1, r0
     b4c:	00000030 	andeq	r0, r0, r0, lsr r0
     b50:	00749102 	rsbseq	r9, r4, r2, lsl #2
     b54:	0011360c 	andseq	r3, r1, ip, lsl #12
     b58:	30090100 	andcc	r0, r9, r0, lsl #2
     b5c:	3c000000 	stccc	0, cr0, [r0], {-0}
     b60:	34800002 	strcc	r0, [r0], #2
     b64:	01000000 	mrseq	r0, (UNDEF: 0)
     b68:	0006d69c 	muleq	r6, ip, r6
     b6c:	17b40a00 	ldrne	r0, [r4, r0, lsl #20]!
     b70:	09010000 	stmdbeq	r1, {}	; <UNPREDICTABLE>
     b74:	00000652 	andeq	r0, r0, r2, asr r6
     b78:	00769102 	rsbseq	r9, r6, r2, lsl #2
     b7c:	000c240d 	andeq	r2, ip, sp, lsl #8
     b80:	fc030100 	stc2	1, cr0, [r3], {-0}
     b84:	40800001 	addmi	r0, r0, r1
     b88:	01000000 	mrseq	r0, (UNDEF: 0)
     b8c:	17b40a9c 			; <UNDEFINED> instruction: 0x17b40a9c
     b90:	03010000 	movweq	r0, #4096	; 0x1000
     b94:	00000652 	andeq	r0, r0, r2, asr r6
     b98:	0a769102 	beq	1da4fa8 <_start-0x7e25b058>
     b9c:	00000229 	andeq	r0, r0, r9, lsr #4
     ba0:	00300301 	eorseq	r0, r0, r1, lsl #6
     ba4:	91020000 	mrsls	r0, (UNDEF: 2)
     ba8:	e1000070 	hlt	0x0000
     bac:	04000000 	streq	r0, [r0], #-0
     bb0:	00021900 	andeq	r1, r2, r0, lsl #18
     bb4:	77010400 	strvc	r0, [r1, -r0, lsl #8]
     bb8:	0c000000 	stceq	0, cr0, [r0], {-0}
     bbc:	00001bb1 			; <UNDEFINED> instruction: 0x00001bb1
     bc0:	00000009 	andeq	r0, r0, r9
     bc4:	800002f4 	strdhi	r0, [r0], -r4
     bc8:	000000e4 	andeq	r0, r0, r4, ror #1
     bcc:	00000111 	andeq	r0, r0, r1, lsl r1
     bd0:	01010802 	tsteq	r1, r2, lsl #16
     bd4:	00000046 	andeq	r0, r0, r6, asr #32
     bd8:	001b8903 	andseq	r8, fp, r3, lsl #18
     bdc:	46010100 	strmi	r0, [r1], -r0, lsl #2
     be0:	00000000 	andeq	r0, r0, r0
     be4:	6d657204 	sfmvs	f7, 2, [r5, #-16]!
     be8:	46010100 	strmi	r0, [r1], -r0, lsl #2
     bec:	04000000 	streq	r0, [r0], #-0
     bf0:	05040500 	streq	r0, [r4, #-1280]	; 0xfffffb00
     bf4:	00746e69 	rsbseq	r6, r4, r9, ror #28
     bf8:	001bb706 	andseq	fp, fp, r6, lsl #14
     bfc:	25010100 	strcs	r0, [r1, #-256]	; 0xffffff00
     c00:	07000000 	streq	r0, [r0, -r0]
     c04:	00001ba4 	andeq	r1, r0, r4, lsr #23
     c08:	00461201 	subeq	r1, r6, r1, lsl #4
     c0c:	03780000 	cmneq	r8, #0
     c10:	00608000 	rsbeq	r8, r0, r0
     c14:	9c010000 	stcls	0, cr0, [r1], {-0}
     c18:	0000009a 	muleq	r0, sl, r0
     c1c:	6d756e08 	ldclvs	14, cr6, [r5, #-32]!	; 0xffffffe0
     c20:	46120100 	ldrmi	r0, [r2], -r0, lsl #2
     c24:	02000000 	andeq	r0, r0, #0
     c28:	9e096c91 	mcrls	12, 0, r6, cr9, cr1, {4}
     c2c:	0100001b 	tsteq	r0, fp, lsl r0
     c30:	00004612 	andeq	r4, r0, r2, lsl r6
     c34:	68910200 	ldmvs	r1, {r9}
     c38:	0100710a 	tsteq	r0, sl, lsl #2
     c3c:	00004613 	andeq	r4, r0, r3, lsl r6
     c40:	74910200 	ldrvc	r0, [r1], #512	; 0x200
     c44:	1b8e0b00 	blne	fe38384c <value+0x7e3822f6>
     c48:	03010000 	movweq	r0, #4096	; 0x1000
     c4c:	0000004d 	andeq	r0, r0, sp, asr #32
     c50:	800002f4 	strdhi	r0, [r0], -r4
     c54:	00000084 	andeq	r0, r0, r4, lsl #1
     c58:	6e089c01 	cdpvs	12, 0, cr9, cr8, cr1, {0}
     c5c:	01006d75 	tsteq	r0, r5, ror sp
     c60:	00004603 	andeq	r4, r0, r3, lsl #12
     c64:	60910200 	addsvs	r0, r1, r0, lsl #4
     c68:	001b9e09 	andseq	r9, fp, r9, lsl #28
     c6c:	46030100 	strmi	r0, [r3], -r0, lsl #2
     c70:	02000000 	andeq	r0, r0, #0
     c74:	720a5c91 	andvc	r5, sl, #37120	; 0x9100
     c78:	4d040100 	stfmis	f0, [r4, #-0]
     c7c:	02000000 	andeq	r0, r0, #0
     c80:	710a6c91 			; <UNDEFINED> instruction: 0x710a6c91
     c84:	46050100 	strmi	r0, [r5], -r0, lsl #2
     c88:	02000000 	andeq	r0, r0, #0
     c8c:	00007491 	muleq	r0, r1, r4
     c90:	0000013e 	andeq	r0, r0, lr, lsr r1
     c94:	02d30004 	sbcseq	r0, r3, #4
     c98:	01040000 	mrseq	r0, (UNDEF: 4)
     c9c:	00000077 	andeq	r0, r0, r7, ror r0
     ca0:	001bc90c 	andseq	ip, fp, ip, lsl #18
     ca4:	00000900 	andeq	r0, r0, r0, lsl #18
     ca8:	0003d800 	andeq	sp, r3, r0, lsl #16
     cac:	00010080 	andeq	r0, r1, r0, lsl #1
     cb0:	00015500 	andeq	r5, r1, r0, lsl #10
     cb4:	07040200 	streq	r0, [r4, -r0, lsl #4]
     cb8:	00001dc9 	andeq	r1, r0, r9, asr #27
     cbc:	3c070202 	sfmcc	f0, 4, [r7], {2}
     cc0:	02000000 	andeq	r0, r0, #0
     cc4:	00690801 	rsbeq	r0, r9, r1, lsl #16
     cc8:	04030000 	streq	r0, [r3], #-0
     ccc:	746e6905 	strbtvc	r6, [lr], #-2309	; 0xfffff6fb
     cd0:	05020200 	streq	r0, [r2, #-512]	; 0xfffffe00
     cd4:	00000058 	andeq	r0, r0, r8, asr r0
     cd8:	72080102 	andvc	r0, r8, #-2147483648	; 0x80000000
     cdc:	04000000 	streq	r0, [r0], #-0
     ce0:	00000048 	andeq	r0, r0, r8, asr #32
     ce4:	00330105 	eorseq	r0, r3, r5, lsl #2
     ce8:	0a020000 	beq	80cf0 <_start-0x7ff7f310>
     cec:	0000006d 	andeq	r0, r0, sp, rrx
     cf0:	001bf806 	andseq	pc, fp, r6, lsl #16
     cf4:	0d060000 	stceq	0, cr0, [r6, #-0]
     cf8:	0100001c 	tsteq	r0, ip, lsl r0
     cfc:	33010500 	movwcc	r0, #5376	; 0x1500
     d00:	02000000 	andeq	r0, r0, #0
     d04:	00008c13 	andeq	r8, r0, r3, lsl ip
     d08:	1c2b0600 	stcne	6, cr0, [fp], #-0
     d0c:	06000000 	streq	r0, [r0], -r0
     d10:	00001bec 	andeq	r1, r0, ip, ror #23
     d14:	1c200601 	stcne	6, cr0, [r0], #-4
     d18:	00020000 	andeq	r0, r2, r0
     d1c:	00330105 	eorseq	r0, r3, r5, lsl #2
     d20:	20020000 	andcs	r0, r2, r0
     d24:	000000ab 	andeq	r0, r0, fp, lsr #1
     d28:	001c0106 	andseq	r0, ip, r6, lsl #2
     d2c:	d0060000 	andle	r0, r6, r0
     d30:	0100001b 	tsteq	r0, fp, lsl r0
     d34:	001c0706 	andseq	r0, ip, r6, lsl #14
     d38:	07000200 	streq	r0, [r0, -r0, lsl #4]
     d3c:	00001c15 	andeq	r1, r0, r5, lsl ip
     d40:	00b61503 	adcseq	r1, r6, r3, lsl #10
     d44:	04080000 	streq	r0, [r8], #-0
     d48:	000000bc 	strheq	r0, [r0], -ip
     d4c:	0000c709 	andeq	ip, r0, r9, lsl #14
     d50:	00480a00 	subeq	r0, r8, r0, lsl #20
     d54:	0b000000 	bleq	d5c <_start-0x7ffff2a4>
     d58:	00000229 	andeq	r0, r0, r9, lsr #4
     d5c:	002c0801 	eoreq	r0, ip, r1, lsl #16
     d60:	c30c0000 	movwgt	r0, #49152	; 0xc000
     d64:	0100001b 	tsteq	r0, fp, lsl r0
     d68:	00042013 	andeq	r2, r4, r3, lsl r0
     d6c:	0000b880 	andeq	fp, r0, r0, lsl #17
     d70:	0d9c0100 	ldfeqs	f0, [ip]
     d74:	00001be2 	andeq	r1, r0, r2, ror #23
     d78:	03d80a01 	bicseq	r0, r8, #4096	; 0x1000
     d7c:	00488000 	subeq	r8, r8, r0
     d80:	9c010000 	stcls	0, cr0, [r1], {-0}
     d84:	00000122 	andeq	r0, r0, r2, lsr #2
     d88:	746d660e 	strbtvc	r6, [sp], #-1550	; 0xfffff9f2
     d8c:	220a0100 	andcs	r0, sl, #0, 2
     d90:	02000001 	andeq	r0, r0, #1
     d94:	100f7091 	mulne	pc, r1, r0	; <UNPREDICTABLE>
     d98:	01006e66 	tsteq	r0, r6, ror #28
     d9c:	0000ab0c 	andeq	sl, r0, ip, lsl #22
     da0:	64910200 	ldrvs	r0, [r1], #512	; 0x200
     da4:	00706110 	rsbseq	r6, r0, r0, lsl r1
     da8:	01280d01 			; <UNDEFINED> instruction: 0x01280d01
     dac:	91020000 	mrsls	r0, (UNDEF: 2)
     db0:	04080060 	streq	r0, [r8], #-96	; 0xffffffa0
     db4:	0000004f 	andeq	r0, r0, pc, asr #32
     db8:	001bd811 	andseq	sp, fp, r1, lsl r8
     dbc:	00040400 	andeq	r0, r4, r0, lsl #8
     dc0:	0000013f 	andeq	r0, r0, pc, lsr r1
     dc4:	001c3712 	andseq	r3, ip, r2, lsl r7
     dc8:	00013f00 	andeq	r3, r1, r0, lsl #30
     dcc:	13000000 	movwne	r0, #0
     dd0:	069a0004 	ldreq	r0, [sl], r4
     dd4:	00040000 	andeq	r0, r4, r0
     dd8:	000003cb 	andeq	r0, r0, fp, asr #7
     ddc:	00770104 	rsbseq	r0, r7, r4, lsl #2
     de0:	6b0c0000 	blvs	300de8 <_start-0x7fcff218>
     de4:	0900001c 	stmdbeq	r0, {r2, r3, r4}
     de8:	d8000000 	stmdale	r0, {}	; <UNPREDICTABLE>
     dec:	2c800004 	stccs	0, cr0, [r0], {4}
     df0:	02000004 	andeq	r0, r0, #4
     df4:	02000002 	andeq	r0, r0, #2
     df8:	0000004f 	andeq	r0, r0, pc, asr #32
     dfc:	00300402 	eorseq	r0, r0, r2, lsl #8
     e00:	04030000 	streq	r0, [r3], #-0
     e04:	001dc907 	andseq	ip, sp, r7, lsl #18
     e08:	07020300 	streq	r0, [r2, -r0, lsl #6]
     e0c:	0000003c 	andeq	r0, r0, ip, lsr r0
     e10:	001cde02 	andseq	sp, ip, r2, lsl #28
     e14:	49060200 	stmdbmi	r6, {r9}
     e18:	03000000 	movweq	r0, #0
     e1c:	00690801 	rsbeq	r0, r9, r1, lsl #16
     e20:	04040000 	streq	r0, [r4], #-0
     e24:	746e6905 	strbtvc	r6, [lr], #-2309	; 0xfffff6fb
     e28:	05020300 	streq	r0, [r2, #-768]	; 0xfffffd00
     e2c:	00000058 	andeq	r0, r0, r8, asr r0
     e30:	72080103 	andvc	r0, r8, #-1073741824	; 0xc0000000
     e34:	05000000 	streq	r0, [r0, #-0]
     e38:	00004901 	andeq	r4, r0, r1, lsl #18
     e3c:	5c120300 	ldcpl	3, cr0, [r2], {-0}
     e40:	06000001 	streq	r0, [r0], -r1
     e44:	00524852 	subseq	r4, r2, r2, asr r8
     e48:	48540600 	ldmdami	r4, {r9, sl}^
     e4c:	06000052 			; <UNDEFINED> instruction: 0x06000052
     e50:	00524549 	subseq	r4, r2, r9, asr #10
     e54:	49490604 	stmdbmi	r9, {r2, r9, sl}^
     e58:	06080052 			; <UNDEFINED> instruction: 0x06080052
     e5c:	00524346 	subseq	r4, r2, r6, asr #6
     e60:	434c0608 	movtmi	r0, #50696	; 0xc608
     e64:	060c0052 			; <UNDEFINED> instruction: 0x060c0052
     e68:	0052434d 	subseq	r4, r2, sp, asr #6
     e6c:	534c0610 	movtpl	r0, #50704	; 0xc610
     e70:	06140052 			; <UNDEFINED> instruction: 0x06140052
     e74:	0052534d 	subseq	r5, r2, sp, asr #6
     e78:	43540618 	cmpmi	r4, #24, 12	; 0x1800000
     e7c:	06180052 			; <UNDEFINED> instruction: 0x06180052
     e80:	00525053 	subseq	r5, r2, r3, asr r0
     e84:	4c54061c 	mrrcmi	6, 1, r0, r4, cr12
     e88:	071c0052 			; <UNDEFINED> instruction: 0x071c0052
     e8c:	00001ccf 	andeq	r1, r0, pc, asr #25
     e90:	1cd40720 	ldclne	7, cr0, [r4], {32}
     e94:	07240000 	streq	r0, [r4, -r0]!
     e98:	00001c5b 	andeq	r1, r0, fp, asr ip
     e9c:	1cb80728 	ldcne	7, cr0, [r8], #160	; 0xa0
     ea0:	07280000 	streq	r0, [r8, -r0]!
     ea4:	00001d54 	andeq	r1, r0, r4, asr sp
     ea8:	1cb2072c 	ldcne	7, cr0, [r2], #176	; 0xb0
     eac:	072c0000 	streq	r0, [ip, -r0]!
     eb0:	00001d4d 	andeq	r1, r0, sp, asr #26
     eb4:	1d890730 	stcne	7, cr0, [r9, #192]	; 0xc0
     eb8:	07300000 	ldreq	r0, [r0, -r0]!
     ebc:	00001d46 	andeq	r1, r0, r6, asr #26
     ec0:	1d830734 	stcne	7, cr0, [r3, #208]	; 0xd0
     ec4:	06340000 	ldrteq	r0, [r4], -r0
     ec8:	00524c42 	subseq	r4, r2, r2, asr #24
     ecc:	1c550738 	mrrcne	7, 3, r0, r5, cr8
     ed0:	063c0000 	ldrteq	r0, [ip], -r0
     ed4:	00524353 	subseq	r4, r2, r3, asr r3
     ed8:	53530640 	cmppl	r3, #64, 12	; 0x4000000
     edc:	07440052 	smlsldeq	r0, r4, r2, r0
     ee0:	00001cfa 	strdeq	r1, [r0], -sl
     ee4:	564d0648 	strbpl	r0, [sp], -r8, asr #12
     ee8:	07500052 			; <UNDEFINED> instruction: 0x07500052
     eec:	00001cad 	andeq	r1, r0, sp, lsr #25
     ef0:	1cbe0754 	ldcne	7, cr0, [lr], #336	; 0x150
     ef4:	06580000 	ldrbeq	r0, [r8], -r0
     ef8:	00524557 	subseq	r4, r2, r7, asr r5
     efc:	1cca075c 	stclne	7, cr0, [sl], {92}	; 0x5c
     f00:	07600000 	strbeq	r0, [r0, -r0]!
     f04:	00001cff 	strdeq	r1, [r0], -pc	; <UNPREDICTABLE>
     f08:	1c4a0764 	mcrrne	7, 6, r0, sl, cr4
     f0c:	07680000 	strbeq	r0, [r8, -r0]!
     f10:	00001ce6 	andeq	r1, r0, r6, ror #25
     f14:	1c3c076c 	ldcne	7, cr0, [ip], #-432	; 0xfffffe50
     f18:	07700000 	ldrbeq	r0, [r0, -r0]!
     f1c:	00001cf1 	strdeq	r1, [r0], -r1	; <UNPREDICTABLE>
     f20:	1cd90774 	ldclne	7, cr0, [r9], {116}	; 0x74
     f24:	07800000 	streq	r0, [r0, r0]
     f28:	00001ceb 	andeq	r1, r0, fp, ror #25
     f2c:	01050084 	smlabbeq	r5, r4, r0, r0
     f30:	00000049 	andeq	r0, r0, r9, asr #32
     f34:	01750a04 	cmneq	r5, r4, lsl #20
     f38:	f8070000 			; <UNDEFINED> instruction: 0xf8070000
     f3c:	0000001b 	andeq	r0, r0, fp, lsl r0
     f40:	001c0d07 	andseq	r0, ip, r7, lsl #26
     f44:	02000100 	andeq	r0, r0, #0, 2
     f48:	00001d67 	andeq	r1, r0, r7, ror #26
     f4c:	015c0d04 	cmpeq	ip, r4, lsl #26
     f50:	01050000 	mrseq	r0, (UNDEF: 5)
     f54:	00000049 	andeq	r0, r0, r9, asr #32
     f58:	019f1304 	orrseq	r1, pc, r4, lsl #6
     f5c:	2b070000 	blcs	1c0f64 <_start-0x7fe3f09c>
     f60:	0000001c 	andeq	r0, r0, ip, lsl r0
     f64:	001bec07 	andseq	lr, fp, r7, lsl #24
     f68:	20070100 	andcs	r0, r7, r0, lsl #2
     f6c:	0200001c 	andeq	r0, r0, #28
     f70:	1d760200 	lfmne	f0, 2, [r6, #-0]
     f74:	17040000 	strne	r0, [r4, -r0]
     f78:	00000180 	andeq	r0, r0, r0, lsl #3
     f7c:	00490105 	subeq	r0, r9, r5, lsl #2
     f80:	20040000 	andcs	r0, r4, r0
     f84:	000001c9 	andeq	r0, r0, r9, asr #3
     f88:	001c0107 	andseq	r0, ip, r7, lsl #2
     f8c:	d0070000 	andle	r0, r7, r0
     f90:	0100001b 	tsteq	r0, fp, lsl r0
     f94:	001c0707 	andseq	r0, ip, r7, lsl #14
     f98:	02000200 	andeq	r0, r0, #0, 4
     f9c:	00001d2a 	andeq	r1, r0, sl, lsr #26
     fa0:	01aa2404 			; <UNDEFINED> instruction: 0x01aa2404
     fa4:	04050000 	streq	r0, [r5], #-0
     fa8:	00000030 	andeq	r0, r0, r0, lsr r0
     fac:	02290b05 	eoreq	r0, r9, #5120	; 0x1400
     fb0:	2c080000 	stccs	0, cr0, [r8], {-0}
     fb4:	00000006 	andeq	r0, r0, r6
     fb8:	0844e000 	stmdaeq	r4, {sp, lr, pc}^
     fbc:	000006a2 	andeq	r0, r0, r2, lsr #13
     fc0:	44e00400 	strbtmi	r0, [r0], #1024	; 0x400
     fc4:	00077808 	andeq	r7, r7, r8, lsl #16
     fc8:	e0050000 	and	r0, r5, r0
     fcc:	088a0844 	stmeq	sl, {r2, r6, fp}
     fd0:	06000000 	streq	r0, [r0], -r0
     fd4:	800844e0 	andhi	r4, r8, r0, ror #9
     fd8:	00000008 	andeq	r0, r0, r8
     fdc:	0844e007 	stmdaeq	r4, {r0, r1, r2, sp, lr, pc}^
     fe0:	0000029a 	muleq	r0, sl, r2
     fe4:	44e00800 	strbtmi	r0, [r0], #2048	; 0x800
     fe8:	0008ee08 	andeq	lr, r8, r8, lsl #28
     fec:	e0090000 	and	r0, r9, r0
     ff0:	067a0844 	ldrbteq	r0, [sl], -r4, asr #16
     ff4:	0a000000 	beq	ffc <_start-0x7ffff004>
     ff8:	050044e0 	streq	r4, [r0, #-1248]	; 0xfffffb20
     ffc:	00003702 	andeq	r3, r0, r2, lsl #14
    1000:	f41c0500 			; <UNDEFINED> instruction: 0xf41c0500
    1004:	07000004 	streq	r0, [r0, -r4]
    1008:	00000795 	muleq	r0, r5, r7
    100c:	05d20700 	ldrbeq	r0, [r2, #1792]	; 0x700
    1010:	07040000 	streq	r0, [r4, -r0]
    1014:	0000015c 	andeq	r0, r0, ip, asr r1
    1018:	00c80708 	sbceq	r0, r8, r8, lsl #14
    101c:	070c0000 	streq	r0, [ip, -r0]
    1020:	000004e5 	andeq	r0, r0, r5, ror #9
    1024:	08440714 	stmdaeq	r4, {r2, r4, r8, r9, sl}^
    1028:	07180000 	ldreq	r0, [r8, -r0]
    102c:	0000064e 	andeq	r0, r0, lr, asr #12
    1030:	0147071c 	cmpeq	r7, ip, lsl r7
    1034:	07240000 	streq	r0, [r4, -r0]!
    1038:	0000073d 	andeq	r0, r0, sp, lsr r7
    103c:	082d0728 	stmdaeq	sp!, {r3, r5, r8, r9, sl}
    1040:	072c0000 	streq	r0, [ip, -r0]!
    1044:	000009ba 			; <UNDEFINED> instruction: 0x000009ba
    1048:	00dc0730 	sbcseq	r0, ip, r0, lsr r7
    104c:	07340000 	ldreq	r0, [r4, -r0]!
    1050:	0000019c 	muleq	r0, ip, r1
    1054:	02a10738 	adceq	r0, r1, #56, 14	; 0xe00000
    1058:	073c0000 	ldreq	r0, [ip, -r0]!
    105c:	00000751 	andeq	r0, r0, r1, asr r7
    1060:	034e0740 	movteq	r0, #59200	; 0xe740
    1064:	07440000 	strbeq	r0, [r4, -r0]
    1068:	000002c9 	andeq	r0, r0, r9, asr #5
    106c:	00f20748 	rscseq	r0, r2, r8, asr #14
    1070:	074c0000 	strbeq	r0, [ip, -r0]
    1074:	00000467 	andeq	r0, r0, r7, ror #8
    1078:	05be0750 	ldreq	r0, [lr, #1872]!	; 0x750
    107c:	07600000 	strbeq	r0, [r0, -r0]!
    1080:	00000286 	andeq	r0, r0, r6, lsl #5
    1084:	01310764 	teqeq	r1, r4, ror #14
    1088:	07680000 	strbeq	r0, [r8, -r0]!
    108c:	00000a2f 	andeq	r0, r0, pc, lsr #20
    1090:	0ad8076c 	beq	ff602e48 <value+0x7f6018f2>
    1094:	07700000 	ldrbeq	r0, [r0, -r0]!
    1098:	00000375 	andeq	r0, r0, r5, ror r3
    109c:	011c0774 	tsteq	ip, r4, ror r7
    10a0:	07780000 	ldrbeq	r0, [r8, -r0]!
    10a4:	00000518 	andeq	r0, r0, r8, lsl r5
    10a8:	0309077c 	movweq	r0, #38780	; 0x977c
    10ac:	07800000 	streq	r0, [r0, r0]
    10b0:	0000038a 	andeq	r0, r0, sl, lsl #7
    10b4:	040e0784 	streq	r0, [lr], #-1924	; 0xfffff87c
    10b8:	07880000 	streq	r0, [r8, r0]
    10bc:	000006fd 	strdeq	r0, [r0], -sp
    10c0:	072807ac 	streq	r0, [r8, -ip, lsr #15]!
    10c4:	07b00000 	ldreq	r0, [r0, r0]!
    10c8:	00000780 	andeq	r0, r0, r0, lsl #15
    10cc:	090e07b4 	stmdbeq	lr, {r2, r4, r5, r7, r8, r9, sl}
    10d0:	07bc0000 	ldreq	r0, [ip, r0]!
    10d4:	00000271 	andeq	r0, r0, r1, ror r2
    10d8:	048d07c0 	streq	r0, [sp], #1984	; 0x7c0
    10dc:	07c40000 	strbeq	r0, [r4, r0]
    10e0:	00000aa9 	andeq	r0, r0, r9, lsr #21
    10e4:	095f07cc 	ldmdbeq	pc, {r2, r3, r6, r7, r8, r9, sl}^	; <UNPREDICTABLE>
    10e8:	07d00000 	ldrbeq	r0, [r0, r0]
    10ec:	000004a2 	andeq	r0, r0, r2, lsr #9
    10f0:	057b07d4 	ldrbeq	r0, [fp, #-2004]!	; 0xfffff82c
    10f4:	07d80000 	ldrbeq	r0, [r8, r0]
    10f8:	00000ac0 	andeq	r0, r0, r0, asr #21
    10fc:	047b07dc 	ldrbteq	r0, [fp], #-2012	; 0xfffff824
    1100:	07e00000 	strbeq	r0, [r0, r0]!
    1104:	000002f1 	strdeq	r0, [r0], -r1
    1108:	06d107e4 	ldrbeq	r0, [r1], r4, ror #15
    110c:	07e80000 	strbeq	r0, [r8, r0]!
    1110:	00000451 	andeq	r0, r0, r1, asr r4
    1114:	04b907ec 	ldrteq	r0, [r9], #2028	; 0x7ec
    1118:	07f00000 	ldrbeq	r0, [r0, r0]!
    111c:	0000031f 	andeq	r0, r0, pc, lsl r3
    1120:	03a007f4 	moveq	r0, #244, 14	; 0x3d00000
    1124:	07f80000 	ldrbeq	r0, [r8, r0]!
    1128:	000007ab 	andeq	r0, r0, fp, lsr #15
    112c:	081809fc 	ldmdaeq	r8, {r2, r3, r4, r5, r6, r7, r8, fp}
    1130:	01000000 	mrseq	r0, (UNDEF: 0)
    1134:	0003b409 	andeq	fp, r3, r9, lsl #8
    1138:	09010c00 	stmdbeq	r1, {sl, fp}
    113c:	00000662 	andeq	r0, r0, r2, ror #12
    1140:	06090110 			; <UNDEFINED> instruction: 0x06090110
    1144:	1c000001 	stcne	0, cr0, [r0], {1}
    1148:	09360901 	ldmdbeq	r6!, {r0, r8, fp}
    114c:	01200000 			; <UNDEFINED> instruction: 0x01200000
    1150:	0009ce09 	andeq	ip, r9, r9, lsl #28
    1154:	09012c00 	stmdbeq	r1, {sl, fp, sp}
    1158:	00000549 	andeq	r0, r0, r9, asr #10
    115c:	15090130 	strne	r0, [r9, #-304]	; 0xfffffed0
    1160:	4000000a 	andmi	r0, r0, sl
    1164:	08910901 	ldmeq	r1, {r0, r8, fp}
    1168:	01440000 	mrseq	r0, (UNDEF: 68)
    116c:	0009ff09 	andeq	pc, r9, r9, lsl #30
    1170:	09014800 	stmdbeq	r1, {fp, lr}
    1174:	0000022f 	andeq	r0, r0, pc, lsr #4
    1178:	3309014c 	movwcc	r0, #37196	; 0x914c
    117c:	50000006 	andpl	r0, r0, r6
    1180:	09910701 	ldmibeq	r1, {r0, r8, r9, sl}
    1184:	07000000 	streq	r0, [r0, -r0]
    1188:	00000424 	andeq	r0, r0, r4, lsr #8
    118c:	04cf0704 	strbeq	r0, [pc], #1796	; 1194 <_start-0x7fffee6c>
    1190:	07080000 	streq	r0, [r8, -r0]
    1194:	00000aed 	andeq	r0, r0, sp, ror #21
    1198:	09a3070c 	stmibeq	r3!, {r2, r3, r8, r9, sl}
    119c:	07100000 	ldreq	r0, [r0, -r0]
    11a0:	000008c2 	andeq	r0, r0, r2, asr #17
    11a4:	07d50714 	bfieq	r0, r4, #14, #8
    11a8:	07180000 	ldreq	r0, [r8, -r0]
    11ac:	0000094a 	andeq	r0, r0, sl, asr #18
    11b0:	0858071c 	ldmdaeq	r8, {r2, r3, r4, r8, r9, sl}^
    11b4:	07200000 	streq	r0, [r0, -r0]!
    11b8:	0000052e 	andeq	r0, r0, lr, lsr #10
    11bc:	03330724 	teqeq	r3, #36, 14	; 0x900000
    11c0:	07280000 	streq	r0, [r8, -r0]!
    11c4:	00000976 	andeq	r0, r0, r6, ror r9
    11c8:	07c0072c 	strbeq	r0, [r0, ip, lsr #14]
    11cc:	07300000 	ldreq	r0, [r0, -r0]!
    11d0:	000001d2 	ldrdeq	r0, [r0], -r2
    11d4:	08a70734 	stmiaeq	r7!, {r2, r4, r5, r8, r9, sl}
    11d8:	07380000 	ldreq	r0, [r8, -r0]!
    11dc:	00000172 	andeq	r0, r0, r2, ror r1
    11e0:	07e9073c 			; <UNDEFINED> instruction: 0x07e9073c
    11e4:	07400000 	strbeq	r0, [r0, -r0]
    11e8:	00000a44 	andeq	r0, r0, r4, asr #20
    11ec:	08da0744 	ldmeq	sl, {r2, r6, r8, r9, sl}^
    11f0:	07480000 	strbeq	r0, [r8, -r0]
    11f4:	000001b1 			; <UNDEFINED> instruction: 0x000001b1
    11f8:	0a8d074c 	beq	fe342f30 <value+0x7e3419da>
    11fc:	07500000 	ldrbeq	r0, [r0, -r0]
    1200:	00000618 	andeq	r0, r0, r8, lsl r6
    1204:	02480754 	subeq	r0, r8, #84, 14	; 0x1500000
    1208:	07580000 	ldrbeq	r0, [r8, -r0]
    120c:	000006aa 	andeq	r0, r0, sl, lsr #13
    1210:	04fc075c 	ldrbteq	r0, [ip], #1884	; 0x75c
    1214:	07600000 	strbeq	r0, [r0, -r0]!
    1218:	000007fc 	strdeq	r0, [r0], -ip
    121c:	02b50764 	adcseq	r0, r5, #100, 14	; 0x1900000
    1220:	07680000 	strbeq	r0, [r8, -r0]!
    1224:	000001e5 	andeq	r0, r0, r5, ror #3
    1228:	06be076c 	ldrteq	r0, [lr], ip, ror #14
    122c:	07700000 	ldrbeq	r0, [r0, -r0]!
    1230:	0000020e 	andeq	r0, r0, lr, lsl #4
    1234:	0a5a0774 	beq	168300c <_start-0x7e97cff4>
    1238:	07780000 	ldrbeq	r0, [r8, -r0]!
    123c:	00000712 	andeq	r0, r0, r2, lsl r7
    1240:	02dd077c 	sbcseq	r0, sp, #124, 14	; 0x1f00000
    1244:	07800000 	streq	r0, [r0, r0]
    1248:	000001fa 	strdeq	r0, [r0], -sl
    124c:	07640784 	strbeq	r0, [r4, -r4, lsl #15]!
    1250:	07880000 	streq	r0, [r8, r0]
    1254:	000006e9 	andeq	r0, r0, r9, ror #13
    1258:	03ef078c 	mvneq	r0, #140, 14	; 0x2300000
    125c:	07900000 	ldreq	r0, [r0, r0]
    1260:	000005e7 	andeq	r0, r0, r7, ror #11
    1264:	086b0794 	stmdaeq	fp!, {r2, r4, r7, r8, r9, sl}^
    1268:	07980000 	ldreq	r0, [r8, r0]
    126c:	000005a8 	andeq	r0, r0, r8, lsr #11
    1270:	0b26079c 	bleq	9830e8 <_start-0x7f67cf18>
    1274:	07a00000 	streq	r0, [r0, r0]!
    1278:	00000922 	andeq	r0, r0, r2, lsr #18
    127c:	025e07a4 	subseq	r0, lr, #164, 14	; 0x2900000
    1280:	07a80000 	streq	r0, [r8, r0]!
    1284:	00000362 	andeq	r0, r0, r2, ror #6
    1288:	03d707ac 	bicseq	r0, r7, #172, 14	; 0x2b00000
    128c:	07b00000 	ldreq	r0, [r0, r0]!
    1290:	00000592 	muleq	r0, r2, r5
    1294:	0b1107b4 	bleq	44316c <_start-0x7fbbce94>
    1298:	07b80000 	ldreq	r0, [r8, r0]!
    129c:	00000a75 	andeq	r0, r0, r5, ror sl
    12a0:	055e07bc 	ldrbeq	r0, [lr, #-1980]	; 0xfffff844
    12a4:	07c00000 	strbeq	r0, [r0, r0]
    12a8:	000009e8 	andeq	r0, r0, r8, ror #19
    12ac:	05fb07c4 	ldrbeq	r0, [fp, #1988]!	; 0x7c4
    12b0:	07c80000 	strbeq	r0, [r8, r0]
    12b4:	000008f5 	strdeq	r0, [r0], -r5
    12b8:	043c07cc 	ldrteq	r0, [ip], #-1996	; 0xfffff834
    12bc:	07d40000 	ldrbeq	r0, [r4, r0]
    12c0:	0000068e 	andeq	r0, r0, lr, lsl #13
    12c4:	290a00d8 	stmdbcs	sl, {r3, r4, r6, r7}
    12c8:	01000002 	tsteq	r0, r2
    12cc:	00003707 	andeq	r3, r0, r7, lsl #14
    12d0:	56030500 	strpl	r0, [r3], -r0, lsl #10
    12d4:	0b800015 	bleq	fe001330 <value+0x7dfffdda>
    12d8:	00001c9e 	muleq	r0, lr, ip
    12dc:	00506901 	subseq	r6, r0, r1, lsl #18
    12e0:	08980000 	ldmeq	r8, {}	; <UNPREDICTABLE>
    12e4:	006c8000 	rsbeq	r8, ip, r0
    12e8:	9c010000 	stcls	0, cr0, [r1], {-0}
    12ec:	00000551 	andeq	r0, r0, r1, asr r5
    12f0:	6675620c 	ldrbtvs	r6, [r5], -ip, lsl #4
    12f4:	51690100 	cmnpl	r9, r0, lsl #2
    12f8:	02000005 	andeq	r0, r0, #5
    12fc:	350d6491 	strcc	r6, [sp, #-1169]	; 0xfffffb6f
    1300:	0100001d 	tsteq	r0, sp, lsl r0
    1304:	0000506b 	andeq	r5, r0, fp, rrx
    1308:	68910200 	ldmvs	r1, {r9}
    130c:	0008b40e 	andeq	fp, r8, lr, lsl #8
    1310:	00004080 	andeq	r4, r0, r0, lsl #1
    1314:	00690f00 	rsbeq	r0, r9, r0, lsl #30
    1318:	00506c01 	subseq	r6, r0, r1, lsl #24
    131c:	91020000 	mrsls	r0, (UNDEF: 2)
    1320:	1000006c 	andne	r0, r0, ip, rrx
    1324:	00005e04 	andeq	r5, r0, r4, lsl #28
    1328:	1d0a0b00 	vstrne	d0, [sl, #-0]
    132c:	5f010000 	svcpl	0x00010000
    1330:	00000050 	andeq	r0, r0, r0, asr r0
    1334:	8000082c 	andhi	r0, r0, ip, lsr #16
    1338:	0000006c 	andeq	r0, r0, ip, rrx
    133c:	05a39c01 	streq	r9, [r3, #3073]!	; 0xc01
    1340:	730c0000 	movwvc	r0, #49152	; 0xc000
    1344:	01007274 	tsteq	r0, r4, ror r2
    1348:	0005515f 	andeq	r5, r5, pc, asr r1
    134c:	6c910200 	lfmvs	f0, 4, [r1], {0}
    1350:	001d350d 	andseq	r3, sp, sp, lsl #10
    1354:	50610100 	rsbpl	r0, r1, r0, lsl #2
    1358:	02000000 	andeq	r0, r0, #0
    135c:	480e7091 	stmdami	lr, {r0, r4, r7, ip, sp, lr}
    1360:	40800008 	addmi	r0, r0, r8
    1364:	0f000000 	svceq	0x00000000
    1368:	62010069 	andvs	r0, r1, #105	; 0x69
    136c:	00000050 	andeq	r0, r0, r0, asr r0
    1370:	00749102 	rsbseq	r9, r4, r2, lsl #2
    1374:	1d191100 	ldfnes	f1, [r9, #-0]
    1378:	59010000 	stmdbpl	r1, {}	; <UNPREDICTABLE>
    137c:	0000005e 	andeq	r0, r0, lr, asr r0
    1380:	800007e4 	andhi	r0, r0, r4, ror #15
    1384:	00000048 	andeq	r0, r0, r8, asr #32
    1388:	7a129c01 	bvc	4a8394 <_start-0x7fb57c6c>
    138c:	0100001c 	tsteq	r0, ip, lsl r0
    1390:	0007804e 	andeq	r8, r7, lr, asr #32
    1394:	00006480 	andeq	r6, r0, r0, lsl #9
    1398:	da9c0100 	ble	fe7017a0 <value+0x7e70024a>
    139c:	0c000005 	stceq	0, cr0, [r0], {5}
    13a0:	4e010063 	cdpmi	0, 0, cr0, cr1, cr3, {3}
    13a4:	0000005e 	andeq	r0, r0, lr, asr r0
    13a8:	00779102 	rsbseq	r9, r7, r2, lsl #2
    13ac:	001d3c12 	andseq	r3, sp, r2, lsl ip
    13b0:	303f0100 	eorscc	r0, pc, r0, lsl #2
    13b4:	50800007 	addpl	r0, r0, r7
    13b8:	01000000 	mrseq	r0, (UNDEF: 0)
    13bc:	0006289c 	muleq	r6, ip, r8
    13c0:	1c411300 	mcrrne	3, 0, r1, r1, cr0
    13c4:	3f010000 	svccc	0x00010000
    13c8:	00000030 	andeq	r0, r0, r0, lsr r0
    13cc:	13749102 	cmnne	r4, #-2147483648	; 0x80000000
    13d0:	00001d6e 	andeq	r1, r0, lr, ror #26
    13d4:	01c93f01 	biceq	r3, r9, r1, lsl #30
    13d8:	91020000 	mrsls	r0, (UNDEF: 2)
    13dc:	1d231373 	stcne	3, cr1, [r3, #-460]!	; 0xfffffe34
    13e0:	3f010000 	svccc	0x00010000
    13e4:	0000019f 	muleq	r0, pc, r1	; <UNPREDICTABLE>
    13e8:	13729102 	cmnne	r2, #-2147483648	; 0x80000000
    13ec:	00001d5b 	andeq	r1, r0, fp, asr sp
    13f0:	01753f01 	cmneq	r5, r1, lsl #30
    13f4:	91020000 	mrsls	r0, (UNDEF: 2)
    13f8:	92140071 	andsls	r0, r4, #113	; 0x71
    13fc:	0100001c 	tsteq	r0, ip, lsl r0
    1400:	00053413 	andeq	r3, r5, r3, lsl r4
    1404:	0001fc80 	andeq	pc, r1, r0, lsl #25
    1408:	769c0100 	ldrvc	r0, [ip], r0, lsl #2
    140c:	13000006 	movwne	r0, #6
    1410:	00001c41 	andeq	r1, r0, r1, asr #24
    1414:	00301301 	eorseq	r1, r0, r1, lsl #6
    1418:	91020000 	mrsls	r0, (UNDEF: 2)
    141c:	01cd0d64 	biceq	r0, sp, r4, ror #26
    1420:	16010000 	strne	r0, [r1], -r0
    1424:	00000030 	andeq	r0, r0, r0, lsr r0
    1428:	0f749102 	svceq	0x00749102
    142c:	00766964 	rsbseq	r6, r6, r4, ror #18
    1430:	06763401 	ldrbteq	r3, [r6], -r1, lsl #8
    1434:	91020000 	mrsls	r0, (UNDEF: 2)
    1438:	1cc30d70 	stclne	13, cr0, [r3], {112}	; 0x70
    143c:	35010000 	strcc	r0, [r1, #-0]
    1440:	00000030 	andeq	r0, r0, r0, lsr r0
    1444:	006c9102 	rsbeq	r9, ip, r2, lsl #2
    1448:	8c040403 	cfstrshi	mvf0, [r4], {3}
    144c:	1500001c 	strne	r0, [r0, #-28]	; 0xffffffe4
    1450:	00001c61 	andeq	r1, r0, r1, ror #24
    1454:	04d80801 	ldrbeq	r0, [r8], #2049	; 0x801
    1458:	005c8000 	subseq	r8, ip, r0
    145c:	9c010000 	stcls	0, cr0, [r1], {-0}
    1460:	001c840d 	andseq	r8, ip, sp, lsl #8
    1464:	300a0100 	andcc	r0, sl, r0, lsl #2
    1468:	02000000 	andeq	r0, r0, #0
    146c:	00007491 	muleq	r0, r1, r4
    1470:	0000028d 	andeq	r0, r0, sp, lsl #5
    1474:	05120004 	ldreq	r0, [r2, #-4]
    1478:	01040000 	mrseq	r0, (UNDEF: 4)
    147c:	00000077 	andeq	r0, r0, r7, ror r0
    1480:	001da30c 	andseq	sl, sp, ip, lsl #6
    1484:	001e2f00 	andseq	r2, lr, r0, lsl #30
    1488:	00090400 	andeq	r0, r9, r0, lsl #8
    148c:	00069880 	andeq	r9, r6, r0, lsl #17
    1490:	0002f500 	andeq	pc, r2, r0, lsl #10
    1494:	1c150200 	lfmne	f0, 4, [r5], {-0}
    1498:	15020000 	strne	r0, [r2, #-0]
    149c:	00000030 	andeq	r0, r0, r0, lsr r0
    14a0:	00360403 	eorseq	r0, r6, r3, lsl #8
    14a4:	41040000 	mrsmi	r0, (UNDEF: 4)
    14a8:	05000000 	streq	r0, [r0, #-0]
    14ac:	00000041 	andeq	r0, r0, r1, asr #32
    14b0:	08010600 	stmdaeq	r1, {r9, sl}
    14b4:	00000072 	andeq	r0, r0, r2, ror r0
    14b8:	00004107 	andeq	r4, r0, r7, lsl #2
    14bc:	1de00800 	stclne	8, cr0, [r0]
    14c0:	5f010000 	svcpl	0x00010000
    14c4:	80000b84 	andhi	r0, r0, r4, lsl #23
    14c8:	00000418 	andeq	r0, r0, r8, lsl r4
    14cc:	013f9c01 	teqeq	pc, r1, lsl #24
    14d0:	6f090000 	svcvs	0x00090000
    14d4:	01007475 	tsteq	r0, r5, ror r4
    14d8:	0000255f 	andeq	r2, r0, pc, asr r5
    14dc:	54910200 	ldrpl	r0, [r1], #512	; 0x200
    14e0:	746d6609 	strbtvc	r6, [sp], #-1545	; 0xfffff9f7
    14e4:	3f5f0100 	svccc	0x005f0100
    14e8:	02000001 	andeq	r0, r0, #1
    14ec:	61095091 	swpvs	r5, r1, [r9]
    14f0:	5f010070 	svcpl	0x00010070
    14f4:	00000145 	andeq	r0, r0, r5, asr #2
    14f8:	0a4c9102 	beq	1325908 <_start-0x7ecda6f8>
    14fc:	00001e14 	andeq	r1, r0, r4, lsl lr
    1500:	015e6101 	cmpeq	lr, r1, lsl #2
    1504:	91020000 	mrsls	r0, (UNDEF: 2)
    1508:	1df30a74 			; <UNDEFINED> instruction: 0x1df30a74
    150c:	62010000 	andvs	r0, r1, #0
    1510:	0000015e 	andeq	r0, r0, lr, asr r1
    1514:	0a709102 	beq	1c25924 <_start-0x7e3da6dc>
    1518:	00001de9 	andeq	r1, r0, r9, ror #27
    151c:	015e6301 	cmpeq	lr, r1, lsl #6
    1520:	91020000 	mrsls	r0, (UNDEF: 2)
    1524:	1e0e0b6c 	vmlsne.f64	d0, d14, d28
    1528:	bf010000 	svclt	0x00010000
    152c:	80000f74 	andhi	r0, r0, r4, ror pc
    1530:	000de00c 	andeq	lr, sp, ip
    1534:	00005c80 	andeq	r5, r0, r0, lsl #25
    1538:	0000da00 	andeq	sp, r0, r0, lsl #20
    153c:	00640d00 	rsbeq	r0, r4, r0, lsl #26
    1540:	01658601 	cmneq	r5, r1, lsl #12
    1544:	91020000 	mrsls	r0, (UNDEF: 2)
    1548:	3c0c0068 	stccc	0, cr0, [ip], {104}	; 0x68
    154c:	2c80000e 	stccs	0, cr0, [r0], {14}
    1550:	f4000000 	vst4.8	{d0-d3}, [r0], r0
    1554:	0d000000 	stceq	0, cr0, [r0, #-0]
    1558:	92010075 	andls	r0, r1, #117	; 0x75
    155c:	0000016c 	andeq	r0, r0, ip, ror #2
    1560:	00609102 	rsbeq	r9, r0, r2, lsl #2
    1564:	000e900c 	andeq	r9, lr, ip
    1568:	00002c80 	andeq	r2, r0, r0, lsl #25
    156c:	00010e00 	andeq	r0, r1, r0, lsl #28
    1570:	00780d00 	rsbseq	r0, r8, r0, lsl #26
    1574:	016ca101 	cmneq	ip, r1, lsl #2
    1578:	91020000 	mrsls	r0, (UNDEF: 2)
    157c:	bc0c005c 	stclt	0, cr0, [ip], {92}	; 0x5c
    1580:	4880000e 	stmmi	r0, {r1, r2, r3}
    1584:	28000000 	stmdacs	r0, {}	; <UNPREDICTABLE>
    1588:	0d000001 	stceq	0, cr0, [r0, #-4]
    158c:	a8010073 	stmdage	r1, {r0, r1, r4, r5, r6}
    1590:	00000178 	andeq	r0, r0, r8, ror r1
    1594:	00649102 	rsbeq	r9, r4, r2, lsl #2
    1598:	000f040e 	andeq	r0, pc, lr, lsl #8
    159c:	00002c80 	andeq	r2, r0, r0, lsl #25
    15a0:	00630d00 	rsbeq	r0, r3, r0, lsl #26
    15a4:	015eaf01 	cmpeq	lr, r1, lsl #30
    15a8:	91020000 	mrsls	r0, (UNDEF: 2)
    15ac:	03000058 	movweq	r0, #88	; 0x58
    15b0:	00004804 	andeq	r4, r0, r4, lsl #16
    15b4:	1bd80f00 	blne	ff6051bc <value+0x7f603c66>
    15b8:	03040000 	movweq	r0, #16384	; 0x4000
    15bc:	00015c00 	andeq	r5, r1, r0, lsl #24
    15c0:	1c371000 	ldcne	0, cr1, [r7], #-0
    15c4:	015c0000 	cmpeq	ip, r0
    15c8:	00000000 	andeq	r0, r0, r0
    15cc:	04120411 	ldreq	r0, [r2], #-1041	; 0xfffffbef
    15d0:	746e6905 	strbtvc	r6, [lr], #-2309	; 0xfffff6fb
    15d4:	05040600 	streq	r0, [r4, #-1536]	; 0xfffffa00
    15d8:	00001e21 	andeq	r1, r0, r1, lsr #28
    15dc:	c4070406 	strgt	r0, [r7], #-1030	; 0xfffffbfa
    15e0:	0700001d 	smladeq	r0, sp, r0, r0
    15e4:	0000016c 	andeq	r0, r0, ip, ror #2
    15e8:	00410403 	subeq	r0, r1, r3, lsl #8
    15ec:	fc130000 	ldc2	0, cr0, [r3], {-0}
    15f0:	0100001d 	tsteq	r0, sp, lsl r0
    15f4:	000a683c 	andeq	r6, sl, ip, lsr r8
    15f8:	00011c80 	andeq	r1, r1, r0, lsl #25
    15fc:	0e9c0100 	fmleqe	f0, f4, f0
    1600:	09000002 	stmdbeq	r0, {r1}
    1604:	0074756f 	rsbseq	r7, r4, pc, ror #10
    1608:	00253c01 	eoreq	r3, r5, r1, lsl #24
    160c:	91020000 	mrsls	r0, (UNDEF: 2)
    1610:	756e0964 	strbvc	r0, [lr, #-2404]!	; 0xfffff69c
    1614:	3d01006d 	stccc	0, cr0, [r1, #-436]	; 0xfffffe4c
    1618:	00000173 	andeq	r0, r0, r3, ror r1
    161c:	14609102 	strbtne	r9, [r0], #-258	; 0xfffffefe
    1620:	00001df3 	strdeq	r1, [r0], -r3
    1624:	015e3d01 	cmpeq	lr, r1, lsl #26
    1628:	91020000 	mrsls	r0, (UNDEF: 2)
    162c:	1de9145c 	cfstrdne	mvd1, [r9, #368]!	; 0x170
    1630:	3e010000 	cdpcc	0, 0, cr0, cr1, cr0, {0}
    1634:	0000015e 	andeq	r0, r0, lr, asr r1
    1638:	0a589102 	beq	1625a48 <_start-0x7e9da5b8>
    163c:	00001e2a 	andeq	r1, r0, sl, lsr #28
    1640:	015e4001 	cmpeq	lr, r1
    1644:	91020000 	mrsls	r0, (UNDEF: 2)
    1648:	1d8f0a74 	vstrne	s0, [pc, #464]	; 1820 <_start-0x7fffe7e0>
    164c:	41010000 	mrsmi	r0, (UNDEF: 1)
    1650:	0000015e 	andeq	r0, r0, lr, asr r1
    1654:	0a709102 	beq	1c25a64 <_start-0x7e3da59c>
    1658:	00001e77 	andeq	r1, r0, r7, ror lr
    165c:	015e4201 	cmpeq	lr, r1, lsl #4
    1660:	91020000 	mrsls	r0, (UNDEF: 2)
    1664:	0aa00e6c 	beq	fe80501c <value+0x7e803ac6>
    1668:	00c08000 	sbceq	r8, r0, r0
    166c:	700a0000 	andvc	r0, sl, r0
    1670:	0100001e 	tsteq	r0, lr, lsl r0
    1674:	00004145 	andeq	r4, r0, r5, asr #2
    1678:	6b910200 	blvs	fe441e80 <value+0x7e44092a>
    167c:	b2150000 	andslt	r0, r5, #0
    1680:	0100001d 	tsteq	r0, sp, lsl r0
    1684:	00090413 	andeq	r0, r9, r3, lsl r4
    1688:	00016480 	andeq	r6, r1, r0, lsl #9
    168c:	099c0100 	ldmibeq	ip, {r8}
    1690:	0074756f 	rsbseq	r7, r4, pc, ror #10
    1694:	00251301 	eoreq	r1, r5, r1, lsl #6
    1698:	91020000 	mrsls	r0, (UNDEF: 2)
    169c:	756e0964 	strbvc	r0, [lr, #-2404]!	; 0xfffff69c
    16a0:	1401006d 	strne	r0, [r1], #-109	; 0xffffff93
    16a4:	00000173 	andeq	r0, r0, r3, ror r1
    16a8:	14609102 	strbtne	r9, [r0], #-258	; 0xfffffefe
    16ac:	00001df3 	strdeq	r1, [r0], -r3
    16b0:	015e1401 	cmpeq	lr, r1, lsl #8
    16b4:	91020000 	mrsls	r0, (UNDEF: 2)
    16b8:	1de9145c 	cfstrdne	mvd1, [r9, #368]!	; 0x170
    16bc:	15010000 	strne	r0, [r1, #-0]
    16c0:	0000015e 	andeq	r0, r0, lr, asr r1
    16c4:	0d589102 	ldfeqp	f1, [r8, #-8]
    16c8:	00736f70 	rsbseq	r6, r3, r0, ror pc
    16cc:	01651b01 	cmneq	r5, r1, lsl #22
    16d0:	91020000 	mrsls	r0, (UNDEF: 2)
    16d4:	1dd60a74 	vldrne	s1, [r6, #464]	; 0x1d0
    16d8:	1c010000 	stcne	0, cr0, [r1], {-0}
    16dc:	00000165 	andeq	r0, r0, r5, ror #2
    16e0:	0a709102 	beq	1c25af0 <_start-0x7e3da510>
    16e4:	00001d8f 	andeq	r1, r0, pc, lsl #27
    16e8:	015e1d01 	cmpeq	lr, r1, lsl #26
    16ec:	91020000 	mrsls	r0, (UNDEF: 2)
    16f0:	1e770a6c 	vsubne.f32	s1, s14, s25
    16f4:	1e010000 	cdpne	0, 0, cr0, cr1, cr0, {0}
    16f8:	0000015e 	andeq	r0, r0, lr, asr r1
    16fc:	00689102 	rsbeq	r9, r8, r2, lsl #2
    1700:	0002fc00 	andeq	pc, r2, r0, lsl #24
    1704:	31000400 	tstcc	r0, r0, lsl #8
    1708:	04000006 	streq	r0, [r0], #-6
    170c:	00007701 	andeq	r7, r0, r1, lsl #14
    1710:	1e960c00 	cdpne	12, 9, cr0, cr6, cr0, {0}
    1714:	1eca0000 	cdpne	0, 12, cr0, cr10, cr0, {0}
    1718:	0f9c0000 	svceq	0x009c0000
    171c:	05688000 	strbeq	r8, [r8, #-0]!
    1720:	04260000 	strteq	r0, [r6], #-0
    1724:	bb020000 	bllt	8172c <_start-0x7ff7e8d4>
    1728:	0100001e 	tsteq	r0, lr, lsl r0
    172c:	00007365 	andeq	r7, r0, r5, ror #6
    1730:	00149000 	andseq	r9, r4, r0
    1734:	00007480 	andeq	r7, r0, r0, lsl #9
    1738:	739c0100 	orrsvc	r0, ip, #0, 2
    173c:	03000000 	movweq	r0, #0
    1740:	00727470 	rsbseq	r7, r2, r0, ror r4
    1744:	00856501 	addeq	r6, r5, r1, lsl #10
    1748:	91020000 	mrsls	r0, (UNDEF: 2)
    174c:	0063036c 	rsbeq	r0, r3, ip, ror #6
    1750:	008b6501 	addeq	r6, fp, r1, lsl #10
    1754:	91020000 	mrsls	r0, (UNDEF: 2)
    1758:	01cd0468 	biceq	r0, sp, r8, ror #8
    175c:	67010000 	strvs	r0, [r1, -r0]
    1760:	00000073 	andeq	r0, r0, r3, ror r0
    1764:	05749102 	ldrbeq	r9, [r4, #-258]!	; 0xfffffefe
    1768:	68010073 	stmdavs	r1, {r0, r1, r4, r5, r6}
    176c:	00000079 	andeq	r0, r0, r9, ror r0
    1770:	00739102 	rsbseq	r9, r3, r2, lsl #2
    1774:	00790406 	rsbseq	r0, r9, r6, lsl #8
    1778:	01070000 	mrseq	r0, (UNDEF: 7)
    177c:	00007208 	andeq	r7, r0, r8, lsl #4
    1780:	00790800 	rsbseq	r0, r9, r0, lsl #16
    1784:	04060000 	streq	r0, [r6], #-0
    1788:	00000080 	andeq	r0, r0, r0, lsl #1
    178c:	69050409 	stmdbvs	r5, {r0, r3, sl}
    1790:	0200746e 	andeq	r7, r0, #1845493760	; 0x6e000000
    1794:	00001e88 	andeq	r1, r0, r8, lsl #29
    1798:	00735c01 	rsbseq	r5, r3, r1, lsl #24
    179c:	14140000 	ldrne	r0, [r4], #-0
    17a0:	007c8000 	rsbseq	r8, ip, r0
    17a4:	9c010000 	stcls	0, cr0, [r1], {-0}
    17a8:	000000d2 	ldrdeq	r0, [r0], -r2
    17ac:	72747003 	rsbsvc	r7, r4, #3
    17b0:	855c0100 	ldrbhi	r0, [ip, #-256]	; 0xffffff00
    17b4:	02000000 	andeq	r0, r0, #0
    17b8:	63036c91 	movwvs	r6, #15505	; 0x3c91
    17bc:	8b5c0100 	blhi	1701bc4 <_start-0x7e8fe43c>
    17c0:	02000000 	andeq	r0, r0, #0
    17c4:	73056891 	movwvc	r6, #22673	; 0x5891
    17c8:	795e0100 	ldmdbvc	lr, {r8}^
    17cc:	02000000 	andeq	r0, r0, #0
    17d0:	02007791 	andeq	r7, r0, #38010880	; 0x2440000
    17d4:	00001f15 	andeq	r1, r0, r5, lsl pc
    17d8:	008b5001 	addeq	r5, fp, r1
    17dc:	13600000 	cmnne	r0, #0
    17e0:	00b48000 	adcseq	r8, r4, r0
    17e4:	9c010000 	stcls	0, cr0, [r1], {-0}
    17e8:	00000114 	andeq	r0, r0, r4, lsl r1
    17ec:	74736403 	ldrbtvc	r6, [r3], #-1027	; 0xfffffbfd
    17f0:	85500100 	ldrbhi	r0, [r0, #-256]	; 0xffffff00
    17f4:	02000000 	andeq	r0, r0, #0
    17f8:	73037491 	movwvc	r7, #13457	; 0x3491
    17fc:	01006372 	tsteq	r0, r2, ror r3
    1800:	00008550 	andeq	r8, r0, r0, asr r5
    1804:	70910200 	addsvc	r0, r1, r0, lsl #4
    1808:	01006e03 	tsteq	r0, r3, lsl #28
    180c:	00008b50 	andeq	r8, r0, r0, asr fp
    1810:	6c910200 	lfmvs	f0, 4, [r1], {0}
    1814:	1eb40200 	cdpne	2, 11, cr0, cr4, cr0, {0}
    1818:	43010000 	movwmi	r0, #4096	; 0x1000
    181c:	0000008b 	andeq	r0, r0, fp, lsl #1
    1820:	800012c8 	andhi	r1, r0, r8, asr #5
    1824:	00000098 	muleq	r0, r8, r0
    1828:	014a9c01 	cmpeq	sl, r1, lsl #24
    182c:	64030000 	strvs	r0, [r3], #-0
    1830:	01007473 	tsteq	r0, r3, ror r4
    1834:	00008543 	andeq	r8, r0, r3, asr #10
    1838:	74910200 	ldrvc	r0, [r1], #512	; 0x200
    183c:	63727303 	cmnvs	r2, #201326592	; 0xc000000
    1840:	85430100 	strbhi	r0, [r3, #-256]	; 0xffffff00
    1844:	02000000 	andeq	r0, r0, #0
    1848:	0a007091 	beq	1da94 <_start-0x7ffe256c>
    184c:	00001f0d 	andeq	r1, r0, sp, lsl #30
    1850:	00733701 	rsbseq	r3, r3, r1, lsl #14
    1854:	12080000 	andne	r0, r8, #0
    1858:	00c08000 	sbceq	r8, r0, r0
    185c:	9c010000 	stcls	0, cr0, [r1], {-0}
    1860:	00000198 	muleq	r0, r8, r1
    1864:	74736403 	ldrbtvc	r6, [r3], #-1027	; 0xfffffbfd
    1868:	73370100 	teqvc	r7, #0, 2
    186c:	02000000 	andeq	r0, r0, #0
    1870:	73036c91 	movwvc	r6, #15505	; 0x3c91
    1874:	01006372 	tsteq	r0, r2, ror r3
    1878:	00008537 	andeq	r8, r0, r7, lsr r5
    187c:	68910200 	ldmvs	r1, {r9}
    1880:	01006e03 	tsteq	r0, r3, lsl #28
    1884:	00008b37 	andeq	r8, r0, r7, lsr fp
    1888:	64910200 	ldrvs	r0, [r1], #512	; 0x200
    188c:	01006905 	tsteq	r0, r5, lsl #18
    1890:	00008b39 	andeq	r8, r0, r9, lsr fp
    1894:	74910200 	ldrvc	r0, [r1], #512	; 0x200
    1898:	1ead0a00 	vfmane.f32	s0, s26, s0
    189c:	30010000 	andcc	r0, r1, r0
    18a0:	00000073 	andeq	r0, r0, r3, ror r0
    18a4:	8000119c 	mulhi	r0, ip, r1
    18a8:	0000006c 	andeq	r0, r0, ip, rrx
    18ac:	01da9c01 	bicseq	r9, sl, r1, lsl #24
    18b0:	64030000 	strvs	r0, [r3], #-0
    18b4:	01007473 	tsteq	r0, r3, ror r4
    18b8:	00007330 	andeq	r7, r0, r0, lsr r3
    18bc:	6c910200 	lfmvs	f0, 4, [r1], {0}
    18c0:	63727303 	cmnvs	r2, #201326592	; 0xc000000
    18c4:	85300100 	ldrhi	r0, [r0, #-256]!	; 0xffffff00
    18c8:	02000000 	andeq	r0, r0, #0
    18cc:	69056891 	stmdbvs	r5, {r0, r4, r7, fp, sp, lr}
    18d0:	8b320100 	blhi	c81cd8 <_start-0x7f37e328>
    18d4:	02000000 	andeq	r0, r0, #0
    18d8:	02007491 	andeq	r7, r0, #-1862270976	; 0x91000000
    18dc:	00001ea5 	andeq	r1, r0, r5, lsr #29
    18e0:	00732601 	rsbseq	r2, r3, r1, lsl #12
    18e4:	10f40000 	rscsne	r0, r4, r0
    18e8:	00a88000 	adceq	r8, r8, r0
    18ec:	9c010000 	stcls	0, cr0, [r1], {-0}
    18f0:	00000228 	andeq	r0, r0, r8, lsr #4
    18f4:	74736403 	ldrbtvc	r6, [r3], #-1027	; 0xfffffbfd
    18f8:	73260100 			; <UNDEFINED> instruction: 0x73260100
    18fc:	02000000 	andeq	r0, r0, #0
    1900:	73036c91 	movwvc	r6, #15505	; 0x3c91
    1904:	01006372 	tsteq	r0, r2, ror r3
    1908:	00008526 	andeq	r8, r0, r6, lsr #10
    190c:	68910200 	ldmvs	r1, {r9}
    1910:	01006e03 	tsteq	r0, r3, lsl #28
    1914:	00008b26 	andeq	r8, r0, r6, lsr #22
    1918:	64910200 	ldrvs	r0, [r1], #512	; 0x200
    191c:	01006405 	tsteq	r0, r5, lsl #8
    1920:	00007328 	andeq	r7, r0, r8, lsr #6
    1924:	74910200 	ldrvc	r0, [r1], #512	; 0x200
    1928:	1e810200 	cdpne	2, 8, cr0, cr1, cr0, {0}
    192c:	1e010000 	cdpne	0, 0, cr0, cr1, cr0, {0}
    1930:	00000073 	andeq	r0, r0, r3, ror r0
    1934:	80001094 	mulhi	r0, r4, r0
    1938:	00000060 	andeq	r0, r0, r0, rrx
    193c:	026a9c01 	rsbeq	r9, sl, #256	; 0x100
    1940:	64030000 	strvs	r0, [r3], #-0
    1944:	01007473 	tsteq	r0, r3, ror r4
    1948:	0000731e 	andeq	r7, r0, lr, lsl r3
    194c:	6c910200 	lfmvs	f0, 4, [r1], {0}
    1950:	63727303 	cmnvs	r2, #201326592	; 0xc000000
    1954:	851e0100 	ldrhi	r0, [lr, #-256]	; 0xffffff00
    1958:	02000000 	andeq	r0, r0, #0
    195c:	64056891 	strvs	r6, [r5], #-2193	; 0xfffff76f
    1960:	73200100 	nopvc	{0}	; <UNPREDICTABLE>
    1964:	02000000 	andeq	r0, r0, #0
    1968:	02007491 	andeq	r7, r0, #-1862270976	; 0x91000000
    196c:	00001ec3 	andeq	r1, r0, r3, asr #29
    1970:	008b1601 	addeq	r1, fp, r1, lsl #12
    1974:	10400000 	subne	r0, r0, r0
    1978:	00548000 	subseq	r8, r4, r0
    197c:	9c010000 	stcls	0, cr0, [r1], {-0}
    1980:	0000029e 	muleq	r0, lr, r2
    1984:	72747303 	rsbsvc	r7, r4, #201326592	; 0xc000000
    1988:	85160100 	ldrhi	r0, [r6, #-256]	; 0xffffff00
    198c:	02000000 	andeq	r0, r0, #0
    1990:	69056c91 	stmdbvs	r5, {r0, r4, r7, sl, fp, sp, lr}
    1994:	8b180100 	blhi	601d9c <_start-0x7f9fe264>
    1998:	02000000 	andeq	r0, r0, #0
    199c:	02007491 	andeq	r7, r0, #-1862270976	; 0x91000000
    19a0:	00001e8f 	andeq	r1, r0, pc, lsl #29
    19a4:	008b0a01 	addeq	r0, fp, r1, lsl #20
    19a8:	0f9c0000 	svceq	0x009c0000
    19ac:	00a48000 	adceq	r8, r4, r0
    19b0:	9c010000 	stcls	0, cr0, [r1], {-0}
    19b4:	000002f8 	strdeq	r0, [r0], -r8
    19b8:	74736403 	ldrbtvc	r6, [r3], #-1027	; 0xfffffbfd
    19bc:	f80a0100 			; <UNDEFINED> instruction: 0xf80a0100
    19c0:	02000002 	andeq	r0, r0, #2
    19c4:	73036c91 	movwvc	r6, #15505	; 0x3c91
    19c8:	01006372 	tsteq	r0, r2, ror r3
    19cc:	0002f80a 	andeq	pc, r2, sl, lsl #16
    19d0:	68910200 	ldmvs	r1, {r9}
    19d4:	01006e03 	tsteq	r0, r3, lsl #28
    19d8:	00008b0a 	andeq	r8, r0, sl, lsl #22
    19dc:	64910200 	ldrvs	r0, [r1], #512	; 0x200
    19e0:	01006105 	tsteq	r0, r5, lsl #2
    19e4:	0000850c 	andeq	r8, r0, ip, lsl #10
    19e8:	74910200 	ldrvc	r0, [r1], #512	; 0x200
    19ec:	01006205 	tsteq	r0, r5, lsl #4
    19f0:	0000850d 	andeq	r8, r0, sp, lsl #10
    19f4:	70910200 	addsvc	r0, r1, r0, lsl #4
    19f8:	fe040600 	cdp2	6, 0, cr0, cr4, cr0, {0}
    19fc:	0b000002 	bleq	1a0c <_start-0x7fffe5f4>
	...

Disassembly of section .debug_abbrev:

00000000 <.debug_abbrev>:
   0:	25011101 	strcs	r1, [r1, #-257]	; 0xfffffeff
   4:	030b130e 	movweq	r1, #45838	; 0xb30e
   8:	110e1b0e 	tstne	lr, lr, lsl #22
   c:	10061201 	andne	r1, r6, r1, lsl #4
  10:	02000017 	andeq	r0, r0, #23
  14:	0e030016 	mcreq	0, 0, r0, cr3, cr6, {0}
  18:	0b3b0b3a 	bleq	ec2d08 <_start-0x7f13d2f8>
  1c:	00001349 	andeq	r1, r0, r9, asr #6
  20:	0b002403 	bleq	9034 <_start-0x7fff6fcc>
  24:	030b3e0b 	movweq	r3, #48651	; 0xbe0b
  28:	0400000e 	streq	r0, [r0], #-14
  2c:	13490035 	movtne	r0, #36917	; 0x9035
  30:	24050000 	strcs	r0, [r5], #-0
  34:	3e0b0b00 	vmlacc.f64	d0, d11, d0
  38:	0008030b 	andeq	r0, r8, fp, lsl #6
  3c:	012e0600 			; <UNDEFINED> instruction: 0x012e0600
  40:	0e03193f 			; <UNDEFINED> instruction: 0x0e03193f
  44:	0b3b0b3a 	bleq	ec2d34 <_start-0x7f13d2cc>
  48:	01111927 	tsteq	r1, r7, lsr #18
  4c:	18400612 	stmdane	r0, {r1, r4, r9, sl}^
  50:	00194297 	mulseq	r9, r7, r2
  54:	00340700 	eorseq	r0, r4, r0, lsl #14
  58:	0b3a0803 	bleq	e8206c <_start-0x7f17df94>
  5c:	13490b3b 	movtne	r0, #39739	; 0x9b3b
  60:	00001802 	andeq	r1, r0, r2, lsl #16
  64:	01110100 	tsteq	r1, r0, lsl #2
  68:	0b130e25 	bleq	4c3904 <_start-0x7fb3c6fc>
  6c:	0e1b0e03 	cdpeq	14, 1, cr0, cr11, cr3, {0}
  70:	06120111 			; <UNDEFINED> instruction: 0x06120111
  74:	00001710 	andeq	r1, r0, r0, lsl r7
  78:	03001602 	movweq	r1, #1538	; 0x602
  7c:	3b0b3a0e 	blcc	2ce8bc <_start-0x7fd31744>
  80:	0013490b 	andseq	r4, r3, fp, lsl #18
  84:	00240300 	eoreq	r0, r4, r0, lsl #6
  88:	0b3e0b0b 	bleq	f82cbc <_start-0x7f07d344>
  8c:	00000e03 	andeq	r0, r0, r3, lsl #28
  90:	0b002404 	bleq	90a8 <_start-0x7fff6f58>
  94:	030b3e0b 	movweq	r3, #48651	; 0xbe0b
  98:	05000008 	streq	r0, [r0, #-8]
  9c:	0b0b0104 	bleq	2c04b4 <_start-0x7fd3fb4c>
  a0:	0b3a1349 	bleq	e84dcc <_start-0x7f17b234>
  a4:	13010b3b 	movwne	r0, #6971	; 0x1b3b
  a8:	28060000 	stmdacs	r6, {}	; <UNPREDICTABLE>
  ac:	1c0e0300 	stcne	3, cr0, [lr], {-0}
  b0:	07000006 	streq	r0, [r0, -r6]
  b4:	0e030028 	cdpeq	0, 0, cr0, cr3, cr8, {1}
  b8:	00000b1c 	andeq	r0, r0, ip, lsl fp
  bc:	03002808 	movweq	r2, #2056	; 0x808
  c0:	00051c0e 	andeq	r1, r5, lr, lsl #24
  c4:	012e0900 			; <UNDEFINED> instruction: 0x012e0900
  c8:	0e03193f 			; <UNDEFINED> instruction: 0x0e03193f
  cc:	0b3b0b3a 	bleq	ec2dbc <_start-0x7f13d244>
  d0:	06120111 			; <UNDEFINED> instruction: 0x06120111
  d4:	42961840 	addsmi	r1, r6, #64, 16	; 0x400000
  d8:	00130119 	andseq	r0, r3, r9, lsl r1
  dc:	00340a00 	eorseq	r0, r4, r0, lsl #20
  e0:	0b3a0e03 	bleq	e838f4 <_start-0x7f17c70c>
  e4:	13490b3b 	movtne	r0, #39739	; 0x9b3b
  e8:	00001802 	andeq	r1, r0, r2, lsl #16
  ec:	3f012e0b 	svccc	0x00012e0b
  f0:	3a0e0319 	bcc	380d5c <_start-0x7fc7f2a4>
  f4:	270b3b0b 	strcs	r3, [fp, -fp, lsl #22]
  f8:	11134919 	tstne	r3, r9, lsl r9
  fc:	40061201 	andmi	r1, r6, r1, lsl #4
 100:	19429718 	stmdbne	r2, {r3, r4, r8, r9, sl, ip, pc}^
 104:	00001301 	andeq	r1, r0, r1, lsl #6
 108:	0300050c 	movweq	r0, #1292	; 0x50c
 10c:	3b0b3a0e 	blcc	2ce94c <_start-0x7fd316b4>
 110:	0213490b 	andseq	r4, r3, #180224	; 0x2c000
 114:	0d000018 	stceq	0, cr0, [r0, #-96]	; 0xffffffa0
 118:	08030005 	stmdaeq	r3, {r0, r2}
 11c:	0b3b0b3a 	bleq	ec2e0c <_start-0x7f13d1f4>
 120:	18021349 	stmdane	r2, {r0, r3, r6, r8, r9, ip}
 124:	2e0e0000 	cdpcs	0, 0, cr0, cr14, cr0, {0}
 128:	03193f01 	tsteq	r9, #1, 30
 12c:	3b0b3a0e 	blcc	2ce96c <_start-0x7fd31694>
 130:	1119270b 	tstne	r9, fp, lsl #14
 134:	40061201 	andmi	r1, r6, r1, lsl #4
 138:	19429718 	stmdbne	r2, {r3, r4, r8, r9, sl, ip, pc}^
 13c:	01000000 	mrseq	r0, (UNDEF: 0)
 140:	0e250111 	mcreq	1, 1, r0, cr5, cr1, {0}
 144:	0e030b13 	vmoveq.32	d3[0], r0
 148:	01110e1b 	tsteq	r1, fp, lsl lr
 14c:	17100612 			; <UNDEFINED> instruction: 0x17100612
 150:	16020000 	strne	r0, [r2], -r0
 154:	3a0e0300 	bcc	380d5c <_start-0x7fc7f2a4>
 158:	490b3b0b 	stmdbmi	fp, {r0, r1, r3, r8, r9, fp, ip, sp}
 15c:	03000013 	movweq	r0, #19
 160:	0b0b0024 	bleq	2c01f8 <_start-0x7fd3fe08>
 164:	0e030b3e 	vmoveq.16	d3[0], r0
 168:	24040000 	strcs	r0, [r4], #-0
 16c:	3e0b0b00 	vmlacc.f64	d0, d11, d0
 170:	0008030b 	andeq	r0, r8, fp, lsl #6
 174:	01040500 	tsteq	r4, r0, lsl #10
 178:	13490b0b 	movtne	r0, #39691	; 0x9b0b
 17c:	0b3b0b3a 	bleq	ec2e6c <_start-0x7f13d194>
 180:	00001301 	andeq	r1, r0, r1, lsl #6
 184:	03002806 	movweq	r2, #2054	; 0x806
 188:	000b1c0e 	andeq	r1, fp, lr, lsl #24
 18c:	00280700 	eoreq	r0, r8, r0, lsl #14
 190:	051c0e03 	ldreq	r0, [ip, #-3587]	; 0xfffff1fd
 194:	2e080000 	cdpcs	0, 0, cr0, cr8, cr0, {0}
 198:	03193f00 	tsteq	r9, #0, 30
 19c:	3b0b3a0e 	blcc	2ce9dc <_start-0x7fd31624>
 1a0:	1201110b 	andne	r1, r1, #-1073741822	; 0xc0000002
 1a4:	96184006 	ldrls	r4, [r8], -r6
 1a8:	00001942 	andeq	r1, r0, r2, asr #18
 1ac:	3f012e09 	svccc	0x00012e09
 1b0:	3a0e0319 	bcc	380e1c <_start-0x7fc7f1e4>
 1b4:	270b3b0b 	strcs	r3, [fp, -fp, lsl #22]
 1b8:	12011119 	andne	r1, r1, #1073741830	; 0x40000006
 1bc:	96184006 	ldrls	r4, [r8], -r6
 1c0:	13011942 	movwne	r1, #6466	; 0x1942
 1c4:	050a0000 	streq	r0, [sl, #-0]
 1c8:	3a0e0300 	bcc	380dd0 <_start-0x7fc7f230>
 1cc:	490b3b0b 	stmdbmi	fp, {r0, r1, r3, r8, r9, fp, ip, sp}
 1d0:	00180213 	andseq	r0, r8, r3, lsl r2
 1d4:	00340b00 	eorseq	r0, r4, r0, lsl #22
 1d8:	0b3a0e03 	bleq	e839ec <_start-0x7f17c614>
 1dc:	13490b3b 	movtne	r0, #39739	; 0x9b3b
 1e0:	00001802 	andeq	r1, r0, r2, lsl #16
 1e4:	3f012e0c 	svccc	0x00012e0c
 1e8:	3a0e0319 	bcc	380e54 <_start-0x7fc7f1ac>
 1ec:	270b3b0b 	strcs	r3, [fp, -fp, lsl #22]
 1f0:	11134919 	tstne	r3, r9, lsl r9
 1f4:	40061201 	andmi	r1, r6, r1, lsl #4
 1f8:	19429718 	stmdbne	r2, {r3, r4, r8, r9, sl, ip, pc}^
 1fc:	00001301 	andeq	r1, r0, r1, lsl #6
 200:	3f012e0d 	svccc	0x00012e0d
 204:	3a0e0319 	bcc	380e70 <_start-0x7fc7f190>
 208:	270b3b0b 	strcs	r3, [fp, -fp, lsl #22]
 20c:	12011119 	andne	r1, r1, #1073741830	; 0x40000006
 210:	97184006 	ldrls	r4, [r8, -r6]
 214:	00001942 	andeq	r1, r0, r2, asr #18
 218:	01110100 	tsteq	r1, r0, lsl #2
 21c:	0b130e25 	bleq	4c3ab8 <_start-0x7fb3c548>
 220:	0e1b0e03 	cdpeq	14, 1, cr0, cr11, cr3, {0}
 224:	06120111 			; <UNDEFINED> instruction: 0x06120111
 228:	00001710 	andeq	r1, r0, r0, lsl r7
 22c:	0b011302 	bleq	44e3c <_start-0x7ffbb1c4>
 230:	3b0b3a0b 	blcc	2cea64 <_start-0x7fd3159c>
 234:	0013010b 	andseq	r0, r3, fp, lsl #2
 238:	000d0300 	andeq	r0, sp, r0, lsl #6
 23c:	0b3a0e03 	bleq	e83a50 <_start-0x7f17c5b0>
 240:	13490b3b 	movtne	r0, #39739	; 0x9b3b
 244:	00000b38 	andeq	r0, r0, r8, lsr fp
 248:	03000d04 	movweq	r0, #3332	; 0xd04
 24c:	3b0b3a08 	blcc	2cea74 <_start-0x7fd3158c>
 250:	3813490b 	ldmdacc	r3, {r0, r1, r3, r8, fp, lr}
 254:	0500000b 	streq	r0, [r0, #-11]
 258:	0b0b0024 	bleq	2c02f0 <_start-0x7fd3fd10>
 25c:	08030b3e 	stmdaeq	r3, {r1, r2, r3, r4, r5, r8, r9, fp}
 260:	16060000 	strne	r0, [r6], -r0
 264:	3a0e0300 	bcc	380e6c <_start-0x7fc7f194>
 268:	490b3b0b 	stmdbmi	fp, {r0, r1, r3, r8, r9, fp, ip, sp}
 26c:	07000013 	smladeq	r0, r3, r0, r0
 270:	193f012e 	ldmdbne	pc!, {r1, r2, r3, r5, r8}	; <UNPREDICTABLE>
 274:	0b3a0e03 	bleq	e83a88 <_start-0x7f17c578>
 278:	19270b3b 	stmdbne	r7!, {r0, r1, r3, r4, r5, r8, r9, fp}
 27c:	01111349 	tsteq	r1, r9, asr #6
 280:	18400612 	stmdane	r0, {r1, r4, r9, sl}^
 284:	01194297 			; <UNDEFINED> instruction: 0x01194297
 288:	08000013 	stmdaeq	r0, {r0, r1, r4}
 28c:	08030005 	stmdaeq	r3, {r0, r2}
 290:	0b3b0b3a 	bleq	ec2f80 <_start-0x7f13d080>
 294:	18021349 	stmdane	r2, {r0, r3, r6, r8, r9, ip}
 298:	05090000 	streq	r0, [r9, #-0]
 29c:	3a0e0300 	bcc	380ea4 <_start-0x7fc7f15c>
 2a0:	490b3b0b 	stmdbmi	fp, {r0, r1, r3, r8, r9, fp, ip, sp}
 2a4:	00180213 	andseq	r0, r8, r3, lsl r2
 2a8:	00340a00 	eorseq	r0, r4, r0, lsl #20
 2ac:	0b3a0803 	bleq	e822c0 <_start-0x7f17dd40>
 2b0:	13490b3b 	movtne	r0, #39739	; 0x9b3b
 2b4:	00001802 	andeq	r1, r0, r2, lsl #16
 2b8:	3f012e0b 	svccc	0x00012e0b
 2bc:	3a0e0319 	bcc	380f28 <_start-0x7fc7f0d8>
 2c0:	270b3b0b 	strcs	r3, [fp, -fp, lsl #22]
 2c4:	11134919 	tstne	r3, r9, lsl r9
 2c8:	40061201 	andmi	r1, r6, r1, lsl #4
 2cc:	19429718 	stmdbne	r2, {r3, r4, r8, r9, sl, ip, pc}^
 2d0:	01000000 	mrseq	r0, (UNDEF: 0)
 2d4:	0e250111 	mcreq	1, 1, r0, cr5, cr1, {0}
 2d8:	0e030b13 	vmoveq.32	d3[0], r0
 2dc:	01110e1b 	tsteq	r1, fp, lsl lr
 2e0:	17100612 			; <UNDEFINED> instruction: 0x17100612
 2e4:	24020000 	strcs	r0, [r2], #-0
 2e8:	3e0b0b00 	vmlacc.f64	d0, d11, d0
 2ec:	000e030b 	andeq	r0, lr, fp, lsl #6
 2f0:	00240300 	eoreq	r0, r4, r0, lsl #6
 2f4:	0b3e0b0b 	bleq	f82f28 <_start-0x7f07d0d8>
 2f8:	00000803 	andeq	r0, r0, r3, lsl #16
 2fc:	49002604 	stmdbmi	r0, {r2, r9, sl, sp}
 300:	05000013 	streq	r0, [r0, #-19]	; 0xffffffed
 304:	0b0b0104 	bleq	2c071c <_start-0x7fd3f8e4>
 308:	0b3a1349 	bleq	e85034 <_start-0x7f17afcc>
 30c:	13010b3b 	movwne	r0, #6971	; 0x1b3b
 310:	28060000 	stmdacs	r6, {}	; <UNPREDICTABLE>
 314:	1c0e0300 	stcne	3, cr0, [lr], {-0}
 318:	0700000b 	streq	r0, [r0, -fp]
 31c:	0e030016 	mcreq	0, 0, r0, cr3, cr6, {0}
 320:	0b3b0b3a 	bleq	ec3010 <_start-0x7f13cff0>
 324:	00001349 	andeq	r1, r0, r9, asr #6
 328:	0b000f08 	bleq	3f50 <_start-0x7fffc0b0>
 32c:	0013490b 	andseq	r4, r3, fp, lsl #18
 330:	01150900 	tsteq	r5, r0, lsl #18
 334:	13011927 	movwne	r1, #6439	; 0x1927
 338:	050a0000 	streq	r0, [sl, #-0]
 33c:	00134900 	andseq	r4, r3, r0, lsl #18
 340:	00340b00 	eorseq	r0, r4, r0, lsl #22
 344:	0b3a0e03 	bleq	e83b58 <_start-0x7f17c4a8>
 348:	13490b3b 	movtne	r0, #39739	; 0x9b3b
 34c:	193c193f 	ldmdbne	ip!, {r0, r1, r2, r3, r4, r5, r8, fp, ip}
 350:	2e0c0000 	cdpcs	0, 0, cr0, cr12, cr0, {0}
 354:	03193f00 	tsteq	r9, #0, 30
 358:	3b0b3a0e 	blcc	2ceb98 <_start-0x7fd31468>
 35c:	1119270b 	tstne	r9, fp, lsl #14
 360:	40061201 	andmi	r1, r6, r1, lsl #4
 364:	19429618 	stmdbne	r2, {r3, r4, r9, sl, ip, pc}^
 368:	2e0d0000 	cdpcs	0, 0, cr0, cr13, cr0, {0}
 36c:	03193f01 	tsteq	r9, #1, 30
 370:	3b0b3a0e 	blcc	2cebb0 <_start-0x7fd31450>
 374:	1119270b 	tstne	r9, fp, lsl #14
 378:	40061201 	andmi	r1, r6, r1, lsl #4
 37c:	19429618 	stmdbne	r2, {r3, r4, r9, sl, ip, pc}^
 380:	00001301 	andeq	r1, r0, r1, lsl #6
 384:	0300050e 	movweq	r0, #1294	; 0x50e
 388:	3b0b3a08 	blcc	2cebb0 <_start-0x7fd31450>
 38c:	0213490b 	andseq	r4, r3, #180224	; 0x2c000
 390:	0f000018 	svceq	0x00000018
 394:	00000018 	andeq	r0, r0, r8, lsl r0
 398:	03003410 	movweq	r3, #1040	; 0x410
 39c:	3b0b3a08 	blcc	2cebc4 <_start-0x7fd3143c>
 3a0:	0213490b 	andseq	r4, r3, #180224	; 0x2c000
 3a4:	11000018 	tstne	r0, r8, lsl r0
 3a8:	0e030113 	mcreq	1, 0, r0, cr3, cr3, {0}
 3ac:	0b3a0b0b 	bleq	e82fe0 <_start-0x7f17d020>
 3b0:	13010b3b 	movwne	r0, #6971	; 0x1b3b
 3b4:	0d120000 	ldceq	0, cr0, [r2, #-0]
 3b8:	490e0300 	stmdbmi	lr, {r8, r9}
 3bc:	340b3813 	strcc	r3, [fp], #-2067	; 0xfffff7ed
 3c0:	13000019 	movwne	r0, #25
 3c4:	0b0b000f 	bleq	2c0408 <_start-0x7fd3fbf8>
 3c8:	01000000 	mrseq	r0, (UNDEF: 0)
 3cc:	0e250111 	mcreq	1, 1, r0, cr5, cr1, {0}
 3d0:	0e030b13 	vmoveq.32	d3[0], r0
 3d4:	01110e1b 	tsteq	r1, fp, lsl lr
 3d8:	17100612 			; <UNDEFINED> instruction: 0x17100612
 3dc:	16020000 	strne	r0, [r2], -r0
 3e0:	3a0e0300 	bcc	380fe8 <_start-0x7fc7f018>
 3e4:	490b3b0b 	stmdbmi	fp, {r0, r1, r3, r8, r9, fp, ip, sp}
 3e8:	03000013 	movweq	r0, #19
 3ec:	0b0b0024 	bleq	2c0484 <_start-0x7fd3fb7c>
 3f0:	0e030b3e 	vmoveq.16	d3[0], r0
 3f4:	24040000 	strcs	r0, [r4], #-0
 3f8:	3e0b0b00 	vmlacc.f64	d0, d11, d0
 3fc:	0008030b 	andeq	r0, r8, fp, lsl #6
 400:	01040500 	tsteq	r4, r0, lsl #10
 404:	13490b0b 	movtne	r0, #39691	; 0x9b0b
 408:	0b3b0b3a 	bleq	ec30f8 <_start-0x7f13cf08>
 40c:	00001301 	andeq	r1, r0, r1, lsl #6
 410:	03002806 	movweq	r2, #2054	; 0x806
 414:	000b1c08 	andeq	r1, fp, r8, lsl #24
 418:	00280700 	eoreq	r0, r8, r0, lsl #14
 41c:	0b1c0e03 	bleq	703c30 <_start-0x7f8fc3d0>
 420:	28080000 	stmdacs	r8, {}	; <UNPREDICTABLE>
 424:	1c0e0300 	stcne	3, cr0, [lr], {-0}
 428:	09000006 	stmdbeq	r0, {r1, r2}
 42c:	0e030028 	cdpeq	0, 0, cr0, cr3, cr8, {1}
 430:	0000051c 	andeq	r0, r0, ip, lsl r5
 434:	0300340a 	movweq	r3, #1034	; 0x40a
 438:	3b0b3a0e 	blcc	2cec78 <_start-0x7fd31388>
 43c:	3f13490b 	svccc	0x0013490b
 440:	00180219 	andseq	r0, r8, r9, lsl r2
 444:	012e0b00 			; <UNDEFINED> instruction: 0x012e0b00
 448:	0e03193f 			; <UNDEFINED> instruction: 0x0e03193f
 44c:	0b3b0b3a 	bleq	ec313c <_start-0x7f13cec4>
 450:	13491927 	movtne	r1, #39207	; 0x9927
 454:	06120111 			; <UNDEFINED> instruction: 0x06120111
 458:	42961840 	addsmi	r1, r6, #64, 16	; 0x400000
 45c:	00130119 	andseq	r0, r3, r9, lsl r1
 460:	00050c00 	andeq	r0, r5, r0, lsl #24
 464:	0b3a0803 	bleq	e82478 <_start-0x7f17db88>
 468:	13490b3b 	movtne	r0, #39739	; 0x9b3b
 46c:	00001802 	andeq	r1, r0, r2, lsl #16
 470:	0300340d 	movweq	r3, #1037	; 0x40d
 474:	3b0b3a0e 	blcc	2cecb4 <_start-0x7fd3134c>
 478:	0213490b 	andseq	r4, r3, #180224	; 0x2c000
 47c:	0e000018 	mcreq	0, 0, r0, cr0, cr8, {0}
 480:	0111010b 	tsteq	r1, fp, lsl #2
 484:	00000612 	andeq	r0, r0, r2, lsl r6
 488:	0300340f 	movweq	r3, #1039	; 0x40f
 48c:	3b0b3a08 	blcc	2cecb4 <_start-0x7fd3134c>
 490:	0213490b 	andseq	r4, r3, #180224	; 0x2c000
 494:	10000018 	andne	r0, r0, r8, lsl r0
 498:	0b0b000f 	bleq	2c04dc <_start-0x7fd3fb24>
 49c:	00001349 	andeq	r1, r0, r9, asr #6
 4a0:	3f002e11 	svccc	0x00002e11
 4a4:	3a0e0319 	bcc	381110 <_start-0x7fc7eef0>
 4a8:	490b3b0b 	stmdbmi	fp, {r0, r1, r3, r8, r9, fp, ip, sp}
 4ac:	12011113 	andne	r1, r1, #-1073741820	; 0xc0000004
 4b0:	97184006 	ldrls	r4, [r8, -r6]
 4b4:	00001942 	andeq	r1, r0, r2, asr #18
 4b8:	3f012e12 	svccc	0x00012e12
 4bc:	3a0e0319 	bcc	381128 <_start-0x7fc7eed8>
 4c0:	270b3b0b 	strcs	r3, [fp, -fp, lsl #22]
 4c4:	12011119 	andne	r1, r1, #1073741830	; 0x40000006
 4c8:	96184006 	ldrls	r4, [r8], -r6
 4cc:	13011942 	movwne	r1, #6466	; 0x1942
 4d0:	05130000 	ldreq	r0, [r3, #-0]
 4d4:	3a0e0300 	bcc	3810dc <_start-0x7fc7ef24>
 4d8:	490b3b0b 	stmdbmi	fp, {r0, r1, r3, r8, r9, fp, ip, sp}
 4dc:	00180213 	andseq	r0, r8, r3, lsl r2
 4e0:	012e1400 			; <UNDEFINED> instruction: 0x012e1400
 4e4:	0e03193f 			; <UNDEFINED> instruction: 0x0e03193f
 4e8:	0b3b0b3a 	bleq	ec31d8 <_start-0x7f13ce28>
 4ec:	01111927 	tsteq	r1, r7, lsr #18
 4f0:	18400612 	stmdane	r0, {r1, r4, r9, sl}^
 4f4:	01194297 			; <UNDEFINED> instruction: 0x01194297
 4f8:	15000013 	strne	r0, [r0, #-19]	; 0xffffffed
 4fc:	193f012e 	ldmdbne	pc!, {r1, r2, r3, r5, r8}	; <UNPREDICTABLE>
 500:	0b3a0e03 	bleq	e83d14 <_start-0x7f17c2ec>
 504:	01110b3b 	tsteq	r1, fp, lsr fp
 508:	18400612 	stmdane	r0, {r1, r4, r9, sl}^
 50c:	00194296 	mulseq	r9, r6, r2
 510:	11010000 	mrsne	r0, (UNDEF: 1)
 514:	130e2501 	movwne	r2, #58625	; 0xe501
 518:	1b0e030b 	blne	38114c <_start-0x7fc7eeb4>
 51c:	1201110e 	andne	r1, r1, #-2147483645	; 0x80000003
 520:	00171006 	andseq	r1, r7, r6
 524:	00160200 	andseq	r0, r6, r0, lsl #4
 528:	0b3a0e03 	bleq	e83d3c <_start-0x7f17c2c4>
 52c:	13490b3b 	movtne	r0, #39739	; 0x9b3b
 530:	0f030000 	svceq	0x00030000
 534:	490b0b00 	stmdbmi	fp, {r8, r9, fp}
 538:	04000013 	streq	r0, [r0], #-19	; 0xffffffed
 53c:	19270115 	stmdbne	r7!, {r0, r2, r4, r8}
 540:	00001301 	andeq	r1, r0, r1, lsl #6
 544:	49000505 	stmdbmi	r0, {r0, r2, r8, sl}
 548:	06000013 			; <UNDEFINED> instruction: 0x06000013
 54c:	0b0b0024 	bleq	2c05e4 <_start-0x7fd3fa1c>
 550:	0e030b3e 	vmoveq.16	d3[0], r0
 554:	26070000 	strcs	r0, [r7], -r0
 558:	00134900 	andseq	r4, r3, r0, lsl #18
 55c:	012e0800 			; <UNDEFINED> instruction: 0x012e0800
 560:	0e03193f 			; <UNDEFINED> instruction: 0x0e03193f
 564:	0b3b0b3a 	bleq	ec3254 <_start-0x7f13cdac>
 568:	01111927 	tsteq	r1, r7, lsr #18
 56c:	18400612 	stmdane	r0, {r1, r4, r9, sl}^
 570:	01194296 			; <UNDEFINED> instruction: 0x01194296
 574:	09000013 	stmdbeq	r0, {r0, r1, r4}
 578:	08030005 	stmdaeq	r3, {r0, r2}
 57c:	0b3b0b3a 	bleq	ec326c <_start-0x7f13cd94>
 580:	18021349 	stmdane	r2, {r0, r3, r6, r8, r9, ip}
 584:	340a0000 	strcc	r0, [sl], #-0
 588:	3a0e0300 	bcc	381190 <_start-0x7fc7ee70>
 58c:	490b3b0b 	stmdbmi	fp, {r0, r1, r3, r8, r9, fp, ip, sp}
 590:	00180213 	andseq	r0, r8, r3, lsl r2
 594:	000a0b00 	andeq	r0, sl, r0, lsl #22
 598:	0b3a0e03 	bleq	e83dac <_start-0x7f17c254>
 59c:	01110b3b 	tsteq	r1, fp, lsr fp
 5a0:	0b0c0000 	bleq	3005a8 <_start-0x7fcffa58>
 5a4:	12011101 	andne	r1, r1, #1073741824	; 0x40000000
 5a8:	00130106 	andseq	r0, r3, r6, lsl #2
 5ac:	00340d00 	eorseq	r0, r4, r0, lsl #26
 5b0:	0b3a0803 	bleq	e825c4 <_start-0x7f17da3c>
 5b4:	13490b3b 	movtne	r0, #39739	; 0x9b3b
 5b8:	00001802 	andeq	r1, r0, r2, lsl #16
 5bc:	11010b0e 	tstne	r1, lr, lsl #22
 5c0:	00061201 	andeq	r1, r6, r1, lsl #4
 5c4:	01130f00 	tsteq	r3, r0, lsl #30
 5c8:	0b0b0e03 	bleq	2c3ddc <_start-0x7fd3c224>
 5cc:	0b3b0b3a 	bleq	ec32bc <_start-0x7f13cd44>
 5d0:	00001301 	andeq	r1, r0, r1, lsl #6
 5d4:	03000d10 	movweq	r0, #3344	; 0xd10
 5d8:	3813490e 	ldmdacc	r3, {r1, r2, r3, r8, fp, lr}
 5dc:	0019340b 	andseq	r3, r9, fp, lsl #8
 5e0:	000f1100 	andeq	r1, pc, r0, lsl #2
 5e4:	00000b0b 	andeq	r0, r0, fp, lsl #22
 5e8:	0b002412 	bleq	9638 <_start-0x7fff69c8>
 5ec:	030b3e0b 	movweq	r3, #48651	; 0xbe0b
 5f0:	13000008 	movwne	r0, #8
 5f4:	0e03012e 	adfeqsp	f0, f3, #0.5
 5f8:	0b3b0b3a 	bleq	ec32e8 <_start-0x7f13cd18>
 5fc:	01111927 	tsteq	r1, r7, lsr #18
 600:	18400612 	stmdane	r0, {r1, r4, r9, sl}^
 604:	01194296 			; <UNDEFINED> instruction: 0x01194296
 608:	14000013 	strne	r0, [r0], #-19	; 0xffffffed
 60c:	0e030005 	cdpeq	0, 0, cr0, cr3, cr5, {0}
 610:	0b3b0b3a 	bleq	ec3300 <_start-0x7f13cd00>
 614:	18021349 	stmdane	r2, {r0, r3, r6, r8, r9, ip}
 618:	2e150000 	cdpcs	0, 1, cr0, cr5, cr0, {0}
 61c:	3a0e0301 	bcc	381228 <_start-0x7fc7edd8>
 620:	270b3b0b 	strcs	r3, [fp, -fp, lsl #22]
 624:	12011119 	andne	r1, r1, #1073741830	; 0x40000006
 628:	96184006 	ldrls	r4, [r8], -r6
 62c:	00001942 	andeq	r1, r0, r2, asr #18
 630:	01110100 	tsteq	r1, r0, lsl #2
 634:	0b130e25 	bleq	4c3ed0 <_start-0x7fb3c130>
 638:	0e1b0e03 	cdpeq	14, 1, cr0, cr11, cr3, {0}
 63c:	06120111 			; <UNDEFINED> instruction: 0x06120111
 640:	00001710 	andeq	r1, r0, r0, lsl r7
 644:	3f012e02 	svccc	0x00012e02
 648:	3a0e0319 	bcc	3812b4 <_start-0x7fc7ed4c>
 64c:	270b3b0b 	strcs	r3, [fp, -fp, lsl #22]
 650:	11134919 	tstne	r3, r9, lsl r9
 654:	40061201 	andmi	r1, r6, r1, lsl #4
 658:	19429718 	stmdbne	r2, {r3, r4, r8, r9, sl, ip, pc}^
 65c:	00001301 	andeq	r1, r0, r1, lsl #6
 660:	03000503 	movweq	r0, #1283	; 0x503
 664:	3b0b3a08 	blcc	2cee8c <_start-0x7fd31174>
 668:	0213490b 	andseq	r4, r3, #180224	; 0x2c000
 66c:	04000018 	streq	r0, [r0], #-24	; 0xffffffe8
 670:	0e030034 	mcreq	0, 0, r0, cr3, cr4, {1}
 674:	0b3b0b3a 	bleq	ec3364 <_start-0x7f13cc9c>
 678:	18021349 	stmdane	r2, {r0, r3, r6, r8, r9, ip}
 67c:	34050000 	strcc	r0, [r5], #-0
 680:	3a080300 	bcc	201288 <_start-0x7fdfed78>
 684:	490b3b0b 	stmdbmi	fp, {r0, r1, r3, r8, r9, fp, ip, sp}
 688:	00180213 	andseq	r0, r8, r3, lsl r2
 68c:	000f0600 	andeq	r0, pc, r0, lsl #12
 690:	13490b0b 	movtne	r0, #39691	; 0x9b0b
 694:	24070000 	strcs	r0, [r7], #-0
 698:	3e0b0b00 	vmlacc.f64	d0, d11, d0
 69c:	000e030b 	andeq	r0, lr, fp, lsl #6
 6a0:	00260800 	eoreq	r0, r6, r0, lsl #16
 6a4:	00001349 	andeq	r1, r0, r9, asr #6
 6a8:	0b002409 	bleq	96d4 <_start-0x7fff692c>
 6ac:	030b3e0b 	movweq	r3, #48651	; 0xbe0b
 6b0:	0a000008 	beq	6d8 <_start-0x7ffff928>
 6b4:	193f012e 	ldmdbne	pc!, {r1, r2, r3, r5, r8}	; <UNPREDICTABLE>
 6b8:	0b3a0e03 	bleq	e83ecc <_start-0x7f17c134>
 6bc:	19270b3b 	stmdbne	r7!, {r0, r1, r3, r4, r5, r8, r9, fp}
 6c0:	01111349 	tsteq	r1, r9, asr #6
 6c4:	18400612 	stmdane	r0, {r1, r4, r9, sl}^
 6c8:	01194296 			; <UNDEFINED> instruction: 0x01194296
 6cc:	0b000013 	bleq	720 <_start-0x7ffff8e0>
 6d0:	00000026 	andeq	r0, r0, r6, lsr #32
	...

Disassembly of section .debug_aranges:

00000000 <.debug_aranges>:
   0:	0000001c 	andeq	r0, r0, ip, lsl r0
   4:	00000002 	andeq	r0, r0, r2
   8:	00040000 	andeq	r0, r4, r0
   c:	00000000 	andeq	r0, r0, r0
  10:	8000003c 	andhi	r0, r0, ip, lsr r0
  14:	0000006c 	andeq	r0, r0, ip, rrx
	...
  20:	0000001c 	andeq	r0, r0, ip, lsl r0
  24:	007f0002 	rsbseq	r0, pc, r2
  28:	00040000 	andeq	r0, r4, r0
  2c:	00000000 	andeq	r0, r0, r0
  30:	800000a8 	andhi	r0, r0, r8, lsr #1
  34:	00000154 	andeq	r0, r0, r4, asr r1
	...
  40:	0000001c 	andeq	r0, r0, ip, lsl r0
  44:	04a60002 	strteq	r0, [r6], #2
  48:	00040000 	andeq	r0, r4, r0
  4c:	00000000 	andeq	r0, r0, r0
  50:	800001fc 	strdhi	r0, [r0], -ip
  54:	000000f8 	strdeq	r0, [r0], -r8
	...
  60:	0000001c 	andeq	r0, r0, ip, lsl r0
  64:	0bab0002 	bleq	feac0074 <value+0x7eabeb1e>
  68:	00040000 	andeq	r0, r4, r0
  6c:	00000000 	andeq	r0, r0, r0
  70:	800002f4 	strdhi	r0, [r0], -r4
  74:	000000e4 	andeq	r0, r0, r4, ror #1
	...
  80:	0000001c 	andeq	r0, r0, ip, lsl r0
  84:	0c900002 	ldceq	0, cr0, [r0], {2}
  88:	00040000 	andeq	r0, r4, r0
  8c:	00000000 	andeq	r0, r0, r0
  90:	800003d8 	ldrdhi	r0, [r0], -r8
  94:	00000100 	andeq	r0, r0, r0, lsl #2
	...
  a0:	0000001c 	andeq	r0, r0, ip, lsl r0
  a4:	0dd20002 	ldcleq	0, cr0, [r2, #8]
  a8:	00040000 	andeq	r0, r4, r0
  ac:	00000000 	andeq	r0, r0, r0
  b0:	800004d8 	ldrdhi	r0, [r0], -r8
  b4:	0000042c 	andeq	r0, r0, ip, lsr #8
	...
  c0:	0000001c 	andeq	r0, r0, ip, lsl r0
  c4:	14700002 	ldrbtne	r0, [r0], #-2
  c8:	00040000 	andeq	r0, r4, r0
  cc:	00000000 	andeq	r0, r0, r0
  d0:	80000904 	andhi	r0, r0, r4, lsl #18
  d4:	00000698 	muleq	r0, r8, r6
	...
  e0:	0000001c 	andeq	r0, r0, ip, lsl r0
  e4:	17010002 	strne	r0, [r1, -r2]
  e8:	00040000 	andeq	r0, r4, r0
  ec:	00000000 	andeq	r0, r0, r0
  f0:	80000f9c 	mulhi	r0, ip, pc	; <UNPREDICTABLE>
  f4:	00000568 	andeq	r0, r0, r8, ror #10
	...

Disassembly of section .debug_line:

00000000 <.debug_line>:
   0:	00000041 	andeq	r0, r0, r1, asr #32
   4:	00280002 	eoreq	r0, r8, r2
   8:	01020000 	mrseq	r0, (UNDEF: 2)
   c:	000d0efb 	strdeq	r0, [sp], -fp
  10:	01010101 	tsteq	r1, r1, lsl #2
  14:	01000000 	mrseq	r0, (UNDEF: 0)
  18:	00010000 	andeq	r0, r1, r0
  1c:	4f495047 	svcmi	0x00495047
  20:	0000632e 	andeq	r6, r0, lr, lsr #6
  24:	79740000 	ldmdbvc	r4!, {}^	; <UNPREDICTABLE>
  28:	2e736570 	mrccs	5, 3, r6, cr3, cr0, {3}
  2c:	00000068 	andeq	r0, r0, r8, rrx
  30:	05000000 	streq	r0, [r0, #-0]
  34:	00003c02 	andeq	r3, r0, r2, lsl #24
  38:	9f6b1580 	svcls	0x006b1580
  3c:	83846783 	orrhi	r6, r4, #34340864	; 0x20c0000
  40:	01000802 	tsteq	r0, r2, lsl #16
  44:	00005c01 	andeq	r5, r0, r1, lsl #24
  48:	34000200 	strcc	r0, [r0], #-512	; 0xfffffe00
  4c:	02000000 	andeq	r0, r0, #0
  50:	0d0efb01 	vstreq	d15, [lr, #-4]
  54:	01010100 	mrseq	r0, (UNDEF: 17)
  58:	00000001 	andeq	r0, r0, r1
  5c:	01000001 	tsteq	r0, r1
  60:	6f6c6300 	svcvs	0x006c6300
  64:	632e6b63 			; <UNDEFINED> instruction: 0x632e6b63
  68:	00000000 	andeq	r0, r0, r0
  6c:	65707974 	ldrbvs	r7, [r0, #-2420]!	; 0xfffff68c
  70:	00682e73 	rsbeq	r2, r8, r3, ror lr
  74:	63000000 	movwvs	r0, #0
  78:	6b636f6c 	blvs	18dbe30 <_start-0x7e7241d0>
  7c:	0000682e 	andeq	r6, r0, lr, lsr #16
  80:	00000000 	andeq	r0, r0, r0
  84:	00a80205 	adceq	r0, r8, r5, lsl #4
  88:	d8158000 	ldmdale	r5, {pc}
  8c:	83bb85bb 			; <UNDEFINED> instruction: 0x83bb85bb
  90:	679f6a85 	ldrvs	r6, [pc, r5, lsl #21]
  94:	679fa167 	ldrvs	sl, [pc, r7, ror #2]
  98:	679fa167 	ldrvs	sl, [pc, r7, ror #2]
  9c:	9e0c0367 	cdpls	3, 0, cr0, cr12, cr7, {3}
  a0:	01000602 	tsteq	r0, r2, lsl #12
  a4:	00006801 	andeq	r6, r0, r1, lsl #16
  a8:	46000200 	strmi	r0, [r0], -r0, lsl #4
  ac:	02000000 	andeq	r0, r0, #0
  b0:	0d0efb01 	vstreq	d15, [lr, #-4]
  b4:	01010100 	mrseq	r0, (UNDEF: 17)
  b8:	00000001 	andeq	r0, r0, r1
  bc:	01000001 	tsteq	r0, r1
  c0:	6e6f6300 	cdpvs	3, 6, cr6, cr15, cr0, {0}
  c4:	6c6f7274 	sfmvs	f7, 2, [pc], #-464	; fffffefc <value+0x7fffe9a6>
  c8:	646f6d5f 	strbtvs	r6, [pc], #-3423	; d0 <_start-0x7fffff30>
  cc:	2e656c75 	mcrcs	12, 3, r6, cr5, cr5, {3}
  d0:	00000063 	andeq	r0, r0, r3, rrx
  d4:	70797400 	rsbsvc	r7, r9, r0, lsl #8
  d8:	682e7365 	stmdavs	lr!, {r0, r2, r5, r6, r8, r9, ip, sp, lr}
  dc:	00000000 	andeq	r0, r0, r0
  e0:	746e6f63 	strbtvc	r6, [lr], #-3939	; 0xfffff09d
  e4:	5f6c6f72 	svcpl	0x006c6f72
  e8:	75646f6d 	strbvc	r6, [r4, #-3949]!	; 0xfffff093
  ec:	682e656c 	stmdavs	lr!, {r2, r3, r5, r6, r8, sl, sp, lr}
  f0:	00000000 	andeq	r0, r0, r0
  f4:	02050000 	andeq	r0, r5, #0
  f8:	800001fc 	strdhi	r0, [r0], -ip
  fc:	85bbbc15 	ldrhi	fp, [fp, #3093]!	; 0xc15
 100:	bb85839f 	bllt	fe160f84 <value+0x7e15fa2e>
 104:	85836767 	strhi	r6, [r3, #1895]	; 0x767
 108:	6b674c6e 	blvs	19d32c8 <_start-0x7e62cd38>
 10c:	01000402 	tsteq	r0, r2, lsl #8
 110:	00004001 	andeq	r4, r0, r1
 114:	1c000200 	sfmne	f0, 4, [r0], {-0}
 118:	02000000 	andeq	r0, r0, #0
 11c:	0d0efb01 	vstreq	d15, [lr, #-4]
 120:	01010100 	mrseq	r0, (UNDEF: 17)
 124:	00000001 	andeq	r0, r0, r1
 128:	01000001 	tsteq	r0, r1
 12c:	76696400 	strbtvc	r6, [r9], -r0, lsl #8
 130:	0000632e 	andeq	r6, r0, lr, lsr #6
 134:	00000000 	andeq	r0, r0, r0
 138:	02f40205 	rscseq	r0, r4, #1342177280	; 0x50000000
 13c:	bc148000 	ldclt	0, cr8, [r4], {-0}
 140:	64832f4c 	strvs	r2, [r3], #3916	; 0xf4c
 144:	9f4c4b87 	svcls	0x004c4b87
 148:	2f4c9f84 	svccs	0x004c9f84
 14c:	2f876483 	svccs	0x00876483
 150:	01000802 	tsteq	r0, r2, lsl #16
 154:	0000a901 	andeq	sl, r0, r1, lsl #18
 158:	71000200 	mrsvc	r0, R8_usr
 15c:	02000000 	andeq	r0, r0, #0
 160:	0d0efb01 	vstreq	d15, [lr, #-4]
 164:	01010100 	mrseq	r0, (UNDEF: 17)
 168:	00000001 	andeq	r0, r0, r1
 16c:	01000001 	tsteq	r0, r1
 170:	2e2e2f2e 	cdpcs	15, 2, cr2, cr14, cr14, {1}
 174:	6e696d2f 	cdpvs	13, 6, cr6, cr9, cr15, {1}
 178:	6c756d69 	ldclvs	13, cr6, [r5], #-420	; 0xfffffe5c
 17c:	6c5f635f 	mrrcvs	3, 5, r6, pc, cr15	; <UNPREDICTABLE>
 180:	6d2f6269 	sfmvs	f6, 4, [pc, #-420]!	; ffffffe4 <value+0x7fffea8e>
 184:	2f637369 	svccs	0x00637369
 188:	6c636e69 	stclvs	14, cr6, [r3], #-420	; 0xfffffe5c
 18c:	00656475 	rsbeq	r6, r5, r5, ror r4
 190:	69616d00 	stmdbvs	r1!, {r8, sl, fp, sp, lr}^
 194:	00632e6e 	rsbeq	r2, r3, lr, ror #28
 198:	75000000 	strvc	r0, [r0, #-0]
 19c:	5f747261 	svcpl	0x00747261
 1a0:	736e6f63 	cmnvc	lr, #396	; 0x18c
 1a4:	5f656c6f 	svcpl	0x00656c6f
 1a8:	64616568 	strbtvs	r6, [r1], #-1384	; 0xfffffa98
 1ac:	682e7265 	stmdavs	lr!, {r0, r2, r5, r6, r9, ip, sp, lr}
 1b0:	00000000 	andeq	r0, r0, r0
 1b4:	5f737973 	svcpl	0x00737973
 1b8:	2e676f6c 	cdpcs	15, 6, cr6, cr7, cr12, {3}
 1bc:	00010068 	andeq	r0, r1, r8, rrx
 1c0:	75623c00 	strbvc	r3, [r2, #-3072]!	; 0xfffff400
 1c4:	2d746c69 	ldclcs	12, cr6, [r4, #-420]!	; 0xfffffe5c
 1c8:	003e6e69 	eorseq	r6, lr, r9, ror #28
 1cc:	00000000 	andeq	r0, r0, r0
 1d0:	d8020500 	stmdale	r2, {r8, sl}
 1d4:	03800003 	orreq	r0, r0, #3
 1d8:	6883010a 	stmvs	r3, {r1, r3, r8}
 1dc:	4ba1844b 	blmi	fe861310 <value+0x7e85fdba>
 1e0:	674bbb2f 	strbvs	fp, [fp, -pc, lsr #22]
 1e4:	67676767 	strbvs	r6, [r7, -r7, ror #14]!
 1e8:	04020067 	streq	r0, [r2], #-103	; 0xffffff99
 1ec:	0200d801 	andeq	sp, r0, #65536	; 0x10000
 1f0:	00670104 	rsbeq	r0, r7, r4, lsl #2
 1f4:	83010402 	movwhi	r0, #5122	; 0x1402
 1f8:	01040200 	mrseq	r0, R12_usr
 1fc:	00020248 	andeq	r0, r2, r8, asr #4
 200:	00ef0101 	rsceq	r0, pc, r1, lsl #2
 204:	00020000 	andeq	r0, r2, r0
 208:	0000005e 	andeq	r0, r0, lr, asr r0
 20c:	0efb0102 	cdpeq	1, 15, cr0, cr11, cr2, {0}
 210:	0101000d 	tsteq	r1, sp
 214:	00000101 	andeq	r0, r0, r1, lsl #2
 218:	00000100 	andeq	r0, r0, r0, lsl #2
 21c:	61750001 	cmnvs	r5, r1
 220:	635f7472 	cmpvs	pc, #1912602624	; 0x72000000
 224:	6f736e6f 	svcvs	0x00736e6f
 228:	632e656c 			; <UNDEFINED> instruction: 0x632e656c
 22c:	00000000 	andeq	r0, r0, r0
 230:	65707974 	ldrbvs	r7, [r0, #-2420]!	; 0xfffff68c
 234:	00682e73 	rsbeq	r2, r8, r3, ror lr
 238:	75000000 	strvc	r0, [r0, #-0]
 23c:	2e747261 	cdpcs	2, 7, cr7, cr4, cr1, {3}
 240:	00000068 	andeq	r0, r0, r8, rrx
 244:	72617500 	rsbvc	r7, r1, #0, 10
 248:	6f635f74 	svcvs	0x00635f74
 24c:	6c6f736e 	stclvs	3, cr7, [pc], #-440	; 9c <_start-0x7fffff64>
 250:	65685f65 	strbvs	r5, [r8, #-3941]!	; 0xfffff09b
 254:	72656461 	rsbvc	r6, r5, #1627389952	; 0x61000000
 258:	0000682e 	andeq	r6, r0, lr, lsr #16
 25c:	6c630000 	stclvs	0, cr0, [r3], #-0
 260:	2e6b636f 	cdpcs	3, 6, cr6, cr11, cr15, {3}
 264:	00000068 	andeq	r0, r0, r8, rrx
 268:	05000000 	streq	r0, [r0, #-0]
 26c:	0004d802 	andeq	sp, r4, r2, lsl #16
 270:	67671a80 	strbvs	r1, [r7, -r0, lsl #21]!
 274:	0402009f 	streq	r0, [r2], #-159	; 0xffffff61
 278:	062e0601 	strteq	r0, [lr], -r1, lsl #12
 27c:	83846cf4 	orrhi	r6, r4, #244, 24	; 0xf400
 280:	02008367 	andeq	r8, r0, #-1677721599	; 0x9c000001
 284:	2e060104 	adfcss	f0, f6, f4
 288:	679fbb06 	ldrvs	fp, [pc, r6, lsl #22]
 28c:	040200a2 	streq	r0, [r2], #-162	; 0xffffff5e
 290:	062e0601 	strteq	r0, [lr], -r1, lsl #12
 294:	848383bd 	strhi	r8, [r3], #957	; 0x3bd
 298:	838383f3 	orrhi	r8, r3, #-872415229	; 0xcc000003
 29c:	3d088a83 	vstrcc	s16, [r8, #-524]	; 0xfffffdf4
 2a0:	f49f8383 			; <UNDEFINED> instruction: 0xf49f8383
 2a4:	08bd8483 	popeq	{r0, r1, r7, sl, pc}
 2a8:	4b313195 	blmi	c4c904 <_start-0x7f3b36fc>
 2ac:	4c67a069 	stclmi	0, cr10, [r7], #-420	; 0xfffffe5c
 2b0:	01040200 	mrseq	r0, R12_usr
 2b4:	d9062e06 	stmdble	r6, {r1, r2, r9, sl, fp, sp}
 2b8:	004b6883 	subeq	r6, fp, r3, lsl #17
 2bc:	06010402 	streq	r0, [r1], -r2, lsl #8
 2c0:	83d7062e 	bicshi	r0, r7, #48234496	; 0x2e00000
 2c4:	00678385 	rsbeq	r8, r7, r5, lsl #7
 2c8:	68030402 	stmdavs	r3, {r1, sl}
 2cc:	03040200 	movweq	r0, #16896	; 0x4200
 2d0:	040200b8 	streq	r0, [r2], #-184	; 0xffffff48
 2d4:	06660601 	strbteq	r0, [r6], -r1, lsl #12
 2d8:	83692f86 	cmnhi	r9, #536	; 0x218
 2dc:	04020067 	streq	r0, [r2], #-103	; 0xffffff99
 2e0:	02006803 	andeq	r6, r0, #196608	; 0x30000
 2e4:	00b80304 	adcseq	r0, r8, r4, lsl #6
 2e8:	06010402 	streq	r0, [r1], -r2, lsl #8
 2ec:	2f860666 	svccs	0x00860666
 2f0:	01000602 	tsteq	r0, r2, lsl #12
 2f4:	00012d01 	andeq	r2, r1, r1, lsl #26
 2f8:	4a000200 	bmi	b00 <_start-0x7ffff500>
 2fc:	02000000 	andeq	r0, r0, #0
 300:	0d0efb01 	vstreq	d15, [lr, #-4]
 304:	01010100 	mrseq	r0, (UNDEF: 17)
 308:	00000001 	andeq	r0, r0, r1
 30c:	01000001 	tsteq	r0, r1
 310:	72732f2e 	rsbsvc	r2, r3, #46, 30	; 0xb8
 314:	2f2e0063 	svccs	0x002e0063
 318:	6c636e69 	stclvs	14, cr6, [r3], #-420	; 0xfffffe5c
 31c:	00656475 	rsbeq	r6, r5, r5, ror r4
 320:	69727000 	ldmdbvs	r2!, {ip, sp, lr}^
 324:	2e6b746e 	cdpcs	4, 6, cr7, cr11, cr14, {3}
 328:	00010063 	andeq	r0, r1, r3, rrx
 32c:	73797300 	cmnvc	r9, #0, 6
 330:	676f6c5f 			; <UNDEFINED> instruction: 0x676f6c5f
 334:	0200682e 	andeq	r6, r0, #3014656	; 0x2e0000
 338:	623c0000 	eorsvs	r0, ip, #0
 33c:	746c6975 	strbtvc	r6, [ip], #-2421	; 0xfffff68b
 340:	3e6e692d 	vmulcc.f16	s13, s28, s27	; <UNPREDICTABLE>
 344:	00000000 	andeq	r0, r0, r0
 348:	02050000 	andeq	r0, r5, #0
 34c:	80000904 	andhi	r0, r0, r4, lsl #18
 350:	db011503 	blle	45764 <_start-0x7ffba89c>
 354:	4d4b4b67 	vstrmi	d20, [fp, #-412]	; 0xfffffe64
 358:	002f4d67 	eoreq	r4, pc, r7, ror #26
 35c:	06010402 	streq	r0, [r1], -r2, lsl #8
 360:	4b830666 	blmi	fe0c1d00 <value+0x7e0c07aa>
 364:	00839108 	addeq	r9, r3, r8, lsl #2
 368:	06010402 	streq	r0, [r1], -r2, lsl #8
 36c:	04020066 	streq	r0, [r2], #-102	; 0xffffff9a
 370:	02004a02 	andeq	r4, r0, #8192	; 0x2000
 374:	062e0404 	strteq	r0, [lr], -r4, lsl #8
 378:	03f36768 	mvnseq	r6, #104, 14	; 0x1a00000
 37c:	0b03f277 	bleq	fcd60 <_start-0x7ff032a0>
 380:	0e03d766 	cdpeq	7, 0, cr13, cr3, cr6, {3}
 384:	4b4bd766 	blmi	12f6124 <_start-0x7ed09edc>
 388:	00f42f4c 	rscseq	r2, r4, ip, asr #30
 38c:	06010402 	streq	r0, [r1], -r2, lsl #8
 390:	04020066 	streq	r0, [r2], #-102	; 0xffffff9a
 394:	67066602 	strvs	r6, [r6, -r2, lsl #12]
 398:	0402004b 	streq	r0, [r2], #-75	; 0xffffffb5
 39c:	00660601 	rsbeq	r0, r6, r1, lsl #12
 3a0:	4a020402 	bmi	813b0 <_start-0x7ff7ec50>
 3a4:	04040200 	streq	r0, [r4], #-512	; 0xfffffe00
 3a8:	0402002e 	streq	r0, [r2], #-46	; 0xffffffd2
 3ac:	00670604 	rsbeq	r0, r7, r4, lsl #12
 3b0:	83040402 	movwhi	r0, #17410	; 0x4402
 3b4:	0200bb31 	andeq	fp, r0, #50176	; 0xc400
 3b8:	66060104 	strvs	r0, [r6], -r4, lsl #2
 3bc:	02040200 	andeq	r0, r4, #0, 4
 3c0:	0402004a 	streq	r0, [r2], #-74	; 0xffffffb6
 3c4:	03062e04 	movweq	r2, #28164	; 0x6e04
 3c8:	02006675 	andeq	r6, r0, #122683392	; 0x7500000
 3cc:	66060104 	strvs	r0, [r6], -r4, lsl #2
 3d0:	660e0306 	strvs	r0, [lr], -r6, lsl #6
 3d4:	bb660e03 	bllt	1983be8 <_start-0x7e67c418>
 3d8:	2f4e4b4b 	svccs	0x004e4b4b
 3dc:	4bbc8367 	blmi	fef21180 <value+0x7ef1fc2a>
 3e0:	b802694b 	stmdalt	r2, {r0, r1, r3, r6, r8, fp, sp, lr}
 3e4:	02001401 	andeq	r1, r0, #16777216	; 0x1000000
 3e8:	66060104 	strvs	r0, [r6], -r4, lsl #2
 3ec:	324b6706 	subcc	r6, fp, #1572864	; 0x180000
 3f0:	f42c8667 	vld1.16	{d8-d10}, [ip :128], r7
 3f4:	6767a036 			; <UNDEFINED> instruction: 0x6767a036
 3f8:	31a06867 	rorcc	r6, r7, #16
 3fc:	6731a0a0 	ldrvs	sl, [r1, -r0, lsr #1]!
 400:	a04e4b68 	subge	r4, lr, r8, ror #22
 404:	2fa031a0 	svccs	0x00a031a0
 408:	a03184d5 	ldrsbtge	r8, [r1], -r5
 40c:	3167319f 			; <UNDEFINED> instruction: 0x3167319f
 410:	03309f67 	teqeq	r0, #412	; 0x19c
 414:	3d036646 	stccc	6, cr6, [r3, #-280]	; 0xfffffee8
 418:	7fa7032e 	svcvc	0x00a7032e
 41c:	00db0366 	sbcseq	r0, fp, r6, ror #6
 420:	00060282 	andeq	r0, r6, r2, lsl #5
 424:	00e90101 	rsceq	r0, r9, r1, lsl #2
 428:	00020000 	andeq	r0, r2, r0
 42c:	00000025 	andeq	r0, r0, r5, lsr #32
 430:	0efb0102 	cdpeq	1, 15, cr0, cr11, cr2, {0}
 434:	0101000d 	tsteq	r1, sp
 438:	00000101 	andeq	r0, r0, r1, lsl #2
 43c:	00000100 	andeq	r0, r0, r0, lsl #2
 440:	732f2e01 			; <UNDEFINED> instruction: 0x732f2e01
 444:	00006372 	andeq	r6, r0, r2, ror r3
 448:	69727473 	ldmdbvs	r2!, {r0, r1, r4, r5, r6, sl, ip, sp, lr}^
 44c:	632e676e 			; <UNDEFINED> instruction: 0x632e676e
 450:	00000100 	andeq	r0, r0, r0, lsl #2
 454:	02050000 	andeq	r0, r5, #0
 458:	80000f9c 	mulhi	r0, ip, pc	; <UNPREDICTABLE>
 45c:	bb010a03 	bllt	42c70 <_start-0x7ffbd390>
 460:	4c674b4b 			; <UNDEFINED> instruction: 0x4c674b4b
 464:	02040200 	andeq	r0, r4, #0, 4
 468:	02002e06 	andeq	r2, r0, #6, 28	; 0x60
 46c:	069e0104 	ldreq	r0, [lr], r4, lsl #2
 470:	84bb3f08 	ldrthi	r3, [fp], #3848	; 0xf08
 474:	652f4b83 	strvs	r4, [pc, #-2947]!	; fffff8f9 <value+0x7fffe3a3>
 478:	9f852fbc 	svcls	0x00852fbc
 47c:	0402004b 	streq	r0, [r2], #-75	; 0xffffffb5
 480:	062e0601 	strteq	r0, [lr], -r1, lsl #12
 484:	862f5908 	strthi	r5, [pc], -r8, lsl #18
 488:	02004bbb 	andeq	r4, r0, #191488	; 0x2ec00
 48c:	2e060204 	cdpcs	2, 0, cr0, cr6, cr4, {0}
 490:	01040200 	mrseq	r0, R12_usr
 494:	5908069e 	stmdbpl	r8, {r1, r2, r3, r4, r7, r9, sl}
 498:	6a649f2f 	bvs	192815c <_start-0x7e6d7ea4>
 49c:	679f842f 	ldrvs	r8, [pc, pc, lsr #8]
 4a0:	01040200 	mrseq	r0, R12_usr
 4a4:	08062e06 	stmdaeq	r6, {r1, r2, r9, sl, fp, sp}
 4a8:	bb682fae 	bllt	1a0c368 <_start-0x7e5f3c98>
 4ac:	04020067 	streq	r0, [r2], #-103	; 0xffffff99
 4b0:	002e0602 	eoreq	r0, lr, r2, lsl #12
 4b4:	9e010402 	cdpls	4, 0, cr0, cr1, cr2, {0}
 4b8:	2fad0806 	svccs	0x00ad0806
 4bc:	306a64f3 	strdcc	r6, [sl], #-67	; 0xffffffbd	; <UNPREDICTABLE>
 4c0:	bc2f9f69 	stclt	15, cr9, [pc], #-420	; 324 <_start-0x7ffffcdc>
 4c4:	02006267 	andeq	r6, r0, #1879048198	; 0x70000006
 4c8:	82060104 	andhi	r0, r6, #4, 2
 4cc:	bc32a006 	ldclt	0, cr10, [r2], #-24	; 0xffffffe8
 4d0:	bc2fbc86 	stclt	12, cr11, [pc], #-536	; 2c0 <_start-0x7ffffd40>
 4d4:	00616767 	rsbeq	r6, r1, r7, ror #14
 4d8:	06010402 	streq	r0, [r1], -r2, lsl #8
 4dc:	04020082 	streq	r0, [r2], #-130	; 0xffffff7e
 4e0:	84068202 	strhi	r8, [r6], #-514	; 0xfffffdfe
 4e4:	9f84bb33 	svcls	0x0084bb33
 4e8:	0064304b 	rsbeq	r3, r4, fp, asr #32
 4ec:	06010402 	streq	r0, [r1], -r2, lsl #8
 4f0:	00a20682 	adceq	r0, r2, r2, lsl #13
 4f4:	06010402 	streq	r0, [r1], -r2, lsl #8
 4f8:	04020082 	streq	r0, [r2], #-130	; 0xffffff7e
 4fc:	02004a02 	andeq	r4, r0, #8192	; 0x2000
 500:	2f060504 	svccs	0x00060504
 504:	4b4b9f84 	blmi	12e831c <_start-0x7ed17ce4>
 508:	634b9f2f 	movtvs	r9, #48943	; 0xbf2f
 50c:	08022f87 	stmdaeq	r2, {r0, r1, r2, r7, r8, r9, sl, fp, sp}
 510:	Address 0x0000000000000510 is out of bounds.


Disassembly of section .debug_str:

00000000 <.debug_str>:
       0:	5f44454c 	svcpl	0x0044454c
       4:	74696e69 	strbtvc	r6, [r9], #-3689	; 0xfffff197
       8:	6f682f00 	svcvs	0x00682f00
       c:	732f656d 			; <UNDEFINED> instruction: 0x732f656d
      10:	68736168 	ldmdavs	r3!, {r3, r5, r6, r8, sp, lr}^
      14:	6f772f69 	svcvs	0x00772f69
      18:	70736b72 	rsbsvc	r6, r3, r2, ror fp
      1c:	2f656361 	svccs	0x00656361
      20:	73616873 	cmnvc	r1, #7536640	; 0x730000
      24:	422f6968 	eormi	r6, pc, #104, 18	; 0x1a0000
      28:	6c676165 	stfvse	f6, [r7], #-404	; 0xfffffe6c
      2c:	6e6f4265 	cdpvs	2, 6, cr4, cr15, cr5, {3}
      30:	616c4265 	cmnvs	ip, r5, ror #4
      34:	552f6b63 	strpl	r6, [pc, #-2915]!	; fffff4d9 <value+0x7fffdf83>
      38:	00545241 	subseq	r5, r4, r1, asr #4
      3c:	726f6873 	rsbvc	r6, pc, #7536640	; 0x730000
      40:	6e752074 	mrcvs	0, 3, r2, cr5, cr4, {3}
      44:	6e676973 			; <UNDEFINED> instruction: 0x6e676973
      48:	69206465 	stmdbvs	r0!, {r0, r2, r5, r6, sl, sp, lr}
      4c:	7500746e 	strvc	r7, [r0, #-1134]	; 0xfffffb92
      50:	33746e69 	cmncc	r4, #1680	; 0x690
      54:	00745f32 	rsbseq	r5, r4, r2, lsr pc
      58:	726f6873 	rsbvc	r6, pc, #7536640	; 0x730000
      5c:	6e692074 	mcrvs	0, 3, r2, cr9, cr4, {3}
      60:	50470074 	subpl	r0, r7, r4, ror r0
      64:	632e4f49 			; <UNDEFINED> instruction: 0x632e4f49
      68:	736e7500 	cmnvc	lr, #0, 10
      6c:	656e6769 	strbvs	r6, [lr, #-1897]!	; 0xfffff897
      70:	68632064 	stmdavs	r3!, {r2, r5, r6, sp}^
      74:	47007261 	strmi	r7, [r0, -r1, ror #4]
      78:	4320554e 			; <UNDEFINED> instruction: 0x4320554e
      7c:	36203939 			; <UNDEFINED> instruction: 0x36203939
      80:	312e332e 			; <UNDEFINED> instruction: 0x312e332e
      84:	31303220 	teqcc	r0, r0, lsr #4
      88:	32363037 	eorscc	r3, r6, #55	; 0x37
      8c:	6d2d2030 	stcvs	0, cr2, [sp, #-192]!	; 0xffffff40
      90:	3d757066 	ldclcc	0, cr7, [r5, #-408]!	; 0xfffffe68
      94:	6e6f656e 	cdpvs	5, 6, cr6, cr15, cr14, {3}
      98:	666d2d20 	strbtvs	r2, [sp], -r0, lsr #26
      9c:	74616f6c 	strbtvc	r6, [r1], #-3948	; 0xfffff094
      a0:	6962612d 	stmdbvs	r2!, {r0, r2, r3, r5, r8, sp, lr}^
      a4:	7261683d 	rsbvc	r6, r1, #3997696	; 0x3d0000
      a8:	6d2d2064 	stcvs	0, cr2, [sp, #-400]!	; 0xfffffe70
      ac:	3d757063 	ldclcc	0, cr7, [r5, #-396]!	; 0xfffffe74
      b0:	74726f63 	ldrbtvc	r6, [r2], #-3939	; 0xfffff09d
      b4:	612d7865 			; <UNDEFINED> instruction: 0x612d7865
      b8:	672d2038 			; <UNDEFINED> instruction: 0x672d2038
      bc:	74732d20 	ldrbtvc	r2, [r3], #-3360	; 0xfffff2e0
      c0:	6e673d64 	cdpvs	13, 6, cr3, cr7, cr4, {3}
      c4:	00393975 	eorseq	r3, r9, r5, ror r9
      c8:	505f4d43 	subspl	r4, pc, r3, asr #26
      cc:	4c5f5245 	lfmmi	f5, 2, [pc], {69}	; 0x45
      d0:	4c435f33 	mcrrmi	15, 3, r5, r3, cr3
      d4:	4354534b 	cmpmi	r4, #738197505	; 0x2c000001
      d8:	004c5254 	subeq	r5, ip, r4, asr r2
      dc:	505f4d43 	subspl	r4, pc, r3, asr #26
      e0:	4d5f5245 	lfmmi	f5, 2, [pc, #-276]	; ffffffd4 <value+0x7fffea7e>
      e4:	50534143 	subspl	r4, r3, r3, asr #2
      e8:	4c435f30 	mcrrmi	15, 3, r5, r3, cr0
      ec:	5254434b 	subspl	r4, r4, #738197505	; 0x2c000001
      f0:	4d43004c 	stclmi	0, cr0, [r3, #-304]	; 0xfffffed0
      f4:	5245505f 	subpl	r5, r5, #95	; 0x5f
      f8:	4950535f 	ldmdbmi	r0, {r0, r1, r2, r3, r4, r6, r8, r9, ip, lr}^
      fc:	4c435f30 	mcrrmi	15, 3, r5, r3, cr0
     100:	5254434b 	subspl	r4, r4, #738197505	; 0x2c000001
     104:	4d43004c 	stclmi	0, cr0, [r3, #-304]	; 0xfffffed0
     108:	5245505f 	subpl	r5, r5, #95	; 0x5f
     10c:	48344c5f 	ldmdami	r4!, {r0, r1, r2, r3, r4, r6, sl, fp, lr}
     110:	4c435f53 	mcrrmi	15, 5, r5, r3, cr3
     114:	4354534b 	cmpmi	r4, #738197505	; 0x2c000001
     118:	004c5254 	subeq	r5, ip, r4, asr r2
     11c:	505f4d43 	subspl	r4, pc, r3, asr #26
     120:	555f5245 	ldrbpl	r5, [pc, #-581]	; fffffee3 <value+0x7fffe98d>
     124:	34545241 	ldrbcc	r5, [r4], #-577	; 0xfffffdbf
     128:	4b4c435f 	blmi	1310eac <_start-0x7ecef154>
     12c:	4c525443 	cfldrdmi	mvd5, [r2], {67}	; 0x43
     130:	5f4d4300 	svcpl	0x004d4300
     134:	5f524550 	svcpl	0x00524550
     138:	5341434d 	movtpl	r4, #4941	; 0x134d
     13c:	435f3150 	cmpmi	pc, #80, 2
     140:	54434b4c 	strbpl	r4, [r3], #-2892	; 0xfffff4b4
     144:	43004c52 	movwmi	r4, #3154	; 0xc52
     148:	45505f4d 	ldrbmi	r5, [r0, #-3917]	; 0xfffff0b3
     14c:	50545f52 	subspl	r5, r4, r2, asr pc
     150:	5f304354 	svcpl	0x00304354
     154:	434b4c43 	movtmi	r4, #48195	; 0xbc43
     158:	004c5254 	subeq	r5, ip, r4, asr r2
     15c:	505f4d43 	subspl	r4, pc, r3, asr #26
     160:	4c5f5245 	lfmmi	f5, 2, [pc], {69}	; 0x45
     164:	5f574634 	svcpl	0x00574634
     168:	534b4c43 	movtpl	r4, #48195	; 0xbc43
     16c:	52544354 	subspl	r4, r4, #84, 6	; 0x50000001
     170:	4d43004c 	stclmi	0, cr0, [r3, #-304]	; 0xfffffed0
     174:	4353535f 	cmpmi	r3, #2080374785	; 0x7c000001
     178:	444f4d5f 	strbmi	r4, [pc], #-3423	; 180 <_start-0x7ffffe80>
     17c:	51455246 	cmppl	r5, r6, asr #4
     180:	5f564944 	svcpl	0x00564944
     184:	4c4c5044 	mcrrmi	0, 4, r5, ip, cr4
     188:	5244445f 	subpl	r4, r4, #1593835520	; 0x5f000000
     18c:	696e4900 	stmdbvs	lr!, {r8, fp, lr}^
     190:	41555f74 	cmpmi	r5, r4, ror pc
     194:	5f305452 	svcpl	0x00305452
     198:	006b6c43 	rsbeq	r6, fp, r3, asr #24
     19c:	505f4d43 	subspl	r4, pc, r3, asr #26
     1a0:	555f5245 	ldrbpl	r5, [pc, #-581]	; ffffff63 <value+0x7fffea0d>
     1a4:	35545241 	ldrbcc	r5, [r4, #-577]	; 0xfffffdbf
     1a8:	4b4c435f 	blmi	1310f2c <_start-0x7ecef0d4>
     1ac:	4c525443 	cfldrdmi	mvd5, [r2], {67}	; 0x43
     1b0:	5f4d4300 	svcpl	0x004d4300
     1b4:	5f435353 	svcpl	0x00435353
     1b8:	544c4544 	strbpl	r4, [ip], #-1348	; 0xfffffabc
     1bc:	54534d41 	ldrbpl	r4, [r3], #-3393	; 0xfffff2bf
     1c0:	445f5045 	ldrbmi	r5, [pc], #-69	; 1c8 <_start-0x7ffffe38>
     1c4:	5f4c4c50 	svcpl	0x004c4c50
     1c8:	50534944 	subspl	r4, r3, r4, asr #18
     1cc:	6d657400 	cfstrdvs	mvd7, [r5, #-0]
     1d0:	4d430070 	stclmi	0, cr0, [r3, #-448]	; 0xfffffe40
     1d4:	4c44495f 	mcrrmi	9, 5, r4, r4, cr15	; <UNPREDICTABLE>
     1d8:	5f545345 	svcpl	0x00545345
     1dc:	4c4c5044 	mcrrmi	0, 4, r5, ip, cr4
     1e0:	5244445f 	subpl	r4, r4, #1593835520	; 0x5f000000
     1e4:	5f4d4300 	svcpl	0x004d4300
     1e8:	4f545541 	svcmi	0x00545541
     1ec:	454c4449 	strbmi	r4, [ip, #-1097]	; 0xfffffbb7
     1f0:	4c50445f 	cfldrdmi	mvd4, [r0], {95}	; 0x5f
     1f4:	45505f4c 	ldrbmi	r5, [r0, #-3916]	; 0xfffff0b4
     1f8:	4d430052 	stclmi	0, cr0, [r3, #-328]	; 0xfffffeb8
     1fc:	5649445f 			; <UNDEFINED> instruction: 0x5649445f
     200:	5f354d5f 	svcpl	0x00354d5f
     204:	4c4c5044 	mcrrmi	0, 4, r5, ip, cr4
     208:	524f435f 	subpl	r4, pc, #2080374785	; 0x7c000001
     20c:	4d430045 	stclmi	0, cr0, [r3, #-276]	; 0xfffffeec
     210:	4353535f 	cmpmi	r3, #2080374785	; 0x7c000001
     214:	4c45445f 	cfstrdmi	mvd4, [r5], {95}	; 0x5f
     218:	534d4154 	movtpl	r4, #53588	; 0xd154
     21c:	5f504554 	svcpl	0x00504554
     220:	4c4c5044 	mcrrmi	0, 4, r5, ip, cr4
     224:	5245505f 	subpl	r5, r5, #95	; 0x5f
     228:	6c617600 	stclvs	6, cr7, [r1], #-0
     22c:	43006575 	movwmi	r6, #1397	; 0x575
     230:	45505f4d 	ldrbmi	r5, [r0, #-3917]	; 0xfffff0b3
     234:	4c435f52 	mcrrmi	15, 5, r5, r3, cr2
     238:	5649444b 	strbpl	r4, [r9], -fp, asr #8
     23c:	5f4b3233 	svcpl	0x004b3233
     240:	434b4c43 	movtmi	r4, #48195	; 0xbc43
     244:	004c5254 	subeq	r5, ip, r4, asr r2
     248:	415f4d43 	cmpmi	pc, r3, asr #26
     24c:	494f5455 	stmdbmi	pc, {r0, r2, r4, r6, sl, ip, lr}^	; <UNPREDICTABLE>
     250:	5f454c44 	svcpl	0x00454c44
     254:	4c4c5044 	mcrrmi	0, 4, r5, ip, cr4
     258:	524f435f 	subpl	r4, pc, #2080374785	; 0x7c000001
     25c:	4d430045 	stclmi	0, cr0, [r3, #-276]	; 0xfffffeec
     260:	5649445f 			; <UNDEFINED> instruction: 0x5649445f
     264:	5f324d5f 	svcpl	0x00324d5f
     268:	4c4c5044 	mcrrmi	0, 4, r5, ip, cr4
     26c:	55504d5f 	ldrbpl	r4, [r0, #-3423]	; 0xfffff2a1
     270:	5f4d4300 	svcpl	0x004d4300
     274:	5f524550 	svcpl	0x00524550
     278:	4e414344 	cdpmi	3, 4, cr4, cr1, cr4, {2}
     27c:	4c435f30 	mcrrmi	15, 3, r5, r3, cr0
     280:	5254434b 	subspl	r4, r4, #738197505	; 0x2c000001
     284:	4d43004c 	stclmi	0, cr0, [r3, #-304]	; 0xfffffed0
     288:	5245505f 	subpl	r5, r5, #95	; 0x5f
     28c:	46344c5f 			; <UNDEFINED> instruction: 0x46344c5f
     290:	4c435f57 	mcrrmi	15, 5, r5, r3, cr7
     294:	5254434b 	subspl	r4, r4, #738197505	; 0x2c000001
     298:	4d43004c 	stclmi	0, cr0, [r3, #-304]	; 0xfffffed0
     29c:	4354525f 	cmpmi	r4, #-268435451	; 0xf0000005
     2a0:	5f4d4300 	svcpl	0x004d4300
     2a4:	5f524550 	svcpl	0x00524550
     2a8:	30434d4d 	subcc	r4, r3, sp, asr #26
     2ac:	4b4c435f 	blmi	1311030 <_start-0x7eceefd0>
     2b0:	4c525443 	cfldrdmi	mvd5, [r2], {67}	; 0x43
     2b4:	5f4d4300 	svcpl	0x004d4300
     2b8:	534b4c43 	movtpl	r4, #48195	; 0xbc43
     2bc:	445f4c45 	ldrbmi	r4, [pc], #-3141	; 2c4 <_start-0x7ffffd3c>
     2c0:	5f4c4c50 	svcpl	0x004c4c50
     2c4:	45524f43 	ldrbmi	r4, [r2, #-3907]	; 0xfffff0bd
     2c8:	5f4d4300 	svcpl	0x004d4300
     2cc:	5f524550 	svcpl	0x00524550
     2d0:	31433249 	cmpcc	r3, r9, asr #4
     2d4:	4b4c435f 	blmi	1311058 <_start-0x7eceefa8>
     2d8:	4c525443 	cfldrdmi	mvd5, [r2], {67}	; 0x43
     2dc:	5f4d4300 	svcpl	0x004d4300
     2e0:	5f564944 	svcpl	0x00564944
     2e4:	445f344d 	ldrbmi	r3, [pc], #-1101	; 2ec <_start-0x7ffffd14>
     2e8:	5f4c4c50 	svcpl	0x004c4c50
     2ec:	45524f43 	ldrbmi	r4, [r2, #-3907]	; 0xfffff0bd
     2f0:	5f4d4300 	svcpl	0x004d4300
     2f4:	5f524550 	svcpl	0x00524550
     2f8:	45454549 	strbmi	r4, [r5, #-1353]	; 0xfffffab7
     2fc:	30303035 	eorscc	r3, r0, r5, lsr r0
     300:	4b4c435f 	blmi	1311084 <_start-0x7eceef7c>
     304:	4c525443 	cfldrdmi	mvd5, [r2], {67}	; 0x43
     308:	5f4d4300 	svcpl	0x004d4300
     30c:	5f524550 	svcpl	0x00524550
     310:	454d4954 	strbmi	r4, [sp, #-2388]	; 0xfffff6ac
     314:	435f3252 	cmpmi	pc, #536870917	; 0x20000005
     318:	54434b4c 	strbpl	r4, [r3], #-2892	; 0xfffff4b4
     31c:	43004c52 	movwmi	r4, #3154	; 0xc52
     320:	45505f4d 	ldrbmi	r5, [r0, #-3917]	; 0xfffff0b3
     324:	4d4d5f52 	stclmi	15, cr5, [sp, #-328]	; 0xfffffeb8
     328:	435f3143 	cmpmi	pc, #-1073741808	; 0xc0000010
     32c:	54434b4c 	strbpl	r4, [r3], #-2892	; 0xfffff4b4
     330:	43004c52 	movwmi	r4, #3154	; 0xc52
     334:	53535f4d 	cmppl	r3, #308	; 0x134
     338:	4f4d5f43 	svcmi	0x004d5f43
     33c:	45524644 	ldrbmi	r4, [r2, #-1604]	; 0xfffff9bc
     340:	56494451 			; <UNDEFINED> instruction: 0x56494451
     344:	4c50445f 	cfldrdmi	mvd4, [r0], {95}	; 0x5f
     348:	504d5f4c 	subpl	r5, sp, ip, asr #30
     34c:	4d430055 	stclmi	0, cr0, [r3, #-340]	; 0xfffffeac
     350:	5245505f 	subpl	r5, r5, #95	; 0x5f
     354:	4332495f 	teqmi	r2, #1556480	; 0x17c000
     358:	4c435f32 	mcrrmi	15, 3, r5, r3, cr2
     35c:	5254434b 	subspl	r4, r4, #738197505	; 0x2c000001
     360:	4d43004c 	stclmi	0, cr0, [r3, #-304]	; 0xfffffed0
     364:	5649445f 			; <UNDEFINED> instruction: 0x5649445f
     368:	5f324d5f 	svcpl	0x00324d5f
     36c:	4c4c5044 	mcrrmi	0, 4, r5, ip, cr4
     370:	5245505f 	subpl	r5, r5, #95	; 0x5f
     374:	5f4d4300 	svcpl	0x004d4300
     378:	5f524550 	svcpl	0x00524550
     37c:	54524155 	ldrbpl	r4, [r2], #-341	; 0xfffffeab
     380:	4c435f33 	mcrrmi	15, 3, r5, r3, cr3
     384:	5254434b 	subspl	r4, r4, #738197505	; 0x2c000001
     388:	4d43004c 	stclmi	0, cr0, [r3, #-304]	; 0xfffffed0
     38c:	5245505f 	subpl	r5, r5, #95	; 0x5f
     390:	4d49545f 	cfstrdmi	mvd5, [r9, #-380]	; 0xfffffe84
     394:	5f335245 	svcpl	0x00335245
     398:	434b4c43 	movtmi	r4, #48195	; 0xbc43
     39c:	004c5254 	subeq	r5, ip, r4, asr r2
     3a0:	505f4d43 	subspl	r4, pc, r3, asr #26
     3a4:	4d5f5245 	lfmmi	f5, 2, [pc, #-276]	; 298 <_start-0x7ffffd68>
     3a8:	5f32434d 	svcpl	0x0032434d
     3ac:	434b4c43 	movtmi	r4, #48195	; 0xbc43
     3b0:	004c5254 	subeq	r5, ip, r4, asr r2
     3b4:	505f4d43 	subspl	r4, pc, r3, asr #26
     3b8:	535f5245 	cmppl	pc, #1342177284	; 0x50000004
     3bc:	4c4e4950 	mcrrmi	9, 5, r4, lr, cr0	; <UNPREDICTABLE>
     3c0:	5f4b434f 	svcpl	0x004b434f
     3c4:	434b4c43 	movtmi	r4, #48195	; 0xbc43
     3c8:	004c5254 	subeq	r5, ip, r4, asr r2
     3cc:	505f4d43 	subspl	r4, pc, r3, asr #26
     3d0:	525f5245 	subspl	r5, pc, #1342177284	; 0x50000004
     3d4:	43004745 	movwmi	r4, #1861	; 0x745
     3d8:	4b575f4d 	blmi	15d8114 <_start-0x7ea27eec>
     3dc:	575f5055 			; <UNDEFINED> instruction: 0x575f5055
     3e0:	5f50554b 	svcpl	0x0050554b
     3e4:	435f334d 	cmpmi	pc, #872415233	; 0x34000001
     3e8:	54434b4c 	strbpl	r4, [r3], #-2892	; 0xfffff4b4
     3ec:	43004c52 	movwmi	r4, #3154	; 0xc52
     3f0:	4c435f4d 	mcrrmi	15, 4, r5, r3, cr13
     3f4:	444f4d4b 	strbmi	r4, [pc], #-3403	; 3fc <_start-0x7ffffc04>
     3f8:	50445f45 	subpl	r5, r4, r5, asr #30
     3fc:	435f4c4c 	cmpmi	pc, #76, 24	; 0x4c00
     400:	0045524f 	subeq	r5, r5, pc, asr #4
     404:	535f4d43 	cmppl	pc, #4288	; 0x10c0
     408:	6c437465 	cfstrdvs	mvd7, [r3], {101}	; 0x65
     40c:	4d43006b 	stclmi	0, cr0, [r3, #-428]	; 0xfffffe54
     410:	5245505f 	subpl	r5, r5, #95	; 0x5f
     414:	4d49545f 	cfstrdmi	mvd5, [r9, #-380]	; 0xfffffe84
     418:	5f345245 	svcpl	0x00345245
     41c:	434b4c43 	movtmi	r4, #48195	; 0xbc43
     420:	004c5254 	subeq	r5, ip, r4, asr r2
     424:	575f4d43 	ldrbpl	r4, [pc, -r3, asr #26]
     428:	5f50554b 	svcpl	0x0050554b
     42c:	544e4f43 	strbpl	r4, [lr], #-3907	; 0xfffff0bd
     430:	5f4c4f52 	svcpl	0x004c4f52
     434:	434b4c43 	movtmi	r4, #48195	; 0xbc43
     438:	004c5254 	subeq	r5, ip, r4, asr r2
     43c:	575f4d43 	ldrbpl	r4, [pc, -r3, asr #26]
     440:	5f50554b 	svcpl	0x0050554b
     444:	31544457 	cmpcc	r4, r7, asr r4
     448:	4b4c435f 	blmi	13111cc <_start-0x7eceee34>
     44c:	4c525443 	cfldrdmi	mvd5, [r2], {67}	; 0x43
     450:	5f4d4300 	svcpl	0x004d4300
     454:	5f524550 	svcpl	0x00524550
     458:	454d4954 	strbmi	r4, [sp, #-2388]	; 0xfffff6ac
     45c:	435f3552 	cmpmi	pc, #343932928	; 0x14800000
     460:	54434b4c 	strbpl	r4, [r3], #-2892	; 0xfffff4b4
     464:	43004c52 	movwmi	r4, #3154	; 0xc52
     468:	45505f4d 	ldrbmi	r5, [r0, #-3917]	; 0xfffff0b3
     46c:	50535f52 	subspl	r5, r3, r2, asr pc
     470:	435f3149 	cmpmi	pc, #1073741842	; 0x40000012
     474:	54434b4c 	strbpl	r4, [r3], #-2892	; 0xfffff4b4
     478:	43004c52 	movwmi	r4, #3154	; 0xc52
     47c:	45505f4d 	ldrbmi	r5, [r0, #-3917]	; 0xfffff0b3
     480:	334c5f52 	movtcc	r5, #53074	; 0xcf52
     484:	4b4c435f 	blmi	1311208 <_start-0x7eceedf8>
     488:	4c525443 	cfldrdmi	mvd5, [r2], {67}	; 0x43
     48c:	5f4d4300 	svcpl	0x004d4300
     490:	5f524550 	svcpl	0x00524550
     494:	4e414344 	cdpmi	3, 4, cr4, cr1, cr4, {2}
     498:	4c435f31 	mcrrmi	15, 3, r5, r3, cr1
     49c:	5254434b 	subspl	r4, r4, #738197505	; 0x2c000001
     4a0:	4d43004c 	stclmi	0, cr0, [r3, #-304]	; 0xfffffed0
     4a4:	5245505f 	subpl	r5, r5, #95	; 0x5f
     4a8:	5750455f 			; <UNDEFINED> instruction: 0x5750455f
     4ac:	3053534d 	subscc	r5, r3, sp, asr #6
     4b0:	4b4c435f 	blmi	1311234 <_start-0x7eceedcc>
     4b4:	4c525443 	cfldrdmi	mvd5, [r2], {67}	; 0x43
     4b8:	5f4d4300 	svcpl	0x004d4300
     4bc:	5f524550 	svcpl	0x00524550
     4c0:	454d4954 	strbmi	r4, [sp, #-2388]	; 0xfffff6ac
     4c4:	435f3652 	cmpmi	pc, #85983232	; 0x5200000
     4c8:	54434b4c 	strbpl	r4, [r3], #-2892	; 0xfffff4b4
     4cc:	43004c52 	movwmi	r4, #3154	; 0xc52
     4d0:	4b575f4d 	blmi	15d820c <_start-0x7ea27df4>
     4d4:	475f5055 			; <UNDEFINED> instruction: 0x475f5055
     4d8:	304f4950 	subcc	r4, pc, r0, asr r9	; <UNPREDICTABLE>
     4dc:	4b4c435f 	blmi	1311260 <_start-0x7eceeda0>
     4e0:	4c525443 	cfldrdmi	mvd5, [r2], {67}	; 0x43
     4e4:	5f4d4300 	svcpl	0x004d4300
     4e8:	5f524550 	svcpl	0x00524550
     4ec:	4d475043 	stclmi	0, cr5, [r7, #-268]	; 0xfffffef4
     4f0:	5f304341 	svcpl	0x00304341
     4f4:	434b4c43 	movtmi	r4, #48195	; 0xbc43
     4f8:	004c5254 	subeq	r5, ip, r4, asr r2
     4fc:	535f4d43 	cmppl	pc, #4288	; 0x10c0
     500:	445f4353 	ldrbmi	r4, [pc], #-851	; 508 <_start-0x7ffffaf8>
     504:	41544c45 	cmpmi	r4, r5, asr #24
     508:	4554534d 	ldrbmi	r5, [r4, #-845]	; 0xfffffcb3
     50c:	50445f50 	subpl	r5, r4, r0, asr pc
     510:	435f4c4c 	cmpmi	pc, #76, 24	; 0x4c00
     514:	0045524f 	subeq	r5, r5, pc, asr #4
     518:	505f4d43 	subspl	r4, pc, r3, asr #26
     51c:	545f5245 	ldrbpl	r5, [pc], #-581	; 524 <_start-0x7ffffadc>
     520:	52454d49 	subpl	r4, r5, #4672	; 0x1240
     524:	4c435f37 	mcrrmi	15, 3, r5, r3, cr7
     528:	5254434b 	subspl	r4, r4, #738197505	; 0x2c000001
     52c:	4d43004c 	stclmi	0, cr0, [r3, #-304]	; 0xfffffed0
     530:	4353535f 	cmpmi	r3, #2080374785	; 0x7c000001
     534:	4c45445f 	cfstrdmi	mvd4, [r5], {95}	; 0x5f
     538:	534d4154 	movtpl	r4, #53588	; 0xd154
     53c:	5f504554 	svcpl	0x00504554
     540:	4c4c5044 	mcrrmi	0, 4, r5, ip, cr4
     544:	55504d5f 	ldrbpl	r4, [r0, #-3423]	; 0xfffff2a1
     548:	5f4d4300 	svcpl	0x004d4300
     54c:	5f524550 	svcpl	0x00524550
     550:	5750434f 	ldrbpl	r4, [r0, -pc, asr #6]
     554:	4c435f50 	mcrrmi	15, 5, r5, r3, cr0
     558:	5254434b 	subspl	r4, r4, #738197505	; 0x2c000001
     55c:	4d43004c 	stclmi	0, cr0, [r3, #-304]	; 0xfffffed0
     560:	554b575f 	strbpl	r5, [fp, #-1887]	; 0xfffff8a1
     564:	4d535f50 	ldclmi	15, cr5, [r3, #-320]	; 0xfffffec0
     568:	52545241 	subspl	r5, r4, #268435460	; 0x10000004
     56c:	454c4645 	strbmi	r4, [ip, #-1605]	; 0xfffff9bb
     570:	435f3058 	cmpmi	pc, #88	; 0x58
     574:	54434b4c 	strbpl	r4, [r3], #-2892	; 0xfffff4b4
     578:	43004c52 	movwmi	r4, #3154	; 0xc52
     57c:	45505f4d 	ldrbmi	r5, [r0, #-3917]	; 0xfffff0b3
     580:	50455f52 	subpl	r5, r5, r2, asr pc
     584:	53534d57 	cmppl	r3, #5568	; 0x15c0
     588:	4c435f32 	mcrrmi	15, 3, r5, r3, cr2
     58c:	5254434b 	subspl	r4, r4, #738197505	; 0x2c000001
     590:	4d43004c 	stclmi	0, cr0, [r3, #-304]	; 0xfffffed0
     594:	554b575f 	strbpl	r5, [fp, #-1887]	; 0xfffff8a1
     598:	41555f50 	cmpmi	r5, r0, asr pc
     59c:	5f305452 	svcpl	0x00305452
     5a0:	434b4c43 	movtmi	r4, #48195	; 0xbc43
     5a4:	004c5254 	subeq	r5, ip, r4, asr r2
     5a8:	435f4d43 	cmpmi	pc, #4288	; 0x10c0
     5ac:	45534b4c 	ldrbmi	r4, [r3, #-2892]	; 0xfffff4b4
     5b0:	50445f4c 	subpl	r5, r4, ip, asr #30
     5b4:	505f4c4c 	subspl	r4, pc, ip, asr #24
     5b8:	50495245 	subpl	r5, r9, r5, asr #4
     5bc:	4d430048 	stclmi	0, cr0, [r3, #-288]	; 0xfffffee0
     5c0:	5245505f 	subpl	r5, r5, #95	; 0x5f
     5c4:	4c344c5f 	ldcmi	12, cr4, [r4], #-380	; 0xfffffe84
     5c8:	4c435f53 	mcrrmi	15, 5, r5, r3, cr3
     5cc:	5254434b 	subspl	r4, r4, #738197505	; 0x2c000001
     5d0:	4d43004c 	stclmi	0, cr0, [r3, #-304]	; 0xfffffed0
     5d4:	5245505f 	subpl	r5, r5, #95	; 0x5f
     5d8:	53334c5f 	teqpl	r3, #24320	; 0x5f00
     5dc:	4b4c435f 	blmi	1311360 <_start-0x7eceeca0>
     5e0:	54435453 	strbpl	r5, [r3], #-1107	; 0xfffffbad
     5e4:	43004c52 	movwmi	r4, #3154	; 0xc52
     5e8:	4c435f4d 	mcrrmi	15, 4, r5, r3, cr13
     5ec:	444f4d4b 	strbmi	r4, [pc], #-3403	; 5f4 <_start-0x7ffffa0c>
     5f0:	50445f45 	subpl	r5, r4, r5, asr #30
     5f4:	445f4c4c 	ldrbmi	r4, [pc], #-3148	; 5fc <_start-0x7ffffa04>
     5f8:	43005244 	movwmi	r5, #580	; 0x244
     5fc:	4b575f4d 	blmi	15d8338 <_start-0x7ea27cc8>
     600:	535f5055 	cmppl	pc, #85	; 0x55
     604:	5452414d 	ldrbpl	r4, [r2], #-333	; 0xfffffeb3
     608:	4c464552 	cfstr64mi	mvdx4, [r6], {82}	; 0x52
     60c:	5f315845 	svcpl	0x00315845
     610:	434b4c43 	movtmi	r4, #48195	; 0xbc43
     614:	004c5254 	subeq	r5, ip, r4, asr r2
     618:	435f4d43 	cmpmi	pc, #4288	; 0x10c0
     61c:	45534b4c 	ldrbmi	r4, [r3, #-2892]	; 0xfffff4b4
     620:	50445f4c 	subpl	r5, r4, ip, asr #30
     624:	445f4c4c 	ldrbmi	r4, [pc], #-3148	; 62c <_start-0x7ffff9d4>
     628:	00505349 	subseq	r5, r0, r9, asr #6
     62c:	505f4d43 	subspl	r4, pc, r3, asr #26
     630:	43005245 	movwmi	r5, #581	; 0x245
     634:	45505f4d 	ldrbmi	r5, [r0, #-3917]	; 0xfffff0b3
     638:	4c435f52 	mcrrmi	15, 5, r5, r3, cr2
     63c:	34325f4b 	ldrtcc	r5, [r2], #-3915	; 0xfffff0b5
     640:	5f5a484d 	svcpl	0x005a484d
     644:	534b4c43 	movtpl	r4, #48195	; 0xbc43
     648:	52544354 	subspl	r4, r4, #84, 6	; 0x50000001
     64c:	4d43004c 	stclmi	0, cr0, [r3, #-304]	; 0xfffffed0
     650:	5245505f 	subpl	r5, r5, #95	; 0x5f
     654:	4253555f 	subsmi	r5, r3, #398458880	; 0x17c00000
     658:	4c435f30 	mcrrmi	15, 3, r5, r3, cr0
     65c:	5254434b 	subspl	r4, r4, #738197505	; 0x2c000001
     660:	4d43004c 	stclmi	0, cr0, [r3, #-304]	; 0xfffffed0
     664:	5245505f 	subpl	r5, r5, #95	; 0x5f
     668:	49414d5f 	stmdbmi	r1, {r0, r1, r2, r3, r4, r6, r8, sl, fp, lr}^
     66c:	584f424c 	stmdapl	pc, {r2, r3, r6, r9, lr}^	; <UNPREDICTABLE>
     670:	4c435f30 	mcrrmi	15, 3, r5, r3, cr0
     674:	5254434b 	subspl	r4, r4, #738197505	; 0x2c000001
     678:	4d43004c 	stclmi	0, cr0, [r3, #-304]	; 0xfffffed0
     67c:	4645435f 			; <UNDEFINED> instruction: 0x4645435f
     680:	00455355 	subeq	r5, r5, r5, asr r3
     684:	475f4d43 	ldrbmi	r4, [pc, -r3, asr #26]
     688:	6c437465 	cfstrdvs	mvd7, [r3], {101}	; 0x65
     68c:	4d43006b 	stclmi	0, cr0, [r3, #-428]	; 0xfffffe54
     690:	5649445f 			; <UNDEFINED> instruction: 0x5649445f
     694:	5f364d5f 	svcpl	0x00364d5f
     698:	4c4c5044 	mcrrmi	0, 4, r5, ip, cr4
     69c:	524f435f 	subpl	r4, pc, #2080374785	; 0x7c000001
     6a0:	4d430045 	stclmi	0, cr0, [r3, #-276]	; 0xfffffeec
     6a4:	554b575f 	strbpl	r5, [fp, #-1887]	; 0xfffff8a1
     6a8:	4d430050 	stclmi	0, cr0, [r3, #-320]	; 0xfffffec0
     6ac:	4c44495f 	mcrrmi	9, 5, r4, r4, cr15	; <UNPREDICTABLE>
     6b0:	5f545345 	svcpl	0x00545345
     6b4:	4c4c5044 	mcrrmi	0, 4, r5, ip, cr4
     6b8:	524f435f 	subpl	r4, pc, #2080374785	; 0x7c000001
     6bc:	4d430045 	stclmi	0, cr0, [r3, #-276]	; 0xfffffeec
     6c0:	4c44495f 	mcrrmi	9, 5, r4, r4, cr15	; <UNPREDICTABLE>
     6c4:	5f545345 	svcpl	0x00545345
     6c8:	4c4c5044 	mcrrmi	0, 4, r5, ip, cr4
     6cc:	5245505f 	subpl	r5, r5, #95	; 0x5f
     6d0:	5f4d4300 	svcpl	0x004d4300
     6d4:	5f524550 	svcpl	0x00524550
     6d8:	5f555250 	svcpl	0x00555250
     6dc:	53534349 	cmppl	r3, #603979777	; 0x24000001
     6e0:	4b4c435f 	blmi	1311464 <_start-0x7eceeb9c>
     6e4:	4c525443 	cfldrdmi	mvd5, [r2], {67}	; 0x43
     6e8:	5f4d4300 	svcpl	0x004d4300
     6ec:	4d4b4c43 	stclmi	12, cr4, [fp, #-268]	; 0xfffffef4
     6f0:	5f45444f 	svcpl	0x0045444f
     6f4:	4c4c5044 	mcrrmi	0, 4, r5, ip, cr4
     6f8:	5245505f 	subpl	r5, r5, #95	; 0x5f
     6fc:	5f4d4300 	svcpl	0x004d4300
     700:	5f524550 	svcpl	0x00524550
     704:	4f495047 	svcmi	0x00495047
     708:	4c435f31 	mcrrmi	15, 3, r5, r3, cr1
     70c:	5254434b 	subspl	r4, r4, #738197505	; 0x2c000001
     710:	4d43004c 	stclmi	0, cr0, [r3, #-304]	; 0xfffffed0
     714:	4b4c435f 	blmi	1311498 <_start-0x7eceeb68>
     718:	4c4f4344 	mcrrmi	3, 4, r4, pc, cr4
     71c:	445f4f44 	ldrbmi	r4, [pc], #-3908	; 724 <_start-0x7ffff8dc>
     720:	5f4c4c50 	svcpl	0x004c4c50
     724:	00524550 	subseq	r4, r2, r0, asr r5
     728:	505f4d43 	subspl	r4, pc, r3, asr #26
     72c:	475f5245 	ldrbmi	r5, [pc, -r5, asr #4]
     730:	324f4950 	subcc	r4, pc, #80, 18	; 0x140000
     734:	4b4c435f 	blmi	13114b8 <_start-0x7eceeb48>
     738:	4c525443 	cfldrdmi	mvd5, [r2], {67}	; 0x43
     73c:	5f4d4300 	svcpl	0x004d4300
     740:	5f524550 	svcpl	0x00524550
     744:	46494d45 	strbmi	r4, [r9], -r5, asr #26
     748:	4b4c435f 	blmi	13114cc <_start-0x7eceeb34>
     74c:	4c525443 	cfldrdmi	mvd5, [r2], {67}	; 0x43
     750:	5f4d4300 	svcpl	0x004d4300
     754:	5f524550 	svcpl	0x00524550
     758:	5f4d4c45 	svcpl	0x004d4c45
     75c:	434b4c43 	movtmi	r4, #48195	; 0xbc43
     760:	004c5254 	subeq	r5, ip, r4, asr r2
     764:	435f4d43 	cmpmi	pc, #4288	; 0x10c0
     768:	4f4d4b4c 	svcmi	0x004d4b4c
     76c:	445f4544 	ldrbmi	r4, [pc], #-1348	; 774 <_start-0x7ffff88c>
     770:	5f4c4c50 	svcpl	0x004c4c50
     774:	0055504d 	subseq	r5, r5, sp, asr #32
     778:	445f4d43 	ldrbmi	r4, [pc], #-3395	; 780 <_start-0x7ffff880>
     77c:	004c4c50 	subeq	r4, ip, r0, asr ip
     780:	505f4d43 	subspl	r4, pc, r3, asr #26
     784:	475f5245 	ldrbmi	r5, [pc, -r5, asr #4]
     788:	334f4950 	movtcc	r4, #63824	; 0xf950
     78c:	4b4c435f 	blmi	1311510 <_start-0x7eceeaf0>
     790:	4c525443 	cfldrdmi	mvd5, [r2], {67}	; 0x43
     794:	5f4d4300 	svcpl	0x004d4300
     798:	5f524550 	svcpl	0x00524550
     79c:	534c344c 	movtpl	r3, #50252	; 0xc44c
     7a0:	4b4c435f 	blmi	1311524 <_start-0x7eceeadc>
     7a4:	54435453 	strbpl	r5, [r3], #-1107	; 0xfffffbad
     7a8:	43004c52 	movwmi	r4, #3154	; 0xc52
     7ac:	45505f4d 	ldrbmi	r5, [r0, #-3917]	; 0xfffff0b3
     7b0:	50545f52 	subspl	r5, r4, r2, asr pc
     7b4:	5f314354 	svcpl	0x00314354
     7b8:	434b4c43 	movtmi	r4, #48195	; 0xbc43
     7bc:	004c5254 	subeq	r5, ip, r4, asr r2
     7c0:	415f4d43 	cmpmi	pc, r3, asr #26
     7c4:	494f5455 	stmdbmi	pc, {r0, r2, r4, r6, sl, ip, lr}^	; <UNPREDICTABLE>
     7c8:	5f454c44 	svcpl	0x00454c44
     7cc:	4c4c5044 	mcrrmi	0, 4, r5, ip, cr4
     7d0:	5244445f 	subpl	r4, r4, #1593835520	; 0x5f000000
     7d4:	5f4d4300 	svcpl	0x004d4300
     7d8:	415f334c 	cmpmi	pc, ip, asr #6
     7dc:	435f4e4f 	cmpmi	pc, #1264	; 0x4f0
     7e0:	54534b4c 	ldrbpl	r4, [r3], #-2892	; 0xfffff4b4
     7e4:	4c525443 	cfldrdmi	mvd5, [r2], {67}	; 0x43
     7e8:	5f4d4300 	svcpl	0x004d4300
     7ec:	534b4c43 	movtpl	r4, #48195	; 0xbc43
     7f0:	445f4c45 	ldrbmi	r4, [pc], #-3141	; 7f8 <_start-0x7ffff808>
     7f4:	5f4c4c50 	svcpl	0x004c4c50
     7f8:	00524444 	subseq	r4, r2, r4, asr #8
     7fc:	535f4d43 	cmppl	pc, #4288	; 0x10c0
     800:	4d5f4353 	ldclmi	3, cr4, [pc, #-332]	; 6bc <_start-0x7ffff944>
     804:	5246444f 	subpl	r4, r6, #1325400064	; 0x4f000000
     808:	49445145 	stmdbmi	r4, {r0, r2, r6, r8, ip, lr}^
     80c:	50445f56 	subpl	r5, r4, r6, asr pc
     810:	435f4c4c 	cmpmi	pc, #76, 24	; 0x4c00
     814:	0045524f 	subeq	r5, r5, pc, asr #4
     818:	505f4d43 	subspl	r4, pc, r3, asr #26
     81c:	545f5245 	ldrbpl	r5, [pc], #-581	; 824 <_start-0x7ffff7dc>
     820:	32435450 	subcc	r5, r3, #80, 8	; 0x50000000
     824:	4b4c435f 	blmi	13115a8 <_start-0x7eceea58>
     828:	4c525443 	cfldrdmi	mvd5, [r2], {67}	; 0x43
     82c:	5f4d4300 	svcpl	0x004d4300
     830:	5f524550 	svcpl	0x00524550
     834:	434d434f 	movtmi	r4, #54095	; 0xd34f
     838:	5f4d4152 	svcpl	0x004d4152
     83c:	434b4c43 	movtmi	r4, #48195	; 0xbc43
     840:	004c5254 	subeq	r5, ip, r4, asr r2
     844:	505f4d43 	subspl	r4, pc, r3, asr #26
     848:	4c5f5245 	lfmmi	f5, 2, [pc], {69}	; 0x45
     84c:	5f434443 	svcpl	0x00434443
     850:	434b4c43 	movtmi	r4, #48195	; 0xbc43
     854:	004c5254 	subeq	r5, ip, r4, asr r2
     858:	495f4d43 	ldmdbmi	pc, {r0, r1, r6, r8, sl, fp, lr}^	; <UNPREDICTABLE>
     85c:	53454c44 	movtpl	r4, #23620	; 0x5c44
     860:	50445f54 	subpl	r5, r4, r4, asr pc
     864:	4d5f4c4c 	ldclmi	12, cr4, [pc, #-304]	; 73c <_start-0x7ffff8c4>
     868:	43005550 	movwmi	r5, #1360	; 0x550
     86c:	4c435f4d 	mcrrmi	15, 4, r5, r3, cr13
     870:	444f4d4b 	strbmi	r4, [pc], #-3403	; 878 <_start-0x7ffff788>
     874:	50445f45 	subpl	r5, r4, r5, asr #30
     878:	445f4c4c 	ldrbmi	r4, [pc], #-3148	; 880 <_start-0x7ffff780>
     87c:	00505349 	subseq	r5, r0, r9, asr #6
     880:	445f4d43 	ldrbmi	r4, [pc], #-3395	; 888 <_start-0x7ffff778>
     884:	43495645 	movtmi	r5, #38469	; 0x9645
     888:	4d430045 	stclmi	0, cr0, [r3, #-276]	; 0xfffffeec
     88c:	55504d5f 	ldrbpl	r4, [r0, #-3423]	; 0xfffff2a1
     890:	5f4d4300 	svcpl	0x004d4300
     894:	5f524550 	svcpl	0x00524550
     898:	57535043 	ldrbpl	r5, [r3, -r3, asr #32]
     89c:	4b4c435f 	blmi	1311620 <_start-0x7ecee9e0>
     8a0:	54435453 	strbpl	r5, [r3], #-1107	; 0xfffffbad
     8a4:	43004c52 	movwmi	r4, #3154	; 0xc52
     8a8:	53535f4d 	cmppl	r3, #308	; 0x134
     8ac:	45445f43 	strbmi	r5, [r4, #-3907]	; 0xfffff0bd
     8b0:	4d41544c 	cfstrdmi	mvd5, [r1, #-304]	; 0xfffffed0
     8b4:	50455453 	subpl	r5, r5, r3, asr r4
     8b8:	4c50445f 	cfldrdmi	mvd4, [r0], {95}	; 0x5f
     8bc:	44445f4c 	strbmi	r5, [r4], #-3916	; 0xfffff0b4
     8c0:	4d430052 	stclmi	0, cr0, [r3, #-328]	; 0xfffffeb8
     8c4:	554b575f 	strbpl	r5, [fp, #-1887]	; 0xfffff8a1
     8c8:	45445f50 	strbmi	r5, [r4, #-3920]	; 0xfffff0b0
     8cc:	53475542 	movtpl	r5, #30018	; 0x7542
     8d0:	4c435f53 	mcrrmi	15, 5, r5, r3, cr3
     8d4:	5254434b 	subspl	r4, r4, #738197505	; 0x2c000001
     8d8:	4d43004c 	stclmi	0, cr0, [r3, #-304]	; 0xfffffed0
     8dc:	4c44495f 	mcrrmi	9, 5, r4, r4, cr15	; <UNPREDICTABLE>
     8e0:	5f545345 	svcpl	0x00545345
     8e4:	4c4c5044 	mcrrmi	0, 4, r5, ip, cr4
     8e8:	5349445f 	movtpl	r4, #37983	; 0x945f
     8ec:	4d430050 	stclmi	0, cr0, [r3, #-320]	; 0xfffffec0
     8f0:	5846475f 	stmdapl	r6, {r0, r1, r2, r3, r4, r6, r8, r9, sl, lr}^
     8f4:	5f4d4300 	svcpl	0x004d4300
     8f8:	575f344c 	ldrbpl	r3, [pc, -ip, asr #8]
     8fc:	5f50554b 	svcpl	0x0050554b
     900:	5f4e4f41 	svcpl	0x004e4f41
     904:	534b4c43 	movtpl	r4, #48195	; 0xbc43
     908:	52544354 	subspl	r4, r4, #84, 6	; 0x50000001
     90c:	4d43004c 	stclmi	0, cr0, [r3, #-304]	; 0xfffffed0
     910:	5245505f 	subpl	r5, r5, #95	; 0x5f
     914:	4350545f 	cmpmi	r0, #1593835520	; 0x5f000000
     918:	4c435f43 	mcrrmi	15, 4, r5, r3, cr3
     91c:	5254434b 	subspl	r4, r4, #738197505	; 0x2c000001
     920:	4d43004c 	stclmi	0, cr0, [r3, #-304]	; 0xfffffed0
     924:	5649445f 			; <UNDEFINED> instruction: 0x5649445f
     928:	5f324d5f 	svcpl	0x00324d5f
     92c:	4c4c5044 	mcrrmi	0, 4, r5, ip, cr4
     930:	5349445f 	movtpl	r4, #37983	; 0x945f
     934:	4d430050 	stclmi	0, cr0, [r3, #-320]	; 0xfffffec0
     938:	5245505f 	subpl	r5, r5, #95	; 0x5f
     93c:	48344c5f 	ldmdami	r4!, {r0, r1, r2, r3, r4, r6, sl, fp, lr}
     940:	4c435f53 	mcrrmi	15, 5, r5, r3, cr3
     944:	5254434b 	subspl	r4, r4, #738197505	; 0x2c000001
     948:	4d43004c 	stclmi	0, cr0, [r3, #-304]	; 0xfffffed0
     94c:	5455415f 	ldrbpl	r4, [r5], #-351	; 0xfffffea1
     950:	4c44494f 	mcrrmi	9, 4, r4, r4, cr15	; <UNPREDICTABLE>
     954:	50445f45 	subpl	r5, r4, r5, asr #30
     958:	4d5f4c4c 	ldclmi	12, cr4, [pc, #-304]	; 830 <_start-0x7ffff7d0>
     95c:	43005550 	movwmi	r5, #1360	; 0x550
     960:	45505f4d 	ldrbmi	r5, [r0, #-3917]	; 0xfffff0b3
     964:	4d455f52 	stclmi	15, cr5, [r5, #-328]	; 0xfffffeb8
     968:	465f4649 	ldrbmi	r4, [pc], -r9, asr #12
     96c:	4c435f57 	mcrrmi	15, 5, r5, r3, cr7
     970:	5254434b 	subspl	r4, r4, #738197505	; 0x2c000001
     974:	4d43004c 	stclmi	0, cr0, [r3, #-304]	; 0xfffffed0
     978:	4b4c435f 	blmi	13116fc <_start-0x7ecee904>
     97c:	5f4c4553 	svcpl	0x004c4553
     980:	4c4c5044 	mcrrmi	0, 4, r5, ip, cr4
     984:	55504d5f 	ldrbpl	r4, [r0, #-3423]	; 0xfffff2a1
     988:	6f6c6300 	svcvs	0x006c6300
     98c:	632e6b63 			; <UNDEFINED> instruction: 0x632e6b63
     990:	5f4d4300 	svcpl	0x004d4300
     994:	50554b57 	subspl	r4, r5, r7, asr fp
     998:	4b4c435f 	blmi	131171c <_start-0x7ecee8e4>
     99c:	54435453 	strbpl	r5, [r3], #-1107	; 0xfffffbad
     9a0:	43004c52 	movwmi	r4, #3154	; 0xc52
     9a4:	4b575f4d 	blmi	15d86e0 <_start-0x7ea27920>
     9a8:	545f5055 	ldrbpl	r5, [pc], #-85	; 9b0 <_start-0x7ffff650>
     9ac:	52454d49 	subpl	r4, r5, #4672	; 0x1240
     9b0:	4c435f30 	mcrrmi	15, 3, r5, r3, cr0
     9b4:	5254434b 	subspl	r4, r4, #738197505	; 0x2c000001
     9b8:	4d43004c 	stclmi	0, cr0, [r3, #-304]	; 0xfffffed0
     9bc:	5245505f 	subpl	r5, r5, #95	; 0x5f
     9c0:	4d50475f 	ldclmi	7, cr4, [r0, #-380]	; 0xfffffe84
     9c4:	4c435f43 	mcrrmi	15, 4, r5, r3, cr3
     9c8:	5254434b 	subspl	r4, r4, #738197505	; 0x2c000001
     9cc:	4d43004c 	stclmi	0, cr0, [r3, #-304]	; 0xfffffed0
     9d0:	5245505f 	subpl	r5, r5, #95	; 0x5f
     9d4:	50434f5f 	subpl	r4, r3, pc, asr pc
     9d8:	4c5f5057 	mrrcmi	0, 5, r5, pc, cr7	; <UNPREDICTABLE>
     9dc:	4c435f33 	mcrrmi	15, 3, r5, r3, cr3
     9e0:	4354534b 	cmpmi	r4, #738197505	; 0x2c000001
     9e4:	004c5254 	subeq	r5, ip, r4, asr r2
     9e8:	575f4d43 	ldrbpl	r4, [pc, -r3, asr #26]
     9ec:	5f50554b 	svcpl	0x0050554b
     9f0:	454d4954 	strbmi	r4, [sp, #-2388]	; 0xfffff6ac
     9f4:	435f3152 	cmpmi	pc, #-2147483628	; 0x80000014
     9f8:	54434b4c 	strbpl	r4, [r3], #-2892	; 0xfffff4b4
     9fc:	43004c52 	movwmi	r4, #3154	; 0xc52
     a00:	45505f4d 	ldrbmi	r5, [r0, #-3917]	; 0xfffff0b3
     a04:	434c5f52 	movtmi	r5, #53074	; 0xcf52
     a08:	435f4344 	cmpmi	pc, #68, 6	; 0x10000001
     a0c:	54534b4c 	ldrbpl	r4, [r3], #-2892	; 0xfffff4b4
     a10:	4c525443 	cfldrdmi	mvd5, [r2], {67}	; 0x43
     a14:	5f4d4300 	svcpl	0x004d4300
     a18:	5f524550 	svcpl	0x00524550
     a1c:	5f555250 	svcpl	0x00555250
     a20:	53534349 	cmppl	r3, #603979777	; 0x24000001
     a24:	4b4c435f 	blmi	13117a8 <_start-0x7ecee858>
     a28:	54435453 	strbpl	r5, [r3], #-1107	; 0xfffffbad
     a2c:	43004c52 	movwmi	r4, #3154	; 0xc52
     a30:	45505f4d 	ldrbmi	r5, [r0, #-3917]	; 0xfffff0b3
     a34:	41555f52 	cmpmi	r5, r2, asr pc
     a38:	5f315452 	svcpl	0x00315452
     a3c:	434b4c43 	movtmi	r4, #48195	; 0xbc43
     a40:	004c5254 	subeq	r5, ip, r4, asr r2
     a44:	415f4d43 	cmpmi	pc, r3, asr #26
     a48:	494f5455 	stmdbmi	pc, {r0, r2, r4, r6, sl, ip, lr}^	; <UNPREDICTABLE>
     a4c:	5f454c44 	svcpl	0x00454c44
     a50:	4c4c5044 	mcrrmi	0, 4, r5, ip, cr4
     a54:	5349445f 	movtpl	r4, #37983	; 0x945f
     a58:	4d430050 	stclmi	0, cr0, [r3, #-320]	; 0xfffffec0
     a5c:	4353535f 	cmpmi	r3, #2080374785	; 0x7c000001
     a60:	444f4d5f 	strbmi	r4, [pc], #-3423	; a68 <_start-0x7ffff598>
     a64:	51455246 	cmppl	r5, r6, asr #4
     a68:	5f564944 	svcpl	0x00564944
     a6c:	4c4c5044 	mcrrmi	0, 4, r5, ip, cr4
     a70:	5245505f 	subpl	r5, r5, #95	; 0x5f
     a74:	5f4d4300 	svcpl	0x004d4300
     a78:	50554b57 	subspl	r4, r5, r7, asr fp
     a7c:	4344415f 	movtmi	r4, #16735	; 0x415f
     a80:	4353545f 	cmpmi	r3, #1593835520	; 0x5f000000
     a84:	4b4c435f 	blmi	1311808 <_start-0x7ecee7f8>
     a88:	4c525443 	cfldrdmi	mvd5, [r2], {67}	; 0x43
     a8c:	5f4d4300 	svcpl	0x004d4300
     a90:	5f435353 	svcpl	0x00435353
     a94:	46444f4d 	strbmi	r4, [r4], -sp, asr #30
     a98:	44514552 	ldrbmi	r4, [r1], #-1362	; 0xfffffaae
     a9c:	445f5649 	ldrbmi	r5, [pc], #-1609	; aa4 <_start-0x7ffff55c>
     aa0:	5f4c4c50 	svcpl	0x004c4c50
     aa4:	50534944 	subspl	r4, r3, r4, asr #18
     aa8:	5f4d4300 	svcpl	0x004d4300
     aac:	5f524550 	svcpl	0x00524550
     ab0:	4d575045 	ldclmi	0, cr5, [r7, #-276]	; 0xfffffeec
     ab4:	5f315353 	svcpl	0x00315353
     ab8:	434b4c43 	movtmi	r4, #48195	; 0xbc43
     abc:	004c5254 	subeq	r5, ip, r4, asr r2
     ac0:	505f4d43 	subspl	r4, pc, r3, asr #26
     ac4:	4c5f5245 	lfmmi	f5, 2, [pc], {69}	; 0x45
     ac8:	4e495f33 	mcrmi	15, 2, r5, cr9, cr3, {1}
     acc:	5f525453 	svcpl	0x00525453
     ad0:	434b4c43 	movtmi	r4, #48195	; 0xbc43
     ad4:	004c5254 	subeq	r5, ip, r4, asr r2
     ad8:	505f4d43 	subspl	r4, pc, r3, asr #26
     adc:	555f5245 	ldrbpl	r5, [pc, #-581]	; 89f <_start-0x7ffff761>
     ae0:	32545241 	subscc	r5, r4, #268435460	; 0x10000004
     ae4:	4b4c435f 	blmi	1311868 <_start-0x7ecee798>
     ae8:	4c525443 	cfldrdmi	mvd5, [r2], {67}	; 0x43
     aec:	5f4d4300 	svcpl	0x004d4300
     af0:	50554b57 	subspl	r4, r5, r7, asr fp
     af4:	57344c5f 			; <UNDEFINED> instruction: 0x57344c5f
     af8:	5f50554b 	svcpl	0x0050554b
     afc:	434b4c43 	movtmi	r4, #48195	; 0xbc43
     b00:	004c5254 	subeq	r5, ip, r4, asr r2
     b04:	5f4b4c43 	svcpl	0x004b4c43
     b08:	55444f4d 	strbpl	r4, [r4, #-3917]	; 0xfffff0b3
     b0c:	745f454c 	ldrbvc	r4, [pc], #-1356	; b14 <_start-0x7ffff4ec>
     b10:	5f4d4300 	svcpl	0x004d4300
     b14:	50554b57 	subspl	r4, r5, r7, asr fp
     b18:	4332495f 	teqmi	r2, #1556480	; 0x17c000
     b1c:	4c435f30 	mcrrmi	15, 3, r5, r3, cr0
     b20:	5254434b 	subspl	r4, r4, #738197505	; 0x2c000001
     b24:	4d43004c 	stclmi	0, cr0, [r3, #-304]	; 0xfffffed0
     b28:	5649445f 			; <UNDEFINED> instruction: 0x5649445f
     b2c:	5f324d5f 	svcpl	0x00324d5f
     b30:	4c4c5044 	mcrrmi	0, 4, r5, ip, cr4
     b34:	5244445f 	subpl	r4, r4, #1593835520	; 0x5f000000
     b38:	5f4d4300 	svcpl	0x004d4300
     b3c:	666e6f63 	strbtvs	r6, [lr], -r3, ror #30
     b40:	6d70675f 	ldclvs	7, cr6, [r0, #-380]!	; 0xfffffe84
     b44:	30615f63 	rsbcc	r5, r1, r3, ror #30
     b48:	5f4d4300 	svcpl	0x004d4300
     b4c:	666e6f63 	strbtvs	r6, [lr], -r3, ror #30
     b50:	6d70675f 	ldclvs	7, cr6, [r0, #-380]!	; 0xfffffe84
     b54:	31615f63 	cmncc	r1, r3, ror #30
     b58:	5f4d4300 	svcpl	0x004d4300
     b5c:	666e6f63 	strbtvs	r6, [lr], -r3, ror #30
     b60:	6d70675f 	ldclvs	7, cr6, [r0, #-380]!	; 0xfffffe84
     b64:	32615f63 	rsbcc	r5, r1, #396	; 0x18c
     b68:	5f4d4300 	svcpl	0x004d4300
     b6c:	666e6f63 	strbtvs	r6, [lr], -r3, ror #30
     b70:	6d70675f 	ldclvs	7, cr6, [r0, #-380]!	; 0xfffffe84
     b74:	33615f63 	cmncc	r1, #396	; 0x18c
     b78:	5f4d4300 	svcpl	0x004d4300
     b7c:	666e6f63 	strbtvs	r6, [lr], -r3, ror #30
     b80:	6d70675f 	ldclvs	7, cr6, [r0, #-380]!	; 0xfffffe84
     b84:	34615f63 	strbtcc	r5, [r1], #-3939	; 0xfffff09d
     b88:	5f4d4300 	svcpl	0x004d4300
     b8c:	666e6f63 	strbtvs	r6, [lr], -r3, ror #30
     b90:	6d70675f 	ldclvs	7, cr6, [r0, #-380]!	; 0xfffffe84
     b94:	35615f63 	strbcc	r5, [r1, #-3939]!	; 0xfffff09d
     b98:	5f4d4300 	svcpl	0x004d4300
     b9c:	666e6f63 	strbtvs	r6, [lr], -r3, ror #30
     ba0:	6d70675f 	ldclvs	7, cr6, [r0, #-380]!	; 0xfffffe84
     ba4:	36615f63 	strbtcc	r5, [r1], -r3, ror #30
     ba8:	5f4d4300 	svcpl	0x004d4300
     bac:	666e6f63 	strbtvs	r6, [lr], -r3, ror #30
     bb0:	6d70675f 	ldclvs	7, cr6, [r0, #-380]!	; 0xfffffe84
     bb4:	37615f63 	strbcc	r5, [r1, -r3, ror #30]!
     bb8:	5f4d4300 	svcpl	0x004d4300
     bbc:	666e6f63 	strbtvs	r6, [lr], -r3, ror #30
     bc0:	6d70675f 	ldclvs	7, cr6, [r0, #-380]!	; 0xfffffe84
     bc4:	38615f63 	stmdacc	r1!, {r0, r1, r5, r6, r8, r9, sl, fp, ip, lr}^
     bc8:	5f4d4300 	svcpl	0x004d4300
     bcc:	666e6f63 	strbtvs	r6, [lr], -r3, ror #30
     bd0:	6d70675f 	ldclvs	7, cr6, [r0, #-380]!	; 0xfffffe84
     bd4:	39615f63 	stmdbcc	r1!, {r0, r1, r5, r6, r8, r9, sl, fp, ip, lr}^
     bd8:	6e6f6300 	cdpvs	3, 6, cr6, cr15, cr0, {0}
     bdc:	6c6f7274 	sfmvs	f7, 2, [pc], #-464	; a14 <_start-0x7ffff5ec>
     be0:	646f6d5f 	strbtvs	r6, [pc], #-3423	; be8 <_start-0x7ffff418>
     be4:	2e656c75 	mcrcs	12, 3, r6, cr5, cr5, {3}
     be8:	4d430063 	stclmi	0, cr0, [r3, #-396]	; 0xfffffe74
     bec:	6e6f635f 	mcrvs	3, 3, r6, cr15, cr15, {2}
     bf0:	696d5f66 	stmdbvs	sp!, {r1, r2, r5, r6, r8, r9, sl, fp, ip, lr}^
     bf4:	635f3169 	cmpvs	pc, #1073741850	; 0x4000001a
     bf8:	43007372 	movwmi	r7, #882	; 0x372
     bfc:	6f635f4d 	svcvs	0x00635f4d
     c00:	745f666e 	ldrbvc	r6, [pc], #-1646	; c08 <_start-0x7ffff3f8>
     c04:	5f636370 	svcpl	0x00636370
     c08:	5f747665 	svcpl	0x00747665
     c0c:	5f78756d 	svcpl	0x0078756d
     c10:	325f3032 	subscc	r3, pc, #50	; 0x32
     c14:	4d430033 	stclmi	0, cr0, [r3, #-204]	; 0xffffff34
     c18:	6d77705f 	ldclvs	0, cr7, [r7, #-380]!	; 0xfffffe84
     c1c:	635f7373 	cmpvs	pc, #-872415231	; 0xcc000001
     c20:	006c7274 	rsbeq	r7, ip, r4, ror r2
     c24:	735f4d43 	cmpvc	pc, #4288	; 0x10c0
     c28:	74437465 	strbvc	r7, [r3], #-1125	; 0xfffffb9b
     c2c:	6f4d6c72 	svcvs	0x004d6c72
     c30:	656c7564 	strbvs	r7, [ip, #-1380]!	; 0xfffffa9c
     c34:	5f4d4300 	svcpl	0x004d4300
     c38:	73756665 	cmnvc	r5, #105906176	; 0x6500000
     c3c:	6d735f65 	ldclvs	15, cr5, [r3, #-404]!	; 0xfffffe6c
     c40:	4d430061 	stclmi	0, cr0, [r3, #-388]	; 0xfffffe7c
     c44:	6e6f635f 	mcrvs	3, 3, r6, cr15, cr15, {2}
     c48:	70675f66 	rsbvc	r5, r7, r6, ror #30
     c4c:	635f636d 	cmpvs	pc, #-1275068415	; 0xb4000001
     c50:	00316e73 	eorseq	r6, r1, r3, ror lr
     c54:	635f4d43 	cmpvs	pc, #4288	; 0x10c0
     c58:	5f666e6f 	svcpl	0x00666e6f
     c5c:	636d7067 	cmnvs	sp, #103	; 0x67
     c60:	6e73635f 	mrcvs	3, 3, r6, cr3, cr15, {2}
     c64:	4d430032 	stclmi	0, cr0, [r3, #-200]	; 0xffffff38
     c68:	6e6f635f 	mcrvs	3, 3, r6, cr15, cr15, {2}
     c6c:	70675f66 	rsbvc	r5, r7, r6, ror #30
     c70:	635f636d 	cmpvs	pc, #-1275068415	; 0xb4000001
     c74:	00336e73 	eorseq	r6, r3, r3, ror lr
     c78:	635f4d43 	cmpvs	pc, #4288	; 0x10c0
     c7c:	5f666e6f 	svcpl	0x00666e6f
     c80:	636d7067 	cmnvs	sp, #103	; 0x67
     c84:	6961775f 	stmdbvs	r1!, {r0, r1, r2, r3, r4, r6, r8, r9, sl, ip, sp, lr}^
     c88:	43003074 	movwmi	r3, #116	; 0x74
     c8c:	6f635f4d 	svcvs	0x00635f4d
     c90:	675f666e 	ldrbvs	r6, [pc, -lr, ror #12]
     c94:	5f636d70 	svcpl	0x00636d70
     c98:	00306461 	eorseq	r6, r0, r1, ror #8
     c9c:	635f4d43 	cmpvs	pc, #4288	; 0x10c0
     ca0:	5f666e6f 	svcpl	0x00666e6f
     ca4:	636d7067 	cmnvs	sp, #103	; 0x67
     ca8:	3164615f 	cmncc	r4, pc, asr r1
     cac:	5f4d4300 	svcpl	0x004d4300
     cb0:	666e6f63 	strbtvs	r6, [lr], -r3, ror #30
     cb4:	6d70675f 	ldclvs	7, cr6, [r0, #-380]!	; 0xfffffe84
     cb8:	64615f63 	strbtvs	r5, [r1], #-3939	; 0xfffff09d
     cbc:	4d430032 	stclmi	0, cr0, [r3, #-200]	; 0xffffff38
     cc0:	6e6f635f 	mcrvs	3, 3, r6, cr15, cr15, {2}
     cc4:	70675f66 	rsbvc	r5, r7, r6, ror #30
     cc8:	615f636d 	cmpvs	pc, sp, ror #6
     ccc:	43003364 	movwmi	r3, #868	; 0x364
     cd0:	6f635f4d 	svcvs	0x00635f4d
     cd4:	675f666e 	ldrbvs	r6, [pc, -lr, ror #12]
     cd8:	5f636d70 	svcpl	0x00636d70
     cdc:	00346461 	eorseq	r6, r4, r1, ror #8
     ce0:	635f4d43 	cmpvs	pc, #4288	; 0x10c0
     ce4:	5f666e6f 	svcpl	0x00666e6f
     ce8:	636d7067 	cmnvs	sp, #103	; 0x67
     cec:	3564615f 	strbcc	r6, [r4, #-351]!	; 0xfffffea1
     cf0:	5f4d4300 	svcpl	0x004d4300
     cf4:	666e6f63 	strbtvs	r6, [lr], -r3, ror #30
     cf8:	6d70675f 	ldclvs	7, cr6, [r0, #-380]!	; 0xfffffe84
     cfc:	64615f63 	strbtvs	r5, [r1], #-3939	; 0xfffff09d
     d00:	4d430036 	stclmi	0, cr0, [r3, #-216]	; 0xffffff28
     d04:	6e6f635f 	mcrvs	3, 3, r6, cr15, cr15, {2}
     d08:	70675f66 	rsbvc	r5, r7, r6, ror #30
     d0c:	615f636d 	cmpvs	pc, sp, ror #6
     d10:	43003764 	movwmi	r3, #1892	; 0x764
     d14:	6f635f4d 	svcvs	0x00635f4d
     d18:	675f666e 	ldrbvs	r6, [pc, -lr, ror #12]
     d1c:	5f636d70 	svcpl	0x00636d70
     d20:	00386461 	eorseq	r6, r8, r1, ror #8
     d24:	635f4d43 	cmpvs	pc, #4288	; 0x10c0
     d28:	5f666e6f 	svcpl	0x00666e6f
     d2c:	636d7067 	cmnvs	sp, #103	; 0x67
     d30:	3964615f 	stmdbcc	r4!, {r0, r1, r2, r3, r4, r6, r8, sp, lr}^
     d34:	5f4d4300 	svcpl	0x004d4300
     d38:	666e6f63 	strbtvs	r6, [lr], -r3, ror #30
     d3c:	6370745f 	cmnvs	r0, #1593835520	; 0x5f000000
     d40:	76655f63 	strbtvc	r5, [r5], -r3, ror #30
     d44:	756d5f74 	strbvc	r5, [sp, #-3956]!	; 0xfffff08c
     d48:	5f305f78 	svcpl	0x00305f78
     d4c:	4d430033 	stclmi	0, cr0, [r3, #-204]	; 0xffffff34
     d50:	6e6f635f 	mcrvs	3, 3, r6, cr15, cr15, {2}
     d54:	63655f66 	cmnvs	r5, #408	; 0x198
     d58:	5f307061 	svcpl	0x00307061
     d5c:	705f6e69 	subsvc	r6, pc, r9, ror #28
     d60:	5f306d77 	svcpl	0x00306d77
     d64:	0074756f 	rsbseq	r7, r4, pc, ror #10
     d68:	74726155 	ldrbtvc	r6, [r2], #-341	; 0xfffffeab
     d6c:	754d5f30 	strbvc	r5, [sp, #-3888]	; 0xfffff0d0
     d70:	4d430078 	stclmi	0, cr0, [r3, #-480]	; 0xfffffe20
     d74:	6e61625f 	mcrvs	2, 3, r6, cr1, cr15, {2}
     d78:	70616764 	rsbvc	r6, r1, r4, ror #14
     d7c:	7274635f 	rsbsvc	r6, r4, #2080374785	; 0x7c000001
     d80:	4d43006c 	stclmi	0, cr0, [r3, #-432]	; 0xfffffe50
     d84:	6e6f635f 	mcrvs	3, 3, r6, cr15, cr15, {2}
     d88:	636c5f66 	cmnvs	ip, #408	; 0x198
     d8c:	61645f64 	cmnvs	r4, r4, ror #30
     d90:	30316174 	eorscc	r6, r1, r4, ror r1
     d94:	5f4d4300 	svcpl	0x004d4300
     d98:	666e6f63 	strbtvs	r6, [lr], -r3, ror #30
     d9c:	64636c5f 	strbtvs	r6, [r3], #-3167	; 0xfffff3a1
     da0:	7461645f 	strbtvc	r6, [r1], #-1119	; 0xfffffba1
     da4:	00313161 	eorseq	r3, r1, r1, ror #2
     da8:	635f4d43 	cmpvs	pc, #4288	; 0x10c0
     dac:	5f666e6f 	svcpl	0x00666e6f
     db0:	5f64636c 	svcpl	0x0064636c
     db4:	61746164 	cmnvs	r4, r4, ror #2
     db8:	43003231 	movwmi	r3, #561	; 0x231
     dbc:	6f635f4d 	svcvs	0x00635f4d
     dc0:	6c5f666e 	mrrcvs	6, 6, r6, pc, cr14	; <UNPREDICTABLE>
     dc4:	645f6463 	ldrbvs	r6, [pc], #-1123	; dcc <_start-0x7ffff234>
     dc8:	31617461 	cmncc	r1, r1, ror #8
     dcc:	4d430033 	stclmi	0, cr0, [r3, #-204]	; 0xffffff34
     dd0:	65726d5f 	ldrbvs	r6, [r2, #-3423]!	; 0xfffff2a1
     dd4:	69727067 	ldmdbvs	r2!, {r0, r1, r2, r5, r6, ip, sp, lr}^
     dd8:	00305f6f 	eorseq	r5, r0, pc, ror #30
     ddc:	635f4d43 	cmpvs	pc, #4288	; 0x10c0
     de0:	5f666e6f 	svcpl	0x00666e6f
     de4:	5f64636c 	svcpl	0x0064636c
     de8:	61746164 	cmnvs	r4, r4, ror #2
     dec:	43003531 	movwmi	r3, #1329	; 0x531
     df0:	6f635f4d 	svcvs	0x00635f4d
     df4:	6e5f666e 	cdpvs	6, 5, cr6, cr15, cr14, {3}
     df8:	00696d6e 	rsbeq	r6, r9, lr, ror #26
     dfc:	635f4d43 	cmpvs	pc, #4288	; 0x10c0
     e00:	5f666e6f 	svcpl	0x00666e6f
     e04:	63637074 	cmnvs	r3, #116	; 0x74
     e08:	7476655f 	ldrbtvc	r6, [r6], #-1375	; 0xfffffaa1
     e0c:	78756d5f 	ldmdavc	r5!, {r0, r1, r2, r3, r4, r6, r8, sl, fp, sp, lr}^
     e10:	5f36335f 	svcpl	0x0036335f
     e14:	43003933 	movwmi	r3, #2355	; 0x933
     e18:	6f635f4d 	svcvs	0x00635f4d
     e1c:	745f666e 	ldrbvc	r6, [pc], #-1646	; e24 <_start-0x7ffff1dc>
     e20:	5f636370 	svcpl	0x00636370
     e24:	5f747665 	svcpl	0x00747665
     e28:	5f78756d 	svcpl	0x0078756d
     e2c:	315f3631 	cmpcc	pc, r1, lsr r6	; <UNPREDICTABLE>
     e30:	4d430039 	stclmi	0, cr0, [r3, #-228]	; 0xffffff1c
     e34:	5f62625f 	svcpl	0x0062625f
     e38:	6c616373 	stclvs	3, cr6, [r1], #-460	; 0xfffffe34
     e3c:	4d430065 	stclmi	0, cr0, [r3, #-404]	; 0xfffffe6c
     e40:	6e6f635f 	mcrvs	3, 3, r6, cr15, cr15, {2}
     e44:	69745f66 	ldmdbvs	r4!, {r1, r2, r5, r6, r8, r9, sl, fp, ip, lr}^
     e48:	5f72656d 	svcpl	0x0072656d
     e4c:	5f747665 	svcpl	0x00747665
     e50:	74706163 	ldrbtvc	r6, [r0], #-355	; 0xfffffe9d
     e54:	5f4d4300 	svcpl	0x004d4300
     e58:	666e6f63 	strbtvs	r6, [lr], -r3, ror #30
     e5c:	7365725f 	cmnvc	r5, #-268435451	; 0xf0000005
     e60:	695f7465 	ldmdbvs	pc, {r0, r2, r5, r6, sl, ip, sp, lr}^	; <UNPREDICTABLE>
     e64:	50006f73 	andpl	r6, r0, r3, ror pc
     e68:	735f4441 	cmpvc	pc, #1090519040	; 0x41000000
     e6c:	6f4d7465 	svcvs	0x004d7465
     e70:	43006564 	movwmi	r6, #1380	; 0x564
     e74:	6f635f4d 	svcvs	0x00635f4d
     e78:	6c5f666e 	mrrcvs	6, 6, r6, pc, cr14	; <UNPREDICTABLE>
     e7c:	645f6463 	ldrbvs	r6, [pc], #-1123	; e84 <_start-0x7ffff17c>
     e80:	30617461 	rsbcc	r7, r1, r1, ror #8
     e84:	5f4d4300 	svcpl	0x004d4300
     e88:	666e6f63 	strbtvs	r6, [lr], -r3, ror #30
     e8c:	64636c5f 	strbtvs	r6, [r3], #-3167	; 0xfffff3a1
     e90:	7461645f 	strbtvc	r6, [r1], #-1119	; 0xfffffba1
     e94:	43003161 	movwmi	r3, #353	; 0x161
     e98:	6f635f4d 	svcvs	0x00635f4d
     e9c:	6c5f666e 	mrrcvs	6, 6, r6, pc, cr14	; <UNPREDICTABLE>
     ea0:	645f6463 	ldrbvs	r6, [pc], #-1123	; ea8 <_start-0x7ffff158>
     ea4:	32617461 	rsbcc	r7, r1, #1627389952	; 0x61000000
     ea8:	5f4d4300 	svcpl	0x004d4300
     eac:	666e6f63 	strbtvs	r6, [lr], -r3, ror #30
     eb0:	64636c5f 	strbtvs	r6, [r3], #-3167	; 0xfffff3a1
     eb4:	7461645f 	strbtvc	r6, [r1], #-1119	; 0xfffffba1
     eb8:	43003361 	movwmi	r3, #865	; 0x361
     ebc:	6f635f4d 	svcvs	0x00635f4d
     ec0:	6c5f666e 	mrrcvs	6, 6, r6, pc, cr14	; <UNPREDICTABLE>
     ec4:	645f6463 	ldrbvs	r6, [pc], #-1123	; ecc <_start-0x7ffff134>
     ec8:	34617461 	strbtcc	r7, [r1], #-1121	; 0xfffffb9f
     ecc:	5f4d4300 	svcpl	0x004d4300
     ed0:	666e6f63 	strbtvs	r6, [lr], -r3, ror #30
     ed4:	64636c5f 	strbtvs	r6, [r3], #-3167	; 0xfffff3a1
     ed8:	7461645f 	strbtvc	r6, [r1], #-1119	; 0xfffffba1
     edc:	43003561 	movwmi	r3, #1377	; 0x561
     ee0:	6f635f4d 	svcvs	0x00635f4d
     ee4:	6c5f666e 	mrrcvs	6, 6, r6, pc, cr14	; <UNPREDICTABLE>
     ee8:	645f6463 	ldrbvs	r6, [pc], #-1123	; ef0 <_start-0x7ffff110>
     eec:	36617461 	strbtcc	r7, [r1], -r1, ror #8
     ef0:	5f4d4300 	svcpl	0x004d4300
     ef4:	666e6f63 	strbtvs	r6, [lr], -r3, ror #30
     ef8:	64636c5f 	strbtvs	r6, [r3], #-3167	; 0xfffff3a1
     efc:	7461645f 	strbtvc	r6, [r1], #-1119	; 0xfffffba1
     f00:	43003761 	movwmi	r3, #1889	; 0x761
     f04:	6d735f4d 	ldclvs	15, cr5, [r3, #-308]!	; 0xfffffecc
     f08:	635f7472 	cmpvs	pc, #1912602624	; 0x72000000
     f0c:	006c7274 	rsbeq	r7, ip, r4, ror r2
     f10:	635f4d43 	cmpvs	pc, #4288	; 0x10c0
     f14:	5f666e6f 	svcpl	0x00666e6f
     f18:	5f64636c 	svcpl	0x0064636c
     f1c:	61746164 	cmnvs	r4, r4, ror #2
     f20:	4d430039 	stclmi	0, cr0, [r3, #-228]	; 0xffffff1c
     f24:	6e6f635f 	mcrvs	3, 3, r6, cr15, cr15, {2}
     f28:	61755f66 	cmnvs	r5, r6, ror #30
     f2c:	5f307472 	svcpl	0x00307472
     f30:	6e737472 	mrcvs	4, 3, r7, cr3, cr2, {3}
     f34:	5f4d4300 	svcpl	0x004d4300
     f38:	666e6f63 	strbtvs	r6, [lr], -r3, ror #30
     f3c:	7264645f 	rsbvc	r6, r4, #1593835520	; 0x5f000000
     f40:	7461645f 	strbtvc	r6, [r1], #-1119	; 0xfffffba1
     f44:	695f3161 	ldmdbvs	pc, {r0, r5, r6, r8, ip, sp}^	; <UNPREDICTABLE>
     f48:	7274636f 	rsbsvc	r6, r4, #-1140850687	; 0xbc000001
     f4c:	4d43006c 	stclmi	0, cr0, [r3, #-432]	; 0xfffffe50
     f50:	6e6f635f 	mcrvs	3, 3, r6, cr15, cr15, {2}
     f54:	70675f66 	rsbvc	r5, r7, r6, ror #30
     f58:	615f636d 	cmpvs	pc, sp, ror #6
     f5c:	5f6e7664 	svcpl	0x006e7664
     f60:	00656c61 	rsbeq	r6, r5, r1, ror #24
     f64:	635f4d43 	cmpvs	pc, #4288	; 0x10c0
     f68:	5f666e6f 	svcpl	0x00666e6f
     f6c:	5f637069 	svcpl	0x00637069
     f70:	5f67736d 	svcpl	0x0067736d
     f74:	37676572 			; <UNDEFINED> instruction: 0x37676572
     f78:	5f4d4300 	svcpl	0x004d4300
     f7c:	6c6c7064 	stclvs	0, cr7, [ip], #-400	; 0xfffffe70
     f80:	7277705f 	rsbsvc	r7, r7, #95	; 0x5f
     f84:	5f77735f 	svcpl	0x0077735f
     f88:	74617473 	strbtvc	r7, [r1], #-1139	; 0xfffffb8d
     f8c:	43007375 	movwmi	r7, #885	; 0x375
     f90:	6e695f4d 	cdpvs	15, 6, cr5, cr9, cr13, {2}
     f94:	705f7469 	subsvc	r7, pc, r9, ror #8
     f98:	726f6972 	rsbvc	r6, pc, #1867776	; 0x1c8000
     f9c:	5f797469 	svcpl	0x00797469
     fa0:	4d430030 	stclmi	0, cr0, [r3, #-192]	; 0xffffff40
     fa4:	6e6f635f 	mcrvs	3, 3, r6, cr15, cr15, {2}
     fa8:	646d5f66 	strbtvs	r5, [sp], #-3942	; 0xfffff09a
     fac:	4d430063 	stclmi	0, cr0, [r3, #-396]	; 0xfffffe74
     fb0:	6e6f635f 	mcrvs	3, 3, r6, cr15, cr15, {2}
     fb4:	696d5f66 	stmdbvs	sp!, {r1, r2, r5, r6, r8, r9, sl, fp, ip, lr}^
     fb8:	745f3169 	ldrbvc	r3, [pc], #-361	; fc0 <_start-0x7ffff040>
     fbc:	6c635f78 	stclvs	15, cr5, [r3], #-480	; 0xfffffe20
     fc0:	4d43006b 	stclmi	0, cr0, [r3, #-428]	; 0xfffffe54
     fc4:	75706d5f 	ldrbvc	r6, [r0, #-3423]!	; 0xfffff2a1
     fc8:	646c735f 	strbtvs	r7, [ip], #-863	; 0xfffffca1
     fcc:	74635f6f 	strbtvc	r5, [r3], #-3951	; 0xfffff091
     fd0:	43006c72 	movwmi	r6, #3186	; 0xc72
     fd4:	6f635f4d 	svcvs	0x00635f4d
     fd8:	655f666e 	ldrbvs	r6, [pc, #-1646]	; 972 <_start-0x7ffff68e>
     fdc:	0030756d 	eorseq	r7, r0, sp, ror #10
     fe0:	635f4d43 	cmpvs	pc, #4288	; 0x10c0
     fe4:	5f666e6f 	svcpl	0x00666e6f
     fe8:	31756d65 	cmncc	r5, r5, ror #26
     fec:	4e4f4300 	cdpmi	3, 4, cr4, cr15, cr0, {0}
     ff0:	4c4f5254 	sfmmi	f5, 2, [pc], {84}	; 0x54
     ff4:	444f4d5f 	strbmi	r4, [pc], #-3423	; ffc <_start-0x7ffff004>
     ff8:	5f454c55 	svcpl	0x00454c55
     ffc:	5f474552 	svcpl	0x00474552
    1000:	4d430074 	stclmi	0, cr0, [r3, #-464]	; 0xfffffe30
    1004:	6e6f635f 	mcrvs	3, 3, r6, cr15, cr15, {2}
    1008:	636c5f66 	cmnvs	ip, #408	; 0x198
    100c:	63705f64 	cmnvs	r0, #100, 30	; 0x190
    1010:	43006b6c 	movwmi	r6, #2924	; 0xb6c
    1014:	6f635f4d 	svcvs	0x00635f4d
    1018:	725f666e 	subsvc	r6, pc, #115343360	; 0x6e00000
    101c:	6b5f6374 	blvs	17d9df4 <_start-0x7e82620c>
    1020:	6f646c61 	svcvs	0x00646c61
    1024:	6e6e655f 	mcrvs	5, 3, r6, cr14, cr15, {2}
    1028:	5f4d4300 	svcpl	0x004d4300
    102c:	666e6f63 	strbtvs	r6, [lr], -r3, ror #30
    1030:	6370745f 	cmnvs	r0, #1593835520	; 0x5f000000
    1034:	76655f63 	strbtvc	r5, [r5], -r3, ror #30
    1038:	756d5f74 	strbvc	r5, [sp, #-3956]!	; 0xfffff08c
    103c:	38325f78 	ldmdacc	r2!, {r3, r4, r5, r6, r8, r9, sl, fp, ip, lr}
    1040:	0031335f 	eorseq	r3, r1, pc, asr r3
    1044:	635f4d43 	cmpvs	pc, #4288	; 0x10c0
    1048:	5f666e6f 	svcpl	0x00666e6f
    104c:	30636d6d 	rsbcc	r6, r3, sp, ror #26
    1050:	7461645f 	strbtvc	r6, [r1], #-1119	; 0xfffffba1
    1054:	4d430030 	stclmi	0, cr0, [r3, #-192]	; 0xffffff40
    1058:	6e6f635f 	mcrvs	3, 3, r6, cr15, cr15, {2}
    105c:	6d6d5f66 	stclvs	15, cr5, [sp, #-408]!	; 0xfffffe68
    1060:	645f3063 	ldrbvs	r3, [pc], #-99	; 1068 <_start-0x7fffef98>
    1064:	00317461 	eorseq	r7, r1, r1, ror #8
    1068:	685f4d43 	ldmdavs	pc, {r0, r1, r6, r8, sl, fp, lr}^	; <UNPREDICTABLE>
    106c:	76655f77 	uqsub16vc	r5, r5, r7
    1070:	5f746e65 	svcpl	0x00746e65
    1074:	5f6c6573 	svcpl	0x006c6573
    1078:	31707267 	cmncc	r0, r7, ror #4
    107c:	5f4d4300 	svcpl	0x004d4300
    1080:	655f7768 	ldrbvs	r7, [pc, #-1896]	; 920 <_start-0x7ffff6e0>
    1084:	746e6576 	strbtvc	r6, [lr], #-1398	; 0xfffffa8a
    1088:	6c65735f 	stclvs	3, cr7, [r5], #-380	; 0xfffffe84
    108c:	7072675f 	rsbsvc	r6, r2, pc, asr r7
    1090:	4d430032 	stclmi	0, cr0, [r3, #-200]	; 0xffffff38
    1094:	5f77685f 	svcpl	0x0077685f
    1098:	6e657665 	cdpvs	6, 6, cr7, cr5, cr5, {3}
    109c:	65735f74 	ldrbvs	r5, [r3, #-3956]!	; 0xfffff08c
    10a0:	72675f6c 	rsbvc	r5, r7, #108, 30	; 0x1b0
    10a4:	43003370 	movwmi	r3, #880	; 0x370
    10a8:	77685f4d 	strbvc	r5, [r8, -sp, asr #30]!
    10ac:	6576655f 	ldrbvs	r6, [r6, #-1375]!	; 0xfffffaa1
    10b0:	735f746e 	cmpvc	pc, #1845493760	; 0x6e000000
    10b4:	675f6c65 	ldrbvs	r6, [pc, -r5, ror #24]
    10b8:	00347072 	eorseq	r7, r4, r2, ror r0
    10bc:	645f4d43 	ldrbvs	r4, [pc], #-3395	; 10c4 <_start-0x7fffef3c>
    10c0:	73706565 	cmnvc	r0, #423624704	; 0x19400000
    10c4:	7065656c 	rsbvc	r6, r5, ip, ror #10
    10c8:	7274635f 	rsbsvc	r6, r4, #2080374785	; 0x7c000001
    10cc:	4d43006c 	stclmi	0, cr0, [r3, #-432]	; 0xfffffe50
    10d0:	6e6f635f 	mcrvs	3, 3, r6, cr15, cr15, {2}
    10d4:	70675f66 	rsbvc	r5, r7, r6, ror #30
    10d8:	775f636d 	ldrbvc	r6, [pc, -sp, ror #6]
    10dc:	43006e70 	movwmi	r6, #3696	; 0xe70
    10e0:	6f635f4d 	svcvs	0x00635f4d
    10e4:	705f666e 	subsvc	r6, pc, lr, ror #12
    10e8:	5f63696d 	svcpl	0x0063696d
    10ec:	65776f70 	ldrbvs	r6, [r7, #-3952]!	; 0xfffff090
    10f0:	6e655f72 	mcrvs	15, 3, r5, cr5, cr2, {3}
    10f4:	5f4d4300 	svcpl	0x004d4300
    10f8:	666e6f63 	strbtvs	r6, [lr], -r3, ror #30
    10fc:	7261755f 	rsbvc	r7, r1, #398458880	; 0x17c00000
    1100:	725f3174 	subsvc	r3, pc, #116, 2
    1104:	006e7374 	rsbeq	r7, lr, r4, ror r3
    1108:	635f4d43 	cmpvs	pc, #4288	; 0x10c0
    110c:	5f666e6f 	svcpl	0x00666e6f
    1110:	6d726177 	ldfvse	f6, [r2, #-476]!	; 0xfffffe24
    1114:	6e747372 	mrcvs	3, 3, r7, cr4, cr2, {3}
    1118:	5f4d4300 	svcpl	0x004d4300
    111c:	666e6f63 	strbtvs	r6, [lr], -r3, ror #30
    1120:	636d6d5f 	cmnvs	sp, #6080	; 0x17c0
    1124:	6c635f30 	stclvs	15, cr5, [r3], #-192	; 0xffffff40
    1128:	4d43006b 	stclmi	0, cr0, [r3, #-428]	; 0xfffffe54
    112c:	6e6f635f 	mcrvs	3, 3, r6, cr15, cr15, {2}
    1130:	6d745f66 	ldclvs	15, cr5, [r4, #-408]!	; 0xfffffe68
    1134:	4d430073 	stclmi	0, cr0, [r3, #-460]	; 0xfffffe34
    1138:	7465675f 	strbtvc	r6, [r5], #-1887	; 0xfffff8a1
    113c:	6c727443 	cfldrdvs	mvd7, [r2], #-268	; 0xfffffef4
    1140:	75646f4d 	strbvc	r6, [r4, #-3917]!	; 0xfffff0b3
    1144:	4300656c 	movwmi	r6, #1388	; 0x56c
    1148:	6f635f4d 	svcvs	0x00635f4d
    114c:	615f666e 	cmpvs	pc, lr, ror #12
    1150:	655f6364 	ldrbvs	r6, [pc, #-868]	; df4 <_start-0x7ffff20c>
    1154:	635f7476 	cmpvs	pc, #1979711488	; 0x76000000
    1158:	00747061 	rsbseq	r7, r4, r1, rrx
    115c:	635f4d43 	cmpvs	pc, #4288	; 0x10c0
    1160:	5f666e6f 	svcpl	0x00666e6f
    1164:	636d7067 	cmnvs	sp, #103	; 0x67
    1168:	6e65775f 	mcrvs	7, 3, r7, cr5, cr15, {2}
    116c:	5f4d4300 	svcpl	0x004d4300
    1170:	666e6f63 	strbtvs	r6, [lr], -r3, ror #30
    1174:	6d70675f 	ldclvs	7, cr6, [r0, #-380]!	; 0xfffffe84
    1178:	73635f63 	cmnvc	r3, #396	; 0x18c
    117c:	4300306e 	movwmi	r3, #110	; 0x6e
    1180:	6f635f4d 	svcvs	0x00635f4d
    1184:	675f666e 	ldrbvs	r6, [pc, -lr, ror #12]
    1188:	5f636d70 	svcpl	0x00636d70
    118c:	00303161 	eorseq	r3, r0, r1, ror #2
    1190:	635f4d43 	cmpvs	pc, #4288	; 0x10c0
    1194:	5f666e6f 	svcpl	0x00666e6f
    1198:	636d7067 	cmnvs	sp, #103	; 0x67
    119c:	3131615f 	teqcc	r1, pc, asr r1
    11a0:	5f4d4300 	svcpl	0x004d4300
    11a4:	666e6f63 	strbtvs	r6, [lr], -r3, ror #30
    11a8:	7264645f 	rsbvc	r6, r4, #1593835520	; 0x5f000000
    11ac:	7461645f 	strbtvc	r6, [r1], #-1119	; 0xfffffba1
    11b0:	695f3061 	ldmdbvs	pc, {r0, r5, r6, ip, sp}^	; <UNPREDICTABLE>
    11b4:	7274636f 	rsbsvc	r6, r4, #-1140850687	; 0xbc000001
    11b8:	4d43006c 	stclmi	0, cr0, [r3, #-432]	; 0xfffffe50
    11bc:	726f635f 	rsbvc	r6, pc, #2080374785	; 0x7c000001
    11c0:	5f786574 	svcpl	0x00786574
    11c4:	6c626276 	sfmvs	f6, 2, [r2], #-472	; 0xfffffe28
    11c8:	635f6f64 	cmpvs	pc, #100, 30	; 0x190
    11cc:	006c7274 	rsbeq	r7, ip, r4, ror r2
    11d0:	765f4d43 	ldrbvc	r4, [pc], -r3, asr #26
    11d4:	6d5f6464 	cfldrdvs	mvd6, [pc, #-400]	; 104c <_start-0x7fffefb4>
    11d8:	6f5f7570 	svcvs	0x005f7570
    11dc:	305f7070 	subscc	r7, pc, r0, ror r0	; <UNPREDICTABLE>
    11e0:	43003035 	movwmi	r3, #53	; 0x35
    11e4:	6f635f4d 	svcvs	0x00635f4d
    11e8:	755f666e 	ldrbvc	r6, [pc, #-1646]	; b82 <_start-0x7ffff47e>
    11ec:	31747261 	cmncc	r4, r1, ror #4
    11f0:	6478745f 	ldrbtvs	r7, [r8], #-1119	; 0xfffffba1
    11f4:	5f4d4300 	svcpl	0x004d4300
    11f8:	666e6f63 	strbtvs	r6, [lr], -r3, ror #30
    11fc:	6370745f 	cmnvs	r0, #1593835520	; 0x5f000000
    1200:	76655f63 	strbtvc	r5, [r5], -r3, ror #30
    1204:	756d5f74 	strbvc	r5, [sp, #-3956]!	; 0xfffff08c
    1208:	5f385f78 	svcpl	0x00385f78
    120c:	43003131 	movwmi	r3, #305	; 0x131
    1210:	616d5f4d 	cmnvs	sp, sp, asr #30
    1214:	64695f63 	strbtvs	r5, [r9], #-3939	; 0xfffff09d
    1218:	6f6c5f31 	svcvs	0x006c5f31
    121c:	5f4d4300 	svcpl	0x004d4300
    1220:	666e6f63 	strbtvs	r6, [lr], -r3, ror #30
    1224:	61636d5f 	cmnvs	r3, pc, asr sp
    1228:	5f307073 	svcpl	0x00307073
    122c:	00727366 	rsbseq	r7, r2, r6, ror #6
    1230:	765f4d43 	ldrbvc	r4, [pc], -r3, asr #26
    1234:	635f6464 	cmpvs	pc, #100, 8	; 0x64000000
    1238:	5f65726f 	svcpl	0x0065726f
    123c:	5f70706f 	svcpl	0x0070706f
    1240:	00303530 	eorseq	r3, r0, r0, lsr r5
    1244:	625f4d43 	subsvs	r4, pc, #4288	; 0x10c0
    1248:	67646e61 	strbvs	r6, [r4, -r1, ror #28]!
    124c:	745f7061 	ldrbvc	r7, [pc], #-97	; 1254 <_start-0x7fffedac>
    1250:	006d6972 	rsbeq	r6, sp, r2, ror r9
    1254:	635f4d43 	cmpvs	pc, #4288	; 0x10c0
    1258:	5f666e6f 	svcpl	0x00666e6f
    125c:	5f726464 	svcpl	0x00726464
    1260:	635f6f69 	cmpvs	pc, #420	; 0x1a4
    1264:	006c7274 	rsbeq	r7, ip, r4, ror r2
    1268:	635f4d43 	cmpvs	pc, #4288	; 0x10c0
    126c:	5f666e6f 	svcpl	0x00666e6f
    1270:	7361636d 	cmnvc	r1, #-1275068415	; 0xb4000001
    1274:	665f3070 			; <UNDEFINED> instruction: 0x665f3070
    1278:	43007873 	movwmi	r7, #2163	; 0x873
    127c:	70745f4d 	rsbsvc	r5, r4, sp, asr #30
    1280:	635f6374 	cmpvs	pc, #116, 6	; 0xd0000001
    1284:	43006766 	movwmi	r6, #1894	; 0x766
    1288:	6f635f4d 	svcvs	0x00635f4d
    128c:	6d5f666e 	ldclvs	6, cr6, [pc, #-440]	; 10dc <_start-0x7fffef24>
    1290:	5f30636d 	svcpl	0x0030636d
    1294:	00646d63 	rsbeq	r6, r4, r3, ror #26
    1298:	635f4d43 	cmpvs	pc, #4288	; 0x10c0
    129c:	5f666e6f 	svcpl	0x00666e6f
    12a0:	3169696d 	cmncc	r9, sp, ror #18
    12a4:	5f78725f 	svcpl	0x0078725f
    12a8:	006b6c63 	rsbeq	r6, fp, r3, ror #24
    12ac:	635f4d43 	cmpvs	pc, #4288	; 0x10c0
    12b0:	5f666e6f 	svcpl	0x00666e6f
    12b4:	5f637472 	svcpl	0x00637472
    12b8:	6f727770 	svcvs	0x00727770
    12bc:	7473726e 	ldrbtvc	r7, [r3], #-622	; 0xfffffd92
    12c0:	4d43006e 	stclmi	0, cr0, [r3, #-440]	; 0xfffffe48
    12c4:	63616d5f 	cmnvs	r1, #6080	; 0x17c0
    12c8:	3164695f 	cmncc	r4, pc, asr r9
    12cc:	0069685f 	rsbeq	r6, r9, pc, asr r8
    12d0:	635f4d43 	cmpvs	pc, #4288	; 0x10c0
    12d4:	5f666e6f 	svcpl	0x00666e6f
    12d8:	5f747865 	svcpl	0x00747865
    12dc:	656b6177 	strbvs	r6, [fp, #-375]!	; 0xfffffe89
    12e0:	43007075 	movwmi	r7, #117	; 0x75
    12e4:	6f635f4d 	svcvs	0x00635f4d
    12e8:	6d5f666e 	ldclvs	6, cr6, [pc, #-440]	; 1138 <_start-0x7fffeec8>
    12ec:	5f316969 	svcpl	0x00316969
    12f0:	645f7872 	ldrbvs	r7, [pc], #-2162	; 12f8 <_start-0x7fffed08>
    12f4:	4d430076 	stclmi	0, cr0, [r3, #-472]	; 0xfffffe28
    12f8:	6e6f635f 	mcrvs	3, 3, r6, cr15, cr15, {2}
    12fc:	64645f66 	strbtvs	r5, [r4], #-3942	; 0xfffff09a
    1300:	6d635f72 	stclvs	15, cr5, [r3, #-456]!	; 0xfffffe38
    1304:	695f3264 	ldmdbvs	pc, {r2, r5, r6, r9, ip, sp}^	; <UNPREDICTABLE>
    1308:	7274636f 	rsbsvc	r6, r4, #-1140850687	; 0xbc000001
    130c:	4d43006c 	stclmi	0, cr0, [r3, #-432]	; 0xfffffe50
    1310:	75706d5f 	ldrbvc	r6, [r0, #-3423]!	; 0xfffff2a1
    1314:	685f7373 	ldmdavs	pc, {r0, r1, r4, r5, r6, r8, r9, ip, sp, lr}^	; <UNPREDICTABLE>
    1318:	65645f77 	strbvs	r5, [r4, #-3959]!	; 0xfffff089
    131c:	5f677562 	svcpl	0x00677562
    1320:	006c6573 	rsbeq	r6, ip, r3, ror r5
    1324:	635f4d43 	cmpvs	pc, #4288	; 0x10c0
    1328:	5f666e6f 	svcpl	0x00666e6f
    132c:	3169696d 	cmncc	r9, sp, ror #18
    1330:	6478725f 	ldrbtvs	r7, [r8], #-607	; 0xfffffda1
    1334:	4d430032 	stclmi	0, cr0, [r3, #-200]	; 0xffffff38
    1338:	6e6f635f 	mcrvs	3, 3, r6, cr15, cr15, {2}
    133c:	70675f66 	rsbvc	r5, r7, r6, ror #30
    1340:	625f636d 	subsvs	r6, pc, #-1275068415	; 0xb4000001
    1344:	5f306e65 	svcpl	0x00306e65
    1348:	00656c63 	rsbeq	r6, r5, r3, ror #24
    134c:	635f4d43 	cmpvs	pc, #4288	; 0x10c0
    1350:	5f666e6f 	svcpl	0x00666e6f
    1354:	30697073 	rsbcc	r7, r9, r3, ror r0
    1358:	3073635f 	rsbscc	r6, r3, pc, asr r3
    135c:	5f4d4300 	svcpl	0x004d4300
    1360:	666e6f63 	strbtvs	r6, [lr], -r3, ror #30
    1364:	6970735f 	ldmdbvs	r0!, {r0, r1, r2, r3, r4, r6, r8, r9, ip, sp, lr}^
    1368:	73635f30 	cmnvc	r3, #48, 30	; 0xc0
    136c:	4d430031 	stclmi	0, cr0, [r3, #-196]	; 0xffffff3c
    1370:	75706d5f 	ldrbvc	r6, [r0, #-3423]!	; 0xfffff2a1
    1374:	685f7373 	ldmdavs	pc, {r0, r1, r4, r5, r6, r8, r9, ip, sp, lr}^	; <UNPREDICTABLE>
    1378:	62645f77 	rsbvs	r5, r4, #476	; 0x1dc
    137c:	6e695f67 	cdpvs	15, 6, cr5, cr9, cr7, {3}
    1380:	43006f66 	movwmi	r6, #3942	; 0xf66
    1384:	616d5f4d 	cmnvs	sp, sp, asr #30
    1388:	64695f63 	strbtvs	r5, [r9], #-3939	; 0xfffff09d
    138c:	6f6c5f30 	svcvs	0x006c5f30
    1390:	5f4d4300 	svcpl	0x004d4300
    1394:	666e6f63 	strbtvs	r6, [lr], -r3, ror #30
    1398:	5f336d5f 	svcpl	0x00336d5f
    139c:	76657874 			; <UNDEFINED> instruction: 0x76657874
    13a0:	696f655f 	stmdbvs	pc!, {r0, r1, r2, r3, r4, r6, r8, sl, sp, lr}^	; <UNPREDICTABLE>
    13a4:	5f4d4300 	svcpl	0x004d4300
    13a8:	746e6f63 	strbtvc	r6, [lr], #-3939	; 0xfffff09d
    13ac:	5f6c6f72 	svcpl	0x006c6f72
    13b0:	6e697768 	cdpvs	7, 6, cr7, cr9, cr8, {3}
    13b4:	43006f66 	movwmi	r6, #3942	; 0xf66
    13b8:	6f635f4d 	svcvs	0x00635f4d
    13bc:	655f666e 	ldrbvs	r6, [pc, #-1646]	; d56 <_start-0x7ffff2aa>
    13c0:	5f706163 	svcpl	0x00706163
    13c4:	5f747665 	svcpl	0x00747665
    13c8:	74706163 	ldrbtvc	r6, [r0], #-355	; 0xfffffe9d
    13cc:	5f4d4300 	svcpl	0x004d4300
    13d0:	5f646476 	svcpl	0x00646476
    13d4:	5f75706d 	svcpl	0x0075706d
    13d8:	5f70706f 	svcpl	0x0070706f
    13dc:	00303031 	eorseq	r3, r0, r1, lsr r0
    13e0:	635f4d43 	cmpvs	pc, #4288	; 0x10c0
    13e4:	5f666e6f 	svcpl	0x00666e6f
    13e8:	6f69646d 	svcvs	0x0069646d
    13ec:	5f4d4300 	svcpl	0x004d4300
    13f0:	666e6f63 	strbtvs	r6, [lr], -r3, ror #30
    13f4:	7264645f 	rsbvc	r6, r4, #1593835520	; 0x5f000000
    13f8:	646d635f 	strbtvs	r6, [sp], #-863	; 0xfffffca1
    13fc:	6f695f31 	svcvs	0x00695f31
    1400:	6c727463 	cfldrdvs	mvd7, [r2], #-396	; 0xfffffe74
    1404:	5f4d4300 	svcpl	0x004d4300
    1408:	666e6f63 	strbtvs	r6, [lr], -r3, ror #30
    140c:	7372745f 	cmnvc	r2, #1593835520	; 0x5f000000
    1410:	43006e74 	movwmi	r6, #3700	; 0xe74
    1414:	6f635f4d 	svcvs	0x00635f4d
    1418:	745f666e 	ldrbvc	r6, [pc], #-1646	; 1420 <_start-0x7fffebe0>
    141c:	5f636370 	svcpl	0x00636370
    1420:	5f747665 	svcpl	0x00747665
    1424:	5f78756d 	svcpl	0x0078756d
    1428:	355f3235 	ldrbcc	r3, [pc, #-565]	; 11fb <_start-0x7fffee05>
    142c:	4d430035 	stclmi	0, cr0, [r3, #-212]	; 0xffffff2c
    1430:	6e6f635f 	mcrvs	3, 3, r6, cr15, cr15, {2}
    1434:	70745f66 	rsbsvc	r5, r4, r6, ror #30
    1438:	655f6363 	ldrbvs	r6, [pc, #-867]	; 10dd <_start-0x7fffef23>
    143c:	6d5f7476 	cfldrdvs	mvd7, [pc, #-472]	; 126c <_start-0x7fffed94>
    1440:	345f7875 	ldrbcc	r7, [pc], #-2165	; 1448 <_start-0x7fffebb8>
    1444:	33345f30 	teqcc	r4, #48, 30	; 0xc0
    1448:	5f4d4300 	svcpl	0x004d4300
    144c:	5f646476 	svcpl	0x00646476
    1450:	65726f63 	ldrbvs	r6, [r2, #-3939]!	; 0xfffff09d
    1454:	70706f5f 	rsbsvc	r6, r0, pc, asr pc
    1458:	3030315f 	eorscc	r3, r0, pc, asr r1
    145c:	5f4d4300 	svcpl	0x004d4300
    1460:	666e6f63 	strbtvs	r6, [lr], -r3, ror #30
    1464:	64636c5f 	strbtvs	r6, [r3], #-3167	; 0xfffff3a1
    1468:	5f63615f 	svcpl	0x0063615f
    146c:	73616962 	cmnvc	r1, #1605632	; 0x188000
    1470:	006e655f 	rsbeq	r6, lr, pc, asr r5
    1474:	6d5f4d43 	ldclvs	13, cr4, [pc, #-268]	; 1370 <_start-0x7fffec90>
    1478:	70716572 	rsbsvc	r6, r1, r2, ror r5
    147c:	5f6f6972 	svcpl	0x006f6972
    1480:	4d430031 	stclmi	0, cr0, [r3, #-196]	; 0xffffff3c
    1484:	6e6f635f 	mcrvs	3, 3, r6, cr15, cr15, {2}
    1488:	70745f66 	rsbsvc	r5, r4, r6, ror #30
    148c:	655f6363 	ldrbvs	r6, [pc, #-867]	; 1131 <_start-0x7fffeecf>
    1490:	6d5f7476 	cfldrdvs	mvd7, [pc, #-472]	; 12c0 <_start-0x7fffed40>
    1494:	335f7875 	cmpcc	pc, #7667712	; 0x750000
    1498:	35335f32 	ldrcc	r5, [r3, #-3890]!	; 0xfffff0ce
    149c:	5f4d4300 	svcpl	0x004d4300
    14a0:	666e6f63 	strbtvs	r6, [lr], -r3, ror #30
    14a4:	6370745f 	cmnvs	r0, #1593835520	; 0x5f000000
    14a8:	76655f63 	strbtvc	r5, [r5], -r3, ror #30
    14ac:	756d5f74 	strbvc	r5, [sp, #-3956]!	; 0xfffff08c
    14b0:	32315f78 	eorscc	r5, r1, #120, 30	; 0x1e0
    14b4:	0035315f 	eorseq	r3, r5, pc, asr r1
    14b8:	635f4d43 	cmpvs	pc, #4288	; 0x10c0
    14bc:	5f666e6f 	svcpl	0x00666e6f
    14c0:	65647163 	strbvs	r7, [r4, #-355]!	; 0xfffffe9d
    14c4:	74636574 	strbtvc	r6, [r3], #-1396	; 0xfffffa8c
    14c8:	6174735f 	cmnvs	r4, pc, asr r3
    14cc:	00737574 	rsbseq	r7, r3, r4, ror r5
    14d0:	635f4d43 	cmpvs	pc, #4288	; 0x10c0
    14d4:	5f666e6f 	svcpl	0x00666e6f
    14d8:	74726175 	ldrbtvc	r6, [r2], #-373	; 0xfffffe8b
    14dc:	78725f30 	ldmdavc	r2!, {r4, r5, r8, r9, sl, fp, ip, lr}^
    14e0:	4d430064 	stclmi	0, cr0, [r3, #-400]	; 0xfffffe70
    14e4:	6e6f635f 	mcrvs	3, 3, r6, cr15, cr15, {2}
    14e8:	696d5f66 	stmdbvs	sp!, {r1, r2, r5, r6, r8, r9, sl, fp, ip, lr}^
    14ec:	725f3169 	subsvc	r3, pc, #1073741850	; 0x4000001a
    14f0:	72655f78 	rsbvc	r5, r5, #120, 30	; 0x1e0
    14f4:	5f4d4300 	svcpl	0x004d4300
    14f8:	666e6f63 	strbtvs	r6, [lr], -r3, ror #30
    14fc:	636d6d5f 	cmnvs	sp, #6080	; 0x17c0
    1500:	61645f30 	cmnvs	r4, r0, lsr pc
    1504:	43003274 	movwmi	r3, #628	; 0x274
    1508:	6f635f4d 	svcvs	0x00635f4d
    150c:	6d5f666e 	ldclvs	6, cr6, [pc, #-440]	; 135c <_start-0x7fffeca4>
    1510:	5f30636d 	svcpl	0x0030636d
    1514:	33746164 	cmncc	r4, #100, 2
    1518:	5f4d4300 	svcpl	0x004d4300
    151c:	666e6f63 	strbtvs	r6, [lr], -r3, ror #30
    1520:	6370745f 	cmnvs	r0, #1593835520	; 0x5f000000
    1524:	76655f63 	strbtvc	r5, [r5], -r3, ror #30
    1528:	756d5f74 	strbvc	r5, [sp, #-3956]!	; 0xfffff08c
    152c:	34325f78 	ldrtcc	r5, [r2], #-3960	; 0xfffff088
    1530:	0037325f 	eorseq	r3, r7, pc, asr r2
    1534:	635f4d43 	cmpvs	pc, #4288	; 0x10c0
    1538:	5f666e6f 	svcpl	0x00666e6f
    153c:	7361636d 	cmnvc	r1, #-1275068415	; 0xb4000001
    1540:	615f3070 	cmpvs	pc, r0, ror r0	; <UNPREDICTABLE>
    1544:	6b6c6368 	blvs	1b1a2ec <_start-0x7e4e5d14>
    1548:	4d430072 	stclmi	0, cr0, [r3, #-456]	; 0xfffffe38
    154c:	6e6f635f 	mcrvs	3, 3, r6, cr15, cr15, {2}
    1550:	636c5f66 	cmnvs	ip, #408	; 0x198
    1554:	73685f64 	cmnvc	r8, #100, 30	; 0x190
    1558:	00636e79 	rsbeq	r6, r3, r9, ror lr
    155c:	6d5f4d43 	ldclvs	13, cr4, [pc, #-268]	; 1458 <_start-0x7fffeba8>
    1560:	5f63736f 	svcpl	0x0063736f
    1564:	6c727463 	cfldrdvs	mvd7, [r2], #-396	; 0xfffffe74
    1568:	5f4d4300 	svcpl	0x004d4300
    156c:	666e6f63 	strbtvs	r6, [lr], -r3, ror #30
    1570:	69696d5f 	stmdbvs	r9!, {r0, r1, r2, r3, r4, r6, r8, sl, fp, sp, lr}^
    1574:	6f635f31 	svcvs	0x00635f31
    1578:	4d43006c 	stclmi	0, cr0, [r3, #-432]	; 0xfffffe50
    157c:	6e6f635f 	mcrvs	3, 3, r6, cr15, cr15, {2}
    1580:	636d5f66 	cmnvs	sp, #408	; 0x198
    1584:	30707361 	rsbscc	r7, r0, r1, ror #6
    1588:	6368615f 	cmnvs	r8, #-1073741801	; 0xc0000017
    158c:	00786b6c 	rsbseq	r6, r8, ip, ror #22
    1590:	635f4d43 	cmpvs	pc, #4288	; 0x10c0
    1594:	5f666e6f 	svcpl	0x00666e6f
    1598:	5f726464 	svcpl	0x00726464
    159c:	5f656b63 	svcpl	0x00656b63
    15a0:	6c727463 	cfldrdvs	mvd7, [r2], #-396	; 0xfffffe74
    15a4:	5f4d4300 	svcpl	0x004d4300
    15a8:	5f646476 	svcpl	0x00646476
    15ac:	5f75706d 	svcpl	0x0075706d
    15b0:	5f70706f 	svcpl	0x0070706f
    15b4:	62727574 	rsbsvs	r7, r2, #116, 10	; 0x1d000000
    15b8:	4d43006f 	stclmi	0, cr0, [r3, #-444]	; 0xfffffe44
    15bc:	6e6f635f 	mcrvs	3, 3, r6, cr15, cr15, {2}
    15c0:	70695f66 	rsbvc	r5, r9, r6, ror #30
    15c4:	736d5f63 	cmnvc	sp, #396	; 0x18c
    15c8:	65725f67 	ldrbvs	r5, [r2, #-3943]!	; 0xfffff099
    15cc:	43003167 	movwmi	r3, #359	; 0x167
    15d0:	6f635f4d 	svcvs	0x00635f4d
    15d4:	755f666e 	ldrbvc	r6, [pc, #-1646]	; f6e <_start-0x7ffff092>
    15d8:	31747261 	cmncc	r4, r1, ror #4
    15dc:	6478725f 	ldrbtvs	r7, [r8], #-607	; 0xfffffda1
    15e0:	5f4d4300 	svcpl	0x004d4300
    15e4:	666e6f63 	strbtvs	r6, [lr], -r3, ror #30
    15e8:	6370695f 	cmnvs	r0, #1556480	; 0x17c000
    15ec:	67736d5f 			; <UNDEFINED> instruction: 0x67736d5f
    15f0:	6765725f 			; <UNDEFINED> instruction: 0x6765725f
    15f4:	4d430033 	stclmi	0, cr0, [r3, #-204]	; 0xffffff34
    15f8:	6e6f635f 	mcrvs	3, 3, r6, cr15, cr15, {2}
    15fc:	70695f66 	rsbvc	r5, r9, r6, ror #30
    1600:	736d5f63 	cmnvc	sp, #396	; 0x18c
    1604:	65725f67 	ldrbvs	r5, [r2, #-3943]!	; 0xfffff099
    1608:	43003467 	movwmi	r3, #1127	; 0x467
    160c:	6f635f4d 	svcvs	0x00635f4d
    1610:	755f666e 	ldrbvc	r6, [pc, #-1646]	; faa <_start-0x7ffff056>
    1614:	30747261 	rsbscc	r7, r4, r1, ror #4
    1618:	6478745f 	ldrbtvs	r7, [r8], #-1119	; 0xfffffba1
    161c:	5f4d4300 	svcpl	0x004d4300
    1620:	666e6f63 	strbtvs	r6, [lr], -r3, ror #30
    1624:	6370745f 	cmnvs	r0, #1593835520	; 0x5f000000
    1628:	76655f63 	strbtvc	r5, [r5], -r3, ror #30
    162c:	756d5f74 	strbvc	r5, [sp, #-3956]!	; 0xfffff08c
    1630:	36355f78 	shsub16cc	r5, r5, r8
    1634:	0039355f 	eorseq	r3, r9, pc, asr r5
    1638:	635f4d43 	cmpvs	pc, #4288	; 0x10c0
    163c:	5f666e6f 	svcpl	0x00666e6f
    1640:	636d7067 	cmnvs	sp, #103	; 0x67
    1644:	6b6c635f 	blvs	1b1a3c8 <_start-0x7e4e5c38>
    1648:	5f4d4300 	svcpl	0x004d4300
    164c:	6e616364 	cdpvs	3, 6, cr6, cr1, cr4, {3}
    1650:	6d61725f 	sfmvs	f7, 2, [r1, #-380]!	; 0xfffffe84
    1654:	74696e69 	strbtvc	r6, [r9], #-3689	; 0xfffff197
    1658:	5f4d4300 	svcpl	0x004d4300
    165c:	666e6f63 	strbtvs	r6, [lr], -r3, ror #30
    1660:	6273755f 	rsbsvs	r7, r3, #398458880	; 0x17c00000
    1664:	72645f31 	rsbvc	r5, r4, #49, 30	; 0xc4
    1668:	75627676 	strbvc	r7, [r2, #-1654]!	; 0xfffff98a
    166c:	4d430073 	stclmi	0, cr0, [r3, #-460]	; 0xfffffe34
    1670:	6e6f635f 	mcrvs	3, 3, r6, cr15, cr15, {2}
    1674:	70675f66 	rsbvc	r5, r7, r6, ror #30
    1678:	6f5f636d 	svcvs	0x005f636d
    167c:	725f6e65 	subsvc	r6, pc, #1616	; 0x650
    1680:	43006e65 	movwmi	r6, #3685	; 0xe65
    1684:	6f635f4d 	svcvs	0x00635f4d
    1688:	6d5f666e 	ldclvs	6, cr6, [pc, #-440]	; 14d8 <_start-0x7fffeb28>
    168c:	5f316969 	svcpl	0x00316969
    1690:	30647874 	rsbcc	r7, r4, r4, ror r8
    1694:	5f4d4300 	svcpl	0x004d4300
    1698:	666e6f63 	strbtvs	r6, [lr], -r3, ror #30
    169c:	69696d5f 	stmdbvs	r9!, {r0, r1, r2, r3, r4, r6, r8, sl, fp, sp, lr}^
    16a0:	78745f31 	ldmdavc	r4!, {r0, r4, r5, r8, r9, sl, fp, ip, lr}^
    16a4:	43003164 	movwmi	r3, #356	; 0x164
    16a8:	6f635f4d 	svcvs	0x00635f4d
    16ac:	6d5f666e 	ldclvs	6, cr6, [pc, #-440]	; 14fc <_start-0x7fffeb04>
    16b0:	5f316969 	svcpl	0x00316969
    16b4:	32647874 	rsbcc	r7, r4, #116, 16	; 0x740000
    16b8:	5f4d4300 	svcpl	0x004d4300
    16bc:	666e6f63 	strbtvs	r6, [lr], -r3, ror #30
    16c0:	69696d5f 	stmdbvs	r9!, {r0, r1, r2, r3, r4, r6, r8, sl, fp, sp, lr}^
    16c4:	78745f31 	ldmdavc	r4!, {r0, r4, r5, r8, r9, sl, fp, ip, lr}^
    16c8:	43003364 	movwmi	r3, #868	; 0x364
    16cc:	6f635f4d 	svcvs	0x00635f4d
    16d0:	675f666e 	ldrbvs	r6, [pc, -lr, ror #12]
    16d4:	5f636d70 	svcpl	0x00636d70
    16d8:	316e6562 	cmncc	lr, r2, ror #10
    16dc:	5f4d4300 	svcpl	0x004d4300
    16e0:	666e6f63 	strbtvs	r6, [lr], -r3, ror #30
    16e4:	6572765f 	ldrbvs	r7, [r2, #-1631]!	; 0xfffff9a1
    16e8:	74635f66 	strbtvc	r5, [r3], #-3942	; 0xfffff09a
    16ec:	43006c72 	movwmi	r6, #3186	; 0xc72
    16f0:	6f635f4d 	svcvs	0x00635f4d
    16f4:	735f666e 	cmpvc	pc, #115343360	; 0x6e00000
    16f8:	0032616d 	eorseq	r6, r2, sp, ror #2
    16fc:	635f4d43 	cmpvs	pc, #4288	; 0x10c0
    1700:	5f666e6f 	svcpl	0x00666e6f
    1704:	30697073 	rsbcc	r7, r9, r3, ror r0
    1708:	6c63735f 	stclvs	3, cr7, [r3], #-380	; 0xfffffe84
    170c:	4d43006b 	stclmi	0, cr0, [r3, #-428]	; 0xfffffe54
    1710:	6e6f635f 	mcrvs	3, 3, r6, cr15, cr15, {2}
    1714:	70695f66 	rsbvc	r5, r9, r6, ror #30
    1718:	736d5f63 	cmnvc	sp, #396	; 0x18c
    171c:	65725f67 	ldrbvs	r5, [r2, #-3943]!	; 0xfffff099
    1720:	43003067 	movwmi	r3, #103	; 0x67
    1724:	6d675f4d 	stclvs	15, cr5, [r7, #-308]!	; 0xfffffecc
    1728:	735f6969 	cmpvc	pc, #1720320	; 0x1a4000
    172c:	43006c65 	movwmi	r6, #3173	; 0xc65
    1730:	6f635f4d 	svcvs	0x00635f4d
    1734:	695f666e 	ldmdbvs	pc, {r1, r2, r3, r5, r6, r9, sl, sp, lr}^	; <UNPREDICTABLE>
    1738:	6d5f6370 	ldclvs	3, cr6, [pc, #-448]	; 1580 <_start-0x7fffea80>
    173c:	725f6773 	subsvc	r6, pc, #30146560	; 0x1cc0000
    1740:	00326765 	eorseq	r6, r2, r5, ror #14
    1744:	635f4d43 	cmpvs	pc, #4288	; 0x10c0
    1748:	32336b6c 	eorscc	r6, r3, #108, 22	; 0x1b000
    174c:	7669646b 	strbtvc	r6, [r9], -fp, ror #8
    1750:	69746172 	ldmdbvs	r4!, {r1, r4, r5, r6, r8, sp, lr}^
    1754:	74635f6f 	strbtvc	r5, [r3], #-3951	; 0xfffff091
    1758:	43006c72 	movwmi	r6, #3186	; 0xc72
    175c:	6f635f4d 	svcvs	0x00635f4d
    1760:	755f666e 	ldrbvc	r6, [pc, #-1646]	; 10fa <_start-0x7fffef06>
    1764:	5f306273 	svcpl	0x00306273
    1768:	76767264 	ldrbtvc	r7, [r6], -r4, ror #4
    176c:	00737562 	rsbseq	r7, r3, r2, ror #10
    1770:	635f4d43 	cmpvs	pc, #4288	; 0x10c0
    1774:	5f666e6f 	svcpl	0x00666e6f
    1778:	5f637069 	svcpl	0x00637069
    177c:	5f67736d 	svcpl	0x0067736d
    1780:	35676572 	strbcc	r6, [r7, #-1394]!	; 0xfffffa8e
    1784:	5f4d4300 	svcpl	0x004d4300
    1788:	666e6f63 	strbtvs	r6, [lr], -r3, ror #30
    178c:	6370695f 	cmnvs	r0, #1556480	; 0x17c000
    1790:	67736d5f 			; <UNDEFINED> instruction: 0x67736d5f
    1794:	6765725f 			; <UNDEFINED> instruction: 0x6765725f
    1798:	4d430036 	stclmi	0, cr0, [r3, #-216]	; 0xffffff28
    179c:	7665645f 			; <UNDEFINED> instruction: 0x7665645f
    17a0:	6165665f 	cmnvs	r5, pc, asr r6
    17a4:	65727574 	ldrbvs	r7, [r2, #-1396]!	; 0xfffffa8c
    17a8:	5f4d4300 	svcpl	0x004d4300
    17ac:	746e6f63 	strbtvc	r6, [lr], #-3939	; 0xfffff09d
    17b0:	5f6c6f72 	svcpl	0x006c6f72
    17b4:	75646f6d 	strbvc	r6, [r4, #-3949]!	; 0xfffff093
    17b8:	6d00656c 	cfstr32vs	mvfx6, [r0, #-432]	; 0xfffffe50
    17bc:	0065646f 	rsbeq	r6, r5, pc, ror #8
    17c0:	645f4d43 	ldrbvs	r4, [pc], #-3395	; 17c8 <_start-0x7fffe838>
    17c4:	63697665 	cmnvs	r9, #105906176	; 0x6500000
    17c8:	64695f65 	strbtvs	r5, [r9], #-3941	; 0xfffff09b
    17cc:	5f4d4300 	svcpl	0x004d4300
    17d0:	74696e69 	strbtvc	r6, [r9], #-3689	; 0xfffff197
    17d4:	6972705f 	ldmdbvs	r2!, {r0, r1, r2, r3, r4, r6, ip, sp, lr}^
    17d8:	7469726f 	strbtvc	r7, [r9], #-623	; 0xfffffd91
    17dc:	00315f79 	eorseq	r5, r1, r9, ror pc
    17e0:	755f4d43 	ldrbvc	r4, [pc, #-3395]	; aa5 <_start-0x7ffff55b>
    17e4:	735f6273 	cmpvc	pc, #805306375	; 0x30000007
    17e8:	00307374 	eorseq	r7, r0, r4, ror r3
    17ec:	755f4d43 	ldrbvc	r4, [pc, #-3395]	; ab1 <_start-0x7ffff54f>
    17f0:	735f6273 	cmpvc	pc, #805306375	; 0x30000007
    17f4:	00317374 	eorseq	r7, r1, r4, ror r3
    17f8:	635f4d43 	cmpvs	pc, #4288	; 0x10c0
    17fc:	5f666e6f 	svcpl	0x00666e6f
    1800:	5f64636c 	svcpl	0x0064636c
    1804:	61746164 	cmnvs	r4, r4, ror #2
    1808:	43003431 	movwmi	r3, #1073	; 0x431
    180c:	64765f4d 	ldrbtvs	r5, [r6], #-3917	; 0xfffff0b3
    1810:	706d5f64 	rsbvc	r5, sp, r4, ror #30
    1814:	706f5f75 	rsbvc	r5, pc, r5, ror pc	; <UNPREDICTABLE>
    1818:	32315f70 	eorscc	r5, r1, #112, 30	; 0x1c0
    181c:	4d430030 	stclmi	0, cr0, [r3, #-192]	; 0xffffff40
    1820:	6e6f635f 	mcrvs	3, 3, r6, cr15, cr15, {2}
    1824:	70645f66 	rsbvc	r5, r4, r6, ror #30
    1828:	705f6c6c 	subsvc	r6, pc, ip, ror #24
    182c:	735f7277 	cmpvc	pc, #1879048199	; 0x70000007
    1830:	74635f77 	strbtvc	r5, [r3], #-3959	; 0xfffff089
    1834:	43006c72 	movwmi	r6, #3186	; 0xc72
    1838:	6f635f4d 	svcvs	0x00635f4d
    183c:	785f666e 	ldmdavc	pc, {r1, r2, r3, r5, r6, r9, sl, sp, lr}^	; <UNPREDICTABLE>
    1840:	5f616d64 	svcpl	0x00616d64
    1844:	6e657665 	cdpvs	6, 6, cr7, cr5, cr5, {3}
    1848:	6e695f74 	mcrvs	15, 3, r5, cr9, cr4, {3}
    184c:	00307274 	eorseq	r7, r0, r4, ror r2
    1850:	635f4d43 	cmpvs	pc, #4288	; 0x10c0
    1854:	5f666e6f 	svcpl	0x00666e6f
    1858:	616d6478 	smcvs	54856	; 0xd648
    185c:	6576655f 	ldrbvs	r6, [r6, #-1375]!	; 0xfffffaa1
    1860:	695f746e 	ldmdbvs	pc, {r1, r2, r3, r5, r6, sl, ip, sp, lr}^	; <UNPREDICTABLE>
    1864:	3172746e 	cmncc	r2, lr, ror #8
    1868:	5f4d4300 	svcpl	0x004d4300
    186c:	666e6f63 	strbtvs	r6, [lr], -r3, ror #30
    1870:	6370745f 	cmnvs	r0, #1593835520	; 0x5f000000
    1874:	76655f63 	strbtvc	r5, [r5], -r3, ror #30
    1878:	756d5f74 	strbvc	r5, [sp, #-3956]!	; 0xfffff08c
    187c:	5f345f78 	svcpl	0x00345f78
    1880:	4d430037 	stclmi	0, cr0, [r3, #-220]	; 0xffffff24
    1884:	6e6f635f 	mcrvs	3, 3, r6, cr15, cr15, {2}
    1888:	70745f66 	rsbsvc	r5, r4, r6, ror #30
    188c:	655f6363 	ldrbvs	r6, [pc, #-867]	; 1531 <_start-0x7fffeacf>
    1890:	6d5f7476 	cfldrdvs	mvd7, [pc, #-472]	; 16c0 <_start-0x7fffe940>
    1894:	345f7875 	ldrbcc	r7, [pc], #-2165	; 189c <_start-0x7fffe764>
    1898:	31355f38 	teqcc	r5, r8, lsr pc
    189c:	5f4d4300 	svcpl	0x004d4300
    18a0:	666e6f63 	strbtvs	r6, [lr], -r3, ror #30
    18a4:	6970735f 	ldmdbvs	r0!, {r0, r1, r2, r3, r4, r6, r8, r9, ip, sp, lr}^
    18a8:	30645f30 	rsbcc	r5, r4, r0, lsr pc
    18ac:	5f4d4300 	svcpl	0x004d4300
    18b0:	666e6f63 	strbtvs	r6, [lr], -r3, ror #30
    18b4:	7264645f 	rsbvc	r6, r4, #1593835520	; 0x5f000000
    18b8:	646d635f 	strbtvs	r6, [sp], #-863	; 0xfffffca1
    18bc:	6f695f30 	svcvs	0x00695f30
    18c0:	6c727463 	cfldrdvs	mvd7, [r2], #-396	; 0xfffffe74
    18c4:	5f4d4300 	svcpl	0x004d4300
    18c8:	666e6f63 	strbtvs	r6, [lr], -r3, ror #30
    18cc:	61636d5f 	cmnvs	r3, pc, asr sp
    18d0:	5f307073 	svcpl	0x00307073
    18d4:	30727861 	rsbscc	r7, r2, r1, ror #16
    18d8:	5f4d4300 	svcpl	0x004d4300
    18dc:	666e6f63 	strbtvs	r6, [lr], -r3, ror #30
    18e0:	61636d5f 	cmnvs	r3, pc, asr sp
    18e4:	5f307073 	svcpl	0x00307073
    18e8:	31727861 	cmncc	r2, r1, ror #16
    18ec:	5f4d4300 	svcpl	0x004d4300
    18f0:	746e6f63 	strbtvc	r6, [lr], #-3939	; 0xfffff09d
    18f4:	5f6c6f72 	svcpl	0x006c6f72
    18f8:	63737973 	cmnvs	r3, #1884160	; 0x1cc000
    18fc:	69666e6f 	stmdbvs	r6!, {r0, r1, r2, r3, r5, r6, r9, sl, fp, sp, lr}^
    1900:	4d430067 	stclmi	0, cr0, [r3, #-412]	; 0xfffffe64
    1904:	6e6f635f 	mcrvs	3, 3, r6, cr15, cr15, {2}
    1908:	636c5f66 	cmnvs	ip, #408	; 0x198
    190c:	61645f64 	cmnvs	r4, r4, ror #30
    1910:	00386174 	eorseq	r6, r8, r4, ror r1
    1914:	635f4d43 	cmpvs	pc, #4288	; 0x10c0
    1918:	5f666e6f 	svcpl	0x00666e6f
    191c:	3169696d 	cmncc	r9, sp, ror #18
    1920:	5f78745f 	svcpl	0x0078745f
    1924:	43006e65 	movwmi	r6, #3685	; 0xe65
    1928:	6f635f4d 	svcvs	0x00635f4d
    192c:	745f666e 	ldrbvc	r6, [pc], #-1646	; 1934 <_start-0x7fffe6cc>
    1930:	43006b63 	movwmi	r6, #2915	; 0xb63
    1934:	6f635f4d 	svcvs	0x00635f4d
    1938:	755f666e 	ldrbvc	r6, [pc, #-1646]	; 12d2 <_start-0x7fffed2e>
    193c:	30747261 	rsbscc	r7, r4, r1, ror #4
    1940:	7374635f 	cmnvc	r4, #2080374785	; 0x7c000001
    1944:	4d43006e 	stclmi	0, cr0, [r3, #-440]	; 0xfffffe48
    1948:	6273755f 	rsbsvs	r7, r3, #398458880	; 0x17c00000
    194c:	7274635f 	rsbsvc	r6, r4, #2080374785	; 0x7c000001
    1950:	4300306c 	movwmi	r3, #108	; 0x6c
    1954:	73755f4d 	cmnvc	r5, #308	; 0x134
    1958:	74635f62 	strbtvc	r5, [r3], #-3938	; 0xfffff09e
    195c:	00316c72 	eorseq	r6, r1, r2, ror ip
    1960:	755f4d43 	ldrbvc	r4, [pc, #-3395]	; c25 <_start-0x7ffff3db>
    1964:	765f6273 			; <UNDEFINED> instruction: 0x765f6273
    1968:	705f6469 	subsvc	r6, pc, r9, ror #8
    196c:	43006469 	movwmi	r6, #1129	; 0x469
    1970:	6f635f4d 	svcvs	0x00635f4d
    1974:	695f666e 	ldmdbvs	pc, {r1, r2, r3, r5, r6, r9, sl, sp, lr}^	; <UNPREDICTABLE>
    1978:	5f306332 	svcpl	0x00306332
    197c:	006c6373 	rsbeq	r6, ip, r3, ror r3
    1980:	755f4d43 	ldrbvc	r4, [pc, #-3395]	; c45 <_start-0x7ffff3bb>
    1984:	775f6273 			; <UNDEFINED> instruction: 0x775f6273
    1988:	5f70756b 	svcpl	0x0070756b
    198c:	6c727463 	cfldrdvs	mvd7, [r2], #-396	; 0xfffffe74
    1990:	5f4d4300 	svcpl	0x004d4300
    1994:	666e6f63 	strbtvs	r6, [lr], -r3, ror #30
    1998:	69696d5f 	stmdbvs	r9!, {r0, r1, r2, r3, r4, r6, r8, sl, fp, sp, lr}^
    199c:	78725f31 	ldmdavc	r2!, {r0, r4, r5, r8, r9, sl, fp, ip, lr}^
    19a0:	43003064 	movwmi	r3, #100	; 0x64
    19a4:	6f635f4d 	svcvs	0x00635f4d
    19a8:	6d5f666e 	ldclvs	6, cr6, [pc, #-440]	; 17f8 <_start-0x7fffe808>
    19ac:	5f316969 	svcpl	0x00316969
    19b0:	31647872 	smccc	18306	; 0x4782
    19b4:	5f4d4300 	svcpl	0x004d4300
    19b8:	5f756d6d 	svcpl	0x00756d6d
    19bc:	00676663 	rsbeq	r6, r7, r3, ror #12
    19c0:	635f4d43 	cmpvs	pc, #4288	; 0x10c0
    19c4:	5f666e6f 	svcpl	0x00666e6f
    19c8:	3169696d 	cmncc	r9, sp, ror #18
    19cc:	6478725f 	ldrbtvs	r7, [r8], #-607	; 0xfffffda1
    19d0:	4d430033 	stclmi	0, cr0, [r3, #-204]	; 0xffffff34
    19d4:	6e6f635f 	mcrvs	3, 3, r6, cr15, cr15, {2}
    19d8:	64745f66 	ldrbtvs	r5, [r4], #-3942	; 0xfffff09a
    19dc:	4d430069 	stclmi	0, cr0, [r3, #-420]	; 0xfffffe5c
    19e0:	6e6f635f 	mcrvs	3, 3, r6, cr15, cr15, {2}
    19e4:	70745f66 	rsbsvc	r5, r4, r6, ror #30
    19e8:	655f6363 	ldrbvs	r6, [pc, #-867]	; 168d <_start-0x7fffe973>
    19ec:	6d5f7476 	cfldrdvs	mvd7, [pc, #-472]	; 181c <_start-0x7fffe7e4>
    19f0:	365f7875 			; <UNDEFINED> instruction: 0x365f7875
    19f4:	33365f30 	teqcc	r6, #48, 30	; 0xc0
    19f8:	5f4d4300 	svcpl	0x004d4300
    19fc:	5f6c6c70 	svcpl	0x006c6c70
    1a00:	696b6c63 	stmdbvs	fp!, {r0, r1, r5, r6, sl, fp, sp, lr}^
    1a04:	6c75706e 	ldclvs	0, cr7, [r5], #-440	; 0xfffffe48
    1a08:	635f776f 	cmpvs	pc, #29097984	; 0x1bc0000
    1a0c:	006c7274 	rsbeq	r7, ip, r4, ror r2
    1a10:	635f4d43 	cmpvs	pc, #4288	; 0x10c0
    1a14:	5f666e6f 	svcpl	0x00666e6f
    1a18:	5f707476 	svcpl	0x00707476
    1a1c:	6c727463 	cfldrdvs	mvd7, [r2], #-396	; 0xfffffe74
    1a20:	5f4d4300 	svcpl	0x004d4300
    1a24:	666e6f63 	strbtvs	r6, [lr], -r3, ror #30
    1a28:	61636d5f 	cmnvs	r3, pc, asr sp
    1a2c:	5f307073 	svcpl	0x00307073
    1a30:	6b6c6361 	blvs	1b1a7bc <_start-0x7e4e5844>
    1a34:	4d430072 	stclmi	0, cr0, [r3, #-456]	; 0xfffffe38
    1a38:	6e6f635f 	mcrvs	3, 3, r6, cr15, cr15, {2}
    1a3c:	70675f66 	rsbvc	r5, r7, r6, ror #30
    1a40:	615f636d 	cmpvs	pc, sp, ror #6
    1a44:	00323164 	eorseq	r3, r2, r4, ror #2
    1a48:	635f4d43 	cmpvs	pc, #4288	; 0x10c0
    1a4c:	5f666e6f 	svcpl	0x00666e6f
    1a50:	69696d72 	stmdbvs	r9!, {r1, r4, r5, r6, r8, sl, fp, sp, lr}^
    1a54:	65725f31 	ldrbvs	r5, [r2, #-3889]!	; 0xfffff0cf
    1a58:	6c635f66 	stclvs	15, cr5, [r3], #-408	; 0xfffffe68
    1a5c:	4d43006b 	stclmi	0, cr0, [r3, #-428]	; 0xfffffe54
    1a60:	6e6f635f 	mcrvs	3, 3, r6, cr15, cr15, {2}
    1a64:	636d5f66 	cmnvs	sp, #408	; 0x198
    1a68:	30707361 	rsbscc	r7, r0, r1, ror #6
    1a6c:	6c63615f 	stfvse	f6, [r3], #-380	; 0xfffffe84
    1a70:	4300786b 	movwmi	r7, #2155	; 0x86b
    1a74:	6f635f4d 	svcvs	0x00635f4d
    1a78:	675f666e 	ldrbvs	r6, [pc, -lr, ror #12]
    1a7c:	5f636d70 	svcpl	0x00636d70
    1a80:	30316461 	eorscc	r6, r1, r1, ror #8
    1a84:	5f4d4300 	svcpl	0x004d4300
    1a88:	666e6f63 	strbtvs	r6, [lr], -r3, ror #30
    1a8c:	6d70675f 	ldclvs	7, cr6, [r0, #-380]!	; 0xfffffe84
    1a90:	64615f63 	strbtvs	r5, [r1], #-3939	; 0xfffff09d
    1a94:	43003131 	movwmi	r3, #305	; 0x131
    1a98:	6f635f4d 	svcvs	0x00635f4d
    1a9c:	6f72746e 	svcvs	0x0072746e
    1aa0:	74735f6c 	ldrbtvc	r5, [r3], #-3948	; 0xfffff094
    1aa4:	73757461 	cmnvc	r5, #1627389952	; 0x61000000
    1aa8:	5f4d4300 	svcpl	0x004d4300
    1aac:	666e6f63 	strbtvs	r6, [lr], -r3, ror #30
    1ab0:	6d70675f 	ldclvs	7, cr6, [r0, #-380]!	; 0xfffffe84
    1ab4:	64615f63 	strbtvs	r5, [r1], #-3939	; 0xfffff09d
    1ab8:	43003331 	movwmi	r3, #817	; 0x331
    1abc:	6f635f4d 	svcvs	0x00635f4d
    1ac0:	675f666e 	ldrbvs	r6, [pc, -lr, ror #12]
    1ac4:	5f636d70 	svcpl	0x00636d70
    1ac8:	34316461 	ldrtcc	r6, [r1], #-1121	; 0xfffffb9f
    1acc:	5f4d4300 	svcpl	0x004d4300
    1ad0:	666e6f63 	strbtvs	r6, [lr], -r3, ror #30
    1ad4:	6d70675f 	ldclvs	7, cr6, [r0, #-380]!	; 0xfffffe84
    1ad8:	64615f63 	strbtvs	r5, [r1], #-3939	; 0xfffff09d
    1adc:	43003531 	movwmi	r3, #1329	; 0x531
    1ae0:	6f635f4d 	svcvs	0x00635f4d
    1ae4:	735f6572 	cmpvc	pc, #478150656	; 0x1c800000
    1ae8:	5f6f646c 	svcpl	0x006f646c
    1aec:	6c727463 	cfldrdvs	mvd7, [r2], #-396	; 0xfffffe74
    1af0:	5f4d4300 	svcpl	0x004d4300
    1af4:	666e6f63 	strbtvs	r6, [lr], -r3, ror #30
    1af8:	7261755f 	rsbvc	r7, r1, #398458880	; 0x17c00000
    1afc:	635f3174 	cmpvs	pc, #116, 2
    1b00:	006e7374 	rsbeq	r7, lr, r4, ror r3
    1b04:	6d5f4d43 	ldclvs	13, cr4, [pc, #-268]	; 1a00 <_start-0x7fffe600>
    1b08:	695f6361 	ldmdbvs	pc, {r0, r5, r6, r8, r9, sp, lr}^	; <UNPREDICTABLE>
    1b0c:	685f3064 	ldmdavs	pc, {r2, r5, r6, ip, sp}^	; <UNPREDICTABLE>
    1b10:	4d430069 	stclmi	0, cr0, [r3, #-420]	; 0xfffffe5c
    1b14:	6e6f635f 	mcrvs	3, 3, r6, cr15, cr15, {2}
    1b18:	6c6f7274 	sfmvs	f7, 2, [pc], #-464	; 1950 <_start-0x7fffe6b0>
    1b1c:	696d655f 	stmdbvs	sp!, {r0, r1, r2, r3, r4, r6, r8, sl, sp, lr}^
    1b20:	64735f66 	ldrbtvs	r5, [r3], #-3942	; 0xfffff09a
    1b24:	5f6d6172 	svcpl	0x006d6172
    1b28:	666e6f63 	strbtvs	r6, [lr], -r3, ror #30
    1b2c:	43006769 	movwmi	r6, #1897	; 0x769
    1b30:	6f635f4d 	svcvs	0x00635f4d
    1b34:	6c5f666e 	mrrcvs	6, 6, r6, pc, cr14	; <UNPREDICTABLE>
    1b38:	765f6463 	ldrbvc	r6, [pc], -r3, ror #8
    1b3c:	636e7973 	cmnvs	lr, #1884160	; 0x1cc000
    1b40:	5f4d4300 	svcpl	0x004d4300
    1b44:	666e6f63 	strbtvs	r6, [lr], -r3, ror #30
    1b48:	6970735f 	ldmdbvs	r0!, {r0, r1, r2, r3, r4, r6, r8, r9, ip, sp, lr}^
    1b4c:	31645f30 	cmncc	r4, r0, lsr pc
    1b50:	5f4d4300 	svcpl	0x004d4300
    1b54:	666e6f63 	strbtvs	r6, [lr], -r3, ror #30
    1b58:	6f64745f 	svcvs	0x0064745f
    1b5c:	5f4d4300 	svcpl	0x004d4300
    1b60:	666e6f63 	strbtvs	r6, [lr], -r3, ror #30
    1b64:	6332695f 	teqvs	r2, #1556480	; 0x17c000
    1b68:	64735f30 	ldrbtvs	r5, [r3], #-3888	; 0xfffff0d0
    1b6c:	4d430061 	stclmi	0, cr0, [r3, #-388]	; 0xfffffe7c
    1b70:	6e6f635f 	mcrvs	3, 3, r6, cr15, cr15, {2}
    1b74:	70745f66 	rsbsvc	r5, r4, r6, ror #30
    1b78:	655f6363 	ldrbvs	r6, [pc, #-867]	; 181d <_start-0x7fffe7e3>
    1b7c:	6d5f7476 	cfldrdvs	mvd7, [pc, #-472]	; 19ac <_start-0x7fffe654>
    1b80:	345f7875 	ldrbcc	r7, [pc], #-2165	; 1b88 <_start-0x7fffe478>
    1b84:	37345f34 			; <UNDEFINED> instruction: 0x37345f34
    1b88:	6f757100 	svcvs	0x00757100
    1b8c:	5f5f0074 	svcpl	0x005f0074
    1b90:	62616561 	rsbvs	r6, r1, #406847488	; 0x18400000
    1b94:	64695f69 	strbtvs	r5, [r9], #-3945	; 0xfffff097
    1b98:	6f6d7669 	svcvs	0x006d7669
    1b9c:	65640064 	strbvs	r0, [r4, #-100]!	; 0xffffff9c
    1ba0:	006d6f6e 	rsbeq	r6, sp, lr, ror #30
    1ba4:	65615f5f 	strbvs	r5, [r1, #-3935]!	; 0xfffff0a1
    1ba8:	5f696261 	svcpl	0x00696261
    1bac:	76696469 	strbtvc	r6, [r9], -r9, ror #8
    1bb0:	76696400 	strbtvc	r6, [r9], -r0, lsl #8
    1bb4:	6900632e 	stmdbvs	r0, {r1, r2, r3, r5, r8, r9, sp, lr}
    1bb8:	5f766964 	svcpl	0x00766964
    1bbc:	75746572 	ldrbvc	r6, [r4, #-1394]!	; 0xfffffa8e
    1bc0:	5f006e72 	svcpl	0x00006e72
    1bc4:	6e69616d 	powvsez	f6, f1, #5.0
    1bc8:	69616d00 	stmdbvs	r1!, {r8, sl, fp, sp, lr}^
    1bcc:	00632e6e 	rsbeq	r2, r3, lr, ror #28
    1bd0:	504f5453 	subpl	r5, pc, r3, asr r4	; <UNPREDICTABLE>
    1bd4:	00355f31 	eorseq	r5, r5, r1, lsr pc
    1bd8:	61765f5f 	cmnvs	r6, pc, asr pc
    1bdc:	73696c5f 	cmnvc	r9, #24320	; 0x5f00
    1be0:	61750074 	cmnvs	r5, r4, ror r0
    1be4:	705f7472 	subsvc	r7, pc, r2, ror r4	; <UNPREDICTABLE>
    1be8:	00667475 	rsbeq	r7, r6, r5, ror r4
    1bec:	49524150 	ldmdbmi	r2, {r4, r6, r8, lr}^
    1bf0:	455f5954 	ldrbmi	r5, [pc, #-2388]	; 12a4 <_start-0x7fffed5c>
    1bf4:	004e4556 	subeq	r4, lr, r6, asr r5
    1bf8:	574f4c46 	strbpl	r4, [pc, -r6, asr #24]
    1bfc:	46464f5f 			; <UNDEFINED> instruction: 0x46464f5f
    1c00:	4f545300 	svcmi	0x00545300
    1c04:	53003150 	movwpl	r3, #336	; 0x150
    1c08:	32504f54 	subscc	r4, r0, #84, 30	; 0x150
    1c0c:	4f4c4600 	svcmi	0x004c4600
    1c10:	4e4f5f57 	mcrmi	15, 2, r5, cr15, cr7, {2}
    1c14:	74756f00 	ldrbtvc	r6, [r5], #-3840	; 0xfffff100
    1c18:	6e75665f 	mrcvs	6, 3, r6, cr5, cr15, {2}
    1c1c:	00745f63 	rsbseq	r5, r4, r3, ror #30
    1c20:	49524150 	ldmdbmi	r2, {r4, r6, r8, lr}^
    1c24:	4f5f5954 	svcmi	0x005f5954
    1c28:	50004444 	andpl	r4, r0, r4, asr #8
    1c2c:	54495241 	strbpl	r5, [r9], #-577	; 0xfffffdbf
    1c30:	4f4e5f59 	svcmi	0x004e5f59
    1c34:	5f00454e 	svcpl	0x0000454e
    1c38:	0070615f 	rsbseq	r6, r0, pc, asr r1
    1c3c:	32525349 	subscc	r5, r2, #603979777	; 0x24000001
    1c40:	75616200 	strbvc	r6, [r1, #-512]!	; 0xfffffe00
    1c44:	74617264 	strbtvc	r7, [r1], #-612	; 0xfffffd9c
    1c48:	58540065 	ldmdapl	r4, {r0, r2, r5, r6}^
    1c4c:	4f464946 	svcmi	0x00464946
    1c50:	4c564c5f 	mrrcmi	12, 5, r4, r6, cr15
    1c54:	52434100 	subpl	r4, r3, #0, 2
    1c58:	53004745 	movwpl	r4, #1861	; 0x745
    1c5c:	52534c46 	subspl	r4, r3, #17920	; 0x4600
    1c60:	49504700 	ldmdbmi	r0, {r8, r9, sl, lr}^
    1c64:	6e695f4f 	cdpvs	15, 6, cr5, cr9, cr15, {2}
    1c68:	75007469 	strvc	r7, [r0, #-1129]	; 0xfffffb97
    1c6c:	5f747261 	svcpl	0x00747261
    1c70:	736e6f63 	cmnvc	lr, #396	; 0x18c
    1c74:	2e656c6f 	cdpcs	12, 6, cr6, cr5, cr15, {3}
    1c78:	41550063 	cmpmi	r5, r3, rrx
    1c7c:	705f5452 	subsvc	r5, pc, r2, asr r4	; <UNPREDICTABLE>
    1c80:	00437475 	subeq	r7, r3, r5, ror r4
    1c84:	74746573 	ldrbtvc	r6, [r4], #-1395	; 0xfffffa8d
    1c88:	00676e69 	rsbeq	r6, r7, r9, ror #28
    1c8c:	616f6c66 	cmnvs	pc, r6, ror #24
    1c90:	61550074 	cmpvs	r5, r4, ror r0
    1c94:	5f307472 	svcpl	0x00307472
    1c98:	65736552 	ldrbvs	r6, [r3, #-1362]!	; 0xfffffaae
    1c9c:	41550074 	cmpmi	r5, r4, ror r0
    1ca0:	675f5452 			; <UNDEFINED> instruction: 0x675f5452
    1ca4:	74537465 	ldrbvc	r7, [r3], #-1125	; 0xfffffb9b
    1ca8:	676e6972 			; <UNDEFINED> instruction: 0x676e6972
    1cac:	53595300 	cmppl	r9, #0, 6
    1cb0:	58540043 	ldmdapl	r4, {r0, r1, r6}^
    1cb4:	00484c46 	subeq	r4, r8, r6, asr #24
    1cb8:	4c465854 	mcrrmi	8, 5, r5, r6, cr4
    1cbc:	5953004c 	ldmdbpl	r3, {r2, r3, r6}^
    1cc0:	69005353 	stmdbvs	r0, {r0, r1, r4, r6, r8, r9, ip, lr}
    1cc4:	6964746e 	stmdbvs	r4!, {r1, r2, r3, r5, r6, sl, ip, sp, lr}^
    1cc8:	46430076 			; <UNDEFINED> instruction: 0x46430076
    1ccc:	4d005350 	stcmi	3, cr5, [r0, #-320]	; 0xfffffec0
    1cd0:	00315244 	eorseq	r5, r1, r4, asr #4
    1cd4:	3252444d 	subscc	r4, r2, #1291845632	; 0x4d000000
    1cd8:	52444d00 	subpl	r4, r4, #0, 26
    1cdc:	69750033 	ldmdbvs	r5!, {r0, r1, r4, r5}^
    1ce0:	5f38746e 	svcpl	0x0038746e
    1ce4:	45490074 	strbmi	r0, [r9, #-116]	; 0xffffff8c
    1ce8:	54003252 	strpl	r3, [r0], #-594	; 0xfffffdae
    1cec:	414d4458 	cmpmi	sp, r8, asr r4
    1cf0:	45524600 	ldrbmi	r4, [r2, #-1536]	; 0xfffffa00
    1cf4:	45535f51 	ldrbmi	r5, [r3, #-3921]	; 0xfffff0af
    1cf8:	4245004c 	submi	r0, r5, #76	; 0x4c
    1cfc:	5200524c 	andpl	r5, r0, #76, 4	; 0xc0000004
    1d00:	46494658 			; <UNDEFINED> instruction: 0x46494658
    1d04:	564c5f4f 	strbpl	r5, [ip], -pc, asr #30
    1d08:	4155004c 	cmpmi	r5, ip, asr #32
    1d0c:	705f5452 	subsvc	r5, pc, r2, asr r4	; <UNPREDICTABLE>
    1d10:	74537475 	ldrbvc	r7, [r3], #-1141	; 0xfffffb8b
    1d14:	676e6972 			; <UNDEFINED> instruction: 0x676e6972
    1d18:	52415500 	subpl	r5, r1, #0, 10
    1d1c:	65675f54 	strbvs	r5, [r7, #-3924]!	; 0xfffff0ac
    1d20:	70004374 	andvc	r4, r0, r4, ror r3
    1d24:	74697261 	strbtvc	r7, [r9], #-609	; 0xfffffd9f
    1d28:	54530079 	ldrbpl	r0, [r3], #-121	; 0xffffff87
    1d2c:	425f504f 	subsmi	r5, pc, #79	; 0x4f
    1d30:	745f5449 	ldrbvc	r5, [pc], #-1097	; 1d38 <_start-0x7fffe2c8>
    1d34:	6e656c00 	cdpvs	12, 6, cr6, cr5, cr0, {0}
    1d38:	00687467 	rsbeq	r7, r8, r7, ror #8
    1d3c:	54524155 	ldrbpl	r4, [r2], #-341	; 0xfffffeab
    1d40:	696e695f 	stmdbvs	lr!, {r0, r1, r2, r3, r4, r6, r8, fp, sp, lr}^
    1d44:	46530074 			; <UNDEFINED> instruction: 0x46530074
    1d48:	48474552 	stmdami	r7, {r1, r4, r6, r8, sl, lr}^
    1d4c:	52465300 	subpl	r5, r6, #0, 6
    1d50:	004c4745 	subeq	r4, ip, r5, asr #14
    1d54:	55534552 	ldrbpl	r4, [r3, #-1362]	; 0xfffffaae
    1d58:	6600454d 	strvs	r4, [r0], -sp, asr #10
    1d5c:	43776f6c 	cmnmi	r7, #108, 30	; 0x1b0
    1d60:	72746e6f 	rsbsvc	r6, r4, #1776	; 0x6f0
    1d64:	46006c6f 	strmi	r6, [r0], -pc, ror #24
    1d68:	5f574f4c 	svcpl	0x00574f4c
    1d6c:	74730074 	ldrbtvc	r0, [r3], #-116	; 0xffffff8c
    1d70:	6942706f 	stmdbvs	r2, {r0, r1, r2, r3, r5, r6, ip, sp, lr}^
    1d74:	41500074 	cmpmi	r0, r4, ror r0
    1d78:	59544952 	ldmdbpl	r4, {r1, r4, r6, r8, fp, lr}^
    1d7c:	5449425f 	strbpl	r4, [r9], #-607	; 0xfffffda1
    1d80:	5200745f 	andpl	r7, r0, #1593835520	; 0x5f000000
    1d84:	484c4658 	stmdami	ip, {r3, r4, r6, r9, sl, lr}^
    1d88:	46585200 	ldrbmi	r5, [r8], -r0, lsl #4
    1d8c:	66004c4c 	strvs	r4, [r0], -ip, asr #24
    1d90:	646e756f 	strbtvs	r7, [lr], #-1391	; 0xfffffa91
    1d94:	72616c5f 	rsbvc	r6, r1, #24320	; 0x5f00
    1d98:	74736567 	ldrbtvc	r6, [r3], #-1383	; 0xfffffa99
    1d9c:	6769645f 			; <UNDEFINED> instruction: 0x6769645f
    1da0:	2e007469 	cdpcs	4, 0, cr7, cr0, cr9, {3}
    1da4:	6372732f 	cmnvs	r2, #-1140850688	; 0xbc000000
    1da8:	6972702f 	ldmdbvs	r2!, {r0, r1, r2, r3, r5, ip, sp, lr}^
    1dac:	2e6b746e 	cdpcs	4, 6, cr7, cr11, cr14, {3}
    1db0:	705f0063 	subsvc	r0, pc, r3, rrx
    1db4:	746e6972 	strbtvc	r6, [lr], #-2418	; 0xfffff68e
    1db8:	65645f6b 	strbvs	r5, [r4, #-3947]!	; 0xfffff095
    1dbc:	6c755f63 	ldclvs	15, cr5, [r5], #-396	; 0xfffffe74
    1dc0:	00676e6f 	rsbeq	r6, r7, pc, ror #28
    1dc4:	676e6f6c 	strbvs	r6, [lr, -ip, ror #30]!
    1dc8:	736e7520 	cmnvc	lr, #32, 10	; 0x8000000
    1dcc:	656e6769 	strbvs	r6, [lr, #-1897]!	; 0xfffff897
    1dd0:	6e692064 	cdpvs	0, 6, cr2, cr9, cr4, {3}
    1dd4:	65720074 	ldrbvs	r0, [r2, #-116]!	; 0xffffff8c
    1dd8:	6e69616d 	powvsez	f6, f1, #5.0
    1ddc:	00726564 	rsbseq	r6, r2, r4, ror #10
    1de0:	7270765f 	rsbsvc	r7, r0, #99614720	; 0x5f00000
    1de4:	6b746e69 	blvs	1d1d790 <_start-0x7e2e2870>
    1de8:	6e696d00 	cdpvs	13, 6, cr6, cr9, cr0, {0}
    1dec:	6469775f 	strbtvs	r7, [r9], #-1887	; 0xfffff8a1
    1df0:	70006874 	andvc	r6, r0, r4, ror r8
    1df4:	7a5f6461 	bvc	17daf80 <_start-0x7e825080>
    1df8:	006f7265 	rsbeq	r7, pc, r5, ror #4
    1dfc:	6972705f 	ldmdbvs	r2!, {r0, r1, r2, r3, r4, r6, ip, sp, lr}^
    1e00:	5f6b746e 	svcpl	0x006b746e
    1e04:	5f786568 	svcpl	0x00786568
    1e08:	6e6f6c75 	mcrvs	12, 3, r6, cr15, cr5, {3}
    1e0c:	74730067 	ldrbtvc	r0, [r3], #-103	; 0xffffff99
    1e10:	5f6c6c69 	svcpl	0x006c6c69
    1e14:	6867696d 	stmdavs	r7!, {r0, r2, r3, r5, r6, r8, fp, sp, lr}^
    1e18:	6f665f74 	svcvs	0x00665f74
    1e1c:	74616d72 	strbtvc	r6, [r1], #-3442	; 0xfffff28e
    1e20:	6e6f6c00 	cdpvs	12, 6, cr6, cr15, cr0, {0}
    1e24:	6e692067 	cdpvs	0, 6, cr2, cr9, cr7, {3}
    1e28:	69730074 	ldmdbvs	r3!, {r2, r4, r5, r6}^
    1e2c:	2f00657a 	svccs	0x0000657a
    1e30:	656d6f68 	strbvs	r6, [sp, #-3944]!	; 0xfffff098
    1e34:	6168732f 	cmnvs	r8, pc, lsr #6
    1e38:	2f696873 	svccs	0x00696873
    1e3c:	6b726f77 	blvs	1c9dc20 <_start-0x7e3623e0>
    1e40:	63617073 	cmnvs	r1, #115	; 0x73
    1e44:	68732f65 	ldmdavs	r3!, {r0, r2, r5, r6, r8, r9, sl, fp, sp}^
    1e48:	69687361 	stmdbvs	r8!, {r0, r5, r6, r8, r9, ip, sp, lr}^
    1e4c:	6165422f 	cmnvs	r5, pc, lsr #4
    1e50:	42656c67 	rsbmi	r6, r5, #26368	; 0x6700
    1e54:	42656e6f 	rsbmi	r6, r5, #1776	; 0x6f0
    1e58:	6b63616c 	blvs	18da410 <_start-0x7e725bf0>
    1e5c:	6e696d2f 	cdpvs	13, 6, cr6, cr9, cr15, {1}
    1e60:	6c756d69 	ldclvs	13, cr6, [r5], #-420	; 0xfffffe5c
    1e64:	6c5f635f 	mrrcvs	3, 5, r6, pc, cr15	; <UNPREDICTABLE>
    1e68:	6d2f6269 	sfmvs	f6, 4, [pc, #-420]!	; 1ccc <_start-0x7fffe334>
    1e6c:	00637369 	rsbeq	r7, r3, r9, ror #6
    1e70:	6262696e 	rsbvs	r6, r2, #1802240	; 0x1b8000
    1e74:	7200656c 	andvc	r6, r0, #108, 10	; 0x1b000000
    1e78:	69616d65 	stmdbvs	r1!, {r0, r2, r5, r6, r8, sl, fp, sp, lr}^
    1e7c:	676e696e 	strbvs	r6, [lr, -lr, ror #18]!
    1e80:	72747300 	rsbsvc	r7, r4, #0, 6
    1e84:	00797063 	rsbseq	r7, r9, r3, rrx
    1e88:	63727473 	cmnvs	r2, #1929379840	; 0x73000000
    1e8c:	6d007268 	sfmvs	f7, 4, [r0, #-416]	; 0xfffffe60
    1e90:	6d636d65 	stclvs	13, cr6, [r3, #-404]!	; 0xfffffe6c
    1e94:	2f2e0070 	svccs	0x002e0070
    1e98:	2f637273 	svccs	0x00637273
    1e9c:	69727473 	ldmdbvs	r2!, {r0, r1, r4, r5, r6, sl, ip, sp, lr}^
    1ea0:	632e676e 			; <UNDEFINED> instruction: 0x632e676e
    1ea4:	72747300 	rsbsvc	r7, r4, #0, 6
    1ea8:	7970636e 	ldmdbvc	r0!, {r1, r2, r3, r5, r6, r8, r9, sp, lr}^
    1eac:	72747300 	rsbsvc	r7, r4, #0, 6
    1eb0:	00746163 	rsbseq	r6, r4, r3, ror #2
    1eb4:	63727473 	cmnvs	r2, #1929379840	; 0x73000000
    1eb8:	7300706d 	movwvc	r7, #109	; 0x6d
    1ebc:	63727274 	cmnvs	r2, #116, 4	; 0x40000007
    1ec0:	73007268 	movwvc	r7, #616	; 0x268
    1ec4:	656c7274 	strbvs	r7, [ip, #-628]!	; 0xfffffd8c
    1ec8:	682f006e 	stmdavs	pc!, {r1, r2, r3, r5, r6}	; <UNPREDICTABLE>
    1ecc:	2f656d6f 	svccs	0x00656d6f
    1ed0:	73616873 	cmnvc	r1, #7536640	; 0x730000
    1ed4:	772f6968 	strvc	r6, [pc, -r8, ror #18]!
    1ed8:	736b726f 	cmnvc	fp, #-268435450	; 0xf0000006
    1edc:	65636170 	strbvs	r6, [r3, #-368]!	; 0xfffffe90
    1ee0:	6168732f 	cmnvs	r8, pc, lsr #6
    1ee4:	2f696873 	svccs	0x00696873
    1ee8:	67616542 	strbvs	r6, [r1, -r2, asr #10]!
    1eec:	6f42656c 	svcvs	0x0042656c
    1ef0:	6c42656e 	cfstr64vs	mvdx6, [r2], {110}	; 0x6e
    1ef4:	2f6b6361 	svccs	0x006b6361
    1ef8:	696e696d 	stmdbvs	lr!, {r0, r2, r3, r5, r6, r8, fp, sp, lr}^
    1efc:	5f6c756d 	svcpl	0x006c756d
    1f00:	696c5f63 	stmdbvs	ip!, {r0, r1, r5, r6, r8, r9, sl, fp, ip, lr}^
    1f04:	74732f62 	ldrbtvc	r2, [r3], #-3938	; 0xfffff09e
    1f08:	676e6972 			; <UNDEFINED> instruction: 0x676e6972
    1f0c:	72747300 	rsbsvc	r7, r4, #0, 6
    1f10:	7461636e 	strbtvc	r6, [r1], #-878	; 0xfffffc92
    1f14:	72747300 	rsbsvc	r7, r4, #0, 6
    1f18:	706d636e 	rsbvc	r6, sp, lr, ror #6
	...

Disassembly of section .debug_frame:

00000000 <.debug_frame>:
   0:	0000000c 	andeq	r0, r0, ip
   4:	ffffffff 			; <UNDEFINED> instruction: 0xffffffff
   8:	7c020001 	stcvc	0, cr0, [r2], {1}
   c:	000d0c0e 	andeq	r0, sp, lr, lsl #24
  10:	0000001c 	andeq	r0, r0, ip, lsl r0
  14:	00000000 	andeq	r0, r0, r0
  18:	8000003c 	andhi	r0, r0, ip, lsr r0
  1c:	0000006c 	andeq	r0, r0, ip, rrx
  20:	8b040e42 	blhi	103930 <_start-0x7fefc6d0>
  24:	0b0d4201 	bleq	350830 <_start-0x7fcaf7d0>
  28:	420d0d6e 	andmi	r0, sp, #7040	; 0x1b80
  2c:	00000ecb 	andeq	r0, r0, fp, asr #29
  30:	0000000c 	andeq	r0, r0, ip
  34:	ffffffff 			; <UNDEFINED> instruction: 0xffffffff
  38:	7c020001 	stcvc	0, cr0, [r2], {1}
  3c:	000d0c0e 	andeq	r0, sp, lr, lsl #24
  40:	0000001c 	andeq	r0, r0, ip, lsl r0
  44:	00000030 	andeq	r0, r0, r0, lsr r0
  48:	800000a8 	andhi	r0, r0, r8, lsr #1
  4c:	00000044 	andeq	r0, r0, r4, asr #32
  50:	8b040e42 	blhi	103960 <_start-0x7fefc6a0>
  54:	0b0d4201 	bleq	350860 <_start-0x7fcaf7a0>
  58:	420d0d5a 	andmi	r0, sp, #5760	; 0x1680
  5c:	00000ecb 	andeq	r0, r0, fp, asr #29
  60:	0000001c 	andeq	r0, r0, ip, lsl r0
  64:	00000030 	andeq	r0, r0, r0, lsr r0
  68:	800000ec 	andhi	r0, r0, ip, ror #1
  6c:	00000038 	andeq	r0, r0, r8, lsr r0
  70:	8b040e42 	blhi	103980 <_start-0x7fefc680>
  74:	0b0d4201 	bleq	350880 <_start-0x7fcaf780>
  78:	420d0d54 	andmi	r0, sp, #84, 26	; 0x1500
  7c:	00000ecb 	andeq	r0, r0, fp, asr #29
  80:	0000001c 	andeq	r0, r0, ip, lsl r0
  84:	00000030 	andeq	r0, r0, r0, lsr r0
  88:	80000124 	andhi	r0, r0, r4, lsr #2
  8c:	000000d8 	ldrdeq	r0, [r0], -r8
  90:	8b080e42 	blhi	2039a0 <_start-0x7fdfc660>
  94:	42018e02 	andmi	r8, r1, #2, 28
  98:	02040b0c 	andeq	r0, r4, #12, 22	; 0x3000
  9c:	080d0c66 	stmdaeq	sp, {r1, r2, r5, r6, sl, fp}
  a0:	0000000c 	andeq	r0, r0, ip
  a4:	ffffffff 			; <UNDEFINED> instruction: 0xffffffff
  a8:	7c020001 	stcvc	0, cr0, [r2], {1}
  ac:	000d0c0e 	andeq	r0, sp, lr, lsl #24
  b0:	0000001c 	andeq	r0, r0, ip, lsl r0
  b4:	000000a0 	andeq	r0, r0, r0, lsr #1
  b8:	800001fc 	strdhi	r0, [r0], -ip
  bc:	00000040 	andeq	r0, r0, r0, asr #32
  c0:	8b040e42 	blhi	1039d0 <_start-0x7fefc630>
  c4:	0b0d4201 	bleq	3508d0 <_start-0x7fcaf730>
  c8:	420d0d58 	andmi	r0, sp, #88, 26	; 0x1600
  cc:	00000ecb 	andeq	r0, r0, fp, asr #29
  d0:	0000001c 	andeq	r0, r0, ip, lsl r0
  d4:	000000a0 	andeq	r0, r0, r0, lsr #1
  d8:	8000023c 	andhi	r0, r0, ip, lsr r2
  dc:	00000034 	andeq	r0, r0, r4, lsr r0
  e0:	8b040e42 	blhi	1039f0 <_start-0x7fefc610>
  e4:	0b0d4201 	bleq	3508f0 <_start-0x7fcaf710>
  e8:	420d0d52 	andmi	r0, sp, #5248	; 0x1480
  ec:	00000ecb 	andeq	r0, r0, fp, asr #29
  f0:	0000001c 	andeq	r0, r0, ip, lsl r0
  f4:	000000a0 	andeq	r0, r0, r0, lsr #1
  f8:	80000270 	andhi	r0, r0, r0, ror r2
  fc:	0000005c 	andeq	r0, r0, ip, asr r0
 100:	8b080e42 	blhi	203a10 <_start-0x7fdfc5f0>
 104:	42018e02 	andmi	r8, r1, #2, 28
 108:	68040b0c 	stmdavs	r4, {r2, r3, r8, r9, fp}
 10c:	00080d0c 	andeq	r0, r8, ip, lsl #26
 110:	00000018 	andeq	r0, r0, r8, lsl r0
 114:	000000a0 	andeq	r0, r0, r0, lsr #1
 118:	800002cc 	andhi	r0, r0, ip, asr #5
 11c:	00000028 	andeq	r0, r0, r8, lsr #32
 120:	8b080e42 	blhi	203a30 <_start-0x7fdfc5d0>
 124:	42018e02 	andmi	r8, r1, #2, 28
 128:	00040b0c 	andeq	r0, r4, ip, lsl #22
 12c:	0000000c 	andeq	r0, r0, ip
 130:	ffffffff 			; <UNDEFINED> instruction: 0xffffffff
 134:	7c020001 	stcvc	0, cr0, [r2], {1}
 138:	000d0c0e 	andeq	r0, sp, lr, lsl #24
 13c:	0000001c 	andeq	r0, r0, ip, lsl r0
 140:	0000012c 	andeq	r0, r0, ip, lsr #2
 144:	800002f4 	strdhi	r0, [r0], -r4
 148:	00000084 	andeq	r0, r0, r4, lsl #1
 14c:	8b040e42 	blhi	103a5c <_start-0x7fefc5a4>
 150:	0b0d4201 	bleq	35095c <_start-0x7fcaf6a4>
 154:	420d0d7a 	andmi	r0, sp, #7808	; 0x1e80
 158:	00000ecb 	andeq	r0, r0, fp, asr #29
 15c:	0000001c 	andeq	r0, r0, ip, lsl r0
 160:	0000012c 	andeq	r0, r0, ip, lsr #2
 164:	80000378 	andhi	r0, r0, r8, ror r3
 168:	00000060 	andeq	r0, r0, r0, rrx
 16c:	8b040e42 	blhi	103a7c <_start-0x7fefc584>
 170:	0b0d4201 	bleq	35097c <_start-0x7fcaf684>
 174:	420d0d68 	andmi	r0, sp, #104, 26	; 0x1a00
 178:	00000ecb 	andeq	r0, r0, fp, asr #29
 17c:	0000000c 	andeq	r0, r0, ip
 180:	ffffffff 			; <UNDEFINED> instruction: 0xffffffff
 184:	7c020001 	stcvc	0, cr0, [r2], {1}
 188:	000d0c0e 	andeq	r0, sp, lr, lsl #24
 18c:	00000034 	andeq	r0, r0, r4, lsr r0
 190:	0000017c 	andeq	r0, r0, ip, ror r1
 194:	800003d8 	ldrdhi	r0, [r0], -r8
 198:	00000048 	andeq	r0, r0, r8, asr #32
 19c:	80100e42 	andshi	r0, r0, r2, asr #28
 1a0:	82038104 	andhi	r8, r3, #4, 2
 1a4:	42018302 	andmi	r8, r1, #134217728	; 0x8000000
 1a8:	068b180e 	streq	r1, [fp], lr, lsl #16
 1ac:	0c42058e 	cfstr64eq	mvdx0, [r2], {142}	; 0x8e
 1b0:	0c58140b 	cfldrdeq	mvd1, [r8], {11}
 1b4:	ce42180d 	cdpgt	8, 4, cr1, cr2, cr13, {0}
 1b8:	42100ecb 	andsmi	r0, r0, #3248	; 0xcb0
 1bc:	c0c1c2c3 	sbcgt	ip, r1, r3, asr #5
 1c0:	0000000e 	andeq	r0, r0, lr
 1c4:	00000018 	andeq	r0, r0, r8, lsl r0
 1c8:	0000017c 	andeq	r0, r0, ip, ror r1
 1cc:	80000420 	andhi	r0, r0, r0, lsr #8
 1d0:	000000b8 	strheq	r0, [r0], -r8
 1d4:	8b080e42 	blhi	203ae4 <_start-0x7fdfc51c>
 1d8:	42018e02 	andmi	r8, r1, #2, 28
 1dc:	00040b0c 	andeq	r0, r4, ip, lsl #22
 1e0:	0000000c 	andeq	r0, r0, ip
 1e4:	ffffffff 			; <UNDEFINED> instruction: 0xffffffff
 1e8:	7c020001 	stcvc	0, cr0, [r2], {1}
 1ec:	000d0c0e 	andeq	r0, sp, lr, lsl #24
 1f0:	0000001c 	andeq	r0, r0, ip, lsl r0
 1f4:	000001e0 	andeq	r0, r0, r0, ror #3
 1f8:	800004d8 	ldrdhi	r0, [r0], -r8
 1fc:	0000005c 	andeq	r0, r0, ip, asr r0
 200:	8b080e42 	blhi	203b10 <_start-0x7fdfc4f0>
 204:	42018e02 	andmi	r8, r1, #2, 28
 208:	68040b0c 	stmdavs	r4, {r2, r3, r8, r9, fp}
 20c:	00080d0c 	andeq	r0, r8, ip, lsl #26
 210:	0000001c 	andeq	r0, r0, ip, lsl r0
 214:	000001e0 	andeq	r0, r0, r0, ror #3
 218:	80000534 	andhi	r0, r0, r4, lsr r5
 21c:	000001fc 	strdeq	r0, [r0], -ip
 220:	8b040e42 	blhi	103b30 <_start-0x7fefc4d0>
 224:	0b0d4201 	bleq	350a30 <_start-0x7fcaf5d0>
 228:	0d0df202 	sfmeq	f7, 1, [sp, #-8]
 22c:	000ecb42 	andeq	ip, lr, r2, asr #22
 230:	0000001c 	andeq	r0, r0, ip, lsl r0
 234:	000001e0 	andeq	r0, r0, r0, ror #3
 238:	80000730 	andhi	r0, r0, r0, lsr r7
 23c:	00000050 	andeq	r0, r0, r0, asr r0
 240:	8b080e42 	blhi	203b50 <_start-0x7fdfc4b0>
 244:	42018e02 	andmi	r8, r1, #2, 28
 248:	62040b0c 	andvs	r0, r4, #12, 22	; 0x3000
 24c:	00080d0c 	andeq	r0, r8, ip, lsl #26
 250:	0000001c 	andeq	r0, r0, ip, lsl r0
 254:	000001e0 	andeq	r0, r0, r0, ror #3
 258:	80000780 	andhi	r0, r0, r0, lsl #15
 25c:	00000064 	andeq	r0, r0, r4, rrx
 260:	8b080e42 	blhi	203b70 <_start-0x7fdfc490>
 264:	42018e02 	andmi	r8, r1, #2, 28
 268:	6c040b0c 			; <UNDEFINED> instruction: 0x6c040b0c
 26c:	00080d0c 	andeq	r0, r8, ip, lsl #26
 270:	0000001c 	andeq	r0, r0, ip, lsl r0
 274:	000001e0 	andeq	r0, r0, r0, ror #3
 278:	800007e4 	andhi	r0, r0, r4, ror #15
 27c:	00000048 	andeq	r0, r0, r8, asr #32
 280:	8b040e42 	blhi	103b90 <_start-0x7fefc470>
 284:	0b0d4201 	bleq	350a90 <_start-0x7fcaf570>
 288:	420d0d5c 	andmi	r0, sp, #92, 26	; 0x1700
 28c:	00000ecb 	andeq	r0, r0, fp, asr #29
 290:	0000001c 	andeq	r0, r0, ip, lsl r0
 294:	000001e0 	andeq	r0, r0, r0, ror #3
 298:	8000082c 	andhi	r0, r0, ip, lsr #16
 29c:	0000006c 	andeq	r0, r0, ip, rrx
 2a0:	8b080e42 	blhi	203bb0 <_start-0x7fdfc450>
 2a4:	42018e02 	andmi	r8, r1, #2, 28
 2a8:	70040b0c 	andvc	r0, r4, ip, lsl #22
 2ac:	00080d0c 	andeq	r0, r8, ip, lsl #26
 2b0:	00000020 	andeq	r0, r0, r0, lsr #32
 2b4:	000001e0 	andeq	r0, r0, r0, ror #3
 2b8:	80000898 	mulhi	r0, r8, r8
 2bc:	0000006c 	andeq	r0, r0, ip, rrx
 2c0:	840c0e42 	strhi	r0, [ip], #-3650	; 0xfffff1be
 2c4:	8e028b03 	vmlahi.f64	d8, d2, d3
 2c8:	0b0c4201 	bleq	310ad4 <_start-0x7fcef52c>
 2cc:	0d0c7004 	stceq	0, cr7, [ip, #-16]
 2d0:	0000000c 	andeq	r0, r0, ip
 2d4:	0000000c 	andeq	r0, r0, ip
 2d8:	ffffffff 			; <UNDEFINED> instruction: 0xffffffff
 2dc:	7c020001 	stcvc	0, cr0, [r2], {1}
 2e0:	000d0c0e 	andeq	r0, sp, lr, lsl #24
 2e4:	0000001c 	andeq	r0, r0, ip, lsl r0
 2e8:	000002d4 	ldrdeq	r0, [r0], -r4
 2ec:	80000904 	andhi	r0, r0, r4, lsl #18
 2f0:	00000164 	andeq	r0, r0, r4, ror #2
 2f4:	8b080e42 	blhi	203c04 <_start-0x7fdfc3fc>
 2f8:	42018e02 	andmi	r8, r1, #2, 28
 2fc:	02040b0c 	andeq	r0, r4, #12, 22	; 0x3000
 300:	080d0cac 	stmdaeq	sp, {r2, r3, r5, r7, sl, fp}
 304:	0000001c 	andeq	r0, r0, ip, lsl r0
 308:	000002d4 	ldrdeq	r0, [r0], -r4
 30c:	80000a68 	andhi	r0, r0, r8, ror #20
 310:	0000011c 	andeq	r0, r0, ip, lsl r1
 314:	8b080e42 	blhi	203c24 <_start-0x7fdfc3dc>
 318:	42018e02 	andmi	r8, r1, #2, 28
 31c:	02040b0c 	andeq	r0, r4, #12, 22	; 0x3000
 320:	080d0c88 	stmdaeq	sp, {r3, r7, sl, fp}
 324:	00000020 	andeq	r0, r0, r0, lsr #32
 328:	000002d4 	ldrdeq	r0, [r0], -r4
 32c:	80000b84 	andhi	r0, r0, r4, lsl #23
 330:	00000418 	andeq	r0, r0, r8, lsl r4
 334:	8b080e42 	blhi	203c44 <_start-0x7fdfc3bc>
 338:	42018e02 	andmi	r8, r1, #2, 28
 33c:	03040b0c 	movweq	r0, #19212	; 0x4b0c
 340:	0d0c0206 	sfmeq	f0, 4, [ip, #-24]	; 0xffffffe8
 344:	00000008 	andeq	r0, r0, r8
 348:	0000000c 	andeq	r0, r0, ip
 34c:	ffffffff 			; <UNDEFINED> instruction: 0xffffffff
 350:	7c020001 	stcvc	0, cr0, [r2], {1}
 354:	000d0c0e 	andeq	r0, sp, lr, lsl #24
 358:	0000001c 	andeq	r0, r0, ip, lsl r0
 35c:	00000348 	andeq	r0, r0, r8, asr #6
 360:	80000f9c 	mulhi	r0, ip, pc	; <UNPREDICTABLE>
 364:	000000a4 	andeq	r0, r0, r4, lsr #1
 368:	8b040e42 	blhi	103c78 <_start-0x7fefc388>
 36c:	0b0d4201 	bleq	350b78 <_start-0x7fcaf488>
 370:	0d0d4a02 	vstreq	s8, [sp, #-8]
 374:	000ecb42 	andeq	ip, lr, r2, asr #22
 378:	0000001c 	andeq	r0, r0, ip, lsl r0
 37c:	00000348 	andeq	r0, r0, r8, asr #6
 380:	80001040 	andhi	r1, r0, r0, asr #32
 384:	00000054 	andeq	r0, r0, r4, asr r0
 388:	8b040e42 	blhi	103c98 <_start-0x7fefc368>
 38c:	0b0d4201 	bleq	350b98 <_start-0x7fcaf468>
 390:	420d0d62 	andmi	r0, sp, #6272	; 0x1880
 394:	00000ecb 	andeq	r0, r0, fp, asr #29
 398:	0000001c 	andeq	r0, r0, ip, lsl r0
 39c:	00000348 	andeq	r0, r0, r8, asr #6
 3a0:	80001094 	mulhi	r0, r4, r0
 3a4:	00000060 	andeq	r0, r0, r0, rrx
 3a8:	8b040e42 	blhi	103cb8 <_start-0x7fefc348>
 3ac:	0b0d4201 	bleq	350bb8 <_start-0x7fcaf448>
 3b0:	420d0d68 	andmi	r0, sp, #104, 26	; 0x1a00
 3b4:	00000ecb 	andeq	r0, r0, fp, asr #29
 3b8:	0000001c 	andeq	r0, r0, ip, lsl r0
 3bc:	00000348 	andeq	r0, r0, r8, asr #6
 3c0:	800010f4 	strdhi	r1, [r0], -r4
 3c4:	000000a8 	andeq	r0, r0, r8, lsr #1
 3c8:	8b040e42 	blhi	103cd8 <_start-0x7fefc328>
 3cc:	0b0d4201 	bleq	350bd8 <_start-0x7fcaf428>
 3d0:	0d0d4c02 	stceq	12, cr4, [sp, #-8]
 3d4:	000ecb42 	andeq	ip, lr, r2, asr #22
 3d8:	0000001c 	andeq	r0, r0, ip, lsl r0
 3dc:	00000348 	andeq	r0, r0, r8, asr #6
 3e0:	8000119c 	mulhi	r0, ip, r1
 3e4:	0000006c 	andeq	r0, r0, ip, rrx
 3e8:	8b080e42 	blhi	203cf8 <_start-0x7fdfc308>
 3ec:	42018e02 	andmi	r8, r1, #2, 28
 3f0:	70040b0c 	andvc	r0, r4, ip, lsl #22
 3f4:	00080d0c 	andeq	r0, r8, ip, lsl #26
 3f8:	0000001c 	andeq	r0, r0, ip, lsl r0
 3fc:	00000348 	andeq	r0, r0, r8, asr #6
 400:	80001208 	andhi	r1, r0, r8, lsl #4
 404:	000000c0 	andeq	r0, r0, r0, asr #1
 408:	8b080e42 	blhi	203d18 <_start-0x7fdfc2e8>
 40c:	42018e02 	andmi	r8, r1, #2, 28
 410:	02040b0c 	andeq	r0, r4, #12, 22	; 0x3000
 414:	080d0c5a 	stmdaeq	sp, {r1, r3, r4, r6, sl, fp}
 418:	0000001c 	andeq	r0, r0, ip, lsl r0
 41c:	00000348 	andeq	r0, r0, r8, asr #6
 420:	800012c8 	andhi	r1, r0, r8, asr #5
 424:	00000098 	muleq	r0, r8, r0
 428:	8b040e42 	blhi	103d38 <_start-0x7fefc2c8>
 42c:	0b0d4201 	bleq	350c38 <_start-0x7fcaf3c8>
 430:	0d0d4402 	cfstrseq	mvf4, [sp, #-8]
 434:	000ecb42 	andeq	ip, lr, r2, asr #22
 438:	0000001c 	andeq	r0, r0, ip, lsl r0
 43c:	00000348 	andeq	r0, r0, r8, asr #6
 440:	80001360 	andhi	r1, r0, r0, ror #6
 444:	000000b4 	strheq	r0, [r0], -r4
 448:	8b040e42 	blhi	103d58 <_start-0x7fefc2a8>
 44c:	0b0d4201 	bleq	350c58 <_start-0x7fcaf3a8>
 450:	0d0d5202 	sfmeq	f5, 4, [sp, #-8]
 454:	000ecb42 	andeq	ip, lr, r2, asr #22
 458:	0000001c 	andeq	r0, r0, ip, lsl r0
 45c:	00000348 	andeq	r0, r0, r8, asr #6
 460:	80001414 	andhi	r1, r0, r4, lsl r4
 464:	0000007c 	andeq	r0, r0, ip, ror r0
 468:	8b040e42 	blhi	103d78 <_start-0x7fefc288>
 46c:	0b0d4201 	bleq	350c78 <_start-0x7fcaf388>
 470:	420d0d76 	andmi	r0, sp, #7552	; 0x1d80
 474:	00000ecb 	andeq	r0, r0, fp, asr #29
 478:	0000001c 	andeq	r0, r0, ip, lsl r0
 47c:	00000348 	andeq	r0, r0, r8, asr #6
 480:	80001490 	mulhi	r0, r0, r4
 484:	00000074 	andeq	r0, r0, r4, ror r0
 488:	8b040e42 	blhi	103d98 <_start-0x7fefc268>
 48c:	0b0d4201 	bleq	350c98 <_start-0x7fcaf368>
 490:	420d0d72 	andmi	r0, sp, #7296	; 0x1c80
 494:	00000ecb 	andeq	r0, r0, fp, asr #29
