
obj/main.elf:     file format elf32-littlearm


Disassembly of section .text:

80000000 <_start>:
80000000:	e10f0000 	mrs	r0, CPSR
80000004:	e3c0001f 	bic	r0, r0, #31
80000008:	e3800013 	orr	r0, r0, #19
8000000c:	e38000c0 	orr	r0, r0, #192	; 0xc0
80000010:	e129f000 	msr	CPSR_fc, r0
80000014:	ee110f50 	mrc	15, 0, r0, cr1, cr0, {2}
80000018:	e380060f 	orr	r0, r0, #15728640	; 0xf00000
8000001c:	ee010f50 	mcr	15, 0, r0, cr1, cr0, {2}
80000020:	f57ff06f 	isb	sy
80000024:	e3a00101 	mov	r0, #1073741824	; 0x40000000
80000028:	eee80a10 	vmsr	fpexc, r0
8000002c:	e59fd004 	ldr	sp, [pc, #4]	; 80000038 <.loop+0x4>
80000030:	eb0000f0 	bl	800003f8 <_main>

80000034 <.loop>:
80000034:	eafffffe 	b	80000034 <.loop>
80000038:	4030cdfc 	ldrshtmi	ip, [r0], -ip

8000003c <LED_init>:
#include "gpio.h"
#include "clock.h"
void LED_init(void)
{
8000003c:	e52db004 	push	{fp}		; (str fp, [sp, #-4]!)
80000040:	e28db000 	add	fp, sp, #0
80000044:	e24dd00c 	sub	sp, sp, #12


	volatile unsigned int ra;

	PUT32(CM_PER_BASE+CM_PER_GPIO1, 1<<18 | 2);
80000048:	e3a030ac 	mov	r3, #172	; 0xac
8000004c:	e34434e0 	movt	r3, #17632	; 0x44e0
80000050:	e3a02002 	mov	r2, #2
80000054:	e3402004 	movt	r2, #4
80000058:	e5832000 	str	r2, [r3]
	ra = GET32(GPIO1_BASE+GPIO_OE);
8000005c:	e30c3134 	movw	r3, #49460	; 0xc134
80000060:	e3443804 	movt	r3, #18436	; 0x4804
80000064:	e5933000 	ldr	r3, [r3]
80000068:	e50b3008 	str	r3, [fp, #-8]
	ra &= ~(1<<21);
8000006c:	e51b3008 	ldr	r3, [fp, #-8]
80000070:	e3c33602 	bic	r3, r3, #2097152	; 0x200000
80000074:	e50b3008 	str	r3, [fp, #-8]
	PUT32(GPIO1_BASE+GPIO_OE, ra);
80000078:	e30c3134 	movw	r3, #49460	; 0xc134
8000007c:	e3443804 	movt	r3, #18436	; 0x4804
80000080:	e51b2008 	ldr	r2, [fp, #-8]
80000084:	e5832000 	str	r2, [r3]

	PUT32(GPIO1_BASE+GPIO_SETDATAOUT, 1<<21);
80000088:	e30c3194 	movw	r3, #49556	; 0xc194
8000008c:	e3443804 	movt	r3, #18436	; 0x4804
80000090:	e3a02602 	mov	r2, #2097152	; 0x200000
80000094:	e5832000 	str	r2, [r3]
}
80000098:	e24bd000 	sub	sp, fp, #0
8000009c:	e49db004 	pop	{fp}		; (ldr fp, [sp], #4)
800000a0:	e12fff1e 	bx	lr

800000a4 <CM_SetClk>:
#include "clock.h"

void CM_SetClk(CLK_MODULE_t module, CM_PER_REG reg, unsigned int value)
{
800000a4:	e52db004 	push	{fp}		; (str fp, [sp, #-4]!)
800000a8:	e28db000 	add	fp, sp, #0
800000ac:	e24dd014 	sub	sp, sp, #20
800000b0:	e50b0008 	str	r0, [fp, #-8]
800000b4:	e1a03001 	mov	r3, r1
800000b8:	e50b2010 	str	r2, [fp, #-16]
800000bc:	e14b30ba 	strh	r3, [fp, #-10]

	PUT32(module+reg, value);
800000c0:	e15b20ba 	ldrh	r2, [fp, #-10]
800000c4:	e51b3008 	ldr	r3, [fp, #-8]
800000c8:	e0823003 	add	r3, r2, r3
800000cc:	e51b2010 	ldr	r2, [fp, #-16]
800000d0:	e5832000 	str	r2, [r3]
}
800000d4:	e24bd000 	sub	sp, fp, #0
800000d8:	e49db004 	pop	{fp}		; (ldr fp, [sp], #4)
800000dc:	e12fff1e 	bx	lr

800000e0 <CM_GetClk>:

unsigned int CM_GetClk(CLK_MODULE_t module, CM_PER_REG reg)
{
800000e0:	e52db004 	push	{fp}		; (str fp, [sp, #-4]!)
800000e4:	e28db000 	add	fp, sp, #0
800000e8:	e24dd00c 	sub	sp, sp, #12
800000ec:	e50b0008 	str	r0, [fp, #-8]
800000f0:	e1a03001 	mov	r3, r1
800000f4:	e14b30ba 	strh	r3, [fp, #-10]
	return GET32(module+reg);
800000f8:	e15b20ba 	ldrh	r2, [fp, #-10]
800000fc:	e51b3008 	ldr	r3, [fp, #-8]
80000100:	e0823003 	add	r3, r2, r3
80000104:	e5933000 	ldr	r3, [r3]
}
80000108:	e1a00003 	mov	r0, r3
8000010c:	e24bd000 	sub	sp, fp, #0
80000110:	e49db004 	pop	{fp}		; (ldr fp, [sp], #4)
80000114:	e12fff1e 	bx	lr

80000118 <Init_UART0_Clk>:

void Init_UART0_Clk()
{
80000118:	e92d4800 	push	{fp, lr}
8000011c:	e28db004 	add	fp, sp, #4
80000120:	e24dd008 	sub	sp, sp, #8

	unsigned int temp;
	 // software-forced wake-up transition on the "always on clock domain", TRM Table 8-92
	temp = CM_GetClk(CM_WKUP, CM_WKUP_CLKSTCTRL);		//This register enables the domain power state transition. It controls the SW supervised clock domain state transition between ON-ACTIVE and ON-INACTIVE states. It also hold one status bit per clock input of the domain
80000124:	e3a00b01 	mov	r0, #1024	; 0x400
80000128:	e34404e0 	movt	r0, #17632	; 0x44e0
8000012c:	e3a01000 	mov	r1, #0
80000130:	ebffffea 	bl	800000e0 <CM_GetClk>
80000134:	e50b0008 	str	r0, [fp, #-8]
	temp &= ~(0x3);
80000138:	e51b3008 	ldr	r3, [fp, #-8]
8000013c:	e3c33003 	bic	r3, r3, #3
80000140:	e50b3008 	str	r3, [fp, #-8]
	temp |= (0x2);
80000144:	e51b3008 	ldr	r3, [fp, #-8]
80000148:	e3833002 	orr	r3, r3, #2
8000014c:	e50b3008 	str	r3, [fp, #-8]
	CM_SetClk(CM_WKUP, CM_WKUP_CLKSTCTRL, temp);		//0x2=SW_WKUP
80000150:	e3a00b01 	mov	r0, #1024	; 0x400
80000154:	e34404e0 	movt	r0, #17632	; 0x44e0
80000158:	e3a01000 	mov	r1, #0
8000015c:	e51b2008 	ldr	r2, [fp, #-8]
80000160:	ebffffcf 	bl	800000a4 <CM_SetClk>

	// software-forced wake up transition on the L4 high speed domain
	temp = CM_GetClk(CM_PER, CM_PER_L4HS_CLKSTCTRL);	//This register enables the domain power state transition. It controls the SW supervised clock domain state transition between ON-ACTIVE and ON-INACTIVE states. It also hold one status bit per clock input of the domain
80000164:	e3a00000 	mov	r0, #0
80000168:	e34404e0 	movt	r0, #17632	; 0x44e0
8000016c:	e3a01f47 	mov	r1, #284	; 0x11c
80000170:	ebffffda 	bl	800000e0 <CM_GetClk>
80000174:	e50b0008 	str	r0, [fp, #-8]
	temp &= ~(0x3);
80000178:	e51b3008 	ldr	r3, [fp, #-8]
8000017c:	e3c33003 	bic	r3, r3, #3
80000180:	e50b3008 	str	r3, [fp, #-8]
	temp |= (0x2);
80000184:	e51b3008 	ldr	r3, [fp, #-8]
80000188:	e3833002 	orr	r3, r3, #2
8000018c:	e50b3008 	str	r3, [fp, #-8]
	CM_SetClk(CM_PER, CM_PER_L4HS_CLKSTCTRL, temp);		//0x2=SW_WKUP
80000190:	e3a00000 	mov	r0, #0
80000194:	e34404e0 	movt	r0, #17632	; 0x44e0
80000198:	e3a01f47 	mov	r1, #284	; 0x11c
8000019c:	e51b2008 	ldr	r2, [fp, #-8]
800001a0:	ebffffbf 	bl	800000a4 <CM_SetClk>

	// Module is explicitly enabled,    TRM Table 8-137
	temp = CM_GetClk(CM_WKUP, CM_WKUP_UART0_CLKCTRL);		//This register enables the domain power state transition. It controls the SW supervised clock domain state transition between ON-ACTIVE and ON-INACTIVE states. It also hold one status bit per clock input of the domain
800001a4:	e3a00b01 	mov	r0, #1024	; 0x400
800001a8:	e34404e0 	movt	r0, #17632	; 0x44e0
800001ac:	e3a010b4 	mov	r1, #180	; 0xb4
800001b0:	ebffffca 	bl	800000e0 <CM_GetClk>
800001b4:	e50b0008 	str	r0, [fp, #-8]
	temp &= ~(0x3);
800001b8:	e51b3008 	ldr	r3, [fp, #-8]
800001bc:	e3c33003 	bic	r3, r3, #3
800001c0:	e50b3008 	str	r3, [fp, #-8]
	temp |= (0x2);
800001c4:	e51b3008 	ldr	r3, [fp, #-8]
800001c8:	e3833002 	orr	r3, r3, #2
800001cc:	e50b3008 	str	r3, [fp, #-8]
	CM_SetClk(CM_WKUP, CM_WKUP_UART0_CLKCTRL, temp);		//0x2=SW_WKUP
800001d0:	e3a00b01 	mov	r0, #1024	; 0x400
800001d4:	e34404e0 	movt	r0, #17632	; 0x44e0
800001d8:	e3a010b4 	mov	r1, #180	; 0xb4
800001dc:	e51b2008 	ldr	r2, [fp, #-8]
800001e0:	ebffffaf 	bl	800000a4 <CM_SetClk>
	temp &= ~(0x3);
	temp |= (0x2);
	CM_SetClk(CM_PER, CM_PER_UART1_CLKCTRL, temp);		//0x2=SW_WKUP
*/   

}
800001e4:	e24bd004 	sub	sp, fp, #4
800001e8:	e8bd8800 	pop	{fp, pc}

800001ec <CM_setCtrlModule>:
#include "control_module.h"

void CM_setCtrlModule(CONTROL_MODULE_REG_t module, unsigned int value)
{
800001ec:	e52db004 	push	{fp}		; (str fp, [sp, #-4]!)
800001f0:	e28db000 	add	fp, sp, #0
800001f4:	e24dd00c 	sub	sp, sp, #12
800001f8:	e1a03000 	mov	r3, r0
800001fc:	e50b100c 	str	r1, [fp, #-12]
80000200:	e14b30b6 	strh	r3, [fp, #-6]

	PUT32(CONTROL_MODULE_REGISTER_BASE + module, value);
80000204:	e15b30b6 	ldrh	r3, [fp, #-6]
80000208:	e2833311 	add	r3, r3, #1140850688	; 0x44000000
8000020c:	e28338e1 	add	r3, r3, #14745600	; 0xe10000
80000210:	e51b200c 	ldr	r2, [fp, #-12]
80000214:	e5832000 	str	r2, [r3]
}
80000218:	e24bd000 	sub	sp, fp, #0
8000021c:	e49db004 	pop	{fp}		; (ldr fp, [sp], #4)
80000220:	e12fff1e 	bx	lr

80000224 <CM_getCtrlModule>:

unsigned int CM_getCtrlModule(CONTROL_MODULE_REG_t module)
{
80000224:	e52db004 	push	{fp}		; (str fp, [sp, #-4]!)
80000228:	e28db000 	add	fp, sp, #0
8000022c:	e24dd00c 	sub	sp, sp, #12
80000230:	e1a03000 	mov	r3, r0
80000234:	e14b30b6 	strh	r3, [fp, #-6]
	return GET32(CONTROL_MODULE_REGISTER_BASE + module);
80000238:	e15b30b6 	ldrh	r3, [fp, #-6]
8000023c:	e2833311 	add	r3, r3, #1140850688	; 0x44000000
80000240:	e28338e1 	add	r3, r3, #14745600	; 0xe10000
80000244:	e5933000 	ldr	r3, [r3]
}
80000248:	e1a00003 	mov	r0, r3
8000024c:	e24bd000 	sub	sp, fp, #0
80000250:	e49db004 	pop	{fp}		; (ldr fp, [sp], #4)
80000254:	e12fff1e 	bx	lr

80000258 <PAD_setMode>:

void PAD_setMode(CONTROL_MODULE_REG_t module, unsigned int mode)
{
80000258:	e92d4800 	push	{fp, lr}
8000025c:	e28db004 	add	fp, sp, #4
80000260:	e24dd010 	sub	sp, sp, #16
80000264:	e1a03000 	mov	r3, r0
80000268:	e50b1014 	str	r1, [fp, #-20]
8000026c:	e14b30be 	strh	r3, [fp, #-14]
	unsigned int temp = CM_getCtrlModule(0);
80000270:	e3a00000 	mov	r0, #0
80000274:	ebffffea 	bl	80000224 <CM_getCtrlModule>
80000278:	e50b0008 	str	r0, [fp, #-8]
	temp &= ~(0b111);    // turn down MUXMODE
8000027c:	e51b3008 	ldr	r3, [fp, #-8]
80000280:	e3c33007 	bic	r3, r3, #7
80000284:	e50b3008 	str	r3, [fp, #-8]
	temp |= mode;        // set new MUXMODE
80000288:	e51b2008 	ldr	r2, [fp, #-8]
8000028c:	e51b3014 	ldr	r3, [fp, #-20]
80000290:	e1823003 	orr	r3, r2, r3
80000294:	e50b3008 	str	r3, [fp, #-8]
	CM_setCtrlModule(module, temp);
80000298:	e15b30be 	ldrh	r3, [fp, #-14]
8000029c:	e1a00003 	mov	r0, r3
800002a0:	e51b1008 	ldr	r1, [fp, #-8]
800002a4:	ebffffd0 	bl	800001ec <CM_setCtrlModule>


}
800002a8:	e24bd004 	sub	sp, fp, #4
800002ac:	e8bd8800 	pop	{fp, pc}

800002b0 <Uart0_Mux>:




void Uart0_Mux()
{
800002b0:	e92d4800 	push	{fp, lr}
800002b4:	e28db004 	add	fp, sp, #4

	CM_setCtrlModule(CM_conf_uart0_rxd, (1 << 4) | (1 << 5));		//Rx muxing
800002b8:	e3a00e97 	mov	r0, #2416	; 0x970
800002bc:	e3a01030 	mov	r1, #48	; 0x30
800002c0:	ebffffc9 	bl	800001ec <CM_setCtrlModule>
	CM_setCtrlModule(CM_conf_uart0_txd,0);					//tx muxing
800002c4:	e3000974 	movw	r0, #2420	; 0x974
800002c8:	e3a01000 	mov	r1, #0
800002cc:	ebffffc6 	bl	800001ec <CM_setCtrlModule>
/*
	PAD_setMode(CM_conf_uart0_txd, 0);
	PAD_setMode(CM_conf_uart0_rxd, 0);
*/
}
800002d0:	e8bd8800 	pop	{fp, pc}

800002d4 <__aeabi_idivmod>:
typedef struct { int quot; int rem; } idiv_return;

idiv_return __aeabi_idivmod(int num, int denom) {
800002d4:	e52db004 	push	{fp}		; (str fp, [sp, #-4]!)
800002d8:	e28db000 	add	fp, sp, #0
800002dc:	e24dd024 	sub	sp, sp, #36	; 0x24
800002e0:	e50b0018 	str	r0, [fp, #-24]
800002e4:	e50b101c 	str	r1, [fp, #-28]
800002e8:	e50b2020 	str	r2, [fp, #-32]
    idiv_return r;
    int q = 0;
800002ec:	e3a03000 	mov	r3, #0
800002f0:	e50b3008 	str	r3, [fp, #-8]

    while (num >= denom) {
800002f4:	ea000006 	b	80000314 <__aeabi_idivmod+0x40>
        num -= denom;
800002f8:	e51b201c 	ldr	r2, [fp, #-28]
800002fc:	e51b3020 	ldr	r3, [fp, #-32]
80000300:	e0633002 	rsb	r3, r3, r2
80000304:	e50b301c 	str	r3, [fp, #-28]
        q++;
80000308:	e51b3008 	ldr	r3, [fp, #-8]
8000030c:	e2833001 	add	r3, r3, #1
80000310:	e50b3008 	str	r3, [fp, #-8]

idiv_return __aeabi_idivmod(int num, int denom) {
    idiv_return r;
    int q = 0;

    while (num >= denom) {
80000314:	e51b201c 	ldr	r2, [fp, #-28]
80000318:	e51b3020 	ldr	r3, [fp, #-32]
8000031c:	e1520003 	cmp	r2, r3
80000320:	aafffff4 	bge	800002f8 <__aeabi_idivmod+0x24>
        num -= denom;
        q++;
    }

    r.quot = q;
80000324:	e51b3008 	ldr	r3, [fp, #-8]
80000328:	e50b3010 	str	r3, [fp, #-16]
    r.rem = num;
8000032c:	e51b301c 	ldr	r3, [fp, #-28]
80000330:	e50b300c 	str	r3, [fp, #-12]

    return r;
80000334:	e51b3018 	ldr	r3, [fp, #-24]
80000338:	e24b2010 	sub	r2, fp, #16
8000033c:	e8920003 	ldm	r2, {r0, r1}
80000340:	e8830003 	stm	r3, {r0, r1}
}
80000344:	e51b0018 	ldr	r0, [fp, #-24]
80000348:	e24bd000 	sub	sp, fp, #0
8000034c:	e49db004 	pop	{fp}		; (ldr fp, [sp], #4)
80000350:	e12fff1e 	bx	lr

80000354 <__aeabi_idiv>:

int __aeabi_idiv(int num, int denom) {
80000354:	e52db004 	push	{fp}		; (str fp, [sp, #-4]!)
80000358:	e28db000 	add	fp, sp, #0
8000035c:	e24dd014 	sub	sp, sp, #20
80000360:	e50b0010 	str	r0, [fp, #-16]
80000364:	e50b1014 	str	r1, [fp, #-20]
    int q = 0;
80000368:	e3a03000 	mov	r3, #0
8000036c:	e50b3008 	str	r3, [fp, #-8]

    while (num >= denom) {
80000370:	ea000006 	b	80000390 <__aeabi_idiv+0x3c>
        num -= denom;
80000374:	e51b2010 	ldr	r2, [fp, #-16]
80000378:	e51b3014 	ldr	r3, [fp, #-20]
8000037c:	e0633002 	rsb	r3, r3, r2
80000380:	e50b3010 	str	r3, [fp, #-16]
        q++;
80000384:	e51b3008 	ldr	r3, [fp, #-8]
80000388:	e2833001 	add	r3, r3, #1
8000038c:	e50b3008 	str	r3, [fp, #-8]
}

int __aeabi_idiv(int num, int denom) {
    int q = 0;

    while (num >= denom) {
80000390:	e51b2010 	ldr	r2, [fp, #-16]
80000394:	e51b3014 	ldr	r3, [fp, #-20]
80000398:	e1520003 	cmp	r2, r3
8000039c:	aafffff4 	bge	80000374 <__aeabi_idiv+0x20>
        num -= denom;
        q++;
    }

   return q;
800003a0:	e51b3008 	ldr	r3, [fp, #-8]
}
800003a4:	e1a00003 	mov	r0, r3
800003a8:	e24bd000 	sub	sp, fp, #0
800003ac:	e49db004 	pop	{fp}		; (ldr fp, [sp], #4)
800003b0:	e12fff1e 	bx	lr

800003b4 <uart_putf>:
#include "sys_log.h"

extern unsigned short int value;

void uart_putf(const char *fmt, ...) 
{
800003b4:	e92d000f 	push	{r0, r1, r2, r3}
800003b8:	e92d4800 	push	{fp, lr}
800003bc:	e28db004 	add	fp, sp, #4
800003c0:	e24dd008 	sub	sp, sp, #8
	out_func_t fn = UART_putC;
800003c4:	e3003734 	movw	r3, #1844	; 0x734
800003c8:	e3483000 	movt	r3, #32768	; 0x8000
800003cc:	e50b3008 	str	r3, [fp, #-8]
	va_list ap;
	va_start(ap, fmt);    
800003d0:	e28b3008 	add	r3, fp, #8
800003d4:	e50b300c 	str	r3, [fp, #-12]
	_vprintk(fn, fmt, ap);                               
800003d8:	e51b0008 	ldr	r0, [fp, #-8]
800003dc:	e59b1004 	ldr	r1, [fp, #4]
800003e0:	e51b200c 	ldr	r2, [fp, #-12]
800003e4:	eb0001d2 	bl	80000b34 <_vprintk>
	va_end(ap); 
}
800003e8:	e24bd004 	sub	sp, fp, #4
800003ec:	e8bd4800 	pop	{fp, lr}
800003f0:	e28dd010 	add	sp, sp, #16
800003f4:	e12fff1e 	bx	lr

800003f8 <_main>:

void _main(void)
{
800003f8:	e92d4800 	push	{fp, lr}
800003fc:	e28db004 	add	fp, sp, #4
	LED_init();
80000400:	ebffff0d 	bl	8000003c <LED_init>
	UART_init(115200,STOP1,PARITY_NONE,FLOW_OFF);
80000404:	e3a00cc2 	mov	r0, #49664	; 0xc200
80000408:	e3400001 	movt	r0, #1
8000040c:	e3a01000 	mov	r1, #0
80000410:	e3a02000 	mov	r2, #0
80000414:	e3a03000 	mov	r3, #0
80000418:	eb0000b8 	bl	80000700 <UART_init>
	UART_putC('\n');
8000041c:	e3a0000a 	mov	r0, #10
80000420:	eb0000c3 	bl	80000734 <UART_putC>
	UART_putString("Uart init done : ");
80000424:	e30104ac 	movw	r0, #5292	; 0x14ac
80000428:	e3480000 	movt	r0, #32768	; 0x8000
8000042c:	eb0000eb 	bl	800007e0 <UART_putString>
	UART_putString("Hi shashi\n");
80000430:	e30104c0 	movw	r0, #5312	; 0x14c0
80000434:	e3480000 	movt	r0, #32768	; 0x8000
80000438:	eb0000e8 	bl	800007e0 <UART_putString>
	UART_putString("Uart init done : ");
8000043c:	e30104ac 	movw	r0, #5292	; 0x14ac
80000440:	e3480000 	movt	r0, #32768	; 0x8000
80000444:	eb0000e5 	bl	800007e0 <UART_putString>
	UART_putString("Hi dabba\n\n");
80000448:	e30104cc 	movw	r0, #5324	; 0x14cc
8000044c:	e3480000 	movt	r0, #32768	; 0x8000
80000450:	eb0000e2 	bl	800007e0 <UART_putString>
	UART_putString("Uart init done : ");
80000454:	e30104ac 	movw	r0, #5292	; 0x14ac
80000458:	e3480000 	movt	r0, #32768	; 0x8000
8000045c:	eb0000df 	bl	800007e0 <UART_putString>
	UART_putString("Hi dabba\n\n");
80000460:	e30104cc 	movw	r0, #5324	; 0x14cc
80000464:	e3480000 	movt	r0, #32768	; 0x8000
80000468:	eb0000dc 	bl	800007e0 <UART_putString>
	uart_putf("LCR value = %x\n", value);
8000046c:	e3013500 	movw	r3, #5376	; 0x1500
80000470:	e3483000 	movt	r3, #32768	; 0x8000
80000474:	e1d330b0 	ldrh	r3, [r3]
80000478:	e30104d8 	movw	r0, #5336	; 0x14d8
8000047c:	e3480000 	movt	r0, #32768	; 0x8000
80000480:	e1a01003 	mov	r1, r3
80000484:	ebffffca 	bl	800003b4 <uart_putf>
	while (1) {
		UART_putString("Enter a character : ");
80000488:	e30104e8 	movw	r0, #5352	; 0x14e8
8000048c:	e3480000 	movt	r0, #32768	; 0x8000
80000490:	eb0000d2 	bl	800007e0 <UART_putString>
		UART_putC(UART_getC());
80000494:	eb0000bf 	bl	80000798 <UART_getC>
80000498:	e1a03000 	mov	r3, r0
8000049c:	e1a00003 	mov	r0, r3
800004a0:	eb0000a3 	bl	80000734 <UART_putC>
		UART_putC('\n');
800004a4:	e3a0000a 	mov	r0, #10
800004a8:	eb0000a1 	bl	80000734 <UART_putC>
	}
800004ac:	eafffff5 	b	80000488 <_main+0x90>

800004b0 <GPIO_init>:
#include "control_module.h"
#include "string.h"

unsigned short int value = 0;
void GPIO_init()
{
800004b0:	e92d4800 	push	{fp, lr}
800004b4:	e28db004 	add	fp, sp, #4
800004b8:	e24dd008 	sub	sp, sp, #8
	unsigned int setting = (1<<18) | (0x2<<0);
800004bc:	e3a03002 	mov	r3, #2
800004c0:	e3403004 	movt	r3, #4
800004c4:	e50b3008 	str	r3, [fp, #-8]
	CM_SetClk(CM_PER, CM_PER_GPIO1_CLKCTRL, setting);
800004c8:	e3a00000 	mov	r0, #0
800004cc:	e34404e0 	movt	r0, #17632	; 0x44e0
800004d0:	e3a010ac 	mov	r1, #172	; 0xac
800004d4:	e51b2008 	ldr	r2, [fp, #-8]
800004d8:	ebfffef1 	bl	800000a4 <CM_SetClk>
	while((CM_GetClk(CM_PER, CM_PER_GPIO1_CLKCTRL) & (0x3<<16)) != 0);
800004dc:	e1a00000 	nop			; (mov r0, r0)
800004e0:	e3a00000 	mov	r0, #0
800004e4:	e34404e0 	movt	r0, #17632	; 0x44e0
800004e8:	e3a010ac 	mov	r1, #172	; 0xac
800004ec:	ebfffefb 	bl	800000e0 <CM_GetClk>
800004f0:	e1a03000 	mov	r3, r0
800004f4:	e2033803 	and	r3, r3, #196608	; 0x30000
800004f8:	e3530000 	cmp	r3, #0
800004fc:	1afffff7 	bne	800004e0 <GPIO_init+0x30>

}
80000500:	e24bd004 	sub	sp, fp, #4
80000504:	e8bd8800 	pop	{fp, pc}

80000508 <Uart0_Reset>:
/* 
 * UART procedure described in 19.4 UART/IrDA/CIR Basic Programming Model
 */

void Uart0_Reset(unsigned int baudrate) 
{
80000508:	e52db004 	push	{fp}		; (str fp, [sp, #-4]!)
8000050c:	e28db000 	add	fp, sp, #0
80000510:	e24dd01c 	sub	sp, sp, #28
80000514:	e50b0018 	str	r0, [fp, #-24]
	/** UART reset --> setting SYSC[1] */
	unsigned int temp = GET32(UART0+SYSC);
80000518:	e3093054 	movw	r3, #36948	; 0x9054
8000051c:	e34434e0 	movt	r3, #17632	; 0x44e0
80000520:	e5933000 	ldr	r3, [r3]
80000524:	e50b3008 	str	r3, [fp, #-8]
	temp |= 0x2;
80000528:	e51b3008 	ldr	r3, [fp, #-8]
8000052c:	e3833002 	orr	r3, r3, #2
80000530:	e50b3008 	str	r3, [fp, #-8]
	PUT32(UART0+SYSC, temp);		
80000534:	e3093054 	movw	r3, #36948	; 0x9054
80000538:	e34434e0 	movt	r3, #17632	; 0x44e0
8000053c:	e51b2008 	ldr	r2, [fp, #-8]
80000540:	e5832000 	str	r2, [r3]
	while (((GET32(UART0+SYSS)) & 0x1) == 0);		/* Wait till reset is complete */
80000544:	e1a00000 	nop			; (mov r0, r0)
80000548:	e3093058 	movw	r3, #36952	; 0x9058
8000054c:	e34434e0 	movt	r3, #17632	; 0x44e0
80000550:	e5933000 	ldr	r3, [r3]
80000554:	e2033001 	and	r3, r3, #1
80000558:	e3530000 	cmp	r3, #0
8000055c:	0afffff9 	beq	80000548 <Uart0_Reset+0x40>
	temp = GET8(UART0+SYSC);
80000560:	e3093054 	movw	r3, #36948	; 0x9054
80000564:	e34434e0 	movt	r3, #17632	; 0x44e0
80000568:	e5d33000 	ldrb	r3, [r3]
8000056c:	e6ef3073 	uxtb	r3, r3
80000570:	e50b3008 	str	r3, [fp, #-8]
	temp |= (0x1 << 0x3);
80000574:	e51b3008 	ldr	r3, [fp, #-8]
80000578:	e3833008 	orr	r3, r3, #8
8000057c:	e50b3008 	str	r3, [fp, #-8]
	PUT8(UART0+SYSC, temp);					/* No idle/Wakeup capability is enabled */
80000580:	e3093054 	movw	r3, #36948	; 0x9054
80000584:	e34434e0 	movt	r3, #17632	; 0x44e0
80000588:	e51b2008 	ldr	r2, [fp, #-8]
8000058c:	e6ef2072 	uxtb	r2, r2
80000590:	e5c32000 	strb	r2, [r3]

	/* UART init*/
	/* Check below condition is necessary ??*/
	while(!(GET32(UART0+LSR) & 0x40));    		// Transmitter hold (TX	FIFO) and shift	registers are empty
80000594:	e1a00000 	nop			; (mov r0, r0)
80000598:	e3093014 	movw	r3, #36884	; 0x9014
8000059c:	e34434e0 	movt	r3, #17632	; 0x44e0
800005a0:	e5933000 	ldr	r3, [r3]
800005a4:	e2033040 	and	r3, r3, #64	; 0x40
800005a8:	e3530000 	cmp	r3, #0
800005ac:	0afffff9 	beq	80000598 <Uart0_Reset+0x90>

	/* UART Interrupt Enable Register */
	PUT8(UART0+IER, 0);					//Disable uart interrupts
800005b0:	e3093004 	movw	r3, #36868	; 0x9004
800005b4:	e34434e0 	movt	r3, #17632	; 0x44e0
800005b8:	e3a02000 	mov	r2, #0
800005bc:	e5c32000 	strb	r2, [r3]
	PUT8(UART0+MDR1,0x7);        				/* Disable modeselect (default) 19.5.1.19*/
800005c0:	e3093020 	movw	r3, #36896	; 0x9020
800005c4:	e34434e0 	movt	r3, #17632	; 0x44e0
800005c8:	e3a02007 	mov	r2, #7
800005cc:	e5c32000 	strb	r2, [r3]
	PUT8(UART0+LCR,~(0x7C));    // divisor latch enable, access DLL DHL, set uart as 8bit
800005d0:	e309300c 	movw	r3, #36876	; 0x900c
800005d4:	e34434e0 	movt	r3, #17632	; 0x44e0
800005d8:	e3e0207c 	mvn	r2, #124	; 0x7c
800005dc:	e5c32000 	strb	r2, [r3]

	value = GET8(UART0+LCR);
800005e0:	e309300c 	movw	r3, #36876	; 0x900c
800005e4:	e34434e0 	movt	r3, #17632	; 0x44e0
800005e8:	e5d33000 	ldrb	r3, [r3]
800005ec:	e6ef3073 	uxtb	r3, r3
800005f0:	e1a02003 	mov	r2, r3
800005f4:	e3013500 	movw	r3, #5376	; 0x1500
800005f8:	e3483000 	movt	r3, #32768	; 0x8000
800005fc:	e1c320b0 	strh	r2, [r3]
	PUT8(UART0+RHR,0);          // DLL = 0
80000600:	e3a03a09 	mov	r3, #36864	; 0x9000
80000604:	e34434e0 	movt	r3, #17632	; 0x44e0
80000608:	e3a02000 	mov	r2, #0
8000060c:	e5c32000 	strb	r2, [r3]
	PUT8(UART0+IER,0);          // DHL = 0
80000610:	e3093004 	movw	r3, #36868	; 0x9004
80000614:	e34434e0 	movt	r3, #17632	; 0x44e0
80000618:	e3a02000 	mov	r2, #0
8000061c:	e5c32000 	strb	r2, [r3]
	PUT8(UART0+LCR,0x3);        // set uart as 8bit
80000620:	e309300c 	movw	r3, #36876	; 0x900c
80000624:	e34434e0 	movt	r3, #17632	; 0x44e0
80000628:	e3a02003 	mov	r2, #3
8000062c:	e5c32000 	strb	r2, [r3]
	PUT8(UART0+MCR,0x3);        // force /rts & /drt to active (low) (?!)
80000630:	e3093010 	movw	r3, #36880	; 0x9010
80000634:	e34434e0 	movt	r3, #17632	; 0x44e0
80000638:	e3a02003 	mov	r2, #3
8000063c:	e5c32000 	strb	r2, [r3]
	PUT8(UART0+FCR,0x7);        // clear rx&tx FIFOs, and enables them (each 64 bytes deep)
80000640:	e3093008 	movw	r3, #36872	; 0x9008
80000644:	e34434e0 	movt	r3, #17632	; 0x44e0
80000648:	e3a02007 	mov	r2, #7
8000064c:	e5c32000 	strb	r2, [r3]
	  1 . UART 16x mode: Divisor value = Operating frequency/(16x baud rate) , Operating frequency = 48 MHz	 
	  2 . For 115200/16x speed DLL = 0x00, DLH = 0x1A
	  3 . The divisor latches high register(DLH) with the DLL register stores the 14-bit divisor for generation
	      of the baud clock in the baud rate generator
	  */
	float div = 48000000.0/(16.0*(float)baudrate);
80000650:	e51b3018 	ldr	r3, [fp, #-24]
80000654:	ee073a10 	vmov	s14, r3
80000658:	eef87a47 	vcvt.f32.u32	s15, s14
8000065c:	eef71ae7 	vcvt.f64.f32	d17, s15
80000660:	eef30b00 	vmov.f64	d16, #48	; 0x30
80000664:	ee610ba0 	vmul.f64	d16, d17, d16
80000668:	eddf1b22 	vldr	d17, [pc, #136]	; 800006f8 <Uart0_Reset+0x1f0>
8000066c:	eec10ba0 	vdiv.f64	d16, d17, d16
80000670:	eef77be0 	vcvt.f32.f64	s15, d16
80000674:	ed4b7a03 	vstr	s15, [fp, #-12]
	unsigned int intdiv = (unsigned int) div; 
80000678:	ed5b7a03 	vldr	s15, [fp, #-12]
8000067c:	eefc7ae7 	vcvt.u32.f32	s15, s15
80000680:	ee173a90 	vmov	r3, s15
80000684:	e50b3010 	str	r3, [fp, #-16]
	PUT8(UART0+LCR,~(0x7C));    		   /* divisor latch enable, access DLL DHL, set uart as 8bit*/
80000688:	e309300c 	movw	r3, #36876	; 0x900c
8000068c:	e34434e0 	movt	r3, #17632	; 0x44e0
80000690:	e3e0207c 	mvn	r2, #124	; 0x7c
80000694:	e5c32000 	strb	r2, [r3]
	PUT8(UART0+RHR,intdiv&0xFF);          	   /* DLL = 26 */
80000698:	e3a03a09 	mov	r3, #36864	; 0x9000
8000069c:	e34434e0 	movt	r3, #17632	; 0x44e0
800006a0:	e51b2010 	ldr	r2, [fp, #-16]
800006a4:	e6ef2072 	uxtb	r2, r2
800006a8:	e5c32000 	strb	r2, [r3]
	PUT8(UART0+IER,(intdiv>>8)&0x3F);          /* DHL = 0  IER now DLH*/
800006ac:	e3093004 	movw	r3, #36868	; 0x9004
800006b0:	e34434e0 	movt	r3, #17632	; 0x44e0
800006b4:	e51b2010 	ldr	r2, [fp, #-16]
800006b8:	e1a02422 	lsr	r2, r2, #8
800006bc:	e6ef2072 	uxtb	r2, r2
800006c0:	e202203f 	and	r2, r2, #63	; 0x3f
800006c4:	e6ef2072 	uxtb	r2, r2
800006c8:	e5c32000 	strb	r2, [r3]

	PUT8(UART0+LCR,0x3);        // set uart as 8 bit
800006cc:	e309300c 	movw	r3, #36876	; 0x900c
800006d0:	e34434e0 	movt	r3, #17632	; 0x44e0
800006d4:	e3a02003 	mov	r2, #3
800006d8:	e5c32000 	strb	r2, [r3]
	PUT8(UART0+MDR1,0);          // uart 16x oversampling
800006dc:	e3093020 	movw	r3, #36896	; 0x9020
800006e0:	e34434e0 	movt	r3, #17632	; 0x44e0
800006e4:	e3a02000 	mov	r2, #0
800006e8:	e5c32000 	strb	r2, [r3]

}
800006ec:	e24bd000 	sub	sp, fp, #0
800006f0:	e49db004 	pop	{fp}		; (ldr fp, [sp], #4)
800006f4:	e12fff1e 	bx	lr
800006f8:	00000000 	andeq	r0, r0, r0
800006fc:	4186e360 	orrmi	lr, r6, r0, ror #6

80000700 <UART_init>:

void UART_init(unsigned int baudrate, STOP_BIT_t stopBit, PARITY_BIT_t parity, FLOW_t flowControl) 
{
80000700:	e92d4800 	push	{fp, lr}
80000704:	e28db004 	add	fp, sp, #4
80000708:	e24dd008 	sub	sp, sp, #8
8000070c:	e50b0008 	str	r0, [fp, #-8]
80000710:	e54b1009 	strb	r1, [fp, #-9]
80000714:	e54b200a 	strb	r2, [fp, #-10]
80000718:	e54b300b 	strb	r3, [fp, #-11]

	//	GPIO_init();

	//UART mux config
	Uart0_Mux();
8000071c:	ebfffee3 	bl	800002b0 <Uart0_Mux>

	//Init clock and muxing of pins
	Init_UART0_Clk();
80000720:	ebfffe7c 	bl	80000118 <Init_UART0_Clk>

	//Uart soft reset
	Uart0_Reset(baudrate);
80000724:	e51b0008 	ldr	r0, [fp, #-8]
80000728:	ebffff76 	bl	80000508 <Uart0_Reset>
}
8000072c:	e24bd004 	sub	sp, fp, #4
80000730:	e8bd8800 	pop	{fp, pc}

80000734 <UART_putC>:

void UART_putC( char c)
{
80000734:	e92d4800 	push	{fp, lr}
80000738:	e28db004 	add	fp, sp, #4
8000073c:	e24dd008 	sub	sp, sp, #8
80000740:	e1a03000 	mov	r3, r0
80000744:	e54b3005 	strb	r3, [fp, #-5]

	if (c == '\n')
80000748:	e55b3005 	ldrb	r3, [fp, #-5]
8000074c:	e353000a 	cmp	r3, #10
80000750:	1a000002 	bne	80000760 <UART_putC+0x2c>
		UART_putC('\r');
80000754:	e3a0000d 	mov	r0, #13
80000758:	ebfffff5 	bl	80000734 <UART_putC>

	while((GET8(UART0+LSR)&0x20) != 0x20)	/* wait until txfifo is empty (check exact bit is set) */ 
8000075c:	eaffffff 	b	80000760 <UART_putC+0x2c>
80000760:	e1a00000 	nop			; (mov r0, r0)
80000764:	e3093014 	movw	r3, #36884	; 0x9014
80000768:	e34434e0 	movt	r3, #17632	; 0x44e0
8000076c:	e5d33000 	ldrb	r3, [r3]
80000770:	e6ef3073 	uxtb	r3, r3
80000774:	e2033020 	and	r3, r3, #32
80000778:	e3530000 	cmp	r3, #0
8000077c:	0afffff8 	beq	80000764 <UART_putC+0x30>
		;

	PUT8(UART0 +RHR,c);
80000780:	e3a03a09 	mov	r3, #36864	; 0x9000
80000784:	e34434e0 	movt	r3, #17632	; 0x44e0
80000788:	e55b2005 	ldrb	r2, [fp, #-5]
8000078c:	e5c32000 	strb	r2, [r3]
}
80000790:	e24bd004 	sub	sp, fp, #4
80000794:	e8bd8800 	pop	{fp, pc}

80000798 <UART_getC>:
char UART_getC()
{
80000798:	e52db004 	push	{fp}		; (str fp, [sp, #-4]!)
8000079c:	e28db000 	add	fp, sp, #0
	while((GET8(UART0+LSR)&0x1) == 0);     //wait for a character to be in the rx fifo
800007a0:	e1a00000 	nop			; (mov r0, r0)
800007a4:	e3093014 	movw	r3, #36884	; 0x9014
800007a8:	e34434e0 	movt	r3, #17632	; 0x44e0
800007ac:	e5d33000 	ldrb	r3, [r3]
800007b0:	e6ef3073 	uxtb	r3, r3
800007b4:	e2033001 	and	r3, r3, #1
800007b8:	e3530000 	cmp	r3, #0
800007bc:	0afffff8 	beq	800007a4 <UART_getC+0xc>
	return GET8(UART0+RHR);
800007c0:	e3a03a09 	mov	r3, #36864	; 0x9000
800007c4:	e34434e0 	movt	r3, #17632	; 0x44e0
800007c8:	e5d33000 	ldrb	r3, [r3]
800007cc:	e6ef3073 	uxtb	r3, r3
}
800007d0:	e1a00003 	mov	r0, r3
800007d4:	e24bd000 	sub	sp, fp, #0
800007d8:	e49db004 	pop	{fp}		; (ldr fp, [sp], #4)
800007dc:	e12fff1e 	bx	lr

800007e0 <UART_putString>:

int UART_putString(char *str)
{
800007e0:	e92d4800 	push	{fp, lr}
800007e4:	e28db004 	add	fp, sp, #4
800007e8:	e24dd010 	sub	sp, sp, #16
800007ec:	e50b0010 	str	r0, [fp, #-16]
   int length = strlen(str);
800007f0:	e51b0010 	ldr	r0, [fp, #-16]
800007f4:	eb000200 	bl	80000ffc <strlen>
800007f8:	e50b000c 	str	r0, [fp, #-12]
   for(int i = 0; i < length; i++)
800007fc:	e3a03000 	mov	r3, #0
80000800:	e50b3008 	str	r3, [fp, #-8]
80000804:	ea000008 	b	8000082c <UART_putString+0x4c>
   {
      UART_putC(str[i]);
80000808:	e51b3008 	ldr	r3, [fp, #-8]
8000080c:	e51b2010 	ldr	r2, [fp, #-16]
80000810:	e0823003 	add	r3, r2, r3
80000814:	e5d33000 	ldrb	r3, [r3]
80000818:	e1a00003 	mov	r0, r3
8000081c:	ebffffc4 	bl	80000734 <UART_putC>
}

int UART_putString(char *str)
{
   int length = strlen(str);
   for(int i = 0; i < length; i++)
80000820:	e51b3008 	ldr	r3, [fp, #-8]
80000824:	e2833001 	add	r3, r3, #1
80000828:	e50b3008 	str	r3, [fp, #-8]
8000082c:	e51b2008 	ldr	r2, [fp, #-8]
80000830:	e51b300c 	ldr	r3, [fp, #-12]
80000834:	e1520003 	cmp	r2, r3
80000838:	bafffff2 	blt	80000808 <UART_putString+0x28>
   {
      UART_putC(str[i]);
   }
   return length;
8000083c:	e51b300c 	ldr	r3, [fp, #-12]
}
80000840:	e1a00003 	mov	r0, r3
80000844:	e24bd004 	sub	sp, fp, #4
80000848:	e8bd8800 	pop	{fp, pc}

8000084c <UART_getString>:

int UART_getString(char *buf)
{
8000084c:	e92d4810 	push	{r4, fp, lr}
80000850:	e28db008 	add	fp, sp, #8
80000854:	e24dd014 	sub	sp, sp, #20
80000858:	e50b0018 	str	r0, [fp, #-24]
   int length = strlen(buf);
8000085c:	e51b0018 	ldr	r0, [fp, #-24]
80000860:	eb0001e5 	bl	80000ffc <strlen>
80000864:	e50b0014 	str	r0, [fp, #-20]
   for(int i = 0; i < length; i ++)
80000868:	e3a03000 	mov	r3, #0
8000086c:	e50b3010 	str	r3, [fp, #-16]
80000870:	ea000008 	b	80000898 <UART_getString+0x4c>
   {
      buf[i] = UART_getC();
80000874:	e51b3010 	ldr	r3, [fp, #-16]
80000878:	e51b2018 	ldr	r2, [fp, #-24]
8000087c:	e0824003 	add	r4, r2, r3
80000880:	ebffffc4 	bl	80000798 <UART_getC>
80000884:	e1a03000 	mov	r3, r0
80000888:	e5c43000 	strb	r3, [r4]
}

int UART_getString(char *buf)
{
   int length = strlen(buf);
   for(int i = 0; i < length; i ++)
8000088c:	e51b3010 	ldr	r3, [fp, #-16]
80000890:	e2833001 	add	r3, r3, #1
80000894:	e50b3010 	str	r3, [fp, #-16]
80000898:	e51b2010 	ldr	r2, [fp, #-16]
8000089c:	e51b3014 	ldr	r3, [fp, #-20]
800008a0:	e1520003 	cmp	r2, r3
800008a4:	bafffff2 	blt	80000874 <UART_getString+0x28>
   {
      buf[i] = UART_getC();
   }
   return length;
800008a8:	e51b3014 	ldr	r3, [fp, #-20]
}
800008ac:	e1a00003 	mov	r0, r3
800008b0:	e24bd008 	sub	sp, fp, #8
800008b4:	e8bd8810 	pop	{r4, fp, pc}

800008b8 <_printk_dec_ulong>:
 * @return N/A
 */
static void _printk_dec_ulong(out_func_t out,
		const unsigned long num, int pad_zero,
		int min_width)
{
800008b8:	e92d4800 	push	{fp, lr}
800008bc:	e28db004 	add	fp, sp, #4
800008c0:	e24dd020 	sub	sp, sp, #32
800008c4:	e50b0018 	str	r0, [fp, #-24]
800008c8:	e50b101c 	str	r1, [fp, #-28]
800008cc:	e50b2020 	str	r2, [fp, #-32]
800008d0:	e50b3024 	str	r3, [fp, #-36]	; 0x24
	/*
	unsigned long pos = 999999999;
	unsigned long remainder = num;
	*/
	long pos = 999999999;
800008d4:	e30c39ff 	movw	r3, #51711	; 0xc9ff
800008d8:	e3433b9a 	movt	r3, #15258	; 0x3b9a
800008dc:	e50b3008 	str	r3, [fp, #-8]
	long remainder = num;
800008e0:	e51b301c 	ldr	r3, [fp, #-28]
800008e4:	e50b300c 	str	r3, [fp, #-12]
	int found_largest_digit = 0;
800008e8:	e3a03000 	mov	r3, #0
800008ec:	e50b3010 	str	r3, [fp, #-16]
	int remaining = 10; /* 10 digits max */
800008f0:	e3a0300a 	mov	r3, #10
800008f4:	e50b3014 	str	r3, [fp, #-20]

	/* make sure we don't skip if value is zero */
	if (min_width <= 0) {
800008f8:	e51b3024 	ldr	r3, [fp, #-36]	; 0x24
800008fc:	e3530000 	cmp	r3, #0
80000900:	ca000002 	bgt	80000910 <_printk_dec_ulong+0x58>
		min_width = 1;
80000904:	e3a03001 	mov	r3, #1
80000908:	e50b3024 	str	r3, [fp, #-36]	; 0x24
	}

	while (pos >= 9) {
8000090c:	ea000036 	b	800009ec <_printk_dec_ulong+0x134>
80000910:	ea000035 	b	800009ec <_printk_dec_ulong+0x134>
		if (found_largest_digit || remainder > pos) {
80000914:	e51b3010 	ldr	r3, [fp, #-16]
80000918:	e3530000 	cmp	r3, #0
8000091c:	1a000003 	bne	80000930 <_printk_dec_ulong+0x78>
80000920:	e51b200c 	ldr	r2, [fp, #-12]
80000924:	e51b3008 	ldr	r3, [fp, #-8]
80000928:	e1520003 	cmp	r2, r3
8000092c:	da00000e 	ble	8000096c <_printk_dec_ulong+0xb4>
			found_largest_digit = 1;
80000930:	e3a03001 	mov	r3, #1
80000934:	e50b3010 	str	r3, [fp, #-16]
			out((char)((remainder / (pos + 1)) + 48));
80000938:	e51b3008 	ldr	r3, [fp, #-8]
8000093c:	e2833001 	add	r3, r3, #1
80000940:	e51b000c 	ldr	r0, [fp, #-12]
80000944:	e1a01003 	mov	r1, r3
80000948:	ebfffe81 	bl	80000354 <__aeabi_idiv>
8000094c:	e1a03000 	mov	r3, r0
80000950:	e6ef3073 	uxtb	r3, r3
80000954:	e2833030 	add	r3, r3, #48	; 0x30
80000958:	e6ef2073 	uxtb	r2, r3
8000095c:	e51b3018 	ldr	r3, [fp, #-24]
80000960:	e1a00002 	mov	r0, r2
80000964:	e12fff33 	blx	r3
80000968:	ea00000c 	b	800009a0 <_printk_dec_ulong+0xe8>
		} else if (remaining <= min_width) {
8000096c:	e51b2014 	ldr	r2, [fp, #-20]
80000970:	e51b3024 	ldr	r3, [fp, #-36]	; 0x24
80000974:	e1520003 	cmp	r2, r3
80000978:	ca000008 	bgt	800009a0 <_printk_dec_ulong+0xe8>
			out((char)(pad_zero ? '0' : ' '));
8000097c:	e51b3020 	ldr	r3, [fp, #-32]
80000980:	e3530000 	cmp	r3, #0
80000984:	0a000001 	beq	80000990 <_printk_dec_ulong+0xd8>
80000988:	e3a03030 	mov	r3, #48	; 0x30
8000098c:	ea000000 	b	80000994 <_printk_dec_ulong+0xdc>
80000990:	e3a03020 	mov	r3, #32
80000994:	e51b2018 	ldr	r2, [fp, #-24]
80000998:	e1a00003 	mov	r0, r3
8000099c:	e12fff32 	blx	r2
		}
		remaining--;
800009a0:	e51b3014 	ldr	r3, [fp, #-20]
800009a4:	e2433001 	sub	r3, r3, #1
800009a8:	e50b3014 	str	r3, [fp, #-20]
		remainder %= (pos + 1); 
800009ac:	e51b3008 	ldr	r3, [fp, #-8]
800009b0:	e2833001 	add	r3, r3, #1
800009b4:	e51b200c 	ldr	r2, [fp, #-12]
800009b8:	e1a00002 	mov	r0, r2
800009bc:	e1a01003 	mov	r1, r3
800009c0:	ebfffe43 	bl	800002d4 <__aeabi_idivmod>
800009c4:	e1a03001 	mov	r3, r1
800009c8:	e50b300c 	str	r3, [fp, #-12]
		pos /= 10; 
800009cc:	e51b2008 	ldr	r2, [fp, #-8]
800009d0:	e3063667 	movw	r3, #26215	; 0x6667
800009d4:	e3463666 	movt	r3, #26214	; 0x6666
800009d8:	e0c31293 	smull	r1, r3, r3, r2
800009dc:	e1a01143 	asr	r1, r3, #2
800009e0:	e1a03fc2 	asr	r3, r2, #31
800009e4:	e0633001 	rsb	r3, r3, r1
800009e8:	e50b3008 	str	r3, [fp, #-8]
	/* make sure we don't skip if value is zero */
	if (min_width <= 0) {
		min_width = 1;
	}

	while (pos >= 9) {
800009ec:	e51b3008 	ldr	r3, [fp, #-8]
800009f0:	e3530008 	cmp	r3, #8
800009f4:	caffffc6 	bgt	80000914 <_printk_dec_ulong+0x5c>
		}
		remaining--;
		remainder %= (pos + 1); 
		pos /= 10; 
	}
	out((char)(remainder + 48));
800009f8:	e51b300c 	ldr	r3, [fp, #-12]
800009fc:	e6ef3073 	uxtb	r3, r3
80000a00:	e2833030 	add	r3, r3, #48	; 0x30
80000a04:	e6ef2073 	uxtb	r2, r3
80000a08:	e51b3018 	ldr	r3, [fp, #-24]
80000a0c:	e1a00002 	mov	r0, r2
80000a10:	e12fff33 	blx	r3
}
80000a14:	e24bd004 	sub	sp, fp, #4
80000a18:	e8bd8800 	pop	{fp, pc}

80000a1c <_printk_hex_ulong>:
 * @return N/A
 */
static void _printk_hex_ulong(out_func_t out,
		const unsigned long num, int pad_zero,
		int min_width)
{
80000a1c:	e92d4800 	push	{fp, lr}
80000a20:	e28db004 	add	fp, sp, #4
80000a24:	e24dd020 	sub	sp, sp, #32
80000a28:	e50b0018 	str	r0, [fp, #-24]
80000a2c:	e50b101c 	str	r1, [fp, #-28]
80000a30:	e50b2020 	str	r2, [fp, #-32]
80000a34:	e50b3024 	str	r3, [fp, #-36]	; 0x24
	int size = sizeof(num) * 2;
80000a38:	e3a03008 	mov	r3, #8
80000a3c:	e50b3008 	str	r3, [fp, #-8]
	int found_largest_digit = 0;
80000a40:	e3a03000 	mov	r3, #0
80000a44:	e50b300c 	str	r3, [fp, #-12]
	int remaining = 8; /* 8 digits max */
80000a48:	e3a03008 	mov	r3, #8
80000a4c:	e50b3010 	str	r3, [fp, #-16]

	for (; size; size--) {
80000a50:	ea000032 	b	80000b20 <_printk_hex_ulong+0x104>
		char nibble = (num >> ((size - 1) << 2) & 0xf);
80000a54:	e51b3008 	ldr	r3, [fp, #-8]
80000a58:	e2433001 	sub	r3, r3, #1
80000a5c:	e1a03103 	lsl	r3, r3, #2
80000a60:	e51b201c 	ldr	r2, [fp, #-28]
80000a64:	e1a03332 	lsr	r3, r2, r3
80000a68:	e6ef3073 	uxtb	r3, r3
80000a6c:	e203300f 	and	r3, r3, #15
80000a70:	e54b3011 	strb	r3, [fp, #-17]

		if (nibble || found_largest_digit || size == 1) {
80000a74:	e55b3011 	ldrb	r3, [fp, #-17]
80000a78:	e3530000 	cmp	r3, #0
80000a7c:	1a000005 	bne	80000a98 <_printk_hex_ulong+0x7c>
80000a80:	e51b300c 	ldr	r3, [fp, #-12]
80000a84:	e3530000 	cmp	r3, #0
80000a88:	1a000002 	bne	80000a98 <_printk_hex_ulong+0x7c>
80000a8c:	e51b3008 	ldr	r3, [fp, #-8]
80000a90:	e3530001 	cmp	r3, #1
80000a94:	1a00000f 	bne	80000ad8 <_printk_hex_ulong+0xbc>
			found_largest_digit = 1;
80000a98:	e3a03001 	mov	r3, #1
80000a9c:	e50b300c 	str	r3, [fp, #-12]
			nibble += nibble > 9 ? 87 : 48;
80000aa0:	e55b3011 	ldrb	r3, [fp, #-17]
80000aa4:	e3530009 	cmp	r3, #9
80000aa8:	9a000001 	bls	80000ab4 <_printk_hex_ulong+0x98>
80000aac:	e3a03057 	mov	r3, #87	; 0x57
80000ab0:	ea000000 	b	80000ab8 <_printk_hex_ulong+0x9c>
80000ab4:	e3a03030 	mov	r3, #48	; 0x30
80000ab8:	e55b2011 	ldrb	r2, [fp, #-17]
80000abc:	e0833002 	add	r3, r3, r2
80000ac0:	e54b3011 	strb	r3, [fp, #-17]
			out((char)nibble);
80000ac4:	e55b2011 	ldrb	r2, [fp, #-17]
80000ac8:	e51b3018 	ldr	r3, [fp, #-24]
80000acc:	e1a00002 	mov	r0, r2
80000ad0:	e12fff33 	blx	r3
			continue;
80000ad4:	ea00000e 	b	80000b14 <_printk_hex_ulong+0xf8>
		}

		if (remaining-- <= min_width) {
80000ad8:	e51b3010 	ldr	r3, [fp, #-16]
80000adc:	e2432001 	sub	r2, r3, #1
80000ae0:	e50b2010 	str	r2, [fp, #-16]
80000ae4:	e51b2024 	ldr	r2, [fp, #-36]	; 0x24
80000ae8:	e1530002 	cmp	r3, r2
80000aec:	ca000008 	bgt	80000b14 <_printk_hex_ulong+0xf8>
			out((char)(pad_zero ? '0' : ' '));
80000af0:	e51b3020 	ldr	r3, [fp, #-32]
80000af4:	e3530000 	cmp	r3, #0
80000af8:	0a000001 	beq	80000b04 <_printk_hex_ulong+0xe8>
80000afc:	e3a03030 	mov	r3, #48	; 0x30
80000b00:	ea000000 	b	80000b08 <_printk_hex_ulong+0xec>
80000b04:	e3a03020 	mov	r3, #32
80000b08:	e51b2018 	ldr	r2, [fp, #-24]
80000b0c:	e1a00003 	mov	r0, r3
80000b10:	e12fff32 	blx	r2
{
	int size = sizeof(num) * 2;
	int found_largest_digit = 0;
	int remaining = 8; /* 8 digits max */

	for (; size; size--) {
80000b14:	e51b3008 	ldr	r3, [fp, #-8]
80000b18:	e2433001 	sub	r3, r3, #1
80000b1c:	e50b3008 	str	r3, [fp, #-8]
80000b20:	e51b3008 	ldr	r3, [fp, #-8]
80000b24:	e3530000 	cmp	r3, #0
80000b28:	1affffc9 	bne	80000a54 <_printk_hex_ulong+0x38>

		if (remaining-- <= min_width) {
			out((char)(pad_zero ? '0' : ' '));
		}
	}
}
80000b2c:	e24bd004 	sub	sp, fp, #4
80000b30:	e8bd8800 	pop	{fp, pc}

80000b34 <_vprintk>:
 * @param ap Variable parameters
 *
 * @return N/A
 */
void _vprintk(out_func_t out, const char *fmt, va_list ap)
{
80000b34:	e92d4800 	push	{fp, lr}
80000b38:	e28db004 	add	fp, sp, #4
80000b3c:	e24dd030 	sub	sp, sp, #48	; 0x30
80000b40:	e50b0028 	str	r0, [fp, #-40]	; 0x28
80000b44:	e50b102c 	str	r1, [fp, #-44]	; 0x2c
80000b48:	e50b2030 	str	r2, [fp, #-48]	; 0x30
	int might_format = 0; /* 1 if encountered a '%' */
80000b4c:	e3a03000 	mov	r3, #0
80000b50:	e50b3008 	str	r3, [fp, #-8]
	int pad_zero = 0;
80000b54:	e3a03000 	mov	r3, #0
80000b58:	e50b300c 	str	r3, [fp, #-12]
	int min_width = -1;
80000b5c:	e3e03000 	mvn	r3, #0
80000b60:	e50b3010 	str	r3, [fp, #-16]

	/* fmt has already been adjusted if needed */

	while (*fmt) {
80000b64:	ea0000f5 	b	80000f40 <_vprintk+0x40c>
		if (!might_format) {
80000b68:	e51b3008 	ldr	r3, [fp, #-8]
80000b6c:	e3530000 	cmp	r3, #0
80000b70:	1a000010 	bne	80000bb8 <_vprintk+0x84>
			if (*fmt != '%') {
80000b74:	e51b302c 	ldr	r3, [fp, #-44]	; 0x2c
80000b78:	e5d33000 	ldrb	r3, [r3]
80000b7c:	e3530025 	cmp	r3, #37	; 0x25
80000b80:	0a000005 	beq	80000b9c <_vprintk+0x68>
				out((char)*fmt);
80000b84:	e51b302c 	ldr	r3, [fp, #-44]	; 0x2c
80000b88:	e5d32000 	ldrb	r2, [r3]
80000b8c:	e51b3028 	ldr	r3, [fp, #-40]	; 0x28
80000b90:	e1a00002 	mov	r0, r2
80000b94:	e12fff33 	blx	r3
80000b98:	ea0000e5 	b	80000f34 <_vprintk+0x400>
			} else {
				might_format = 1;
80000b9c:	e3a03001 	mov	r3, #1
80000ba0:	e50b3008 	str	r3, [fp, #-8]
				min_width = -1;
80000ba4:	e3e03000 	mvn	r3, #0
80000ba8:	e50b3010 	str	r3, [fp, #-16]
				pad_zero = 0;
80000bac:	e3a03000 	mov	r3, #0
80000bb0:	e50b300c 	str	r3, [fp, #-12]
80000bb4:	ea0000de 	b	80000f34 <_vprintk+0x400>
			}
		} else {
			switch (*fmt) {
80000bb8:	e51b302c 	ldr	r3, [fp, #-44]	; 0x2c
80000bbc:	e5d33000 	ldrb	r3, [r3]
80000bc0:	e2433025 	sub	r3, r3, #37	; 0x25
80000bc4:	e3530055 	cmp	r3, #85	; 0x55
80000bc8:	979ff103 	ldrls	pc, [pc, r3, lsl #2]
80000bcc:	ea0000cb 	b	80000f00 <_vprintk+0x3cc>
80000bd0:	80000ef0 	strdhi	r0, [r0], -r0	; <UNPREDICTABLE>
80000bd4:	80000f00 	andhi	r0, r0, r0, lsl #30
80000bd8:	80000f00 	andhi	r0, r0, r0, lsl #30
80000bdc:	80000f00 	andhi	r0, r0, r0, lsl #30
80000be0:	80000f00 	andhi	r0, r0, r0, lsl #30
80000be4:	80000f00 	andhi	r0, r0, r0, lsl #30
80000be8:	80000f00 	andhi	r0, r0, r0, lsl #30
80000bec:	80000f00 	andhi	r0, r0, r0, lsl #30
80000bf0:	80000f00 	andhi	r0, r0, r0, lsl #30
80000bf4:	80000f00 	andhi	r0, r0, r0, lsl #30
80000bf8:	80000f00 	andhi	r0, r0, r0, lsl #30
80000bfc:	80000d28 	andhi	r0, r0, r8, lsr #26
80000c00:	80000d4c 	andhi	r0, r0, ip, asr #26
80000c04:	80000d4c 	andhi	r0, r0, ip, asr #26
80000c08:	80000d4c 	andhi	r0, r0, ip, asr #26
80000c0c:	80000d4c 	andhi	r0, r0, ip, asr #26
80000c10:	80000d4c 	andhi	r0, r0, ip, asr #26
80000c14:	80000d4c 	andhi	r0, r0, ip, asr #26
80000c18:	80000d4c 	andhi	r0, r0, ip, asr #26
80000c1c:	80000d4c 	andhi	r0, r0, ip, asr #26
80000c20:	80000d4c 	andhi	r0, r0, ip, asr #26
80000c24:	80000f00 	andhi	r0, r0, r0, lsl #30
80000c28:	80000f00 	andhi	r0, r0, r0, lsl #30
80000c2c:	80000f00 	andhi	r0, r0, r0, lsl #30
80000c30:	80000f00 	andhi	r0, r0, r0, lsl #30
80000c34:	80000f00 	andhi	r0, r0, r0, lsl #30
80000c38:	80000f00 	andhi	r0, r0, r0, lsl #30
80000c3c:	80000f00 	andhi	r0, r0, r0, lsl #30
80000c40:	80000f00 	andhi	r0, r0, r0, lsl #30
80000c44:	80000f00 	andhi	r0, r0, r0, lsl #30
80000c48:	80000f00 	andhi	r0, r0, r0, lsl #30
80000c4c:	80000f00 	andhi	r0, r0, r0, lsl #30
80000c50:	80000f00 	andhi	r0, r0, r0, lsl #30
80000c54:	80000f00 	andhi	r0, r0, r0, lsl #30
80000c58:	80000f00 	andhi	r0, r0, r0, lsl #30
80000c5c:	80000f00 	andhi	r0, r0, r0, lsl #30
80000c60:	80000f00 	andhi	r0, r0, r0, lsl #30
80000c64:	80000f00 	andhi	r0, r0, r0, lsl #30
80000c68:	80000f00 	andhi	r0, r0, r0, lsl #30
80000c6c:	80000f00 	andhi	r0, r0, r0, lsl #30
80000c70:	80000f00 	andhi	r0, r0, r0, lsl #30
80000c74:	80000f00 	andhi	r0, r0, r0, lsl #30
80000c78:	80000f00 	andhi	r0, r0, r0, lsl #30
80000c7c:	80000f00 	andhi	r0, r0, r0, lsl #30
80000c80:	80000f00 	andhi	r0, r0, r0, lsl #30
80000c84:	80000f00 	andhi	r0, r0, r0, lsl #30
80000c88:	80000f00 	andhi	r0, r0, r0, lsl #30
80000c8c:	80000f00 	andhi	r0, r0, r0, lsl #30
80000c90:	80000f00 	andhi	r0, r0, r0, lsl #30
80000c94:	80000f00 	andhi	r0, r0, r0, lsl #30
80000c98:	80000f00 	andhi	r0, r0, r0, lsl #30
80000c9c:	80000e50 	andhi	r0, r0, r0, asr lr
80000ca0:	80000f00 	andhi	r0, r0, r0, lsl #30
80000ca4:	80000f00 	andhi	r0, r0, r0, lsl #30
80000ca8:	80000f00 	andhi	r0, r0, r0, lsl #30
80000cac:	80000f00 	andhi	r0, r0, r0, lsl #30
80000cb0:	80000f00 	andhi	r0, r0, r0, lsl #30
80000cb4:	80000f00 	andhi	r0, r0, r0, lsl #30
80000cb8:	80000f00 	andhi	r0, r0, r0, lsl #30
80000cbc:	80000f00 	andhi	r0, r0, r0, lsl #30
80000cc0:	80000f00 	andhi	r0, r0, r0, lsl #30
80000cc4:	80000f00 	andhi	r0, r0, r0, lsl #30
80000cc8:	80000ec4 	andhi	r0, r0, r4, asr #29
80000ccc:	80000d9c 	mulhi	r0, ip, sp
80000cd0:	80000f00 	andhi	r0, r0, r0, lsl #30
80000cd4:	80000f00 	andhi	r0, r0, r0, lsl #30
80000cd8:	80000f00 	andhi	r0, r0, r0, lsl #30
80000cdc:	80000f30 	andhi	r0, r0, r0, lsr pc
80000ce0:	80000d9c 	mulhi	r0, ip, sp
80000ce4:	80000f00 	andhi	r0, r0, r0, lsl #30
80000ce8:	80000f00 	andhi	r0, r0, r0, lsl #30
80000cec:	80000f30 	andhi	r0, r0, r0, lsr pc
80000cf0:	80000f00 	andhi	r0, r0, r0, lsl #30
80000cf4:	80000f00 	andhi	r0, r0, r0, lsl #30
80000cf8:	80000f00 	andhi	r0, r0, r0, lsl #30
80000cfc:	80000e28 	andhi	r0, r0, r8, lsr #28
80000d00:	80000f00 	andhi	r0, r0, r0, lsl #30
80000d04:	80000f00 	andhi	r0, r0, r0, lsl #30
80000d08:	80000e7c 	andhi	r0, r0, ip, ror lr
80000d0c:	80000f00 	andhi	r0, r0, r0, lsl #30
80000d10:	80000dfc 	strdhi	r0, [r0], -ip
80000d14:	80000f00 	andhi	r0, r0, r0, lsl #30
80000d18:	80000f00 	andhi	r0, r0, r0, lsl #30
80000d1c:	80000e50 	andhi	r0, r0, r0, asr lr
80000d20:	80000f00 	andhi	r0, r0, r0, lsl #30
80000d24:	80000f30 	andhi	r0, r0, r0, lsr pc
				case '0':
					if (min_width < 0 && pad_zero == 0) {
80000d28:	e51b3010 	ldr	r3, [fp, #-16]
80000d2c:	e3530000 	cmp	r3, #0
80000d30:	aa000005 	bge	80000d4c <_vprintk+0x218>
80000d34:	e51b300c 	ldr	r3, [fp, #-12]
80000d38:	e3530000 	cmp	r3, #0
80000d3c:	1a000002 	bne	80000d4c <_vprintk+0x218>
						pad_zero = 1;
80000d40:	e3a03001 	mov	r3, #1
80000d44:	e50b300c 	str	r3, [fp, #-12]
						goto still_might_format;
80000d48:	ea000079 	b	80000f34 <_vprintk+0x400>
					}
					/* Fall through */
				case '1' ... '9':
					if (min_width < 0) {
80000d4c:	e51b3010 	ldr	r3, [fp, #-16]
80000d50:	e3530000 	cmp	r3, #0
80000d54:	aa000004 	bge	80000d6c <_vprintk+0x238>
						min_width = *fmt - '0';
80000d58:	e51b302c 	ldr	r3, [fp, #-44]	; 0x2c
80000d5c:	e5d33000 	ldrb	r3, [r3]
80000d60:	e2433030 	sub	r3, r3, #48	; 0x30
80000d64:	e50b3010 	str	r3, [fp, #-16]
					} else {
						min_width = 10 * min_width + *fmt - '0';
					}
					goto still_might_format;
80000d68:	ea000071 	b	80000f34 <_vprintk+0x400>
					/* Fall through */
				case '1' ... '9':
					if (min_width < 0) {
						min_width = *fmt - '0';
					} else {
						min_width = 10 * min_width + *fmt - '0';
80000d6c:	e51b2010 	ldr	r2, [fp, #-16]
80000d70:	e1a03002 	mov	r3, r2
80000d74:	e1a03103 	lsl	r3, r3, #2
80000d78:	e0833002 	add	r3, r3, r2
80000d7c:	e1a03083 	lsl	r3, r3, #1
80000d80:	e1a02003 	mov	r2, r3
80000d84:	e51b302c 	ldr	r3, [fp, #-44]	; 0x2c
80000d88:	e5d33000 	ldrb	r3, [r3]
80000d8c:	e0823003 	add	r3, r2, r3
80000d90:	e2433030 	sub	r3, r3, #48	; 0x30
80000d94:	e50b3010 	str	r3, [fp, #-16]
					}
					goto still_might_format;
80000d98:	ea000065 	b	80000f34 <_vprintk+0x400>
				case 'h':
					/* FIXME: do nothing for these modifiers */
					goto still_might_format;
				case 'd':
				case 'i': {
						  long d = va_arg(ap, long);
80000d9c:	e51b3030 	ldr	r3, [fp, #-48]	; 0x30
80000da0:	e2832004 	add	r2, r3, #4
80000da4:	e50b2030 	str	r2, [fp, #-48]	; 0x30
80000da8:	e5933000 	ldr	r3, [r3]
80000dac:	e50b3014 	str	r3, [fp, #-20]

						  if (d < 0) {
80000db0:	e51b3014 	ldr	r3, [fp, #-20]
80000db4:	e3530000 	cmp	r3, #0
80000db8:	aa000008 	bge	80000de0 <_vprintk+0x2ac>
							  out((char)'-');
80000dbc:	e51b3028 	ldr	r3, [fp, #-40]	; 0x28
80000dc0:	e3a0002d 	mov	r0, #45	; 0x2d
80000dc4:	e12fff33 	blx	r3
							  d = -d;
80000dc8:	e51b3014 	ldr	r3, [fp, #-20]
80000dcc:	e2633000 	rsb	r3, r3, #0
80000dd0:	e50b3014 	str	r3, [fp, #-20]
							  min_width--;
80000dd4:	e51b3010 	ldr	r3, [fp, #-16]
80000dd8:	e2433001 	sub	r3, r3, #1
80000ddc:	e50b3010 	str	r3, [fp, #-16]
						  }
						  _printk_dec_ulong(out, d, pad_zero,
80000de0:	e51b3014 	ldr	r3, [fp, #-20]
80000de4:	e51b0028 	ldr	r0, [fp, #-40]	; 0x28
80000de8:	e1a01003 	mov	r1, r3
80000dec:	e51b200c 	ldr	r2, [fp, #-12]
80000df0:	e51b3010 	ldr	r3, [fp, #-16]
80000df4:	ebfffeaf 	bl	800008b8 <_printk_dec_ulong>
								  min_width);
						  break;
80000df8:	ea000049 	b	80000f24 <_vprintk+0x3f0>
					  }
				case 'u': {
						  unsigned long u = va_arg(
80000dfc:	e51b3030 	ldr	r3, [fp, #-48]	; 0x30
80000e00:	e2832004 	add	r2, r3, #4
80000e04:	e50b2030 	str	r2, [fp, #-48]	; 0x30
80000e08:	e5933000 	ldr	r3, [r3]
80000e0c:	e50b301c 	str	r3, [fp, #-28]
								  ap, unsigned long);
						  _printk_dec_ulong(out, u, pad_zero,
80000e10:	e51b0028 	ldr	r0, [fp, #-40]	; 0x28
80000e14:	e51b101c 	ldr	r1, [fp, #-28]
80000e18:	e51b200c 	ldr	r2, [fp, #-12]
80000e1c:	e51b3010 	ldr	r3, [fp, #-16]
80000e20:	ebfffea4 	bl	800008b8 <_printk_dec_ulong>
								  min_width);
						  break;
80000e24:	ea00003e 	b	80000f24 <_vprintk+0x3f0>
					  }
				case 'p':
					  out('0');
80000e28:	e51b3028 	ldr	r3, [fp, #-40]	; 0x28
80000e2c:	e3a00030 	mov	r0, #48	; 0x30
80000e30:	e12fff33 	blx	r3
					  out('x');
80000e34:	e51b3028 	ldr	r3, [fp, #-40]	; 0x28
80000e38:	e3a00078 	mov	r0, #120	; 0x78
80000e3c:	e12fff33 	blx	r3
					  /* left-pad pointers with zeros */
					  pad_zero = 1;
80000e40:	e3a03001 	mov	r3, #1
80000e44:	e50b300c 	str	r3, [fp, #-12]
					  min_width = 8;
80000e48:	e3a03008 	mov	r3, #8
80000e4c:	e50b3010 	str	r3, [fp, #-16]
					  /* Fall through */
				case 'x':
				case 'X': {
						  unsigned long x = va_arg(
80000e50:	e51b3030 	ldr	r3, [fp, #-48]	; 0x30
80000e54:	e2832004 	add	r2, r3, #4
80000e58:	e50b2030 	str	r2, [fp, #-48]	; 0x30
80000e5c:	e5933000 	ldr	r3, [r3]
80000e60:	e50b3020 	str	r3, [fp, #-32]
								  ap, unsigned long);
						  _printk_hex_ulong(out, x, pad_zero,
80000e64:	e51b0028 	ldr	r0, [fp, #-40]	; 0x28
80000e68:	e51b1020 	ldr	r1, [fp, #-32]
80000e6c:	e51b200c 	ldr	r2, [fp, #-12]
80000e70:	e51b3010 	ldr	r3, [fp, #-16]
80000e74:	ebfffee8 	bl	80000a1c <_printk_hex_ulong>
								  min_width);
						  break;
80000e78:	ea000029 	b	80000f24 <_vprintk+0x3f0>
					  }
				case 's': {
						  char *s = va_arg(ap, char *);
80000e7c:	e51b3030 	ldr	r3, [fp, #-48]	; 0x30
80000e80:	e2832004 	add	r2, r3, #4
80000e84:	e50b2030 	str	r2, [fp, #-48]	; 0x30
80000e88:	e5933000 	ldr	r3, [r3]
80000e8c:	e50b3018 	str	r3, [fp, #-24]

						  while (*s)
80000e90:	ea000006 	b	80000eb0 <_vprintk+0x37c>
							  out((char)(*s++));
80000e94:	e51b3018 	ldr	r3, [fp, #-24]
80000e98:	e2832001 	add	r2, r3, #1
80000e9c:	e50b2018 	str	r2, [fp, #-24]
80000ea0:	e5d32000 	ldrb	r2, [r3]
80000ea4:	e51b3028 	ldr	r3, [fp, #-40]	; 0x28
80000ea8:	e1a00002 	mov	r0, r2
80000eac:	e12fff33 	blx	r3
						  break;
					  }
				case 's': {
						  char *s = va_arg(ap, char *);

						  while (*s)
80000eb0:	e51b3018 	ldr	r3, [fp, #-24]
80000eb4:	e5d33000 	ldrb	r3, [r3]
80000eb8:	e3530000 	cmp	r3, #0
80000ebc:	1afffff4 	bne	80000e94 <_vprintk+0x360>
							  out((char)(*s++));
						  break;
80000ec0:	ea000017 	b	80000f24 <_vprintk+0x3f0>
					  }
				case 'c': {
						  int c = va_arg(ap, int);
80000ec4:	e51b3030 	ldr	r3, [fp, #-48]	; 0x30
80000ec8:	e2832004 	add	r2, r3, #4
80000ecc:	e50b2030 	str	r2, [fp, #-48]	; 0x30
80000ed0:	e5933000 	ldr	r3, [r3]
80000ed4:	e50b3024 	str	r3, [fp, #-36]	; 0x24

						  out(c);
80000ed8:	e51b3024 	ldr	r3, [fp, #-36]	; 0x24
80000edc:	e6ef2073 	uxtb	r2, r3
80000ee0:	e51b3028 	ldr	r3, [fp, #-40]	; 0x28
80000ee4:	e1a00002 	mov	r0, r2
80000ee8:	e12fff33 	blx	r3
						  break;
80000eec:	ea00000c 	b	80000f24 <_vprintk+0x3f0>
					  }
				case '%': {
						  out((char)'%');
80000ef0:	e51b3028 	ldr	r3, [fp, #-40]	; 0x28
80000ef4:	e3a00025 	mov	r0, #37	; 0x25
80000ef8:	e12fff33 	blx	r3
						  break;
80000efc:	ea000008 	b	80000f24 <_vprintk+0x3f0>
					  }
				default:
					  out((char)'%');
80000f00:	e51b3028 	ldr	r3, [fp, #-40]	; 0x28
80000f04:	e3a00025 	mov	r0, #37	; 0x25
80000f08:	e12fff33 	blx	r3
					  out((char)*fmt);
80000f0c:	e51b302c 	ldr	r3, [fp, #-44]	; 0x2c
80000f10:	e5d32000 	ldrb	r2, [r3]
80000f14:	e51b3028 	ldr	r3, [fp, #-40]	; 0x28
80000f18:	e1a00002 	mov	r0, r2
80000f1c:	e12fff33 	blx	r3
					  break;
80000f20:	e1a00000 	nop			; (mov r0, r0)
			}
			might_format = 0;
80000f24:	e3a03000 	mov	r3, #0
80000f28:	e50b3008 	str	r3, [fp, #-8]
80000f2c:	ea000000 	b	80000f34 <_vprintk+0x400>
					goto still_might_format;
				case 'z':
				case 'l':
				case 'h':
					/* FIXME: do nothing for these modifiers */
					goto still_might_format;
80000f30:	e1a00000 	nop			; (mov r0, r0)
					  break;
			}
			might_format = 0;
		}
still_might_format:
		++fmt;
80000f34:	e51b302c 	ldr	r3, [fp, #-44]	; 0x2c
80000f38:	e2833001 	add	r3, r3, #1
80000f3c:	e50b302c 	str	r3, [fp, #-44]	; 0x2c
	int pad_zero = 0;
	int min_width = -1;

	/* fmt has already been adjusted if needed */

	while (*fmt) {
80000f40:	e51b302c 	ldr	r3, [fp, #-44]	; 0x2c
80000f44:	e5d33000 	ldrb	r3, [r3]
80000f48:	e3530000 	cmp	r3, #0
80000f4c:	1affff05 	bne	80000b68 <_vprintk+0x34>
			might_format = 0;
		}
still_might_format:
		++fmt;
	}
}
80000f50:	e24bd004 	sub	sp, fp, #4
80000f54:	e8bd8800 	pop	{fp, pc}

80000f58 <memcmp>:
   void *memmove (void *, const void *, int)
   void *memset (void *, int, int)
   void *memchr (const void *, int, int)
 */
int memcmp (const void *dst, const void *src, int n) 
{
80000f58:	e52db004 	push	{fp}		; (str fp, [sp, #-4]!)
80000f5c:	e28db000 	add	fp, sp, #0
80000f60:	e24dd01c 	sub	sp, sp, #28
80000f64:	e50b0010 	str	r0, [fp, #-16]
80000f68:	e50b1014 	str	r1, [fp, #-20]
80000f6c:	e50b2018 	str	r2, [fp, #-24]
	const char *a = dst;
80000f70:	e51b3010 	ldr	r3, [fp, #-16]
80000f74:	e50b3008 	str	r3, [fp, #-8]
	const char *b = src;
80000f78:	e51b3014 	ldr	r3, [fp, #-20]
80000f7c:	e50b300c 	str	r3, [fp, #-12]
	if (!n)
80000f80:	e51b3018 	ldr	r3, [fp, #-24]
80000f84:	e3530000 	cmp	r3, #0
80000f88:	1a000001 	bne	80000f94 <memcmp+0x3c>
		return 0;
80000f8c:	e3a03000 	mov	r3, #0
80000f90:	ea000015 	b	80000fec <memcmp+0x94>

	while ((n-- > 0) && (*a++ == *b++))
80000f94:	e1a00000 	nop			; (mov r0, r0)
80000f98:	e51b3018 	ldr	r3, [fp, #-24]
80000f9c:	e2432001 	sub	r2, r3, #1
80000fa0:	e50b2018 	str	r2, [fp, #-24]
80000fa4:	e3530000 	cmp	r3, #0
80000fa8:	da000009 	ble	80000fd4 <memcmp+0x7c>
80000fac:	e51b3008 	ldr	r3, [fp, #-8]
80000fb0:	e2832001 	add	r2, r3, #1
80000fb4:	e50b2008 	str	r2, [fp, #-8]
80000fb8:	e5d32000 	ldrb	r2, [r3]
80000fbc:	e51b300c 	ldr	r3, [fp, #-12]
80000fc0:	e2831001 	add	r1, r3, #1
80000fc4:	e50b100c 	str	r1, [fp, #-12]
80000fc8:	e5d33000 	ldrb	r3, [r3]
80000fcc:	e1520003 	cmp	r2, r3
80000fd0:	0afffff0 	beq	80000f98 <memcmp+0x40>
		;
	
	return (*a - *b);
80000fd4:	e51b3008 	ldr	r3, [fp, #-8]
80000fd8:	e5d33000 	ldrb	r3, [r3]
80000fdc:	e1a02003 	mov	r2, r3
80000fe0:	e51b300c 	ldr	r3, [fp, #-12]
80000fe4:	e5d33000 	ldrb	r3, [r3]
80000fe8:	e0633002 	rsb	r3, r3, r2
}
80000fec:	e1a00003 	mov	r0, r3
80000ff0:	e24bd000 	sub	sp, fp, #0
80000ff4:	e49db004 	pop	{fp}		; (ldr fp, [sp], #4)
80000ff8:	e12fff1e 	bx	lr

80000ffc <strlen>:
int strlen (const char *str)
{ 
80000ffc:	e52db004 	push	{fp}		; (str fp, [sp, #-4]!)
80001000:	e28db000 	add	fp, sp, #0
80001004:	e24dd014 	sub	sp, sp, #20
80001008:	e50b0010 	str	r0, [fp, #-16]
	int i = 0;
8000100c:	e3a03000 	mov	r3, #0
80001010:	e50b3008 	str	r3, [fp, #-8]
	while(*(str+i) !='\0') 
80001014:	ea000002 	b	80001024 <strlen+0x28>
		i++;
80001018:	e51b3008 	ldr	r3, [fp, #-8]
8000101c:	e2833001 	add	r3, r3, #1
80001020:	e50b3008 	str	r3, [fp, #-8]
	return (*a - *b);
}
int strlen (const char *str)
{ 
	int i = 0;
	while(*(str+i) !='\0') 
80001024:	e51b3008 	ldr	r3, [fp, #-8]
80001028:	e51b2010 	ldr	r2, [fp, #-16]
8000102c:	e0823003 	add	r3, r2, r3
80001030:	e5d33000 	ldrb	r3, [r3]
80001034:	e3530000 	cmp	r3, #0
80001038:	1afffff6 	bne	80001018 <strlen+0x1c>
		i++;
	return i;
8000103c:	e51b3008 	ldr	r3, [fp, #-8]
}
80001040:	e1a00003 	mov	r0, r3
80001044:	e24bd000 	sub	sp, fp, #0
80001048:	e49db004 	pop	{fp}		; (ldr fp, [sp], #4)
8000104c:	e12fff1e 	bx	lr

80001050 <strcpy>:

char *strcpy (char *dst, const char *src) 
{
80001050:	e52db004 	push	{fp}		; (str fp, [sp, #-4]!)
80001054:	e28db000 	add	fp, sp, #0
80001058:	e24dd014 	sub	sp, sp, #20
8000105c:	e50b0010 	str	r0, [fp, #-16]
80001060:	e50b1014 	str	r1, [fp, #-20]
	char *d = dst;
80001064:	e51b3010 	ldr	r3, [fp, #-16]
80001068:	e50b3008 	str	r3, [fp, #-8]
	while ((*dst++ = *src++));
8000106c:	e1a00000 	nop			; (mov r0, r0)
80001070:	e51b3010 	ldr	r3, [fp, #-16]
80001074:	e2832001 	add	r2, r3, #1
80001078:	e50b2010 	str	r2, [fp, #-16]
8000107c:	e51b2014 	ldr	r2, [fp, #-20]
80001080:	e2821001 	add	r1, r2, #1
80001084:	e50b1014 	str	r1, [fp, #-20]
80001088:	e5d22000 	ldrb	r2, [r2]
8000108c:	e5c32000 	strb	r2, [r3]
80001090:	e5d33000 	ldrb	r3, [r3]
80001094:	e3530000 	cmp	r3, #0
80001098:	1afffff4 	bne	80001070 <strcpy+0x20>
	return d;
8000109c:	e51b3008 	ldr	r3, [fp, #-8]
}
800010a0:	e1a00003 	mov	r0, r3
800010a4:	e24bd000 	sub	sp, fp, #0
800010a8:	e49db004 	pop	{fp}		; (ldr fp, [sp], #4)
800010ac:	e12fff1e 	bx	lr

800010b0 <strncpy>:


char *strncpy (char *dst, const char *src, int n)
{
800010b0:	e52db004 	push	{fp}		; (str fp, [sp, #-4]!)
800010b4:	e28db000 	add	fp, sp, #0
800010b8:	e24dd01c 	sub	sp, sp, #28
800010bc:	e50b0010 	str	r0, [fp, #-16]
800010c0:	e50b1014 	str	r1, [fp, #-20]
800010c4:	e50b2018 	str	r2, [fp, #-24]
	char *d = dst;
800010c8:	e51b3010 	ldr	r3, [fp, #-16]
800010cc:	e50b3008 	str	r3, [fp, #-8]
	while ((n-- > 0) && (*dst++ = *src++) );
800010d0:	e1a00000 	nop			; (mov r0, r0)
800010d4:	e51b3018 	ldr	r3, [fp, #-24]
800010d8:	e2432001 	sub	r2, r3, #1
800010dc:	e50b2018 	str	r2, [fp, #-24]
800010e0:	e3530000 	cmp	r3, #0
800010e4:	da00000a 	ble	80001114 <strncpy+0x64>
800010e8:	e51b3010 	ldr	r3, [fp, #-16]
800010ec:	e2832001 	add	r2, r3, #1
800010f0:	e50b2010 	str	r2, [fp, #-16]
800010f4:	e51b2014 	ldr	r2, [fp, #-20]
800010f8:	e2821001 	add	r1, r2, #1
800010fc:	e50b1014 	str	r1, [fp, #-20]
80001100:	e5d22000 	ldrb	r2, [r2]
80001104:	e5c32000 	strb	r2, [r3]
80001108:	e5d33000 	ldrb	r3, [r3]
8000110c:	e3530000 	cmp	r3, #0
80001110:	1affffef 	bne	800010d4 <strncpy+0x24>
	while (n > 0) {
80001114:	ea000007 	b	80001138 <strncpy+0x88>
		*dst++ = '\0';
80001118:	e51b3010 	ldr	r3, [fp, #-16]
8000111c:	e2832001 	add	r2, r3, #1
80001120:	e50b2010 	str	r2, [fp, #-16]
80001124:	e3a02000 	mov	r2, #0
80001128:	e5c32000 	strb	r2, [r3]
		n--;
8000112c:	e51b3018 	ldr	r3, [fp, #-24]
80001130:	e2433001 	sub	r3, r3, #1
80001134:	e50b3018 	str	r3, [fp, #-24]

char *strncpy (char *dst, const char *src, int n)
{
	char *d = dst;
	while ((n-- > 0) && (*dst++ = *src++) );
	while (n > 0) {
80001138:	e51b3018 	ldr	r3, [fp, #-24]
8000113c:	e3530000 	cmp	r3, #0
80001140:	cafffff4 	bgt	80001118 <strncpy+0x68>
		*dst++ = '\0';
		n--;
	}
	return d;
80001144:	e51b3008 	ldr	r3, [fp, #-8]
}
80001148:	e1a00003 	mov	r0, r3
8000114c:	e24bd000 	sub	sp, fp, #0
80001150:	e49db004 	pop	{fp}		; (ldr fp, [sp], #4)
80001154:	e12fff1e 	bx	lr

80001158 <strcat>:
char *strcat (char *dst, const char *src) 
{
80001158:	e92d4800 	push	{fp, lr}
8000115c:	e28db004 	add	fp, sp, #4
80001160:	e24dd010 	sub	sp, sp, #16
80001164:	e50b0010 	str	r0, [fp, #-16]
80001168:	e50b1014 	str	r1, [fp, #-20]
	int i = strlen(dst);
8000116c:	e51b0010 	ldr	r0, [fp, #-16]
80001170:	ebffffa1 	bl	80000ffc <strlen>
80001174:	e50b0008 	str	r0, [fp, #-8]
	while ((*(dst + i++) = (*src++)));
80001178:	e1a00000 	nop			; (mov r0, r0)
8000117c:	e51b3008 	ldr	r3, [fp, #-8]
80001180:	e2832001 	add	r2, r3, #1
80001184:	e50b2008 	str	r2, [fp, #-8]
80001188:	e51b2010 	ldr	r2, [fp, #-16]
8000118c:	e0823003 	add	r3, r2, r3
80001190:	e51b2014 	ldr	r2, [fp, #-20]
80001194:	e2821001 	add	r1, r2, #1
80001198:	e50b1014 	str	r1, [fp, #-20]
8000119c:	e5d22000 	ldrb	r2, [r2]
800011a0:	e5c32000 	strb	r2, [r3]
800011a4:	e5d33000 	ldrb	r3, [r3]
800011a8:	e3530000 	cmp	r3, #0
800011ac:	1afffff2 	bne	8000117c <strcat+0x24>

	return dst;
800011b0:	e51b3010 	ldr	r3, [fp, #-16]
}
800011b4:	e1a00003 	mov	r0, r3
800011b8:	e24bd004 	sub	sp, fp, #4
800011bc:	e8bd8800 	pop	{fp, pc}

800011c0 <strncat>:
char *strncat (char *dst, const char *src, int n)
{
800011c0:	e92d4800 	push	{fp, lr}
800011c4:	e28db004 	add	fp, sp, #4
800011c8:	e24dd018 	sub	sp, sp, #24
800011cc:	e50b0010 	str	r0, [fp, #-16]
800011d0:	e50b1014 	str	r1, [fp, #-20]
800011d4:	e50b2018 	str	r2, [fp, #-24]
	int i = strlen(dst);
800011d8:	e51b0010 	ldr	r0, [fp, #-16]
800011dc:	ebffff86 	bl	80000ffc <strlen>
800011e0:	e50b0008 	str	r0, [fp, #-8]
	while ((n-- > 0) && (*(dst+i++) = (*src++)));
800011e4:	e1a00000 	nop			; (mov r0, r0)
800011e8:	e51b3018 	ldr	r3, [fp, #-24]
800011ec:	e2432001 	sub	r2, r3, #1
800011f0:	e50b2018 	str	r2, [fp, #-24]
800011f4:	e3530000 	cmp	r3, #0
800011f8:	da00000c 	ble	80001230 <strncat+0x70>
800011fc:	e51b3008 	ldr	r3, [fp, #-8]
80001200:	e2832001 	add	r2, r3, #1
80001204:	e50b2008 	str	r2, [fp, #-8]
80001208:	e51b2010 	ldr	r2, [fp, #-16]
8000120c:	e0823003 	add	r3, r2, r3
80001210:	e51b2014 	ldr	r2, [fp, #-20]
80001214:	e2821001 	add	r1, r2, #1
80001218:	e50b1014 	str	r1, [fp, #-20]
8000121c:	e5d22000 	ldrb	r2, [r2]
80001220:	e5c32000 	strb	r2, [r3]
80001224:	e5d33000 	ldrb	r3, [r3]
80001228:	e3530000 	cmp	r3, #0
8000122c:	1affffed 	bne	800011e8 <strncat+0x28>
	while (n > 0) {
80001230:	ea000009 	b	8000125c <strncat+0x9c>
		*(dst + i++) = '\0';
80001234:	e51b3008 	ldr	r3, [fp, #-8]
80001238:	e2832001 	add	r2, r3, #1
8000123c:	e50b2008 	str	r2, [fp, #-8]
80001240:	e51b2010 	ldr	r2, [fp, #-16]
80001244:	e0823003 	add	r3, r2, r3
80001248:	e3a02000 	mov	r2, #0
8000124c:	e5c32000 	strb	r2, [r3]
		n--;
80001250:	e51b3018 	ldr	r3, [fp, #-24]
80001254:	e2433001 	sub	r3, r3, #1
80001258:	e50b3018 	str	r3, [fp, #-24]
}
char *strncat (char *dst, const char *src, int n)
{
	int i = strlen(dst);
	while ((n-- > 0) && (*(dst+i++) = (*src++)));
	while (n > 0) {
8000125c:	e51b3018 	ldr	r3, [fp, #-24]
80001260:	e3530000 	cmp	r3, #0
80001264:	cafffff2 	bgt	80001234 <strncat+0x74>
		*(dst + i++) = '\0';
		n--;
	}		
	return dst;
80001268:	e51b3010 	ldr	r3, [fp, #-16]

}
8000126c:	e1a00003 	mov	r0, r3
80001270:	e24bd004 	sub	sp, fp, #4
80001274:	e8bd8800 	pop	{fp, pc}

80001278 <strcmp>:

int strcmp (char const* dst, const char *src)
{
80001278:	e52db004 	push	{fp}		; (str fp, [sp, #-4]!)
8000127c:	e28db000 	add	fp, sp, #0
80001280:	e24dd00c 	sub	sp, sp, #12
80001284:	e50b0008 	str	r0, [fp, #-8]
80001288:	e50b100c 	str	r1, [fp, #-12]
	while ( *dst && *src) {
8000128c:	ea00000c 	b	800012c4 <strcmp+0x4c>
		if (*dst != *src)
80001290:	e51b3008 	ldr	r3, [fp, #-8]
80001294:	e5d32000 	ldrb	r2, [r3]
80001298:	e51b300c 	ldr	r3, [fp, #-12]
8000129c:	e5d33000 	ldrb	r3, [r3]
800012a0:	e1520003 	cmp	r2, r3
800012a4:	0a000000 	beq	800012ac <strcmp+0x34>
			break;
800012a8:	ea00000d 	b	800012e4 <strcmp+0x6c>
		dst++;
800012ac:	e51b3008 	ldr	r3, [fp, #-8]
800012b0:	e2833001 	add	r3, r3, #1
800012b4:	e50b3008 	str	r3, [fp, #-8]
		src++;
800012b8:	e51b300c 	ldr	r3, [fp, #-12]
800012bc:	e2833001 	add	r3, r3, #1
800012c0:	e50b300c 	str	r3, [fp, #-12]

}

int strcmp (char const* dst, const char *src)
{
	while ( *dst && *src) {
800012c4:	e51b3008 	ldr	r3, [fp, #-8]
800012c8:	e5d33000 	ldrb	r3, [r3]
800012cc:	e3530000 	cmp	r3, #0
800012d0:	0a000003 	beq	800012e4 <strcmp+0x6c>
800012d4:	e51b300c 	ldr	r3, [fp, #-12]
800012d8:	e5d33000 	ldrb	r3, [r3]
800012dc:	e3530000 	cmp	r3, #0
800012e0:	1affffea 	bne	80001290 <strcmp+0x18>
		if (*dst != *src)
			break;
		dst++;
		src++;
	}
	return (*dst - *src);
800012e4:	e51b3008 	ldr	r3, [fp, #-8]
800012e8:	e5d33000 	ldrb	r3, [r3]
800012ec:	e1a02003 	mov	r2, r3
800012f0:	e51b300c 	ldr	r3, [fp, #-12]
800012f4:	e5d33000 	ldrb	r3, [r3]
800012f8:	e0633002 	rsb	r3, r3, r2

}
800012fc:	e1a00003 	mov	r0, r3
80001300:	e24bd000 	sub	sp, fp, #0
80001304:	e49db004 	pop	{fp}		; (ldr fp, [sp], #4)
80001308:	e12fff1e 	bx	lr

8000130c <strncmp>:


int strncmp (char const *dst, const char *src, int n)
{  
8000130c:	e52db004 	push	{fp}		; (str fp, [sp, #-4]!)
80001310:	e28db000 	add	fp, sp, #0
80001314:	e24dd014 	sub	sp, sp, #20
80001318:	e50b0008 	str	r0, [fp, #-8]
8000131c:	e50b100c 	str	r1, [fp, #-12]
80001320:	e50b2010 	str	r2, [fp, #-16]

	while ( *dst && *src && n > 0) {
80001324:	ea00000f 	b	80001368 <strncmp+0x5c>
		if (*dst != *src)
80001328:	e51b3008 	ldr	r3, [fp, #-8]
8000132c:	e5d32000 	ldrb	r2, [r3]
80001330:	e51b300c 	ldr	r3, [fp, #-12]
80001334:	e5d33000 	ldrb	r3, [r3]
80001338:	e1520003 	cmp	r2, r3
8000133c:	0a000000 	beq	80001344 <strncmp+0x38>
			break;
80001340:	ea000013 	b	80001394 <strncmp+0x88>
		dst++;
80001344:	e51b3008 	ldr	r3, [fp, #-8]
80001348:	e2833001 	add	r3, r3, #1
8000134c:	e50b3008 	str	r3, [fp, #-8]
		src++;
80001350:	e51b300c 	ldr	r3, [fp, #-12]
80001354:	e2833001 	add	r3, r3, #1
80001358:	e50b300c 	str	r3, [fp, #-12]
		n--;
8000135c:	e51b3010 	ldr	r3, [fp, #-16]
80001360:	e2433001 	sub	r3, r3, #1
80001364:	e50b3010 	str	r3, [fp, #-16]


int strncmp (char const *dst, const char *src, int n)
{  

	while ( *dst && *src && n > 0) {
80001368:	e51b3008 	ldr	r3, [fp, #-8]
8000136c:	e5d33000 	ldrb	r3, [r3]
80001370:	e3530000 	cmp	r3, #0
80001374:	0a000006 	beq	80001394 <strncmp+0x88>
80001378:	e51b300c 	ldr	r3, [fp, #-12]
8000137c:	e5d33000 	ldrb	r3, [r3]
80001380:	e3530000 	cmp	r3, #0
80001384:	0a000002 	beq	80001394 <strncmp+0x88>
80001388:	e51b3010 	ldr	r3, [fp, #-16]
8000138c:	e3530000 	cmp	r3, #0
80001390:	caffffe4 	bgt	80001328 <strncmp+0x1c>
			break;
		dst++;
		src++;
		n--;
	}
	return (*dst - *src);
80001394:	e51b3008 	ldr	r3, [fp, #-8]
80001398:	e5d33000 	ldrb	r3, [r3]
8000139c:	e1a02003 	mov	r2, r3
800013a0:	e51b300c 	ldr	r3, [fp, #-12]
800013a4:	e5d33000 	ldrb	r3, [r3]
800013a8:	e0633002 	rsb	r3, r3, r2
}
800013ac:	e1a00003 	mov	r0, r3
800013b0:	e24bd000 	sub	sp, fp, #0
800013b4:	e49db004 	pop	{fp}		; (ldr fp, [sp], #4)
800013b8:	e12fff1e 	bx	lr

800013bc <strchr>:
char *strchr (char const *ptr, int c) 
{
800013bc:	e52db004 	push	{fp}		; (str fp, [sp, #-4]!)
800013c0:	e28db000 	add	fp, sp, #0
800013c4:	e24dd014 	sub	sp, sp, #20
800013c8:	e50b0010 	str	r0, [fp, #-16]
800013cc:	e50b1014 	str	r1, [fp, #-20]
	char s = (char)c;
800013d0:	e51b3014 	ldr	r3, [fp, #-20]
800013d4:	e54b3005 	strb	r3, [fp, #-5]
	while ( (*ptr != '\0') && (*ptr != s))
800013d8:	ea000002 	b	800013e8 <strchr+0x2c>
	{
		ptr++;
800013dc:	e51b3010 	ldr	r3, [fp, #-16]
800013e0:	e2833001 	add	r3, r3, #1
800013e4:	e50b3010 	str	r3, [fp, #-16]
	return (*dst - *src);
}
char *strchr (char const *ptr, int c) 
{
	char s = (char)c;
	while ( (*ptr != '\0') && (*ptr != s))
800013e8:	e51b3010 	ldr	r3, [fp, #-16]
800013ec:	e5d33000 	ldrb	r3, [r3]
800013f0:	e3530000 	cmp	r3, #0
800013f4:	0a000004 	beq	8000140c <strchr+0x50>
800013f8:	e51b3010 	ldr	r3, [fp, #-16]
800013fc:	e5d33000 	ldrb	r3, [r3]
80001400:	e55b2005 	ldrb	r2, [fp, #-5]
80001404:	e1520003 	cmp	r2, r3
80001408:	1afffff3 	bne	800013dc <strchr+0x20>
	{
		ptr++;
	}
	return (*ptr == '\0' ? NULL : (char *)ptr);
8000140c:	e51b3010 	ldr	r3, [fp, #-16]
80001410:	e5d33000 	ldrb	r3, [r3]
80001414:	e3530000 	cmp	r3, #0
80001418:	0a000001 	beq	80001424 <strchr+0x68>
8000141c:	e51b3010 	ldr	r3, [fp, #-16]
80001420:	ea000000 	b	80001428 <strchr+0x6c>
80001424:	e3a03000 	mov	r3, #0
}
80001428:	e1a00003 	mov	r0, r3
8000142c:	e24bd000 	sub	sp, fp, #0
80001430:	e49db004 	pop	{fp}		; (ldr fp, [sp], #4)
80001434:	e12fff1e 	bx	lr

80001438 <strrchr>:
char *strrchr (char const *ptr, int c)
{
80001438:	e52db004 	push	{fp}		; (str fp, [sp, #-4]!)
8000143c:	e28db000 	add	fp, sp, #0
80001440:	e24dd014 	sub	sp, sp, #20
80001444:	e50b0010 	str	r0, [fp, #-16]
80001448:	e50b1014 	str	r1, [fp, #-20]
	char *temp = NULL;
8000144c:	e3a03000 	mov	r3, #0
80001450:	e50b3008 	str	r3, [fp, #-8]
	char s = (char) c;
80001454:	e51b3014 	ldr	r3, [fp, #-20]
80001458:	e54b3009 	strb	r3, [fp, #-9]
	while (*ptr != '\0') {
8000145c:	ea000009 	b	80001488 <strrchr+0x50>
		if (*ptr == s)
80001460:	e51b3010 	ldr	r3, [fp, #-16]
80001464:	e5d33000 	ldrb	r3, [r3]
80001468:	e55b2009 	ldrb	r2, [fp, #-9]
8000146c:	e1520003 	cmp	r2, r3
80001470:	1a000001 	bne	8000147c <strrchr+0x44>
			temp = (char *)ptr;
80001474:	e51b3010 	ldr	r3, [fp, #-16]
80001478:	e50b3008 	str	r3, [fp, #-8]
		ptr++;
8000147c:	e51b3010 	ldr	r3, [fp, #-16]
80001480:	e2833001 	add	r3, r3, #1
80001484:	e50b3010 	str	r3, [fp, #-16]
}
char *strrchr (char const *ptr, int c)
{
	char *temp = NULL;
	char s = (char) c;
	while (*ptr != '\0') {
80001488:	e51b3010 	ldr	r3, [fp, #-16]
8000148c:	e5d33000 	ldrb	r3, [r3]
80001490:	e3530000 	cmp	r3, #0
80001494:	1afffff1 	bne	80001460 <strrchr+0x28>
		if (*ptr == s)
			temp = (char *)ptr;
		ptr++;
	}
	return temp;
80001498:	e51b3008 	ldr	r3, [fp, #-8]
}
8000149c:	e1a00003 	mov	r0, r3
800014a0:	e24bd000 	sub	sp, fp, #0
800014a4:	e49db004 	pop	{fp}		; (ldr fp, [sp], #4)
800014a8:	e12fff1e 	bx	lr

Disassembly of section .rodata:

800014ac <.LC0>:
800014ac:	74726155 	ldrbtvc	r6, [r2], #-341	; 0x155
800014b0:	696e6920 	stmdbvs	lr!, {r5, r8, fp, sp, lr}^
800014b4:	6f642074 	svcvs	0x00642074
800014b8:	3a20656e 	bcc	8081aa78 <value+0x819578>
800014bc:	00000020 	andeq	r0, r0, r0, lsr #32

800014c0 <.LC1>:
800014c0:	73206948 	teqvc	r0, #72, 18	; 0x120000
800014c4:	68736168 	ldmdavs	r3!, {r3, r5, r6, r8, sp, lr}^
800014c8:	00000a69 	andeq	r0, r0, r9, ror #20

800014cc <.LC2>:
800014cc:	64206948 	strtvs	r6, [r0], #-2376	; 0x948
800014d0:	61626261 	cmnvs	r2, r1, ror #4
800014d4:	00000a0a 	andeq	r0, r0, sl, lsl #20

800014d8 <.LC3>:
800014d8:	2052434c 	subscs	r4, r2, ip, asr #6
800014dc:	756c6176 	strbvc	r6, [ip, #-374]!	; 0x176
800014e0:	203d2065 	eorscs	r2, sp, r5, rrx
800014e4:	000a7825 	andeq	r7, sl, r5, lsr #16

800014e8 <.LC4>:
800014e8:	65746e45 	ldrbvs	r6, [r4, #-3653]!	; 0xe45
800014ec:	20612072 	rsbcs	r2, r1, r2, ror r0
800014f0:	72616863 	rsbvc	r6, r1, #6488064	; 0x630000
800014f4:	65746361 	ldrbvs	r6, [r4, #-865]!	; 0x361
800014f8:	203a2072 	eorscs	r2, sl, r2, ror r0
800014fc:	00000000 	andeq	r0, r0, r0

Disassembly of section .bss:

80001500 <value>:
	...

Disassembly of section .ARM.attributes:

00000000 <.ARM.attributes>:
   0:	00003a41 	andeq	r3, r0, r1, asr #20
   4:	61656100 	cmnvs	r5, r0, lsl #2
   8:	01006962 	tsteq	r0, r2, ror #18
   c:	00000030 	andeq	r0, r0, r0, lsr r0
  10:	726f4305 	rsbvc	r4, pc, #335544320	; 0x14000000
  14:	2d786574 	cfldr64cs	mvdx6, [r8, #-464]!	; 0xfffffe30
  18:	06003841 	streq	r3, [r0], -r1, asr #16
  1c:	0841070a 	stmdaeq	r1, {r1, r3, r8, r9, sl}^
  20:	0a020901 	beq	8242c <_start-0x7ff7dbd4>
  24:	12010c03 	andne	r0, r1, #768	; 0x300
  28:	15011404 	strne	r1, [r1, #-1028]	; 0x404
  2c:	18031701 	stmdane	r3, {r0, r8, r9, sl, ip}
  30:	1b011a01 	blne	4683c <_start-0x7ffb97c4>
  34:	22011c03 	andcs	r1, r1, #768	; 0x300
  38:	Address 0x0000000000000038 is out of bounds.


Disassembly of section .comment:

00000000 <.comment>:
   0:	3a434347 	bcc	10d0d24 <_start-0x7ef2f2dc>
   4:	2e342820 	cdpcs	8, 3, cr2, cr4, cr0, {1}
   8:	2d322e38 	ldccs	14, cr2, [r2, #-224]!	; 0xffffff20
   c:	62753431 	rsbsvs	r3, r5, #822083584	; 0x31000000
  10:	75746e75 	ldrbvc	r6, [r4, #-3701]!	; 0xe75
  14:	29362b31 	ldmdbcs	r6!, {r0, r4, r5, r8, r9, fp, sp}
  18:	382e3420 	stmdacc	lr!, {r5, sl, ip, sp}
  1c:	Address 0x000000000000001c is out of bounds.


Disassembly of section .debug_info:

00000000 <.debug_info>:
       0:	0000007f 	andeq	r0, r0, pc, ror r0
       4:	00000004 	andeq	r0, r0, r4
       8:	01040000 	mrseq	r0, (UNDEF: 4)
       c:	00000009 	andeq	r0, r0, r9
      10:	00007501 	andeq	r7, r0, r1, lsl #10
      14:	00008a00 	andeq	r8, r0, r0, lsl #20
      18:	00003c00 	andeq	r3, r0, r0, lsl #24
      1c:	00006880 	andeq	r6, r0, r0, lsl #17
      20:	00000000 	andeq	r0, r0, r0
      24:	00620200 	rsbeq	r0, r2, r0, lsl #4
      28:	04020000 	streq	r0, [r2], #-0
      2c:	00000030 	andeq	r0, r0, r0, lsr r0
      30:	a5070403 	strge	r0, [r7, #-1027]	; 0x403
      34:	0300001d 	movweq	r0, #29
      38:	004f0702 	subeq	r0, pc, r2, lsl #14
      3c:	01030000 	mrseq	r0, (UNDEF: 3)
      40:	00007c08 	andeq	r7, r0, r8, lsl #24
      44:	05040400 	streq	r0, [r4, #-1024]	; 0x400
      48:	00746e69 	rsbseq	r6, r4, r9, ror #28
      4c:	6b050203 	blvs	140860 <_start-0x7febf7a0>
      50:	03000000 	movweq	r0, #0
      54:	00850801 	addeq	r0, r5, r1, lsl #16
      58:	00050000 	andeq	r0, r5, r0
      5c:	01000000 	mrseq	r0, (UNDEF: 0)
      60:	00003c03 	andeq	r3, r0, r3, lsl #24
      64:	00006880 	andeq	r6, r0, r0, lsl #17
      68:	7d9c0100 	ldfvcs	f0, [ip]
      6c:	06000000 	streq	r0, [r0], -r0
      70:	01006172 	tsteq	r0, r2, ror r1
      74:	00007d07 	andeq	r7, r0, r7, lsl #26
      78:	74910200 	ldrvc	r0, [r1], #512	; 0x200
      7c:	00300700 	eorseq	r0, r0, r0, lsl #14
      80:	6c000000 	stcvs	0, cr0, [r0], {-0}
      84:	04000004 	streq	r0, [r0], #-4
      88:	00006700 	andeq	r6, r0, r0, lsl #14
      8c:	09010400 	stmdbeq	r1, {sl}
      90:	01000000 	mrseq	r0, (UNDEF: 0)
      94:	00000961 	andeq	r0, r0, r1, ror #18
      98:	0000008a 	andeq	r0, r0, sl, lsl #1
      9c:	800000a4 	andhi	r0, r0, r4, lsr #1
      a0:	00000148 	andeq	r0, r0, r8, asr #2
      a4:	00000045 	andeq	r0, r0, r5, asr #32
      a8:	00006202 	andeq	r6, r0, r2, lsl #4
      ac:	30040200 	andcc	r0, r4, r0, lsl #4
      b0:	03000000 	movweq	r0, #0
      b4:	1da50704 	stcne	7, cr0, [r5, #16]!
      b8:	02030000 	andeq	r0, r3, #0
      bc:	00004f07 	andeq	r4, r0, r7, lsl #30
      c0:	08010300 	stmdaeq	r1, {r8, r9}
      c4:	0000007c 	andeq	r0, r0, ip, ror r0
      c8:	69050404 	stmdbvs	r5, {r2, sl}
      cc:	0300746e 	movweq	r7, #1134	; 0x46e
      d0:	006b0502 	rsbeq	r0, fp, r2, lsl #10
      d4:	01030000 	mrseq	r0, (UNDEF: 3)
      d8:	00008508 	andeq	r8, r0, r8, lsl #10
      dc:	03040500 	movweq	r0, #17664	; 0x4500
      e0:	0000b30b 	andeq	fp, r0, fp, lsl #6
      e4:	061c0600 	ldreq	r0, [ip], -r0, lsl #12
      e8:	80800000 	addhi	r0, r0, r0
      ec:	0604a780 	streq	sl, [r4], -r0, lsl #15
      f0:	00000692 	muleq	r0, r2, r6
      f4:	a7808880 	strge	r8, [r0, r0, lsl #17]
      f8:	07500604 	ldrbeq	r0, [r0, -r4, lsl #12]
      fc:	8a800000 	bhi	fe000104 <value+0x7dffec04>
     100:	0604a780 	streq	sl, [r4], -r0, lsl #15
     104:	00000862 	andeq	r0, r0, r2, ror #16
     108:	a7808c80 	strge	r8, [r0, r0, lsl #25]
     10c:	08580604 	ldmdaeq	r8, {r2, r9, sl}^
     110:	8e800000 	cdphi	0, 8, cr0, cr0, cr0, {0}
     114:	0604a780 	streq	sl, [r4], -r0, lsl #15
     118:	00000285 	andeq	r0, r0, r5, lsl #5
     11c:	a7809080 	strge	r9, [r0, r0, lsl #1]
     120:	08c60604 	stmiaeq	r6, {r2, r9, sl}^
     124:	92800000 	addls	r0, r0, #0
     128:	0604a780 	streq	sl, [r4], -r0, lsl #15
     12c:	0000066a 	andeq	r0, r0, sl, ror #12
     130:	a7809480 	strge	r9, [r0, r0, lsl #9]
     134:	ef020004 	svc	0x00020004
     138:	0300000a 	movweq	r0, #10
     13c:	00005a14 	andeq	r5, r0, r4, lsl sl
     140:	03020500 	movweq	r0, #9472	; 0x2500
     144:	0003ce1c 	andeq	ip, r3, ip, lsl lr
     148:	076d0600 	strbeq	r0, [sp, -r0, lsl #12]!
     14c:	06000000 	streq	r0, [r0], -r0
     150:	000005c2 	andeq	r0, r0, r2, asr #11
     154:	01470604 	cmpeq	r7, r4, lsl #12
     158:	06080000 	streq	r0, [r8], -r0
     15c:	000000b3 	strheq	r0, [r0], -r3
     160:	04bf060c 	ldrteq	r0, [pc], #1548	; 168 <_start-0x7ffffe98>
     164:	06140000 	ldreq	r0, [r4], -r0
     168:	0000081c 	andeq	r0, r0, ip, lsl r8
     16c:	063e0618 			; <UNDEFINED> instruction: 0x063e0618
     170:	061c0000 	ldreq	r0, [ip], -r0
     174:	00000132 	andeq	r0, r0, r2, lsr r1
     178:	07150624 	ldreq	r0, [r5, -r4, lsr #12]
     17c:	06280000 	strteq	r0, [r8], -r0
     180:	00000805 	andeq	r0, r0, r5, lsl #16
     184:	09a5062c 	stmibeq	r5!, {r2, r3, r5, r9, sl}
     188:	06300000 	ldrteq	r0, [r0], -r0
     18c:	000000c7 	andeq	r0, r0, r7, asr #1
     190:	01870634 	orreq	r0, r7, r4, lsr r6
     194:	06380000 	ldrteq	r0, [r8], -r0
     198:	0000028c 	andeq	r0, r0, ip, lsl #5
     19c:	0729063c 			; <UNDEFINED> instruction: 0x0729063c
     1a0:	00c00000 	sbceq	r0, r0, r0
     1a4:	00033906 	andeq	r3, r3, r6, lsl #18
     1a8:	0600c400 	streq	ip, [r0], -r0, lsl #8
     1ac:	000002b4 			; <UNDEFINED> instruction: 0x000002b4
     1b0:	dd0600c8 	stcle	0, cr0, [r6, #-800]	; 0xfffffce0
     1b4:	cc000000 	stcgt	0, cr0, [r0], {-0}
     1b8:	043f0600 	ldrteq	r0, [pc], #-1536	; 1c0 <_start-0x7ffffe40>
     1bc:	00d00000 	sbcseq	r0, r0, r0
     1c0:	0005ae06 	andeq	sl, r5, r6, lsl #28
     1c4:	0600e000 	streq	lr, [r0], -r0
     1c8:	00000271 	andeq	r0, r0, r1, ror r2
     1cc:	1c0600e4 	stcne	0, cr0, [r6], {228}	; 0xe4
     1d0:	e8000001 	stmda	r0, {r0}
     1d4:	0a1a0600 	beq	6819dc <_start-0x7f97e624>
     1d8:	00ec0000 	rsceq	r0, ip, r0
     1dc:	000ac306 	andeq	ip, sl, r6, lsl #6
     1e0:	0600f000 	streq	pc, [r0], -r0
     1e4:	0000034d 	andeq	r0, r0, sp, asr #6
     1e8:	070600f4 			; <UNDEFINED> instruction: 0x070600f4
     1ec:	f8000001 			; <UNDEFINED> instruction: 0xf8000001
     1f0:	04f20600 	ldrbteq	r0, [r2], #1536	; 0x600
     1f4:	00fc0000 	rscseq	r0, ip, r0
     1f8:	0002f406 	andeq	pc, r2, r6, lsl #8
     1fc:	06018000 	streq	r8, [r1], -r0
     200:	00000362 	andeq	r0, r0, r2, ror #6
     204:	e6060184 	str	r0, [r6], -r4, lsl #3
     208:	88000003 	stmdahi	r0, {r0, r1}
     20c:	06d50601 	ldrbeq	r0, [r5], r1, lsl #12
     210:	01ac0000 			; <UNDEFINED> instruction: 0x01ac0000
     214:	00070006 	andeq	r0, r7, r6
     218:	0601b000 	streq	fp, [r1], -r0
     21c:	00000758 	andeq	r0, r0, r8, asr r7
     220:	e60601b4 			; <UNDEFINED> instruction: 0xe60601b4
     224:	bc000008 	stclt	0, cr0, [r0], {8}
     228:	025c0601 	subseq	r0, ip, #1048576	; 0x100000
     22c:	01c00000 	biceq	r0, r0, r0
     230:	00046506 	andeq	r6, r4, r6, lsl #10
     234:	0601c400 	streq	ip, [r1], -r0, lsl #8
     238:	00000a94 	muleq	r0, r4, sl
     23c:	370601cc 	strcc	r0, [r6, -ip, asr #3]
     240:	d0000009 	andle	r0, r0, r9
     244:	047a0601 	ldrbteq	r0, [sl], #-1537	; 0x601
     248:	01d40000 	bicseq	r0, r4, r0
     24c:	00056b06 	andeq	r6, r5, r6, lsl #22
     250:	0601d800 	streq	sp, [r1], -r0, lsl #16
     254:	00000aab 	andeq	r0, r0, fp, lsr #21
     258:	530601dc 	movwpl	r0, #25052	; 0x61dc
     25c:	e0000004 	and	r0, r0, r4
     260:	02dc0601 	sbcseq	r0, ip, #1048576	; 0x100000
     264:	01e40000 	mvneq	r0, r0
     268:	00049106 	andeq	r9, r4, r6, lsl #2
     26c:	0601e800 	streq	lr, [r1], -r0, lsl #16
     270:	00000429 	andeq	r0, r0, r9, lsr #8
     274:	380601ec 	stmdacc	r6, {r2, r3, r5, r6, r7, r8}
     278:	f0000005 			; <UNDEFINED> instruction: 0xf0000005
     27c:	030a0601 	movweq	r0, #42497	; 0xa601
     280:	01f40000 	mvnseq	r0, r0
     284:	00037806 	andeq	r7, r3, r6, lsl #16
     288:	0601f800 	streq	pc, [r1], -r0, lsl #16
     28c:	00000783 	andeq	r0, r0, r3, lsl #15
     290:	f00601fc 			; <UNDEFINED> instruction: 0xf00601fc
     294:	80000007 	andhi	r0, r0, r7
     298:	038c0602 	orreq	r0, ip, #2097152	; 0x200000
     29c:	028c0000 	addeq	r0, ip, #0
     2a0:	00065206 	andeq	r5, r6, r6, lsl #4
     2a4:	06029000 	streq	r9, [r2], -r0
     2a8:	000000f1 	strdeq	r0, [r0], -r1
     2ac:	0e06029c 	mcreq	2, 0, r0, cr6, cr12, {4}
     2b0:	a0000009 	andge	r0, r0, r9
     2b4:	09b90602 	ldmibeq	r9!, {r1, r9, sl}
     2b8:	02ac0000 	adceq	r0, ip, #0
     2bc:	00052306 	andeq	r2, r5, r6, lsl #6
     2c0:	0602b000 	streq	fp, [r2], -r0
     2c4:	00000a00 	andeq	r0, r0, r0, lsl #20
     2c8:	690602c0 	stmdbvs	r6, {r6, r7, r9}
     2cc:	c4000008 	strgt	r0, [r0], #-8
     2d0:	09ea0602 	stmibeq	sl!, {r1, r9, sl}^
     2d4:	02c80000 	sbceq	r0, r8, #0
     2d8:	00021a06 	andeq	r1, r2, r6, lsl #20
     2dc:	0602cc00 	streq	ip, [r2], -r0, lsl #24
     2e0:	00000623 	andeq	r0, r0, r3, lsr #12
     2e4:	690602d0 	stmdbvs	r6, {r4, r6, r7, r9}
     2e8:	00000009 	andeq	r0, r0, r9
     2ec:	0003fc06 	andeq	pc, r3, r6, lsl #24
     2f0:	a9060400 	stmdbge	r6, {sl}
     2f4:	08000004 	stmdaeq	r0, {r2}
     2f8:	000ad806 	andeq	sp, sl, r6, lsl #16
     2fc:	8e060c00 	cdphi	12, 0, cr0, cr6, cr0, {0}
     300:	10000009 	andne	r0, r0, r9
     304:	00089a06 	andeq	r9, r8, r6, lsl #20
     308:	ad061400 	cfstrsge	mvf1, [r6, #-0]
     30c:	18000007 	stmdane	r0, {r0, r1, r2}
     310:	00092206 	andeq	r2, r9, r6, lsl #4
     314:	30061c00 	andcc	r1, r6, r0, lsl #24
     318:	20000008 	andcs	r0, r0, r8
     31c:	00050806 	andeq	r0, r5, r6, lsl #16
     320:	1e062400 	cfcpysne	mvf2, mvf6
     324:	28000003 	stmdacs	r0, {r0, r1}
     328:	00094e06 	andeq	r4, r9, r6, lsl #28
     32c:	98062c00 	stmdals	r6, {sl, fp, sp}
     330:	30000007 	andcc	r0, r0, r7
     334:	0001bd06 	andeq	fp, r1, r6, lsl #26
     338:	7f063400 	svcvc	0x00063400
     33c:	38000008 	stmdacc	r0, {r3}
     340:	00015d06 	andeq	r5, r1, r6, lsl #26
     344:	c1063c00 	tstgt	r6, r0, lsl #24
     348:	c0000007 	andgt	r0, r0, r7
     34c:	0a2f0600 	beq	bc1b54 <_start-0x7f43e4ac>
     350:	00c40000 	sbceq	r0, r4, r0
     354:	0008b206 	andeq	fp, r8, r6, lsl #4
     358:	0600c800 	streq	ip, [r0], -r0, lsl #16
     35c:	0000019c 	muleq	r0, ip, r1
     360:	780600cc 	stmdavc	r6, {r2, r3, r6, r7}
     364:	d000000a 	andle	r0, r0, sl
     368:	06080600 	streq	r0, [r8], -r0, lsl #12
     36c:	00d40000 	sbcseq	r0, r4, r0
     370:	00023306 	andeq	r3, r2, r6, lsl #6
     374:	0600d800 	streq	sp, [r0], -r0, lsl #16
     378:	0000069a 	muleq	r0, sl, r6
     37c:	d60600dc 			; <UNDEFINED> instruction: 0xd60600dc
     380:	e0000004 	and	r0, r0, r4
     384:	07d40600 	ldrbeq	r0, [r4, r0, lsl #12]
     388:	00e40000 	rsceq	r0, r4, r0
     38c:	0002a006 	andeq	sl, r2, r6
     390:	0600e800 	streq	lr, [r0], -r0, lsl #16
     394:	000001d0 	ldrdeq	r0, [r0], -r0	; <UNPREDICTABLE>
     398:	ae0600ec 	cdpge	0, 0, cr0, cr6, cr12, {7}
     39c:	f0000006 			; <UNDEFINED> instruction: 0xf0000006
     3a0:	01f90600 	mvnseq	r0, r0, lsl #12
     3a4:	00f40000 	rscseq	r0, r4, r0
     3a8:	000a4506 	andeq	r4, sl, r6, lsl #10
     3ac:	0600f800 	streq	pc, [r0], -r0, lsl #16
     3b0:	000006ea 	andeq	r0, r0, sl, ror #13
     3b4:	c80600fc 	stmdagt	r6, {r2, r3, r4, r5, r6, r7}
     3b8:	80000002 	andhi	r0, r0, r2
     3bc:	01e50601 	mvneq	r0, r1, lsl #12
     3c0:	01840000 	orreq	r0, r4, r0
     3c4:	00073c06 	andeq	r3, r7, r6, lsl #24
     3c8:	06018800 	streq	r8, [r1], -r0, lsl #16
     3cc:	000006c1 	andeq	r0, r0, r1, asr #13
     3d0:	c706018c 	strgt	r0, [r6, -ip, lsl #3]
     3d4:	90000003 	andls	r0, r0, r3
     3d8:	05d70601 	ldrbeq	r0, [r7, #1537]	; 0x601
     3dc:	01940000 	orrseq	r0, r4, r0
     3e0:	00084306 	andeq	r4, r8, r6, lsl #6
     3e4:	06019800 	streq	r9, [r1], -r0, lsl #16
     3e8:	00000598 	muleq	r0, r8, r5
     3ec:	1106019c 			; <UNDEFINED> instruction: 0x1106019c
     3f0:	a000000b 	andge	r0, r0, fp
     3f4:	08fa0601 	ldmeq	sl!, {r0, r9, sl}^
     3f8:	01a40000 			; <UNDEFINED> instruction: 0x01a40000
     3fc:	00024906 	andeq	r4, r2, r6, lsl #18
     400:	0601a800 	streq	sl, [r1], -r0, lsl #16
     404:	0000097b 	andeq	r0, r0, fp, ror r9
     408:	af0601ac 	svcge	0x000601ac
     40c:	b0000003 	andlt	r0, r0, r3
     410:	05820601 	streq	r0, [r2, #1537]	; 0x601
     414:	01b40000 			; <UNDEFINED> instruction: 0x01b40000
     418:	000afc06 	andeq	pc, sl, r6, lsl #24
     41c:	0601b800 	streq	fp, [r1], -r0, lsl #16
     420:	00000a60 	andeq	r0, r0, r0, ror #20
     424:	4e0601bc 	mcrmi	1, 0, r0, cr6, cr12, {5}
     428:	c0000005 	andgt	r0, r0, r5
     42c:	09d30601 	ldmibeq	r3, {r0, r9, sl}^
     430:	01c40000 	biceq	r0, r4, r0
     434:	0005eb06 	andeq	lr, r5, r6, lsl #22
     438:	0601c800 	streq	ip, [r1], -r0, lsl #16
     43c:	000008cd 	andeq	r0, r0, sp, asr #17
     440:	140601cc 	strne	r0, [r6], #-460	; 0x1cc
     444:	d4000004 	strle	r0, [r0], #-4
     448:	067e0601 	ldrbteq	r0, [lr], -r1, lsl #12
     44c:	01d80000 	bicseq	r0, r8, r0
     450:	03a40200 			; <UNDEFINED> instruction: 0x03a40200
     454:	93030000 	movwls	r0, #12288	; 0x3000
     458:	000000be 	strheq	r0, [r0], -lr
     45c:	0003dc07 	andeq	sp, r3, r7, lsl #24
     460:	a4030100 	strge	r0, [r3], #-256	; 0x100
     464:	3c800000 	stccc	0, cr0, [r0], {0}
     468:	01000000 	mrseq	r0, (UNDEF: 0)
     46c:	0004199c 	muleq	r4, ip, r9
     470:	179f0800 	ldrne	r0, [pc, r0, lsl #16]
     474:	03010000 	movweq	r0, #4096	; 0x1000
     478:	000000b3 	strheq	r0, [r0], -r3
     47c:	09749102 	ldmdbeq	r4!, {r1, r8, ip, pc}^
     480:	00676572 	rsbeq	r6, r7, r2, ror r5
     484:	03ce0301 	biceq	r0, lr, #67108864	; 0x4000000
     488:	91020000 	mrsls	r0, (UNDEF: 2)
     48c:	02140872 	andseq	r0, r4, #7471104	; 0x720000
     490:	03010000 	movweq	r0, #4096	; 0x1000
     494:	00000030 	andeq	r0, r0, r0, lsr r0
     498:	006c9102 	rsbeq	r9, ip, r2, lsl #2
     49c:	0006740a 	andeq	r7, r6, sl, lsl #8
     4a0:	30090100 	andcc	r0, r9, r0, lsl #2
     4a4:	e0000000 	and	r0, r0, r0
     4a8:	38800000 	stmcc	r0, {}	; <UNPREDICTABLE>
     4ac:	01000000 	mrseq	r0, (UNDEF: 0)
     4b0:	00044f9c 	muleq	r4, ip, pc	; <UNPREDICTABLE>
     4b4:	179f0800 	ldrne	r0, [pc, r0, lsl #16]
     4b8:	09010000 	stmdbeq	r1, {}	; <UNPREDICTABLE>
     4bc:	000000b3 	strheq	r0, [r0], -r3
     4c0:	09749102 	ldmdbeq	r4!, {r1, r8, ip, pc}^
     4c4:	00676572 	rsbeq	r6, r7, r2, ror r5
     4c8:	03ce0901 	biceq	r0, lr, #16384	; 0x4000
     4cc:	91020000 	mrsls	r0, (UNDEF: 2)
     4d0:	780b0072 	stmdavc	fp, {r1, r4, r5, r6}
     4d4:	01000001 	tsteq	r0, r1
     4d8:	0001180e 	andeq	r1, r1, lr, lsl #16
     4dc:	0000d480 	andeq	sp, r0, r0, lsl #9
     4e0:	0c9c0100 	ldfeqs	f0, [ip], {0}
     4e4:	000001b8 			; <UNDEFINED> instruction: 0x000001b8
     4e8:	00301101 	eorseq	r1, r0, r1, lsl #2
     4ec:	91020000 	mrsls	r0, (UNDEF: 2)
     4f0:	02000074 	andeq	r0, r0, #116	; 0x74
     4f4:	04000007 	streq	r0, [r0], #-7
     4f8:	00012d00 	andeq	r2, r1, r0, lsl #26
     4fc:	09010400 	stmdbeq	r1, {sl}
     500:	01000000 	mrseq	r0, (UNDEF: 0)
     504:	00000bb4 			; <UNDEFINED> instruction: 0x00000bb4
     508:	0000008a 	andeq	r0, r0, sl, lsl #1
     50c:	800001ec 	andhi	r0, r0, ip, ror #3
     510:	000000e8 	andeq	r0, r0, r8, ror #1
     514:	000000a5 	andeq	r0, r0, r5, lsr #1
     518:	00006202 	andeq	r6, r0, r2, lsl #4
     51c:	30040200 	andcc	r0, r4, r0, lsl #4
     520:	03000000 	movweq	r0, #0
     524:	1da50704 	stcne	7, cr0, [r5, #16]!
     528:	02030000 	andeq	r0, r3, #0
     52c:	00004f07 	andeq	r4, r0, r7, lsl #30
     530:	08010300 	stmdaeq	r1, {r8, r9}
     534:	0000007c 	andeq	r0, r0, ip, ror r0
     538:	69050404 	stmdbvs	r5, {r2, sl}
     53c:	0300746e 	movweq	r7, #1134	; 0x46e
     540:	006b0502 	rsbeq	r0, fp, r2, lsl #10
     544:	01030000 	mrseq	r0, (UNDEF: 3)
     548:	00008508 	andeq	r8, r0, r8, lsl #10
     54c:	03020500 	movweq	r0, #9472	; 0x2500
     550:	00064f09 	andeq	r4, r6, r9, lsl #30
     554:	17940600 	ldrne	r0, [r4, r0, lsl #12]
     558:	06000000 	streq	r0, [r0], -r0
     55c:	0000137c 	andeq	r1, r0, ip, ror r3
     560:	18cb0604 	stmiane	fp, {r2, r9, sl}^
     564:	06100000 	ldreq	r0, [r0], -r0
     568:	00001a75 	andeq	r1, r0, r5, ror sl
     56c:	f00600c0 			; <UNDEFINED> instruction: 0xf00600c0
     570:	9000001a 	andls	r0, r0, sl, lsl r0
     574:	11a50602 			; <UNDEFINED> instruction: 0x11a50602
     578:	089c0000 	ldmeq	ip, {}	; <UNPREDICTABLE>
     57c:	001abd06 	andseq	fp, sl, r6, lsl #26
     580:	0608a800 	streq	sl, [r8], -r0, lsl #16
     584:	00000fad 	andeq	r0, r0, sp, lsr #31
     588:	2f0608ac 	svccs	0x000608ac
     58c:	c4000017 	strgt	r0, [r0], #-23
     590:	0d5d0608 	ldcleq	6, cr0, [sp, #-32]	; 0xffffffe0
     594:	08c80000 	stmiaeq	r8, {}^	; <UNPREDICTABLE>
     598:	00122f06 	andseq	r2, r2, r6, lsl #30
     59c:	0608cc00 	streq	ip, [r8], -r0, lsl #24
     5a0:	000019d7 	ldrdeq	r1, [r0], -r7
     5a4:	470608d8 			; <UNDEFINED> instruction: 0x470608d8
     5a8:	e8000015 	stmda	r0, {r0, r2, r4}
     5ac:	10a70608 	adcne	r0, r7, r8, lsl #12
     5b0:	08f00000 	ldmeq	r0!, {}^	; <UNPREDICTABLE>
     5b4:	000f6406 	andeq	r6, pc, r6, lsl #8
     5b8:	060a8c00 	streq	r8, [sl], -r0, lsl #24
     5bc:	000013ce 	andeq	r1, r0, lr, asr #7
     5c0:	85060c80 	strhi	r0, [r6, #-3200]	; 0xc80
     5c4:	84000017 	strhi	r0, [r0], #-23
     5c8:	0f7a060c 	svceq	0x007a060c
     5cc:	0c880000 	stceq	0, cr0, [r8], {0}
     5d0:	0017ab06 	andseq	sl, r7, r6, lsl #22
     5d4:	060c8c00 	streq	r8, [ip], -r0, lsl #24
     5d8:	00001993 	muleq	r0, r3, r9
     5dc:	66060c90 			; <UNDEFINED> instruction: 0x66060c90
     5e0:	94000012 	strls	r0, [r0], #-18
     5e4:	1924060c 	stmdbne	r4!, {r2, r3, r9, sl}
     5e8:	0ca00000 	stceq	0, cr0, [r0]
     5ec:	0017be06 	andseq	fp, r7, r6, lsl #28
     5f0:	060ca400 	streq	sl, [ip], -r0, lsl #8
     5f4:	00001931 	andeq	r1, r0, r1, lsr r9
     5f8:	ca060ca8 	bgt	1838a0 <_start-0x7fe7c760>
     5fc:	ac000017 	stcge	0, cr0, [r0], {23}
     600:	135a060c 	cmpne	sl, #12, 12	; 0xc00000
     604:	0cb00000 	ldceq	0, cr0, [r0]
     608:	001ae206 	andseq	lr, sl, r6, lsl #4
     60c:	060cb400 	streq	fp, [ip], -r0, lsl #8
     610:	000011fa 	strdeq	r1, [r0], -sl
     614:	99060cb8 	stmdbls	r6, {r3, r4, r5, r7, sl, fp}
     618:	bc000012 	stclt	0, cr0, [r0], {18}
     61c:	1634060c 	ldrtne	r0, [r4], -ip, lsl #12
     620:	0cc40000 	stcleq	0, cr0, [r4], {0}
     624:	00195e06 	andseq	r5, r9, r6, lsl #28
     628:	060cc800 	streq	ip, [ip], -r0, lsl #16
     62c:	0000170e 	andeq	r1, r0, lr, lsl #14
     630:	f1060cd0 			; <UNDEFINED> instruction: 0xf1060cd0
     634:	e400000b 	str	r0, [r0], #-11
     638:	0db9060c 	ldceq	6, cr0, [r9, #48]!	; 0x30
     63c:	0cf00000 	ldcleq	0, cr0, [r0]
     640:	00145f06 	andseq	r5, r4, r6, lsl #30
     644:	060cf400 	streq	pc, [ip], -r0, lsl #8
     648:	00001053 	andeq	r1, r0, r3, asr r0
     64c:	68060d90 	stmdavs	r6, {r4, r7, r8, sl, fp}
     650:	94000010 	strls	r0, [r0], #-16
     654:	107d060d 	rsbsne	r0, sp, sp, lsl #12
     658:	0d980000 	ldceq	0, cr0, [r8]
     65c:	00109206 	andseq	r9, r0, r6, lsl #4
     660:	060d9c00 	streq	r9, [sp], -r0, lsl #24
     664:	00000eee 	andeq	r0, r0, lr, ror #29
     668:	e5060da0 	str	r0, [r6, #-3488]	; 0xda0
     66c:	a4000012 	strge	r0, [r0], #-18
     670:	1345060d 	movtne	r0, #22029	; 0x560d
     674:	0da80000 	stceq	0, cr0, [r8]
     678:	0011bb06 	andseq	fp, r1, r6, lsl #22
     67c:	060ef000 	streq	pc, [lr], -r0
     680:	000013bb 			; <UNDEFINED> instruction: 0x000013bb
     684:	e9060ef4 	stmdb	r6, {r2, r4, r5, r6, r7, r9, sl, fp}
     688:	f8000017 			; <UNDEFINED> instruction: 0xf8000017
     68c:	1590060e 	ldrne	r0, [r0, #1550]	; 0x60e
     690:	0efc0000 	cdpeq	0, 15, cr0, cr12, cr0, {0}
     694:	00121b06 	andseq	r1, r2, r6, lsl #22
     698:	060fb800 	streq	fp, [pc], -r0, lsl #16
     69c:	00001437 	andeq	r1, r0, r7, lsr r4
     6a0:	1d060fbc 	stcne	15, cr0, [r6, #-752]	; 0xfffffd10
     6a4:	d000000e 	andle	r0, r0, lr
     6a8:	193e060f 	ldmdbne	lr!, {r0, r1, r2, r3, r9, sl}
     6ac:	0ff40000 	svceq	0x00f40000
     6b0:	000c1006 	andeq	r1, ip, r6
     6b4:	060ffc00 	streq	pc, [pc], -r0, lsl #24
     6b8:	00000c66 	andeq	r0, r0, r6, ror #24
     6bc:	77061080 	strvc	r1, [r6, -r0, lsl #1]
     6c0:	8400000c 	strhi	r0, [r0], #-12
     6c4:	0c880610 	stceq	6, cr0, [r8], {16}
     6c8:	10880000 	addne	r0, r8, r0
     6cc:	000c9906 	andeq	r9, ip, r6, lsl #18
     6d0:	06108c00 	ldreq	r8, [r0], -r0, lsl #24
     6d4:	00000caa 	andeq	r0, r0, sl, lsr #25
     6d8:	bb061090 	bllt	184920 <_start-0x7fe7b6e0>
     6dc:	9400000c 	strls	r0, [r0], #-12
     6e0:	0ccc0610 	stcleq	6, cr0, [ip], {16}
     6e4:	10980000 	addsne	r0, r8, r0
     6e8:	000cdd06 	andeq	sp, ip, r6, lsl #26
     6ec:	06109c00 	ldreq	r9, [r0], -r0, lsl #24
     6f0:	00000cee 	andeq	r0, r0, lr, ror #25
     6f4:	ff0610a0 			; <UNDEFINED> instruction: 0xff0610a0
     6f8:	a400000c 	strge	r0, [r0], #-12
     6fc:	1a510610 	bne	1441f44 <_start-0x7ebbe0bc>
     700:	10a80000 	adcne	r0, r8, r0
     704:	001a6306 	andseq	r6, sl, r6, lsl #6
     708:	0610ac00 	ldreq	sl, [r0], -r0, lsl #24
     70c:	00001a14 	andeq	r1, r0, r4, lsl sl
     710:	870610b0 			; <UNDEFINED> instruction: 0x870610b0
     714:	b400001a 	strlt	r0, [r0], #-26
     718:	1a990610 	bne	fe641f60 <value+0x7e640a60>
     71c:	10b80000 	adcsne	r0, r8, r0
     720:	001aab06 	andseq	sl, sl, r6, lsl #22
     724:	0610bc00 	ldreq	fp, [r0], -r0, lsl #24
     728:	00000b24 	andeq	r0, r0, r4, lsr #22
     72c:	340610c0 	strcc	r1, [r6], #-192	; 0xc0
     730:	c400000b 	strgt	r0, [r0], #-11
     734:	0b440610 	bleq	1101f7c <_start-0x7eefe084>
     738:	10c80000 	sbcne	r0, r8, r0
     73c:	000b5406 	andeq	r5, fp, r6, lsl #8
     740:	0610cc00 	ldreq	ip, [r0], -r0, lsl #24
     744:	00000b64 	andeq	r0, r0, r4, ror #22
     748:	740610d0 	strvc	r1, [r6], #-208	; 0xd0
     74c:	d400000b 	strle	r0, [r0], #-11
     750:	0b840610 	bleq	fe101f98 <value+0x7e100a98>
     754:	10d80000 	sbcsne	r0, r8, r0
     758:	000b9406 	andeq	r9, fp, r6, lsl #8
     75c:	0610dc00 	ldreq	sp, [r0], -r0, lsl #24
     760:	00000d43 	andeq	r0, r0, r3, asr #26
     764:	a40610e0 	strge	r1, [r6], #-224	; 0xe0
     768:	e400000b 	str	r0, [r0], #-11
     76c:	116a0610 	cmnne	sl, r0, lsl r6
     770:	10e80000 	rscne	r0, r8, r0
     774:	00117b06 	andseq	r7, r1, r6, lsl #22
     778:	0610ec00 	ldreq	lr, [r0], -r0, lsl #24
     77c:	00000c53 	andeq	r0, r0, r3, asr ip
     780:	b90610f0 	stmdblt	r6, {r4, r5, r6, r7, ip}
     784:	f4000010 	vst4.8	{d0-d3}, [r0 :64], r0
     788:	16b60610 	ssatne	r0, #23, r0, lsl #12
     78c:	10f80000 	rscsne	r0, r8, r0
     790:	00115806 	andseq	r5, r1, r6, lsl #16
     794:	0610fc00 	ldreq	pc, [r0], -r0, lsl #24
     798:	00000c1d 	andeq	r0, r0, sp, lsl ip
     79c:	2f061180 	svccs	0x00061180
     7a0:	8400000c 	strhi	r0, [r0], #-12
     7a4:	0c410611 	mcrreq	6, 1, r0, r1, cr1
     7a8:	11880000 	orrne	r0, r8, r0
     7ac:	00162306 	andseq	r2, r6, r6, lsl #6
     7b0:	06118c00 	ldreq	r8, [r1], -r0, lsl #24
     7b4:	00000f39 	andeq	r0, r0, r9, lsr pc
     7b8:	59061190 	stmdbpl	r6, {r4, r7, r8, ip}
     7bc:	94000016 	strls	r0, [r0], #-22
     7c0:	11470611 	cmpne	r7, r1, lsl r6
     7c4:	11980000 	orrsne	r0, r8, r0
     7c8:	00130d06 	andseq	r0, r3, r6, lsl #26
     7cc:	06119c00 	ldreq	r9, [r1], -r0, lsl #24
     7d0:	00000e5e 	andeq	r0, r0, lr, asr lr
     7d4:	700611a0 	andvc	r1, r6, r0, lsr #3
     7d8:	a400000e 	strge	r0, [r0], #-14
     7dc:	0e820611 	mcreq	6, 4, r0, cr2, cr1, {0}
     7e0:	11a80000 			; <UNDEFINED> instruction: 0x11a80000
     7e4:	000e9406 	andeq	r9, lr, r6, lsl #8
     7e8:	0611ac00 	ldreq	sl, [r1], -r0, lsl #24
     7ec:	00000ea6 	andeq	r0, r0, r6, lsr #29
     7f0:	b80611b0 	stmdalt	r6, {r4, r5, r7, r8, ip}
     7f4:	b400000e 	strlt	r0, [r0], #-14
     7f8:	0eca0611 	mcreq	6, 6, r0, cr10, cr1, {0}
     7fc:	11b80000 			; <UNDEFINED> instruction: 0x11b80000
     800:	000edc06 	andeq	sp, lr, r6, lsl #24
     804:	0611bc00 	ldreq	fp, [r1], -r0, lsl #24
     808:	000018e0 	andeq	r1, r0, r0, ror #17
     80c:	fb0611c0 	blx	184f16 <_start-0x7fe7b0ea>
     810:	c400000e 	strgt	r0, [r0], #-14
     814:	0d6d0611 	stcleq	6, cr0, [sp, #-68]!	; 0xffffffbc
     818:	11c80000 	bicne	r0, r8, r0
     81c:	000d8006 	andeq	r8, sp, r6
     820:	0611cc00 	ldreq	ip, [r1], -r0, lsl #24
     824:	00000d93 	muleq	r0, r3, sp
     828:	a60611d0 			; <UNDEFINED> instruction: 0xa60611d0
     82c:	d400000d 	strle	r0, [r0], #-13
     830:	17d60611 	bfine	r0, r1, #12, #11
     834:	11d80000 	bicsne	r0, r8, r0
     838:	000dc706 	andeq	ip, sp, r6, lsl #14
     83c:	0611dc00 	ldreq	sp, [r1], -r0, lsl #24
     840:	00001b0d 	andeq	r1, r0, sp, lsl #22
     844:	350611e0 	strcc	r1, [r6, #-480]	; 0x1e0
     848:	e4000015 	str	r0, [r0], #-21
     84c:	0fed0611 	svceq	0x00ed0611
     850:	11e80000 	mvnne	r0, r0
     854:	00138e06 	andseq	r8, r3, r6, lsl #28
     858:	0611ec00 	ldreq	lr, [r1], -r0, lsl #24
     85c:	000014f2 	strdeq	r1, [r0], -r2
     860:	e00611f0 	strd	r1, [r6], -r0
     864:	f4000014 	vst4.8	{d0-d3}, [r0 :64], r4
     868:	10410611 	subne	r0, r1, r1, lsl r6
     86c:	11f80000 	mvnsne	r0, r0
     870:	00102f06 	andseq	r2, r0, r6, lsl #30
     874:	0611fc00 	ldreq	pc, [r1], -r0, lsl #24
     878:	00001104 	andeq	r1, r0, r4, lsl #2
     87c:	72061280 	andvc	r1, r6, #128, 4
     880:	84000012 	strhi	r0, [r0], #-18
     884:	15540612 	ldrbne	r0, [r4, #-1554]	; 0x612
     888:	12880000 	addne	r0, r8, #0
     88c:	000bc506 	andeq	ip, fp, r6, lsl #10
     890:	06128c00 	ldreq	r8, [r2], -r0, lsl #24
     894:	000014cd 	andeq	r1, r0, sp, asr #9
     898:	f2061290 	vqsub.s8	d1, d22, d0
     89c:	94000018 	strls	r0, [r0], #-24
     8a0:	12ba0612 	adcsne	r0, sl, #18874368	; 0x1200000
     8a4:	12980000 	addsne	r0, r8, #0
     8a8:	0016a406 	andseq	sl, r6, r6, lsl #8
     8ac:	06129c00 	ldreq	r9, [r2], -r0, lsl #24
     8b0:	00001692 	muleq	r0, r2, r6
     8b4:	800612a0 	andhi	r1, r6, r0, lsr #5
     8b8:	a4000016 	strge	r0, [r0], #-22
     8bc:	166e0612 			; <UNDEFINED> instruction: 0x166e0612
     8c0:	12a80000 	adcne	r0, r8, #0
     8c4:	000f9906 	andeq	r9, pc, r6, lsl #18
     8c8:	0612ac00 	ldreq	sl, [r2], -r0, lsl #24
     8cc:	0000144b 	andeq	r1, r0, fp, asr #8
     8d0:	9e0612b0 	mcrls	2, 0, r1, cr6, cr0, {5}
     8d4:	b4000019 	strlt	r0, [r0], #-25
     8d8:	12fb0612 	rscsne	r0, fp, #18874368	; 0x1200000
     8dc:	12b80000 	adcsne	r0, r8, #0
     8e0:	00198106 	andseq	r8, r9, r6, lsl #2
     8e4:	0612bc00 	ldreq	fp, [r2], -r0, lsl #24
     8e8:	0000196f 	andeq	r1, r0, pc, ror #18
     8ec:	260612c0 	strcs	r1, [r6], -r0, asr #5
     8f0:	c400001a 	strgt	r0, [r0], #-26
     8f4:	1b4c0612 	blne	1302144 <_start-0x7ecfdebc>
     8f8:	12c80000 	sbcne	r0, r8, #0
     8fc:	000f8d06 	andeq	r8, pc, r6, lsl #26
     900:	0612cc00 	ldreq	ip, [r2], -r0, lsl #24
     904:	000016e7 	andeq	r1, r0, r7, ror #13
     908:	7b0612d0 	blvc	185450 <_start-0x7fe7abb0>
     90c:	d4000018 	strle	r0, [r0], #-24
     910:	1b1f0612 	blne	7c2160 <_start-0x7f83dea0>
     914:	12d80000 	sbcsne	r0, r8, #0
     918:	00132306 	andseq	r2, r3, r6, lsl #6
     91c:	0612dc00 	ldreq	sp, [r2], -r0, lsl #24
     920:	00001334 	andeq	r1, r0, r4, lsr r3
     924:	290612e0 	stmdbcs	r6, {r5, r6, r7, r9, ip}
     928:	e400000d 	str	r0, [r0], #-13
     92c:	19110612 	ldmdbne	r1, {r1, r4, r9, sl}
     930:	12e80000 	rscne	r0, r8, #0
     934:	000f0d06 	andeq	r0, pc, r6, lsl #26
     938:	0612ec00 	ldreq	lr, [r2], -r0, lsl #24
     93c:	000014bb 			; <UNDEFINED> instruction: 0x000014bb
     940:	f60612f0 			; <UNDEFINED> instruction: 0xf60612f0
     944:	f4000015 	vst4.8	{d0-d3}, [r0 :64], r5
     948:	1acf0612 	bne	ff3c2198 <value+0x7f3c0c98>
     94c:	12f80000 	rscsne	r0, r8, #0
     950:	0010e006 	andseq	lr, r0, r6
     954:	0612fc00 	ldreq	pc, [r2], -r0, lsl #24
     958:	000015ba 			; <UNDEFINED> instruction: 0x000015ba
     95c:	ce061380 	cdpgt	3, 0, cr1, cr6, cr0, {4}
     960:	84000011 	strhi	r0, [r0], #-17
     964:	1b3b0613 	blne	ec21b8 <_start-0x7f13de48>
     968:	13880000 	orrne	r0, r8, #0
     96c:	00194d06 	andseq	r4, r9, r6, lsl #26
     970:	06138c00 	ldreq	r8, [r3], -r0, lsl #24
     974:	00001a3c 	andeq	r1, r0, ip, lsr sl
     978:	53061390 	movwpl	r1, #25488	; 0x6390
     97c:	94000012 	strls	r0, [r0], #-18
     980:	18a30613 	stmiane	r3!, {r0, r1, r4, r9, sl}
     984:	13980000 	orrsne	r0, r8, #0
     988:	00151f06 	andseq	r1, r5, r6, lsl #30
     98c:	06139c00 	ldreq	r9, [r3], -r0, lsl #24
     990:	000019ff 	strdeq	r1, [r0], -pc	; <UNPREDICTABLE>
     994:	080613a0 	stmdaeq	r6, {r5, r7, r8, r9, ip}
     998:	a4000012 	strge	r0, [r0], #-18
     99c:	18b70613 	ldmne	r7!, {r0, r1, r4, r9, sl}
     9a0:	13a80000 			; <UNDEFINED> instruction: 0x13a80000
     9a4:	00156506 	andseq	r6, r5, r6, lsl #10
     9a8:	0613ac00 	ldreq	sl, [r3], -r0, lsl #24
     9ac:	00001815 	andeq	r1, r0, r5, lsl r8
     9b0:	2e0613b0 	mcrcs	3, 0, r1, cr6, cr0, {5}
     9b4:	b4000018 	strlt	r0, [r0], #-24
     9b8:	10f30613 	rscsne	r0, r3, r3, lsl r6
     9bc:	13b80000 			; <UNDEFINED> instruction: 0x13b80000
     9c0:	000dda06 	andeq	sp, sp, r6, lsl #20
     9c4:	0613c000 	ldreq	ip, [r3], -r0
     9c8:	00001115 	andeq	r1, r0, r5, lsl r1
     9cc:	b00613d0 	ldrdlt	r1, [r6], -r0
     9d0:	d4000019 	strle	r0, [r0], #-25
     9d4:	1b2f0613 	blne	bc2228 <_start-0x7f43ddd8>
     9d8:	13d80000 	bicsne	r0, r8, #0
     9dc:	00190506 	andseq	r0, r9, r6, lsl #10
     9e0:	0613dc00 	ldreq	sp, [r3], -r0, lsl #24
     9e4:	000013f3 	strdeq	r1, [r0], -r3
     9e8:	be0613e0 	cdplt	3, 0, cr1, cr6, cr0, {7}
     9ec:	e400000f 	str	r0, [r0], #-15
     9f0:	0fcb0613 	svceq	0x00cb0613
     9f4:	13e80000 	mvnne	r0, #0
     9f8:	00128306 	andseq	r8, r2, r6, lsl #6
     9fc:	0613f800 	ldreq	pc, [r3], -r0, lsl #16
     a00:	000010ca 	andeq	r1, r0, sl, asr #1
     a04:	a70613fc 			; <UNDEFINED> instruction: 0xa70613fc
     a08:	80000012 	andhi	r0, r0, r2, lsl r0
     a0c:	0ffe0614 	svceq	0x00fe0614
     a10:	14840000 	strne	r0, [r4], #0
     a14:	00174606 	andseq	r4, r7, r6, lsl #12
     a18:	06149c00 	ldreq	r9, [r4], -r0, lsl #24
     a1c:	00001644 	andeq	r1, r0, r4, asr #12
     a20:	a30614b4 	movwge	r1, #25780	; 0x64b4
     a24:	80000014 	andhi	r0, r0, r4, lsl r0
     a28:	123f061c 	eorsne	r0, pc, #28, 12	; 0x1c00000
     a2c:	1c840000 	stcne	0, cr0, [r4], {0}
     a30:	0019ee06 	andseq	lr, r9, r6, lsl #28
     a34:	061c8c00 	ldreq	r8, [ip], -r0, lsl #24
     a38:	000016c8 	andeq	r1, r0, r8, asr #13
     a3c:	10061c94 	mulne	r6, r4, ip
     a40:	9000000d 	andls	r0, r0, sp
     a44:	1847061f 	stmdane	r7, {r0, r1, r2, r3, r4, r9, sl}^
     a48:	1f940000 	svcne	0x00940000
     a4c:	0011e006 	andseq	lr, r1, r6
     a50:	061f9800 	ldreq	r9, [pc], -r0, lsl #16
     a54:	00001488 	andeq	r1, r0, r8, lsl #9
     a58:	02061f9c 	andeq	r1, r6, #156, 30	; 0x270
     a5c:	a000000e 	andge	r0, r0, lr
     a60:	0bd6061f 	bleq	ff5822e4 <value+0x7f580de4>
     a64:	1fa40000 	svcne	0x00a40000
     a68:	00150406 	andseq	r0, r5, r6, lsl #8
     a6c:	061fa800 	ldreq	sl, [pc], -r0, lsl #16
     a70:	00001014 	andeq	r1, r0, r4, lsl r0
     a74:	6d061fac 	stcvs	15, cr1, [r6, #-688]	; 0xfffffd50
     a78:	b0000014 	andlt	r0, r0, r4, lsl r0
     a7c:	0de7061f 	stcleq	6, cr0, [r7, #124]!	; 0x7c
     a80:	1fb40000 	svcne	0x00b40000
     a84:	00141c06 	andseq	r1, r4, r6, lsl #24
     a88:	061fb800 	ldreq	fp, [pc], -r0, lsl #16
     a8c:	00001b59 	andeq	r1, r0, r9, asr fp
     a90:	60061fbc 			; <UNDEFINED> instruction: 0x60061fbc
     a94:	c0000018 	andgt	r0, r0, r8, lsl r0
     a98:	1401061f 	strne	r0, [r1], #-1567	; 0x61f
     a9c:	1fc40000 	svcne	0x00c40000
     aa0:	00160806 	andseq	r0, r6, r6, lsl #16
     aa4:	061fc800 	ldreq	ip, [pc], -r0, lsl #16
     aa8:	000019bc 			; <UNDEFINED> instruction: 0x000019bc
     aac:	29061fcc 	stmdbcs	r6, {r2, r3, r6, r7, r8, r9, sl, fp, ip}
     ab0:	d000000e 	andle	r0, r0, lr
     ab4:	13a5061f 			; <UNDEFINED> instruction: 0x13a5061f
     ab8:	1fd40000 	svcne	0x00d40000
     abc:	00113206 	andseq	r3, r1, r6, lsl #4
     ac0:	061fd800 	ldreq	sp, [pc], -r0, lsl #16
     ac4:	00000e40 	andeq	r0, r0, r0, asr #28
     ac8:	fc062080 	stc2	0, cr2, [r6], {128}	; 0x80
     acc:	98000017 	stmdals	r0, {r0, r1, r2, r4}
     ad0:	157b0626 	ldrbne	r0, [fp, #-1574]!	; 0x626
     ad4:	269c0000 	ldrcs	r0, [ip], r0
     ad8:	0016da06 	andseq	sp, r6, r6, lsl #20
     adc:	0626a000 	strteq	sl, [r6], -r0
     ae0:	00001368 	andeq	r1, r0, r8, ror #6
     ae4:	f90626a4 			; <UNDEFINED> instruction: 0xf90626a4
     ae8:	a8000016 	stmdage	r0, {r1, r2, r4}
     aec:	15a50626 	strne	r0, [r5, #1574]!	; 0x626
     af0:	26ac0000 	strtcs	r0, [ip], r0
     af4:	00171a06 	andseq	r1, r7, r6, lsl #20
     af8:	0626b000 	strteq	fp, [r6], -r0
     afc:	000015cc 	andeq	r1, r0, ip, asr #11
     b00:	e10626b4 			; <UNDEFINED> instruction: 0xe10626b4
     b04:	b8000015 	stmdalt	r0, {r0, r2, r4}
     b08:	175b0626 	ldrbne	r0, [fp, -r6, lsr #12]
     b0c:	26bc0000 	ldrtcs	r0, [ip], r0
     b10:	00177006 	andseq	r7, r7, r6
     b14:	0626c000 	strteq	ip, [r6], -r0
     b18:	00000f4f 	andeq	r0, r0, pc, asr #30
     b1c:	8b0626c4 	blhi	18a634 <_start-0x7fe759cc>
     b20:	84000018 	strhi	r0, [r0], #-24
     b24:	13db0628 	bicsne	r0, fp, #40, 12	; 0x2800000
     b28:	28880000 	stmcs	r8, {}	; <UNPREDICTABLE>
     b2c:	0012cd06 	andseq	ip, r2, r6, lsl #26
     b30:	06288c00 	strteq	r8, [r8], -r0, lsl #24
     b34:	0000118c 	andeq	r1, r0, ip, lsl #3
     b38:	200628c0 	andcs	r2, r6, r0, asr #17
     b3c:	c400000f 	strgt	r0, [r0], #-15
     b40:	d8020028 	stmdale	r2, {r3, r5}
     b44:	0300000f 	movweq	r0, #15
     b48:	00005ae3 	andeq	r5, r0, r3, ror #21
     b4c:	0bff0700 	bleq	fffc2754 <value+0x7ffc1254>
     b50:	03010000 	movweq	r0, #4096	; 0x1000
     b54:	800001ec 	andhi	r0, r0, ip, ror #3
     b58:	00000038 	andeq	r0, r0, r8, lsr r0
     b5c:	068c9c01 	streq	r9, [ip], r1, lsl #24
     b60:	9f080000 	svcls	0x00080000
     b64:	01000017 	tsteq	r0, r7, lsl r0
     b68:	00064f03 	andeq	r4, r6, r3, lsl #30
     b6c:	76910200 	ldrvc	r0, [r1], r0, lsl #4
     b70:	00021408 	andeq	r1, r2, r8, lsl #8
     b74:	30030100 	andcc	r0, r3, r0, lsl #2
     b78:	02000000 	andeq	r0, r0, #0
     b7c:	09007091 	stmdbeq	r0, {r0, r4, r7, ip, sp, lr}
     b80:	00001121 	andeq	r1, r0, r1, lsr #2
     b84:	00300901 	eorseq	r0, r0, r1, lsl #18
     b88:	02240000 	eoreq	r0, r4, #0
     b8c:	00348000 	eorseq	r8, r4, r0
     b90:	9c010000 	stcls	0, cr0, [r1], {-0}
     b94:	000006b4 			; <UNDEFINED> instruction: 0x000006b4
     b98:	00179f08 	andseq	r9, r7, r8, lsl #30
     b9c:	4f090100 	svcmi	0x00090100
     ba0:	02000006 	andeq	r0, r0, #6
     ba4:	0a007691 	beq	1e5f0 <_start-0x7ffe1a10>
     ba8:	00000e52 	andeq	r0, r0, r2, asr lr
     bac:	02580e01 	subseq	r0, r8, #1, 28
     bb0:	00588000 	subseq	r8, r8, r0
     bb4:	9c010000 	stcls	0, cr0, [r1], {-0}
     bb8:	000006f4 	strdeq	r0, [r0], -r4
     bbc:	00179f08 	andseq	r9, r7, r8, lsl #30
     bc0:	4f0e0100 	svcmi	0x000e0100
     bc4:	02000006 	andeq	r0, r0, #6
     bc8:	a6086e91 			; <UNDEFINED> instruction: 0xa6086e91
     bcc:	01000017 	tsteq	r0, r7, lsl r0
     bd0:	0000300e 	andeq	r3, r0, lr
     bd4:	68910200 	ldmvs	r1, {r9}
     bd8:	0001b80b 	andeq	fp, r1, fp, lsl #16
     bdc:	30100100 	andscc	r0, r0, r0, lsl #2
     be0:	02000000 	andeq	r0, r0, #0
     be4:	0c007491 	cfstrseq	mvf7, [r0], {145}	; 0x91
     be8:	00000d53 	andeq	r0, r0, r3, asr sp
     bec:	02b01d01 	adcseq	r1, r0, #1, 26	; 0x40
     bf0:	00248000 	eoreq	r8, r4, r0
     bf4:	9c010000 	stcls	0, cr0, [r1], {-0}
     bf8:	0000e100 	andeq	lr, r0, r0, lsl #2
     bfc:	fe000400 	cdp2	4, 0, cr0, cr0, cr0, {0}
     c00:	04000001 	streq	r0, [r0], #-1
     c04:	00000901 	andeq	r0, r0, r1, lsl #18
     c08:	1b9c0100 	blne	fe701010 <value+0x7e6ffb10>
     c0c:	008a0000 	addeq	r0, sl, r0
     c10:	02d40000 	sbcseq	r0, r4, #0
     c14:	00e08000 	rsceq	r8, r0, r0
     c18:	01110000 	tsteq	r1, r0
     c1c:	08020000 	stmdaeq	r2, {}	; <UNPREDICTABLE>
     c20:	00460101 	subeq	r0, r6, r1, lsl #2
     c24:	74030000 	strvc	r0, [r3], #-0
     c28:	0100001b 	tsteq	r0, fp, lsl r0
     c2c:	00004601 	andeq	r4, r0, r1, lsl #12
     c30:	72040000 	andvc	r0, r4, #0
     c34:	01006d65 	tsteq	r0, r5, ror #26
     c38:	00004601 	andeq	r4, r0, r1, lsl #12
     c3c:	05000400 	streq	r0, [r0, #-1024]	; 0x400
     c40:	6e690504 	cdpvs	5, 6, cr0, cr9, cr4, {0}
     c44:	a2060074 	andge	r0, r6, #116	; 0x74
     c48:	0100001b 	tsteq	r0, fp, lsl r0
     c4c:	00002501 	andeq	r2, r0, r1, lsl #10
     c50:	1b790700 	blne	1e42858 <_start-0x7e1bd7a8>
     c54:	03010000 	movweq	r0, #4096	; 0x1000
     c58:	0000004d 	andeq	r0, r0, sp, asr #32
     c5c:	800002d4 	ldrdhi	r0, [r0], -r4
     c60:	00000080 	andeq	r0, r0, r0, lsl #1
     c64:	00a69c01 	adceq	r9, r6, r1, lsl #24
     c68:	6e080000 	cdpvs	0, 0, cr0, cr8, cr0, {0}
     c6c:	01006d75 	tsteq	r0, r5, ror sp
     c70:	00004603 	andeq	r4, r0, r3, lsl #12
     c74:	60910200 	addsvs	r0, r1, r0, lsl #4
     c78:	001b8909 	andseq	r8, fp, r9, lsl #18
     c7c:	46030100 	strmi	r0, [r3], -r0, lsl #2
     c80:	02000000 	andeq	r0, r0, #0
     c84:	720a5c91 	andvc	r5, sl, #37120	; 0x9100
     c88:	4d040100 	stfmis	f0, [r4, #-0]
     c8c:	02000000 	andeq	r0, r0, #0
     c90:	710a6c91 			; <UNDEFINED> instruction: 0x710a6c91
     c94:	46050100 	strmi	r0, [r5], -r0, lsl #2
     c98:	02000000 	andeq	r0, r0, #0
     c9c:	0b007491 	bleq	1dee8 <_start-0x7ffe2118>
     ca0:	00001b8f 	andeq	r1, r0, pc, lsl #23
     ca4:	00461201 	subeq	r1, r6, r1, lsl #4
     ca8:	03540000 	cmpeq	r4, #0
     cac:	00608000 	rsbeq	r8, r0, r0
     cb0:	9c010000 	stcls	0, cr0, [r1], {-0}
     cb4:	6d756e08 	ldclvs	14, cr6, [r5, #-32]!	; 0xffffffe0
     cb8:	46120100 	ldrmi	r0, [r2], -r0, lsl #2
     cbc:	02000000 	andeq	r0, r0, #0
     cc0:	89096c91 	stmdbhi	r9, {r0, r4, r7, sl, fp, sp, lr}
     cc4:	0100001b 	tsteq	r0, fp, lsl r0
     cc8:	00004612 	andeq	r4, r0, r2, lsl r6
     ccc:	68910200 	ldmvs	r1, {r9}
     cd0:	0100710a 	tsteq	r0, sl, lsl #2
     cd4:	00004613 	andeq	r4, r0, r3, lsl r6
     cd8:	74910200 	ldrvc	r0, [r1], #512	; 0x200
     cdc:	01320000 	teqeq	r2, r0
     ce0:	00040000 	andeq	r0, r4, r0
     ce4:	000002b8 			; <UNDEFINED> instruction: 0x000002b8
     ce8:	00090104 	andeq	r0, r9, r4, lsl #2
     cec:	b4010000 	strlt	r0, [r1], #-0
     cf0:	8a00001b 	bhi	d64 <_start-0x7ffff29c>
     cf4:	b4000000 	strlt	r0, [r0], #-0
     cf8:	fc800003 	stc2	0, cr0, [r0], {3}
     cfc:	5d000000 	stcpl	0, cr0, [r0, #-0]
     d00:	02000001 	andeq	r0, r0, #1
     d04:	1da50704 	stcne	7, cr0, [r5, #16]!
     d08:	02020000 	andeq	r0, r2, #0
     d0c:	00004f07 	andeq	r4, r0, r7, lsl #30
     d10:	08010200 	stmdaeq	r1, {r9}
     d14:	0000007c 	andeq	r0, r0, ip, ror r0
     d18:	69050403 	stmdbvs	r5, {r0, r1, sl}
     d1c:	0200746e 	andeq	r7, r0, #1845493760	; 0x6e000000
     d20:	006b0502 	rsbeq	r0, fp, r2, lsl #10
     d24:	01020000 	mrseq	r0, (UNDEF: 2)
     d28:	00008508 	andeq	r8, r0, r8, lsl #10
     d2c:	02010400 	andeq	r0, r1, #0, 8
     d30:	0000640a 	andeq	r6, r0, sl, lsl #8
     d34:	1be30500 	blne	ff8c213c <value+0x7f8c0c3c>
     d38:	05000000 	streq	r0, [r0, #-0]
     d3c:	00001bf8 	strdeq	r1, [r0], -r8
     d40:	01040001 	tsteq	r4, r1
     d44:	007f1302 	rsbseq	r1, pc, r2, lsl #6
     d48:	16050000 	strne	r0, [r5], -r0
     d4c:	0000001c 	andeq	r0, r0, ip, lsl r0
     d50:	001bd705 	andseq	sp, fp, r5, lsl #14
     d54:	0b050100 	bleq	14115c <_start-0x7febeea4>
     d58:	0200001c 	andeq	r0, r0, #28
     d5c:	02010400 	andeq	r0, r1, #0, 8
     d60:	00009a20 	andeq	r9, r0, r0, lsr #20
     d64:	1bec0500 	blne	ffb0216c <value+0x7fb00c6c>
     d68:	05000000 	streq	r0, [r0, #-0]
     d6c:	00001bbb 			; <UNDEFINED> instruction: 0x00001bbb
     d70:	1bf20501 	blne	ffc8217c <value+0x7fc80c7c>
     d74:	00020000 	andeq	r0, r2, r0
     d78:	001c0006 	andseq	r0, ip, r6
     d7c:	a5150300 	ldrge	r0, [r5, #-768]	; 0x300
     d80:	07000000 	streq	r0, [r0, -r0]
     d84:	0000ab04 	andeq	sl, r0, r4, lsl #22
     d88:	00b60800 	adcseq	r0, r6, r0, lsl #16
     d8c:	48090000 	stmdami	r9, {}	; <UNPREDICTABLE>
     d90:	00000000 	andeq	r0, r0, r0
     d94:	001bcd0a 	andseq	ip, fp, sl, lsl #26
     d98:	b40a0100 	strlt	r0, [sl], #-256	; 0x100
     d9c:	44800003 	strmi	r0, [r0], #3
     da0:	01000000 	mrseq	r0, (UNDEF: 0)
     da4:	0000f59c 	muleq	r0, ip, r5
     da8:	6d660b00 	vstmdbvs	r6!, {d16-d15}
     dac:	0a010074 	beq	40f84 <_start-0x7ffbf07c>
     db0:	000000f5 	strdeq	r0, [r0], -r5
     db4:	0c709102 	ldfeqp	f1, [r0], #-8
     db8:	006e660d 	rsbeq	r6, lr, sp, lsl #12
     dbc:	009a0c01 	addseq	r0, sl, r1, lsl #24
     dc0:	91020000 	mrsls	r0, (UNDEF: 2)
     dc4:	70610d64 	rsbvc	r0, r1, r4, ror #26
     dc8:	000d0100 	andeq	r0, sp, r0, lsl #2
     dcc:	02000001 	andeq	r0, r0, #1
     dd0:	07006091 			; <UNDEFINED> instruction: 0x07006091
     dd4:	0000fb04 	andeq	pc, r0, r4, lsl #22
     dd8:	00480e00 	subeq	r0, r8, r0, lsl #28
     ddc:	c30f0000 	movwgt	r0, #61440	; 0xf000
     de0:	0400001b 	streq	r0, [r0], #-27
     de4:	01170004 	tsteq	r7, r4
     de8:	22100000 	andscs	r0, r0, #0
     dec:	1700001c 	smladne	r0, ip, r0, r0
     df0:	00000001 	andeq	r0, r0, r1
     df4:	12041100 	andne	r1, r4, #0, 2
     df8:	00001bae 	andeq	r1, r0, lr, lsr #23
     dfc:	03f81301 	mvnseq	r1, #67108864	; 0x4000000
     e00:	00b88000 	adcseq	r8, r8, r0
     e04:	9c010000 	stcls	0, cr0, [r1], {-0}
     e08:	00021413 	andeq	r1, r2, r3, lsl r4
     e0c:	2c080100 	stfcss	f0, [r8], {-0}
     e10:	00000000 	andeq	r0, r0, r0
     e14:	000006e6 	andeq	r0, r0, r6, ror #13
     e18:	03ae0004 			; <UNDEFINED> instruction: 0x03ae0004
     e1c:	01040000 	mrseq	r0, (UNDEF: 4)
     e20:	00000009 	andeq	r0, r0, r9
     e24:	001c5601 	andseq	r5, ip, r1, lsl #12
     e28:	00008a00 	andeq	r8, r0, r0, lsl #20
     e2c:	0004b000 	andeq	fp, r4, r0
     e30:	00040880 	andeq	r0, r4, r0, lsl #17
     e34:	00020a00 	andeq	r0, r2, r0, lsl #20
     e38:	00620200 	rsbeq	r0, r2, r0, lsl #4
     e3c:	04020000 	streq	r0, [r2], #-0
     e40:	00000030 	andeq	r0, r0, r0, lsr r0
     e44:	a5070403 	strge	r0, [r7, #-1027]	; 0x403
     e48:	0300001d 	movweq	r0, #29
     e4c:	004f0702 	subeq	r0, pc, r2, lsl #14
     e50:	c9020000 	stmdbgt	r2, {}	; <UNPREDICTABLE>
     e54:	0200001c 	andeq	r0, r0, #28
     e58:	00004906 	andeq	r4, r0, r6, lsl #18
     e5c:	08010300 	stmdaeq	r1, {r8, r9}
     e60:	0000007c 	andeq	r0, r0, ip, ror r0
     e64:	69050404 	stmdbvs	r5, {r2, sl}
     e68:	0300746e 	movweq	r7, #1134	; 0x46e
     e6c:	006b0502 	rsbeq	r0, fp, r2, lsl #10
     e70:	01030000 	mrseq	r0, (UNDEF: 3)
     e74:	00008508 	andeq	r8, r0, r8, lsl #10
     e78:	03010500 	movweq	r0, #5376	; 0x1500
     e7c:	00016712 	andeq	r6, r1, r2, lsl r7
     e80:	48520600 	ldmdami	r2, {r9, sl}^
     e84:	06000052 			; <UNDEFINED> instruction: 0x06000052
     e88:	00524854 	subseq	r4, r2, r4, asr r8
     e8c:	45490600 	strbmi	r0, [r9, #-1536]	; 0x600
     e90:	06040052 			; <UNDEFINED> instruction: 0x06040052
     e94:	00524949 	subseq	r4, r2, r9, asr #18
     e98:	43460608 	movtmi	r0, #26120	; 0x6608
     e9c:	06080052 			; <UNDEFINED> instruction: 0x06080052
     ea0:	0052434c 	subseq	r4, r2, ip, asr #6
     ea4:	434d060c 	movtmi	r0, #54796	; 0xd60c
     ea8:	06100052 			; <UNDEFINED> instruction: 0x06100052
     eac:	0052534c 	subseq	r5, r2, ip, asr #6
     eb0:	534d0614 	movtpl	r0, #54804	; 0xd614
     eb4:	06180052 			; <UNDEFINED> instruction: 0x06180052
     eb8:	00524354 	subseq	r4, r2, r4, asr r3
     ebc:	50530618 	subspl	r0, r3, r8, lsl r6
     ec0:	061c0052 			; <UNDEFINED> instruction: 0x061c0052
     ec4:	00524c54 	subseq	r4, r2, r4, asr ip
     ec8:	1cba071c 	ldcne	7, cr0, [sl], #112	; 0x70
     ecc:	07200000 	streq	r0, [r0, -r0]!
     ed0:	00001cbf 			; <UNDEFINED> instruction: 0x00001cbf
     ed4:	1c460724 	mcrrne	7, 2, r0, r6, cr4
     ed8:	07280000 	streq	r0, [r8, -r0]!
     edc:	00001ca3 	andeq	r1, r0, r3, lsr #25
     ee0:	1d3f0728 	ldcne	7, cr0, [pc, #-160]!	; e48 <_start-0x7ffff1b8>
     ee4:	072c0000 	streq	r0, [ip, -r0]!
     ee8:	00001c9d 	muleq	r0, sp, ip
     eec:	1d38072c 	ldcne	7, cr0, [r8, #-176]!	; 0xffffff50
     ef0:	07300000 	ldreq	r0, [r0, -r0]!
     ef4:	00001d74 	andeq	r1, r0, r4, ror sp
     ef8:	1d310730 	ldcne	7, cr0, [r1, #-192]!	; 0xffffff40
     efc:	07340000 	ldreq	r0, [r4, -r0]!
     f00:	00001d6e 	andeq	r1, r0, lr, ror #26
     f04:	4c420634 	mcrrmi	6, 3, r0, r2, cr4
     f08:	07380052 			; <UNDEFINED> instruction: 0x07380052
     f0c:	00001c40 	andeq	r1, r0, r0, asr #24
     f10:	4353063c 	cmpmi	r3, #60, 12	; 0x3c00000
     f14:	00c00052 	sbceq	r0, r0, r2, asr r0
     f18:	52535306 	subspl	r5, r3, #402653184	; 0x18000000
     f1c:	0700c400 	streq	ip, [r0, -r0, lsl #8]
     f20:	00001ce5 	andeq	r1, r0, r5, ror #25
     f24:	4d0600c8 	stcmi	0, cr0, [r6, #-800]	; 0xfffffce0
     f28:	d0005256 	andle	r5, r0, r6, asr r2
     f2c:	1c980700 	ldcne	7, cr0, [r8], {0}
     f30:	00d40000 	sbcseq	r0, r4, r0
     f34:	001ca907 	andseq	sl, ip, r7, lsl #18
     f38:	0600d800 	streq	sp, [r0], -r0, lsl #16
     f3c:	00524557 	subseq	r4, r2, r7, asr r5
     f40:	b50700dc 	strlt	r0, [r7, #-220]	; 0xdc
     f44:	e000001c 	and	r0, r0, ip, lsl r0
     f48:	1cea0700 	stclne	7, cr0, [sl]
     f4c:	00e40000 	rsceq	r0, r4, r0
     f50:	001c3507 	andseq	r3, ip, r7, lsl #10
     f54:	0700e800 	streq	lr, [r0, -r0, lsl #16]
     f58:	00001cd1 	ldrdeq	r1, [r0], -r1	; <UNPREDICTABLE>
     f5c:	270700ec 	strcs	r0, [r7, -ip, ror #1]
     f60:	f000001c 			; <UNDEFINED> instruction: 0xf000001c
     f64:	1cdc0700 	ldclne	7, cr0, [ip], {0}
     f68:	00f40000 	rscseq	r0, r4, r0
     f6c:	001cc407 	andseq	ip, ip, r7, lsl #8
     f70:	07018000 	streq	r8, [r1, -r0]
     f74:	00001cd6 	ldrdeq	r1, [r0], -r6
     f78:	05000184 	streq	r0, [r0, #-388]	; 0x184
     f7c:	7c0a0401 	cfstrsvc	mvf0, [sl], {1}
     f80:	07000001 	streq	r0, [r0, -r1]
     f84:	00001be3 	andeq	r1, r0, r3, ror #23
     f88:	1bf80700 	blne	ffe02b90 <value+0x7fe01690>
     f8c:	00010000 	andeq	r0, r1, r0
     f90:	001d5202 	andseq	r5, sp, r2, lsl #4
     f94:	670d0400 	strvs	r0, [sp, -r0, lsl #8]
     f98:	05000001 	streq	r0, [r0, #-1]
     f9c:	a2130401 	andsge	r0, r3, #16777216	; 0x1000000
     fa0:	07000001 	streq	r0, [r0, -r1]
     fa4:	00001c16 	andeq	r1, r0, r6, lsl ip
     fa8:	1bd70700 	blne	ff5c2bb0 <value+0x7f5c16b0>
     fac:	07010000 	streq	r0, [r1, -r0]
     fb0:	00001c0b 	andeq	r1, r0, fp, lsl #24
     fb4:	61020002 	tstvs	r2, r2
     fb8:	0400001d 	streq	r0, [r0], #-29
     fbc:	00018717 	andeq	r8, r1, r7, lsl r7
     fc0:	04010500 	streq	r0, [r1], #-1280	; 0x500
     fc4:	0001c820 	andeq	ip, r1, r0, lsr #16
     fc8:	1bec0700 	blne	ffb02bd0 <value+0x7fb016d0>
     fcc:	07000000 	streq	r0, [r0, -r0]
     fd0:	00001bbb 			; <UNDEFINED> instruction: 0x00001bbb
     fd4:	1bf20701 	blne	ffc82be0 <value+0x7fc816e0>
     fd8:	00020000 	andeq	r0, r2, r0
     fdc:	001d1502 	andseq	r1, sp, r2, lsl #10
     fe0:	ad240400 	cfstrsge	mvf0, [r4, #-0]
     fe4:	05000001 	streq	r0, [r0, #-1]
     fe8:	2c0b0504 	cfstr32cs	mvfx0, [fp], {4}
     fec:	07000002 	streq	r0, [r0, -r2]
     ff0:	0000061c 	andeq	r0, r0, ip, lsl r6
     ff4:	a7808080 	strge	r8, [r0, r0, lsl #1]
     ff8:	06920704 	ldreq	r0, [r2], r4, lsl #14
     ffc:	88800000 	stmhi	r0, {}	; <UNPREDICTABLE>
    1000:	0704a780 	streq	sl, [r4, -r0, lsl #15]
    1004:	00000750 	andeq	r0, r0, r0, asr r7
    1008:	a7808a80 	strge	r8, [r0, r0, lsl #21]
    100c:	08620704 	stmdaeq	r2!, {r2, r8, r9, sl}^
    1010:	8c800000 	stchi	0, cr0, [r0], {0}
    1014:	0704a780 	streq	sl, [r4, -r0, lsl #15]
    1018:	00000858 	andeq	r0, r0, r8, asr r8
    101c:	a7808e80 	strge	r8, [r0, r0, lsl #29]
    1020:	02850704 	addeq	r0, r5, #4, 14	; 0x100000
    1024:	90800000 	addls	r0, r0, r0
    1028:	0704a780 	streq	sl, [r4, -r0, lsl #15]
    102c:	000008c6 	andeq	r0, r0, r6, asr #17
    1030:	a7809280 	strge	r9, [r0, r0, lsl #5]
    1034:	066a0704 	strbteq	r0, [sl], -r4, lsl #14
    1038:	94800000 	strls	r0, [r0], #0
    103c:	0004a780 	andeq	sl, r4, r0, lsl #15
    1040:	1c050205 	sfmne	f0, 4, [r5], {5}
    1044:	0000053c 	andeq	r0, r0, ip, lsr r5
    1048:	00076d07 	andeq	r6, r7, r7, lsl #26
    104c:	c2070000 	andgt	r0, r7, #0
    1050:	04000005 	streq	r0, [r0], #-5
    1054:	00014707 	andeq	r4, r1, r7, lsl #14
    1058:	b3070800 	movwlt	r0, #30720	; 0x7800
    105c:	0c000000 	stceq	0, cr0, [r0], {-0}
    1060:	0004bf07 	andeq	fp, r4, r7, lsl #30
    1064:	1c071400 	cfstrsne	mvf1, [r7], {-0}
    1068:	18000008 	stmdane	r0, {r3}
    106c:	00063e07 	andeq	r3, r6, r7, lsl #28
    1070:	32071c00 	andcc	r1, r7, #0, 24
    1074:	24000001 	strcs	r0, [r0], #-1
    1078:	00071507 	andeq	r1, r7, r7, lsl #10
    107c:	05072800 	streq	r2, [r7, #-2048]	; 0x800
    1080:	2c000008 	stccs	0, cr0, [r0], {8}
    1084:	0009a507 	andeq	sl, r9, r7, lsl #10
    1088:	c7073000 	strgt	r3, [r7, -r0]
    108c:	34000000 	strcc	r0, [r0], #-0
    1090:	00018707 	andeq	r8, r1, r7, lsl #14
    1094:	8c073800 	stchi	8, cr3, [r7], {-0}
    1098:	3c000002 	stccc	0, cr0, [r0], {2}
    109c:	00072907 	andeq	r2, r7, r7, lsl #18
    10a0:	0700c000 	streq	ip, [r0, -r0]
    10a4:	00000339 	andeq	r0, r0, r9, lsr r3
    10a8:	b40700c4 	strlt	r0, [r7], #-196	; 0xc4
    10ac:	c8000002 	stmdagt	r0, {r1}
    10b0:	00dd0700 	sbcseq	r0, sp, r0, lsl #14
    10b4:	00cc0000 	sbceq	r0, ip, r0
    10b8:	00043f07 	andeq	r3, r4, r7, lsl #30
    10bc:	0700d000 	streq	sp, [r0, -r0]
    10c0:	000005ae 	andeq	r0, r0, lr, lsr #11
    10c4:	710700e0 	smlattvc	r7, r0, r0, r0
    10c8:	e4000002 	str	r0, [r0], #-2
    10cc:	011c0700 	tsteq	ip, r0, lsl #14
    10d0:	00e80000 	rsceq	r0, r8, r0
    10d4:	000a1a07 	andeq	r1, sl, r7, lsl #20
    10d8:	0700ec00 	streq	lr, [r0, -r0, lsl #24]
    10dc:	00000ac3 	andeq	r0, r0, r3, asr #21
    10e0:	4d0700f0 	stcmi	0, cr0, [r7, #-960]	; 0xfffffc40
    10e4:	f4000003 	vst4.8	{d0-d3}, [r0], r3
    10e8:	01070700 	tsteq	r7, r0, lsl #14
    10ec:	00f80000 	rscseq	r0, r8, r0
    10f0:	0004f207 	andeq	pc, r4, r7, lsl #4
    10f4:	0700fc00 	streq	pc, [r0, -r0, lsl #24]
    10f8:	000002f4 	strdeq	r0, [r0], -r4
    10fc:	62070180 	andvs	r0, r7, #128, 2
    1100:	84000003 	strhi	r0, [r0], #-3
    1104:	03e60701 	mvneq	r0, #262144	; 0x40000
    1108:	01880000 	orreq	r0, r8, r0
    110c:	0006d507 	andeq	sp, r6, r7, lsl #10
    1110:	0701ac00 	streq	sl, [r1, -r0, lsl #24]
    1114:	00000700 	andeq	r0, r0, r0, lsl #14
    1118:	580701b0 	stmdapl	r7, {r4, r5, r7, r8}
    111c:	b4000007 	strlt	r0, [r0], #-7
    1120:	08e60701 	stmiaeq	r6!, {r0, r8, r9, sl}^
    1124:	01bc0000 			; <UNDEFINED> instruction: 0x01bc0000
    1128:	00025c07 	andeq	r5, r2, r7, lsl #24
    112c:	0701c000 	streq	ip, [r1, -r0]
    1130:	00000465 	andeq	r0, r0, r5, ror #8
    1134:	940701c4 	strls	r0, [r7], #-452	; 0x1c4
    1138:	cc00000a 	stcgt	0, cr0, [r0], {10}
    113c:	09370701 	ldmdbeq	r7!, {r0, r8, r9, sl}
    1140:	01d00000 	bicseq	r0, r0, r0
    1144:	00047a07 	andeq	r7, r4, r7, lsl #20
    1148:	0701d400 	streq	sp, [r1, -r0, lsl #8]
    114c:	0000056b 	andeq	r0, r0, fp, ror #10
    1150:	ab0701d8 	blge	1c18b8 <_start-0x7fe3e748>
    1154:	dc00000a 	stcle	0, cr0, [r0], {10}
    1158:	04530701 	ldrbeq	r0, [r3], #-1793	; 0x701
    115c:	01e00000 	mvneq	r0, r0
    1160:	0002dc07 	andeq	sp, r2, r7, lsl #24
    1164:	0701e400 	streq	lr, [r1, -r0, lsl #8]
    1168:	00000491 	muleq	r0, r1, r4
    116c:	290701e8 	stmdbcs	r7, {r3, r5, r6, r7, r8}
    1170:	ec000004 	stc	0, cr0, [r0], {4}
    1174:	05380701 	ldreq	r0, [r8, #-1793]!	; 0x701
    1178:	01f00000 	mvnseq	r0, r0
    117c:	00030a07 	andeq	r0, r3, r7, lsl #20
    1180:	0701f400 	streq	pc, [r1, -r0, lsl #8]
    1184:	00000378 	andeq	r0, r0, r8, ror r3
    1188:	830701f8 	movwhi	r0, #29176	; 0x71f8
    118c:	fc000007 	stc2	0, cr0, [r0], {7}
    1190:	07f00701 	ldrbeq	r0, [r0, r1, lsl #14]!
    1194:	02800000 	addeq	r0, r0, #0
    1198:	00038c07 	andeq	r8, r3, r7, lsl #24
    119c:	07028c00 	streq	r8, [r2, -r0, lsl #24]
    11a0:	00000652 	andeq	r0, r0, r2, asr r6
    11a4:	f1070290 			; <UNDEFINED> instruction: 0xf1070290
    11a8:	9c000000 	stcls	0, cr0, [r0], {-0}
    11ac:	090e0702 	stmdbeq	lr, {r1, r8, r9, sl}
    11b0:	02a00000 	adceq	r0, r0, #0
    11b4:	0009b907 	andeq	fp, r9, r7, lsl #18
    11b8:	0702ac00 	streq	sl, [r2, -r0, lsl #24]
    11bc:	00000523 	andeq	r0, r0, r3, lsr #10
    11c0:	000702b0 			; <UNDEFINED> instruction: 0x000702b0
    11c4:	c000000a 	andgt	r0, r0, sl
    11c8:	08690702 	stmdaeq	r9!, {r1, r8, r9, sl}^
    11cc:	02c40000 	sbceq	r0, r4, #0
    11d0:	0009ea07 	andeq	lr, r9, r7, lsl #20
    11d4:	0702c800 	streq	ip, [r2, -r0, lsl #16]
    11d8:	0000021a 	andeq	r0, r0, sl, lsl r2
    11dc:	230702cc 	movwcs	r0, #29388	; 0x72cc
    11e0:	d0000006 	andle	r0, r0, r6
    11e4:	09690702 	stmdbeq	r9!, {r1, r8, r9, sl}^
    11e8:	07000000 	streq	r0, [r0, -r0]
    11ec:	000003fc 	strdeq	r0, [r0], -ip
    11f0:	04a90704 	strteq	r0, [r9], #1796	; 0x704
    11f4:	07080000 	streq	r0, [r8, -r0]
    11f8:	00000ad8 	ldrdeq	r0, [r0], -r8
    11fc:	098e070c 	stmibeq	lr, {r2, r3, r8, r9, sl}
    1200:	07100000 	ldreq	r0, [r0, -r0]
    1204:	0000089a 	muleq	r0, sl, r8
    1208:	07ad0714 			; <UNDEFINED> instruction: 0x07ad0714
    120c:	07180000 	ldreq	r0, [r8, -r0]
    1210:	00000922 	andeq	r0, r0, r2, lsr #18
    1214:	0830071c 	ldmdaeq	r0!, {r2, r3, r4, r8, r9, sl}
    1218:	07200000 	streq	r0, [r0, -r0]!
    121c:	00000508 	andeq	r0, r0, r8, lsl #10
    1220:	031e0724 	tsteq	lr, #36, 14	; 0x900000
    1224:	07280000 	streq	r0, [r8, -r0]!
    1228:	0000094e 	andeq	r0, r0, lr, asr #18
    122c:	0798072c 	ldreq	r0, [r8, ip, lsr #14]
    1230:	07300000 	ldreq	r0, [r0, -r0]!
    1234:	000001bd 			; <UNDEFINED> instruction: 0x000001bd
    1238:	087f0734 	ldmdaeq	pc!, {r2, r4, r5, r8, r9, sl}^	; <UNPREDICTABLE>
    123c:	07380000 	ldreq	r0, [r8, -r0]!
    1240:	0000015d 	andeq	r0, r0, sp, asr r1
    1244:	07c1073c 			; <UNDEFINED> instruction: 0x07c1073c
    1248:	00c00000 	sbceq	r0, r0, r0
    124c:	000a2f07 	andeq	r2, sl, r7, lsl #30
    1250:	0700c400 	streq	ip, [r0, -r0, lsl #8]
    1254:	000008b2 			; <UNDEFINED> instruction: 0x000008b2
    1258:	9c0700c8 	stcls	0, cr0, [r7], {200}	; 0xc8
    125c:	cc000001 	stcgt	0, cr0, [r0], {1}
    1260:	0a780700 	beq	1e02e68 <_start-0x7e1fd198>
    1264:	00d00000 	sbcseq	r0, r0, r0
    1268:	00060807 	andeq	r0, r6, r7, lsl #16
    126c:	0700d400 	streq	sp, [r0, -r0, lsl #8]
    1270:	00000233 	andeq	r0, r0, r3, lsr r2
    1274:	9a0700d8 	bls	1c15dc <_start-0x7fe3ea24>
    1278:	dc000006 	stcle	0, cr0, [r0], {6}
    127c:	04d60700 	ldrbeq	r0, [r6], #1792	; 0x700
    1280:	00e00000 	rsceq	r0, r0, r0
    1284:	0007d407 	andeq	sp, r7, r7, lsl #8
    1288:	0700e400 	streq	lr, [r0, -r0, lsl #8]
    128c:	000002a0 	andeq	r0, r0, r0, lsr #5
    1290:	d00700e8 	andle	r0, r7, r8, ror #1
    1294:	ec000001 	stc	0, cr0, [r0], {1}
    1298:	06ae0700 	strteq	r0, [lr], r0, lsl #14
    129c:	00f00000 	rscseq	r0, r0, r0
    12a0:	0001f907 	andeq	pc, r1, r7, lsl #18
    12a4:	0700f400 	streq	pc, [r0, -r0, lsl #8]
    12a8:	00000a45 	andeq	r0, r0, r5, asr #20
    12ac:	ea0700f8 	b	1c1694 <_start-0x7fe3e96c>
    12b0:	fc000006 	stc2	0, cr0, [r0], {6}
    12b4:	02c80700 	sbceq	r0, r8, #0, 14
    12b8:	01800000 	orreq	r0, r0, r0
    12bc:	0001e507 	andeq	lr, r1, r7, lsl #10
    12c0:	07018400 	streq	r8, [r1, -r0, lsl #8]
    12c4:	0000073c 	andeq	r0, r0, ip, lsr r7
    12c8:	c1070188 	smlabbgt	r7, r8, r1, r0
    12cc:	8c000006 	stchi	0, cr0, [r0], {6}
    12d0:	03c70701 	biceq	r0, r7, #262144	; 0x40000
    12d4:	01900000 	orrseq	r0, r0, r0
    12d8:	0005d707 	andeq	sp, r5, r7, lsl #14
    12dc:	07019400 	streq	r9, [r1, -r0, lsl #8]
    12e0:	00000843 	andeq	r0, r0, r3, asr #16
    12e4:	98070198 	stmdals	r7, {r3, r4, r7, r8}
    12e8:	9c000005 	stcls	0, cr0, [r0], {5}
    12ec:	0b110701 	bleq	442ef8 <_start-0x7fbbd108>
    12f0:	01a00000 	moveq	r0, r0
    12f4:	0008fa07 	andeq	pc, r8, r7, lsl #20
    12f8:	0701a400 	streq	sl, [r1, -r0, lsl #8]
    12fc:	00000249 	andeq	r0, r0, r9, asr #4
    1300:	7b0701a8 	blvc	1c19a8 <_start-0x7fe3e658>
    1304:	ac000009 	stcge	0, cr0, [r0], {9}
    1308:	03af0701 			; <UNDEFINED> instruction: 0x03af0701
    130c:	01b00000 	movseq	r0, r0
    1310:	00058207 	andeq	r8, r5, r7, lsl #4
    1314:	0701b400 	streq	fp, [r1, -r0, lsl #8]
    1318:	00000afc 	strdeq	r0, [r0], -ip
    131c:	600701b8 			; <UNDEFINED> instruction: 0x600701b8
    1320:	bc00000a 	stclt	0, cr0, [r0], {10}
    1324:	054e0701 	strbeq	r0, [lr, #-1793]	; 0x701
    1328:	01c00000 	biceq	r0, r0, r0
    132c:	0009d307 	andeq	sp, r9, r7, lsl #6
    1330:	0701c400 	streq	ip, [r1, -r0, lsl #8]
    1334:	000005eb 	andeq	r0, r0, fp, ror #11
    1338:	cd0701c8 	stfgts	f0, [r7, #-800]	; 0xfffffce0
    133c:	cc000008 	stcgt	0, cr0, [r0], {8}
    1340:	04140701 	ldreq	r0, [r4], #-1793	; 0x701
    1344:	01d40000 	bicseq	r0, r4, r0
    1348:	00067e07 	andeq	r7, r6, r7, lsl #28
    134c:	0001d800 	andeq	sp, r1, r0, lsl #16
    1350:	001c4c08 	andseq	r4, ip, r8, lsl #24
    1354:	b0080100 	andlt	r0, r8, r0, lsl #2
    1358:	58800004 	stmpl	r0, {r2}
    135c:	01000000 	mrseq	r0, (UNDEF: 0)
    1360:	0005609c 	muleq	r5, ip, r0
    1364:	1c6f0900 	stclne	9, cr0, [pc], #-0	; 136c <_start-0x7fffec94>
    1368:	0a010000 	beq	41370 <_start-0x7ffbec90>
    136c:	00000030 	andeq	r0, r0, r0, lsr r0
    1370:	00749102 	rsbseq	r9, r4, r2, lsl #2
    1374:	001c7d0a 	andseq	r7, ip, sl, lsl #26
    1378:	08130100 	ldmdaeq	r3, {r8}
    137c:	f8800005 			; <UNDEFINED> instruction: 0xf8800005
    1380:	01000001 	tsteq	r0, r1
    1384:	0005ae9c 	muleq	r5, ip, lr
    1388:	1c2c0b00 	stcne	11, cr0, [ip], #-0
    138c:	13010000 	movwne	r0, #4096	; 0x1000
    1390:	00000030 	andeq	r0, r0, r0, lsr r0
    1394:	09649102 	stmdbeq	r4!, {r1, r8, ip, pc}^
    1398:	000001b8 			; <UNDEFINED> instruction: 0x000001b8
    139c:	00301601 	eorseq	r1, r0, r1, lsl #12
    13a0:	91020000 	mrsls	r0, (UNDEF: 2)
    13a4:	69640c74 	stmdbvs	r4!, {r2, r4, r5, r6, sl, fp}^
    13a8:	34010076 	strcc	r0, [r1], #-118	; 0x76
    13ac:	000005ae 	andeq	r0, r0, lr, lsr #11
    13b0:	09709102 	ldmdbeq	r0!, {r1, r8, ip, pc}^
    13b4:	00001cae 	andeq	r1, r0, lr, lsr #25
    13b8:	00303501 	eorseq	r3, r0, r1, lsl #10
    13bc:	91020000 	mrsls	r0, (UNDEF: 2)
    13c0:	0403006c 	streq	r0, [r3], #-108	; 0x6c
    13c4:	001c7704 	andseq	r7, ip, r4, lsl #14
    13c8:	1d270d00 	stcne	13, cr0, [r7, #-0]
    13cc:	3f010000 	svccc	0x00010000
    13d0:	80000700 	andhi	r0, r0, r0, lsl #14
    13d4:	00000034 	andeq	r0, r0, r4, lsr r0
    13d8:	06039c01 	streq	r9, [r3], -r1, lsl #24
    13dc:	2c0b0000 	stccs	0, cr0, [fp], {-0}
    13e0:	0100001c 	tsteq	r0, ip, lsl r0
    13e4:	0000303f 	andeq	r3, r0, pc, lsr r0
    13e8:	74910200 	ldrvc	r0, [r1], #512	; 0x200
    13ec:	001d590b 	andseq	r5, sp, fp, lsl #18
    13f0:	c83f0100 	ldmdagt	pc!, {r8}	; <UNPREDICTABLE>
    13f4:	02000001 	andeq	r0, r0, #1
    13f8:	0e0b7391 	mcreq	3, 0, r7, cr11, cr1, {4}
    13fc:	0100001d 	tsteq	r0, sp, lsl r0
    1400:	0001a23f 	andeq	sl, r1, pc, lsr r2
    1404:	72910200 	addsvc	r0, r1, #0, 4
    1408:	001d460b 	andseq	r4, sp, fp, lsl #12
    140c:	7c3f0100 	ldfvcs	f0, [pc], #-0	; 1414 <_start-0x7fffebec>
    1410:	02000001 	andeq	r0, r0, #1
    1414:	0d007191 	stfeqs	f7, [r0, #-580]	; 0xfffffdbc
    1418:	00001c65 	andeq	r1, r0, r5, ror #24
    141c:	07344e01 	ldreq	r4, [r4, -r1, lsl #28]!
    1420:	00648000 	rsbeq	r8, r4, r0
    1424:	9c010000 	stcls	0, cr0, [r1], {-0}
    1428:	00000625 	andeq	r0, r0, r5, lsr #12
    142c:	0100630e 	tsteq	r0, lr, lsl #6
    1430:	00005e4e 	andeq	r5, r0, lr, asr #28
    1434:	77910200 	ldrvc	r0, [r1, r0, lsl #4]
    1438:	1d040f00 	stcne	15, cr0, [r4, #-0]
    143c:	59010000 	stmdbpl	r1, {}	; <UNPREDICTABLE>
    1440:	0000005e 	andeq	r0, r0, lr, asr r0
    1444:	80000798 	mulhi	r0, r8, r7
    1448:	00000048 	andeq	r0, r0, r8, asr #32
    144c:	f5109c01 			; <UNDEFINED> instruction: 0xf5109c01
    1450:	0100001c 	tsteq	r0, ip, lsl r0
    1454:	0000505f 	andeq	r5, r0, pc, asr r0
    1458:	0007e000 	andeq	lr, r7, r0
    145c:	00006c80 	andeq	r6, r0, r0, lsl #25
    1460:	869c0100 	ldrhi	r0, [ip], r0, lsl #2
    1464:	0e000006 	cdpeq	0, 0, cr0, cr0, cr6, {0}
    1468:	00727473 	rsbseq	r7, r2, r3, ror r4
    146c:	06865f01 	streq	r5, [r6], r1, lsl #30
    1470:	91020000 	mrsls	r0, (UNDEF: 2)
    1474:	1d20096c 	stcne	9, cr0, [r0, #-432]!	; 0xfffffe50
    1478:	61010000 	mrsvs	r0, (UNDEF: 1)
    147c:	00000050 	andeq	r0, r0, r0, asr r0
    1480:	11709102 	cmnne	r0, r2, lsl #2
    1484:	800007fc 	strdhi	r0, [r0], -ip
    1488:	00000040 	andeq	r0, r0, r0, asr #32
    148c:	0100690c 	tsteq	r0, ip, lsl #18
    1490:	00005062 	andeq	r5, r0, r2, rrx
    1494:	74910200 	ldrvc	r0, [r1], #512	; 0x200
    1498:	04120000 	ldreq	r0, [r2], #-0
    149c:	0000005e 	andeq	r0, r0, lr, asr r0
    14a0:	001c8910 	andseq	r8, ip, r0, lsl r9
    14a4:	50690100 	rsbpl	r0, r9, r0, lsl #2
    14a8:	4c000000 	stcmi	0, cr0, [r0], {-0}
    14ac:	6c800008 	stcvs	0, cr0, [r0], {8}
    14b0:	01000000 	mrseq	r0, (UNDEF: 0)
    14b4:	0006d89c 	muleq	r6, ip, r8
    14b8:	75620e00 	strbvc	r0, [r2, #-3584]!	; 0xe00
    14bc:	69010066 	stmdbvs	r1, {r1, r2, r5, r6}
    14c0:	00000686 	andeq	r0, r0, r6, lsl #13
    14c4:	09649102 	stmdbeq	r4!, {r1, r8, ip, pc}^
    14c8:	00001d20 	andeq	r1, r0, r0, lsr #26
    14cc:	00506b01 	subseq	r6, r0, r1, lsl #22
    14d0:	91020000 	mrsls	r0, (UNDEF: 2)
    14d4:	08681168 	stmdaeq	r8!, {r3, r5, r6, r8, ip}^
    14d8:	00408000 	subeq	r8, r0, r0
    14dc:	690c0000 	stmdbvs	ip, {}	; <UNPREDICTABLE>
    14e0:	506c0100 	rsbpl	r0, ip, r0, lsl #2
    14e4:	02000000 	andeq	r0, r0, #0
    14e8:	00006c91 	muleq	r0, r1, ip
    14ec:	00021413 	andeq	r1, r2, r3, lsl r4
    14f0:	37070100 	strcc	r0, [r7, -r0, lsl #2]
    14f4:	05000000 	streq	r0, [r0, #-0]
    14f8:	00150003 	andseq	r0, r5, r3
    14fc:	02910080 	addseq	r0, r1, #128	; 0x80
    1500:	00040000 	andeq	r0, r4, r0
    1504:	000004e3 	andeq	r0, r0, r3, ror #9
    1508:	00090104 	andeq	r0, r9, r4, lsl #2
    150c:	7f010000 	svcvc	0x00010000
    1510:	e300001d 	movw	r0, #29
    1514:	b800001d 	stmdalt	r0, {r0, r2, r3, r4}
    1518:	a0800008 	addge	r0, r0, r8
    151c:	fc000006 	stc2	0, cr0, [r0], {6}
    1520:	02000002 	andeq	r0, r0, #2
    1524:	00001c00 	andeq	r1, r0, r0, lsl #24
    1528:	00301502 	eorseq	r1, r0, r2, lsl #10
    152c:	04030000 	streq	r0, [r3], #-0
    1530:	00000036 	andeq	r0, r0, r6, lsr r0
    1534:	00004104 	andeq	r4, r0, r4, lsl #2
    1538:	00410500 	subeq	r0, r1, r0, lsl #10
    153c:	06000000 	streq	r0, [r0], -r0
    1540:	00850801 	addeq	r0, r5, r1, lsl #16
    1544:	8e070000 	cdphi	0, 0, cr0, cr7, cr0, {0}
    1548:	0100001d 	tsteq	r0, sp, lsl r0
    154c:	0008b813 	andeq	fp, r8, r3, lsl r8
    1550:	00016480 	andeq	r6, r1, r0, lsl #9
    1554:	ce9c0100 	fmlgte	f0, f4, f0
    1558:	08000000 	stmdaeq	r0, {}	; <UNPREDICTABLE>
    155c:	0074756f 	rsbseq	r7, r4, pc, ror #10
    1560:	00251301 	eoreq	r1, r5, r1, lsl #6
    1564:	91020000 	mrsls	r0, (UNDEF: 2)
    1568:	756e0864 	strbvc	r0, [lr, #-2148]!	; 0x864
    156c:	1401006d 	strne	r0, [r1], #-109	; 0x6d
    1570:	000000ce 	andeq	r0, r0, lr, asr #1
    1574:	09609102 	stmdbeq	r0!, {r1, r8, ip, pc}^
    1578:	00001e1a 	andeq	r1, r0, sl, lsl lr
    157c:	00da1401 	sbcseq	r1, sl, r1, lsl #8
    1580:	91020000 	mrsls	r0, (UNDEF: 2)
    1584:	1dd9095c 	ldclne	9, cr0, [r9, #368]	; 0x170
    1588:	15010000 	strne	r0, [r1, #-0]
    158c:	000000da 	ldrdeq	r0, [r0], -sl
    1590:	0a589102 	beq	16259a0 <_start-0x7e9da660>
    1594:	00736f70 	rsbseq	r6, r3, r0, ror pc
    1598:	00e11b01 	rsceq	r1, r1, r1, lsl #22
    159c:	91020000 	mrsls	r0, (UNDEF: 2)
    15a0:	1db20b74 	ldcne	11, cr0, [r2, #464]!	; 0x1d0
    15a4:	1c010000 	stcne	0, cr0, [r1], {-0}
    15a8:	000000e1 	andeq	r0, r0, r1, ror #1
    15ac:	0b709102 	bleq	1c259bc <_start-0x7e3da644>
    15b0:	00001dbc 			; <UNDEFINED> instruction: 0x00001dbc
    15b4:	00da1d01 	sbcseq	r1, sl, r1, lsl #26
    15b8:	91020000 	mrsls	r0, (UNDEF: 2)
    15bc:	1e580b6c 	vnmlane.f64	d16, d8, d28
    15c0:	1e010000 	cdpne	0, 0, cr0, cr1, cr0, {0}
    15c4:	000000da 	ldrdeq	r0, [r0], -sl
    15c8:	00689102 	rsbeq	r9, r8, r2, lsl #2
    15cc:	0000d30c 	andeq	sp, r0, ip, lsl #6
    15d0:	07040600 	streq	r0, [r4, -r0, lsl #12]
    15d4:	00001da0 	andeq	r1, r0, r0, lsr #27
    15d8:	6905040d 	stmdbvs	r5, {r0, r2, r3, sl}
    15dc:	0600746e 	streq	r7, [r0], -lr, ror #8
    15e0:	1e480504 	cdpne	5, 4, cr0, cr8, cr4, {0}
    15e4:	23070000 	movwcs	r0, #28672	; 0x7000
    15e8:	0100001e 	tsteq	r0, lr, lsl r0
    15ec:	000a1c3c 	andeq	r1, sl, ip, lsr ip
    15f0:	00011880 	andeq	r1, r1, r0, lsl #17
    15f4:	789c0100 	ldmvc	ip, {r8}
    15f8:	08000001 	stmdaeq	r0, {r0}
    15fc:	0074756f 	rsbseq	r7, r4, pc, ror #10
    1600:	00253c01 	eoreq	r3, r5, r1, lsl #24
    1604:	91020000 	mrsls	r0, (UNDEF: 2)
    1608:	756e0864 	strbvc	r0, [lr, #-2148]!	; 0x864
    160c:	3d01006d 	stccc	0, cr0, [r1, #-436]	; 0xfffffe4c
    1610:	000000ce 	andeq	r0, r0, lr, asr #1
    1614:	09609102 	stmdbeq	r0!, {r1, r8, ip, pc}^
    1618:	00001e1a 	andeq	r1, r0, sl, lsl lr
    161c:	00da3d01 	sbcseq	r3, sl, r1, lsl #26
    1620:	91020000 	mrsls	r0, (UNDEF: 2)
    1624:	1dd9095c 	ldclne	9, cr0, [r9, #368]	; 0x170
    1628:	3e010000 	cdpcc	0, 0, cr0, cr1, cr0, {0}
    162c:	000000da 	ldrdeq	r0, [r0], -sl
    1630:	0b589102 	bleq	1625a40 <_start-0x7e9da5c0>
    1634:	00001d7a 	andeq	r1, r0, sl, ror sp
    1638:	00da4001 	sbcseq	r4, sl, r1
    163c:	91020000 	mrsls	r0, (UNDEF: 2)
    1640:	1dbc0b74 	ldcne	11, cr0, [ip, #464]!	; 0x1d0
    1644:	41010000 	mrsmi	r0, (UNDEF: 1)
    1648:	000000da 	ldrdeq	r0, [r0], -sl
    164c:	0b709102 	bleq	1c25a5c <_start-0x7e3da5a4>
    1650:	00001e58 	andeq	r1, r0, r8, asr lr
    1654:	00da4201 	sbcseq	r4, sl, r1, lsl #4
    1658:	91020000 	mrsls	r0, (UNDEF: 2)
    165c:	0a540e6c 	beq	1505014 <_start-0x7eafafec>
    1660:	00c08000 	sbceq	r8, r0, r0
    1664:	510b0000 	mrspl	r0, (UNDEF: 11)
    1668:	0100001e 	tsteq	r0, lr, lsl r0
    166c:	00004145 	andeq	r4, r0, r5, asr #2
    1670:	6b910200 	blvs	fe441e78 <value+0x7e440978>
    1674:	d00f0000 	andle	r0, pc, r0
    1678:	0100001d 	tsteq	r0, sp, lsl r0
    167c:	000b345f 	andeq	r3, fp, pc, asr r4
    1680:	00042480 	andeq	r2, r4, r0, lsl #9
    1684:	6a9c0100 	bvs	fe701a8c <value+0x7e70058c>
    1688:	08000002 	stmdaeq	r0, {r1}
    168c:	0074756f 	rsbseq	r7, r4, pc, ror #10
    1690:	00255f01 	eoreq	r5, r5, r1, lsl #30
    1694:	91020000 	mrsls	r0, (UNDEF: 2)
    1698:	6d660854 	stclvs	8, cr0, [r6, #-336]!	; 0xfffffeb0
    169c:	5f010074 	svcpl	0x00010074
    16a0:	0000026a 	andeq	r0, r0, sl, ror #4
    16a4:	08509102 	ldmdaeq	r0, {r1, r8, ip, pc}^
    16a8:	01007061 	tsteq	r0, r1, rrx
    16ac:	0002755f 	andeq	r7, r2, pc, asr r5
    16b0:	4c910200 	lfmmi	f0, 4, [r1], {0}
    16b4:	001e3b0b 	andseq	r3, lr, fp, lsl #22
    16b8:	da610100 	ble	1841ac0 <_start-0x7e7be540>
    16bc:	02000000 	andeq	r0, r0, #0
    16c0:	1a0b7491 	bne	2de90c <_start-0x7fd216f4>
    16c4:	0100001e 	tsteq	r0, lr, lsl r0
    16c8:	0000da62 	andeq	sp, r0, r2, ror #20
    16cc:	70910200 	addsvc	r0, r1, r0, lsl #4
    16d0:	001dd90b 	andseq	sp, sp, fp, lsl #18
    16d4:	da630100 	ble	18c1adc <_start-0x7e73e524>
    16d8:	02000000 	andeq	r0, r0, #0
    16dc:	35106c91 	ldrcc	r6, [r0, #-3217]	; 0xc91
    16e0:	0100001e 	tsteq	r0, lr, lsl r0
    16e4:	000f34bf 			; <UNDEFINED> instruction: 0x000f34bf
    16e8:	0d9c1180 	ldfeqs	f1, [ip, #512]	; 0x200
    16ec:	00608000 	rsbeq	r8, r0, r0
    16f0:	02050000 	andeq	r0, r5, #0
    16f4:	640a0000 	strvs	r0, [sl], #-0
    16f8:	e1860100 	orr	r0, r6, r0, lsl #2
    16fc:	02000000 	andeq	r0, r0, #0
    1700:	11006891 			; <UNDEFINED> instruction: 0x11006891
    1704:	80000dfc 	strdhi	r0, [r0], -ip
    1708:	0000002c 	andeq	r0, r0, ip, lsr #32
    170c:	0000021f 	andeq	r0, r0, pc, lsl r2
    1710:	0100750a 	tsteq	r0, sl, lsl #10
    1714:	0000d392 	muleq	r0, r2, r3
    1718:	60910200 	addsvs	r0, r1, r0, lsl #4
    171c:	0e501100 	rdfeqs	f1, f0, f0
    1720:	002c8000 	eoreq	r8, ip, r0
    1724:	02390000 	eorseq	r0, r9, #0
    1728:	780a0000 	stmdavc	sl, {}	; <UNPREDICTABLE>
    172c:	d3a10100 			; <UNDEFINED> instruction: 0xd3a10100
    1730:	02000000 	andeq	r0, r0, #0
    1734:	11005c91 			; <UNDEFINED> instruction: 0x11005c91
    1738:	80000e7c 	andhi	r0, r0, ip, ror lr
    173c:	00000048 	andeq	r0, r0, r8, asr #32
    1740:	00000253 	andeq	r0, r0, r3, asr r2
    1744:	0100730a 	tsteq	r0, sl, lsl #6
    1748:	00028ea8 	andeq	r8, r2, r8, lsr #29
    174c:	64910200 	ldrvs	r0, [r1], #512	; 0x200
    1750:	0ec40e00 	cdpeq	14, 12, cr0, cr4, cr0, {0}
    1754:	002c8000 	eoreq	r8, ip, r0
    1758:	630a0000 	movwvs	r0, #40960	; 0xa000
    175c:	daaf0100 	ble	febc1b64 <value+0x7ebc0664>
    1760:	02000000 	andeq	r0, r0, #0
    1764:	00005891 	muleq	r0, r1, r8
    1768:	02700403 	rsbseq	r0, r0, #50331648	; 0x3000000
    176c:	410c0000 	mrsmi	r0, (UNDEF: 12)
    1770:	12000000 	andne	r0, r0, #0
    1774:	00001bc3 	andeq	r1, r0, r3, asr #23
    1778:	8c000304 	stchi	3, cr0, [r0], {4}
    177c:	13000002 	movwne	r0, #2
    1780:	00001c22 	andeq	r1, r0, r2, lsr #24
    1784:	0000028c 	andeq	r0, r0, ip, lsl #5
    1788:	04140000 	ldreq	r0, [r4], #-0
    178c:	00410403 	subeq	r0, r1, r3, lsl #8
    1790:	f8000000 			; <UNDEFINED> instruction: 0xf8000000
    1794:	04000002 	streq	r0, [r0], #-2
    1798:	0005ec00 	andeq	lr, r5, r0, lsl #24
    179c:	09010400 	stmdbeq	r1, {sl}
    17a0:	01000000 	mrseq	r0, (UNDEF: 0)
    17a4:	00001e70 	andeq	r1, r0, r0, ror lr
    17a8:	00001e8e 	andeq	r1, r0, lr, lsl #29
    17ac:	80000f58 	andhi	r0, r0, r8, asr pc
    17b0:	00000554 	andeq	r0, r0, r4, asr r5
    17b4:	00000435 	andeq	r0, r0, r5, lsr r4
    17b8:	001e6902 	andseq	r6, lr, r2, lsl #18
    17bc:	7f0a0100 	svcvc	0x000a0100
    17c0:	58000000 	stmdapl	r0, {}	; <UNPREDICTABLE>
    17c4:	a480000f 	strge	r0, [r0], #15
    17c8:	01000000 	mrseq	r0, (UNDEF: 0)
    17cc:	00007f9c 	muleq	r0, ip, pc	; <UNPREDICTABLE>
    17d0:	73640300 	cmnvc	r4, #0, 6
    17d4:	0a010074 	beq	419ac <_start-0x7ffbe654>
    17d8:	00000086 	andeq	r0, r0, r6, lsl #1
    17dc:	036c9102 	cmneq	ip, #-2147483648	; 0x80000000
    17e0:	00637273 	rsbeq	r7, r3, r3, ror r2
    17e4:	00860a01 	addeq	r0, r6, r1, lsl #20
    17e8:	91020000 	mrsls	r0, (UNDEF: 2)
    17ec:	006e0368 	rsbeq	r0, lr, r8, ror #6
    17f0:	007f0a01 	rsbseq	r0, pc, r1, lsl #20
    17f4:	91020000 	mrsls	r0, (UNDEF: 2)
    17f8:	00610464 	rsbeq	r0, r1, r4, ror #8
    17fc:	008d0c01 	addeq	r0, sp, r1, lsl #24
    1800:	91020000 	mrsls	r0, (UNDEF: 2)
    1804:	00620474 	rsbeq	r0, r2, r4, ror r4
    1808:	008d0d01 	addeq	r0, sp, r1, lsl #26
    180c:	91020000 	mrsls	r0, (UNDEF: 2)
    1810:	04050070 	streq	r0, [r5], #-112	; 0x70
    1814:	746e6905 	strbtvc	r6, [lr], #-2309	; 0x905
    1818:	8c040600 	stchi	6, cr0, [r4], {-0}
    181c:	07000000 	streq	r0, [r0, -r0]
    1820:	00930406 	addseq	r0, r3, r6, lsl #8
    1824:	98080000 	stmdals	r8, {}	; <UNPREDICTABLE>
    1828:	09000000 	stmdbeq	r0, {}	; <UNPREDICTABLE>
    182c:	00850801 	addeq	r0, r5, r1, lsl #16
    1830:	ed020000 	stc	0, cr0, [r2, #-0]
    1834:	0100001e 	tsteq	r0, lr, lsl r0
    1838:	00007f16 	andeq	r7, r0, r6, lsl pc
    183c:	000ffc00 	andeq	pc, pc, r0, lsl #24
    1840:	00005480 	andeq	r5, r0, r0, lsl #9
    1844:	d39c0100 	orrsle	r0, ip, #0, 2
    1848:	03000000 	movweq	r0, #0
    184c:	00727473 	rsbseq	r7, r2, r3, ror r4
    1850:	008d1601 	addeq	r1, sp, r1, lsl #12
    1854:	91020000 	mrsls	r0, (UNDEF: 2)
    1858:	0069046c 	rsbeq	r0, r9, ip, ror #8
    185c:	007f1801 	rsbseq	r1, pc, r1, lsl #16
    1860:	91020000 	mrsls	r0, (UNDEF: 2)
    1864:	c7020074 	smlsdxgt	r2, r4, r0, r0
    1868:	0100001e 	tsteq	r0, lr, lsl r0
    186c:	0001151e 	andeq	r1, r1, lr, lsl r5
    1870:	00105000 	andseq	r5, r0, r0
    1874:	00006080 	andeq	r6, r0, r0, lsl #1
    1878:	159c0100 	ldrne	r0, [ip, #256]	; 0x100
    187c:	03000001 	movweq	r0, #1
    1880:	00747364 	rsbseq	r7, r4, r4, ror #6
    1884:	01151e01 	tsteq	r5, r1, lsl #28
    1888:	91020000 	mrsls	r0, (UNDEF: 2)
    188c:	7273036c 	rsbsvc	r0, r3, #108, 6	; 0xb0000001
    1890:	1e010063 	cdpne	0, 0, cr0, cr1, cr3, {3}
    1894:	0000008d 	andeq	r0, r0, sp, lsl #1
    1898:	04689102 	strbteq	r9, [r8], #-258	; 0x102
    189c:	20010064 	andcs	r0, r1, r4, rrx
    18a0:	00000115 	andeq	r0, r0, r5, lsl r1
    18a4:	00749102 	rsbseq	r9, r4, r2, lsl #2
    18a8:	00980406 	addseq	r0, r8, r6, lsl #8
    18ac:	7f020000 	svcvc	0x00020000
    18b0:	0100001e 	tsteq	r0, lr, lsl r0
    18b4:	00011526 	andeq	r1, r1, r6, lsr #10
    18b8:	0010b000 	andseq	fp, r0, r0
    18bc:	0000a880 	andeq	sl, r0, r0, lsl #17
    18c0:	699c0100 	ldmibvs	ip, {r8}
    18c4:	03000001 	movweq	r0, #1
    18c8:	00747364 	rsbseq	r7, r4, r4, ror #6
    18cc:	01152601 	tsteq	r5, r1, lsl #12
    18d0:	91020000 	mrsls	r0, (UNDEF: 2)
    18d4:	7273036c 	rsbsvc	r0, r3, #108, 6	; 0xb0000001
    18d8:	26010063 	strcs	r0, [r1], -r3, rrx
    18dc:	0000008d 	andeq	r0, r0, sp, lsl #1
    18e0:	03689102 	cmneq	r8, #-2147483648	; 0x80000000
    18e4:	2601006e 	strcs	r0, [r1], -lr, rrx
    18e8:	0000007f 	andeq	r0, r0, pc, ror r0
    18ec:	04649102 	strbteq	r9, [r4], #-258	; 0x102
    18f0:	28010064 	stmdacs	r1, {r2, r5, r6}
    18f4:	00000115 	andeq	r0, r0, r5, lsl r1
    18f8:	00749102 	rsbseq	r9, r4, r2, lsl #2
    18fc:	001e870a 	andseq	r8, lr, sl, lsl #14
    1900:	15300100 	ldrne	r0, [r0, #-256]!	; 0x100
    1904:	58000001 	stmdapl	r0, {r0}
    1908:	68800011 	stmvs	r0, {r0, r4}
    190c:	01000000 	mrseq	r0, (UNDEF: 0)
    1910:	0001ab9c 	muleq	r1, ip, fp
    1914:	73640300 	cmnvc	r4, #0, 6
    1918:	30010074 	andcc	r0, r1, r4, ror r0
    191c:	00000115 	andeq	r0, r0, r5, lsl r1
    1920:	036c9102 	cmneq	ip, #-2147483648	; 0x80000000
    1924:	00637273 	rsbeq	r7, r3, r3, ror r2
    1928:	008d3001 	addeq	r3, sp, r1
    192c:	91020000 	mrsls	r0, (UNDEF: 2)
    1930:	00690468 	rsbeq	r0, r9, r8, ror #8
    1934:	007f3201 	rsbseq	r3, pc, r1, lsl #4
    1938:	91020000 	mrsls	r0, (UNDEF: 2)
    193c:	dd0a0074 	stcle	0, cr0, [sl, #-464]	; 0xfffffe30
    1940:	0100001e 	tsteq	r0, lr, lsl r0
    1944:	00011537 	andeq	r1, r1, r7, lsr r5
    1948:	0011c000 	andseq	ip, r1, r0
    194c:	0000b880 	andeq	fp, r0, r0, lsl #17
    1950:	f99c0100 			; <UNDEFINED> instruction: 0xf99c0100
    1954:	03000001 	movweq	r0, #1
    1958:	00747364 	rsbseq	r7, r4, r4, ror #6
    195c:	01153701 	tsteq	r5, r1, lsl #14
    1960:	91020000 	mrsls	r0, (UNDEF: 2)
    1964:	7273036c 	rsbsvc	r0, r3, #108, 6	; 0xb0000001
    1968:	37010063 	strcc	r0, [r1, -r3, rrx]
    196c:	0000008d 	andeq	r0, r0, sp, lsl #1
    1970:	03689102 	cmneq	r8, #-2147483648	; 0x80000000
    1974:	3701006e 	strcc	r0, [r1, -lr, rrx]
    1978:	0000007f 	andeq	r0, r0, pc, ror r0
    197c:	04649102 	strbteq	r9, [r4], #-258	; 0x102
    1980:	39010069 	stmdbcc	r1, {r0, r3, r5, r6}
    1984:	0000007f 	andeq	r0, r0, pc, ror r0
    1988:	00749102 	rsbseq	r9, r4, r2, lsl #2
    198c:	001ece02 	andseq	ip, lr, r2, lsl #28
    1990:	7f430100 	svcvc	0x00430100
    1994:	78000000 	stmdavc	r0, {}	; <UNPREDICTABLE>
    1998:	94800012 	strls	r0, [r0], #18
    199c:	01000000 	mrseq	r0, (UNDEF: 0)
    19a0:	00022f9c 	muleq	r2, ip, pc	; <UNPREDICTABLE>
    19a4:	73640300 	cmnvc	r4, #0, 6
    19a8:	43010074 	movwmi	r0, #4212	; 0x1074
    19ac:	0000008d 	andeq	r0, r0, sp, lsl #1
    19b0:	03749102 	cmneq	r4, #-2147483648	; 0x80000000
    19b4:	00637273 	rsbeq	r7, r3, r3, ror r2
    19b8:	008d4301 	addeq	r4, sp, r1, lsl #6
    19bc:	91020000 	mrsls	r0, (UNDEF: 2)
    19c0:	e5020070 	str	r0, [r2, #-112]	; 0x70
    19c4:	0100001e 	tsteq	r0, lr, lsl r0
    19c8:	00007f50 	andeq	r7, r0, r0, asr pc
    19cc:	00130c00 	andseq	r0, r3, r0, lsl #24
    19d0:	0000b080 	andeq	fp, r0, r0, lsl #1
    19d4:	719c0100 	orrsvc	r0, ip, r0, lsl #2
    19d8:	03000002 	movweq	r0, #2
    19dc:	00747364 	rsbseq	r7, r4, r4, ror #6
    19e0:	008d5001 	addeq	r5, sp, r1
    19e4:	91020000 	mrsls	r0, (UNDEF: 2)
    19e8:	72730374 	rsbsvc	r0, r3, #116, 6	; 0xd0000001
    19ec:	50010063 	andpl	r0, r1, r3, rrx
    19f0:	0000008d 	andeq	r0, r0, sp, lsl #1
    19f4:	03709102 	cmneq	r0, #-2147483648	; 0x80000000
    19f8:	5001006e 	andpl	r0, r1, lr, rrx
    19fc:	0000007f 	andeq	r0, r0, pc, ror r0
    1a00:	006c9102 	rsbeq	r9, ip, r2, lsl #2
    1a04:	001e6202 	andseq	r6, lr, r2, lsl #4
    1a08:	155c0100 	ldrbne	r0, [ip, #-256]	; 0x100
    1a0c:	bc000001 	stclt	0, cr0, [r0], {1}
    1a10:	7c800013 	stcvc	0, cr0, [r0], {19}
    1a14:	01000000 	mrseq	r0, (UNDEF: 0)
    1a18:	0002b19c 	muleq	r2, ip, r1
    1a1c:	74700300 	ldrbtvc	r0, [r0], #-768	; 0x300
    1a20:	5c010072 	stcpl	0, cr0, [r1], {114}	; 0x72
    1a24:	0000008d 	andeq	r0, r0, sp, lsl #1
    1a28:	036c9102 	cmneq	ip, #-2147483648	; 0x80000000
    1a2c:	5c010063 	stcpl	0, cr0, [r1], {99}	; 0x63
    1a30:	0000007f 	andeq	r0, r0, pc, ror r0
    1a34:	04689102 	strbteq	r9, [r8], #-258	; 0x102
    1a38:	5e010073 	mcrpl	0, 0, r0, cr1, cr3, {3}
    1a3c:	00000098 	muleq	r0, r8, r0
    1a40:	00779102 	rsbseq	r9, r7, r2, lsl #2
    1a44:	001ed50b 	andseq	sp, lr, fp, lsl #10
    1a48:	15650100 	strbne	r0, [r5, #-256]!	; 0x100
    1a4c:	38000001 	stmdacc	r0, {r0}
    1a50:	74800014 	strvc	r0, [r0], #20
    1a54:	01000000 	mrseq	r0, (UNDEF: 0)
    1a58:	7470039c 	ldrbtvc	r0, [r0], #-924	; 0x39c
    1a5c:	65010072 	strvs	r0, [r1, #-114]	; 0x72
    1a60:	0000008d 	andeq	r0, r0, sp, lsl #1
    1a64:	036c9102 	cmneq	ip, #-2147483648	; 0x80000000
    1a68:	65010063 	strvs	r0, [r1, #-99]	; 0x63
    1a6c:	0000007f 	andeq	r0, r0, pc, ror r0
    1a70:	0c689102 	stfeqp	f1, [r8], #-8
    1a74:	000001b8 			; <UNDEFINED> instruction: 0x000001b8
    1a78:	01156701 	tsteq	r5, r1, lsl #14
    1a7c:	91020000 	mrsls	r0, (UNDEF: 2)
    1a80:	00730474 	rsbseq	r0, r3, r4, ror r4
    1a84:	00986801 	addseq	r6, r8, r1, lsl #16
    1a88:	91020000 	mrsls	r0, (UNDEF: 2)
    1a8c:	Address 0x0000000000001a8c is out of bounds.


Disassembly of section .debug_abbrev:

00000000 <.debug_abbrev>:
   0:	25011101 	strcs	r1, [r1, #-257]	; 0x101
   4:	030b130e 	movweq	r1, #45838	; 0xb30e
   8:	110e1b0e 	tstne	lr, lr, lsl #22
   c:	10061201 	andne	r1, r6, r1, lsl #4
  10:	02000017 	andeq	r0, r0, #23
  14:	0e030016 	mcreq	0, 0, r0, cr3, cr6, {0}
  18:	0b3b0b3a 	bleq	ec2d08 <_start-0x7f13d2f8>
  1c:	00001349 	andeq	r1, r0, r9, asr #6
  20:	0b002403 	bleq	9034 <_start-0x7fff6fcc>
  24:	030b3e0b 	movweq	r3, #48651	; 0xbe0b
  28:	0400000e 	streq	r0, [r0], #-14
  2c:	0b0b0024 	bleq	2c00c4 <_start-0x7fd3ff3c>
  30:	08030b3e 	stmdaeq	r3, {r1, r2, r3, r4, r5, r8, r9, fp}
  34:	2e050000 	cdpcs	0, 0, cr0, cr5, cr0, {0}
  38:	03193f01 	tsteq	r9, #1, 30
  3c:	3b0b3a0e 	blcc	2ce87c <_start-0x7fd31784>
  40:	1119270b 	tstne	r9, fp, lsl #14
  44:	40061201 	andmi	r1, r6, r1, lsl #4
  48:	19429718 	stmdbne	r2, {r3, r4, r8, r9, sl, ip, pc}^
  4c:	00001301 	andeq	r1, r0, r1, lsl #6
  50:	03003406 	movweq	r3, #1030	; 0x406
  54:	3b0b3a08 	blcc	2ce87c <_start-0x7fd31784>
  58:	0213490b 	andseq	r4, r3, #180224	; 0x2c000
  5c:	07000018 	smladeq	r0, r8, r0, r0
  60:	13490035 	movtne	r0, #36917	; 0x9035
  64:	01000000 	mrseq	r0, (UNDEF: 0)
  68:	0e250111 	mcreq	1, 1, r0, cr5, cr1, {0}
  6c:	0e030b13 	vmoveq.32	d3[0], r0
  70:	01110e1b 	tsteq	r1, fp, lsl lr
  74:	17100612 			; <UNDEFINED> instruction: 0x17100612
  78:	16020000 	strne	r0, [r2], -r0
  7c:	3a0e0300 	bcc	380c84 <_start-0x7fc7f37c>
  80:	490b3b0b 	stmdbmi	fp, {r0, r1, r3, r8, r9, fp, ip, sp}
  84:	03000013 	movweq	r0, #19
  88:	0b0b0024 	bleq	2c0120 <_start-0x7fd3fee0>
  8c:	0e030b3e 	vmoveq.16	d3[0], r0
  90:	24040000 	strcs	r0, [r4], #-0
  94:	3e0b0b00 	vmlacc.f64	d0, d11, d0
  98:	0008030b 	andeq	r0, r8, fp, lsl #6
  9c:	01040500 	tsteq	r4, r0, lsl #10
  a0:	0b3a0b0b 	bleq	e82cd4 <_start-0x7f17d32c>
  a4:	13010b3b 	movwne	r0, #6971	; 0x1b3b
  a8:	28060000 	stmdacs	r6, {}	; <UNPREDICTABLE>
  ac:	1c0e0300 	stcne	3, cr0, [lr], {-0}
  b0:	0700000d 	streq	r0, [r0, -sp]
  b4:	193f012e 	ldmdbne	pc!, {r1, r2, r3, r5, r8}	; <UNPREDICTABLE>
  b8:	0b3a0e03 	bleq	e838cc <_start-0x7f17c734>
  bc:	19270b3b 	stmdbne	r7!, {r0, r1, r3, r4, r5, r8, r9, fp}
  c0:	06120111 			; <UNDEFINED> instruction: 0x06120111
  c4:	42971840 	addsmi	r1, r7, #64, 16	; 0x400000
  c8:	00130119 	andseq	r0, r3, r9, lsl r1
  cc:	00050800 	andeq	r0, r5, r0, lsl #16
  d0:	0b3a0e03 	bleq	e838e4 <_start-0x7f17c71c>
  d4:	13490b3b 	movtne	r0, #39739	; 0x9b3b
  d8:	00001802 	andeq	r1, r0, r2, lsl #16
  dc:	03000509 	movweq	r0, #1289	; 0x509
  e0:	3b0b3a08 	blcc	2ce908 <_start-0x7fd316f8>
  e4:	0213490b 	andseq	r4, r3, #180224	; 0x2c000
  e8:	0a000018 	beq	150 <_start-0x7ffffeb0>
  ec:	193f012e 	ldmdbne	pc!, {r1, r2, r3, r5, r8}	; <UNPREDICTABLE>
  f0:	0b3a0e03 	bleq	e83904 <_start-0x7f17c6fc>
  f4:	19270b3b 	stmdbne	r7!, {r0, r1, r3, r4, r5, r8, r9, fp}
  f8:	01111349 	tsteq	r1, r9, asr #6
  fc:	18400612 	stmdane	r0, {r1, r4, r9, sl}^
 100:	01194297 			; <UNDEFINED> instruction: 0x01194297
 104:	0b000013 	bleq	158 <_start-0x7ffffea8>
 108:	193f012e 	ldmdbne	pc!, {r1, r2, r3, r5, r8}	; <UNPREDICTABLE>
 10c:	0b3a0e03 	bleq	e83920 <_start-0x7f17c6e0>
 110:	01110b3b 	tsteq	r1, fp, lsr fp
 114:	18400612 	stmdane	r0, {r1, r4, r9, sl}^
 118:	00194296 	mulseq	r9, r6, r2
 11c:	00340c00 	eorseq	r0, r4, r0, lsl #24
 120:	0b3a0e03 	bleq	e83934 <_start-0x7f17c6cc>
 124:	13490b3b 	movtne	r0, #39739	; 0x9b3b
 128:	00001802 	andeq	r1, r0, r2, lsl #16
 12c:	01110100 	tsteq	r1, r0, lsl #2
 130:	0b130e25 	bleq	4c39cc <_start-0x7fb3c634>
 134:	0e1b0e03 	cdpeq	14, 1, cr0, cr11, cr3, {0}
 138:	06120111 			; <UNDEFINED> instruction: 0x06120111
 13c:	00001710 	andeq	r1, r0, r0, lsl r7
 140:	03001602 	movweq	r1, #1538	; 0x602
 144:	3b0b3a0e 	blcc	2ce984 <_start-0x7fd3167c>
 148:	0013490b 	andseq	r4, r3, fp, lsl #18
 14c:	00240300 	eoreq	r0, r4, r0, lsl #6
 150:	0b3e0b0b 	bleq	f82d84 <_start-0x7f07d27c>
 154:	00000e03 	andeq	r0, r0, r3, lsl #28
 158:	0b002404 	bleq	9170 <_start-0x7fff6e90>
 15c:	030b3e0b 	movweq	r3, #48651	; 0xbe0b
 160:	05000008 	streq	r0, [r0, #-8]
 164:	0b0b0104 	bleq	2c057c <_start-0x7fd3fa84>
 168:	0b3b0b3a 	bleq	ec2e58 <_start-0x7f13d1a8>
 16c:	00001301 	andeq	r1, r0, r1, lsl #6
 170:	03002806 	movweq	r2, #2054	; 0x806
 174:	000d1c0e 	andeq	r1, sp, lr, lsl #24
 178:	012e0700 	teqeq	lr, r0, lsl #14
 17c:	0e03193f 	mcreq	9, 0, r1, cr3, cr15, {1}
 180:	0b3b0b3a 	bleq	ec2e70 <_start-0x7f13d190>
 184:	01111927 	tsteq	r1, r7, lsr #18
 188:	18400612 	stmdane	r0, {r1, r4, r9, sl}^
 18c:	01194297 			; <UNDEFINED> instruction: 0x01194297
 190:	08000013 	stmdaeq	r0, {r0, r1, r4}
 194:	0e030005 	cdpeq	0, 0, cr0, cr3, cr5, {0}
 198:	0b3b0b3a 	bleq	ec2e88 <_start-0x7f13d178>
 19c:	18021349 	stmdane	r2, {r0, r3, r6, r8, r9, ip}
 1a0:	2e090000 	cdpcs	0, 0, cr0, cr9, cr0, {0}
 1a4:	03193f01 	tsteq	r9, #1, 30
 1a8:	3b0b3a0e 	blcc	2ce9e8 <_start-0x7fd31618>
 1ac:	4919270b 	ldmdbmi	r9, {r0, r1, r3, r8, r9, sl, sp}
 1b0:	12011113 	andne	r1, r1, #-1073741820	; 0xc0000004
 1b4:	97184006 	ldrls	r4, [r8, -r6]
 1b8:	13011942 	movwne	r1, #6466	; 0x1942
 1bc:	2e0a0000 	cdpcs	0, 0, cr0, cr10, cr0, {0}
 1c0:	03193f01 	tsteq	r9, #1, 30
 1c4:	3b0b3a0e 	blcc	2cea04 <_start-0x7fd315fc>
 1c8:	1119270b 	tstne	r9, fp, lsl #14
 1cc:	40061201 	andmi	r1, r6, r1, lsl #4
 1d0:	19429618 	stmdbne	r2, {r3, r4, r9, sl, ip, pc}^
 1d4:	00001301 	andeq	r1, r0, r1, lsl #6
 1d8:	0300340b 	movweq	r3, #1035	; 0x40b
 1dc:	3b0b3a0e 	blcc	2cea1c <_start-0x7fd315e4>
 1e0:	0213490b 	andseq	r4, r3, #180224	; 0x2c000
 1e4:	0c000018 	stceq	0, cr0, [r0], {24}
 1e8:	193f002e 	ldmdbne	pc!, {r1, r2, r3, r5}	; <UNPREDICTABLE>
 1ec:	0b3a0e03 	bleq	e83a00 <_start-0x7f17c600>
 1f0:	01110b3b 	tsteq	r1, fp, lsr fp
 1f4:	18400612 	stmdane	r0, {r1, r4, r9, sl}^
 1f8:	00194296 	mulseq	r9, r6, r2
 1fc:	11010000 	mrsne	r0, (UNDEF: 1)
 200:	130e2501 	movwne	r2, #58625	; 0xe501
 204:	1b0e030b 	blne	380e38 <_start-0x7fc7f1c8>
 208:	1201110e 	andne	r1, r1, #-2147483645	; 0x80000003
 20c:	00171006 	andseq	r1, r7, r6
 210:	01130200 	tsteq	r3, r0, lsl #4
 214:	0b3a0b0b 	bleq	e82e48 <_start-0x7f17d1b8>
 218:	13010b3b 	movwne	r0, #6971	; 0x1b3b
 21c:	0d030000 	stceq	0, cr0, [r3, #-0]
 220:	3a0e0300 	bcc	380e28 <_start-0x7fc7f1d8>
 224:	490b3b0b 	stmdbmi	fp, {r0, r1, r3, r8, r9, fp, ip, sp}
 228:	000b3813 	andeq	r3, fp, r3, lsl r8
 22c:	000d0400 	andeq	r0, sp, r0, lsl #8
 230:	0b3a0803 	bleq	e82244 <_start-0x7f17ddbc>
 234:	13490b3b 	movtne	r0, #39739	; 0x9b3b
 238:	00000b38 	andeq	r0, r0, r8, lsr fp
 23c:	0b002405 	bleq	9258 <_start-0x7fff6da8>
 240:	030b3e0b 	movweq	r3, #48651	; 0xbe0b
 244:	06000008 	streq	r0, [r0], -r8
 248:	0e030016 	mcreq	0, 0, r0, cr3, cr6, {0}
 24c:	0b3b0b3a 	bleq	ec2f3c <_start-0x7f13d0c4>
 250:	00001349 	andeq	r1, r0, r9, asr #6
 254:	3f012e07 	svccc	0x00012e07
 258:	3a0e0319 	bcc	380ec4 <_start-0x7fc7f13c>
 25c:	270b3b0b 	strcs	r3, [fp, -fp, lsl #22]
 260:	11134919 	tstne	r3, r9, lsl r9
 264:	40061201 	andmi	r1, r6, r1, lsl #4
 268:	19429718 	stmdbne	r2, {r3, r4, r8, r9, sl, ip, pc}^
 26c:	00001301 	andeq	r1, r0, r1, lsl #6
 270:	03000508 	movweq	r0, #1288	; 0x508
 274:	3b0b3a08 	blcc	2cea9c <_start-0x7fd31564>
 278:	0213490b 	andseq	r4, r3, #180224	; 0x2c000
 27c:	09000018 	stmdbeq	r0, {r3, r4}
 280:	0e030005 	cdpeq	0, 0, cr0, cr3, cr5, {0}
 284:	0b3b0b3a 	bleq	ec2f74 <_start-0x7f13d08c>
 288:	18021349 	stmdane	r2, {r0, r3, r6, r8, r9, ip}
 28c:	340a0000 	strcc	r0, [sl], #-0
 290:	3a080300 	bcc	200e98 <_start-0x7fdff168>
 294:	490b3b0b 	stmdbmi	fp, {r0, r1, r3, r8, r9, fp, ip, sp}
 298:	00180213 	andseq	r0, r8, r3, lsl r2
 29c:	012e0b00 	teqeq	lr, r0, lsl #22
 2a0:	0e03193f 	mcreq	9, 0, r1, cr3, cr15, {1}
 2a4:	0b3b0b3a 	bleq	ec2f94 <_start-0x7f13d06c>
 2a8:	13491927 	movtne	r1, #39207	; 0x9927
 2ac:	06120111 			; <UNDEFINED> instruction: 0x06120111
 2b0:	42971840 	addsmi	r1, r7, #64, 16	; 0x400000
 2b4:	00000019 	andeq	r0, r0, r9, lsl r0
 2b8:	25011101 	strcs	r1, [r1, #-257]	; 0x101
 2bc:	030b130e 	movweq	r1, #45838	; 0xb30e
 2c0:	110e1b0e 	tstne	lr, lr, lsl #22
 2c4:	10061201 	andne	r1, r6, r1, lsl #4
 2c8:	02000017 	andeq	r0, r0, #23
 2cc:	0b0b0024 	bleq	2c0364 <_start-0x7fd3fc9c>
 2d0:	0e030b3e 	vmoveq.16	d3[0], r0
 2d4:	24030000 	strcs	r0, [r3], #-0
 2d8:	3e0b0b00 	vmlacc.f64	d0, d11, d0
 2dc:	0008030b 	andeq	r0, r8, fp, lsl #6
 2e0:	01040400 	tsteq	r4, r0, lsl #8
 2e4:	0b3a0b0b 	bleq	e82f18 <_start-0x7f17d0e8>
 2e8:	13010b3b 	movwne	r0, #6971	; 0x1b3b
 2ec:	28050000 	stmdacs	r5, {}	; <UNPREDICTABLE>
 2f0:	1c0e0300 	stcne	3, cr0, [lr], {-0}
 2f4:	0600000d 	streq	r0, [r0], -sp
 2f8:	0e030016 	mcreq	0, 0, r0, cr3, cr6, {0}
 2fc:	0b3b0b3a 	bleq	ec2fec <_start-0x7f13d014>
 300:	00001349 	andeq	r1, r0, r9, asr #6
 304:	0b000f07 	bleq	3f28 <_start-0x7fffc0d8>
 308:	0013490b 	andseq	r4, r3, fp, lsl #18
 30c:	01150800 	tsteq	r5, r0, lsl #16
 310:	13011927 	movwne	r1, #6439	; 0x1927
 314:	05090000 	streq	r0, [r9, #-0]
 318:	00134900 	andseq	r4, r3, r0, lsl #18
 31c:	012e0a00 	teqeq	lr, r0, lsl #20
 320:	0e03193f 	mcreq	9, 0, r1, cr3, cr15, {1}
 324:	0b3b0b3a 	bleq	ec3014 <_start-0x7f13cfec>
 328:	01111927 	tsteq	r1, r7, lsr #18
 32c:	18400612 	stmdane	r0, {r1, r4, r9, sl}^
 330:	01194296 			; <UNDEFINED> instruction: 0x01194296
 334:	0b000013 	bleq	388 <_start-0x7ffffc78>
 338:	08030005 	stmdaeq	r3, {r0, r2}
 33c:	0b3b0b3a 	bleq	ec302c <_start-0x7f13cfd4>
 340:	18021349 	stmdane	r2, {r0, r3, r6, r8, r9, ip}
 344:	180c0000 	stmdane	ip, {}	; <UNPREDICTABLE>
 348:	0d000000 	stceq	0, cr0, [r0, #-0]
 34c:	08030034 	stmdaeq	r3, {r2, r4, r5}
 350:	0b3b0b3a 	bleq	ec3040 <_start-0x7f13cfc0>
 354:	18021349 	stmdane	r2, {r0, r3, r6, r8, r9, ip}
 358:	260e0000 	strcs	r0, [lr], -r0
 35c:	00134900 	andseq	r4, r3, r0, lsl #18
 360:	01130f00 	tsteq	r3, r0, lsl #30
 364:	0b0b0e03 	bleq	2c3b78 <_start-0x7fd3c488>
 368:	0b3b0b3a 	bleq	ec3058 <_start-0x7f13cfa8>
 36c:	00001301 	andeq	r1, r0, r1, lsl #6
 370:	03000d10 	movweq	r0, #3344	; 0xd10
 374:	3813490e 	ldmdacc	r3, {r1, r2, r3, r8, fp, lr}
 378:	0019340b 	andseq	r3, r9, fp, lsl #8
 37c:	000f1100 	andeq	r1, pc, r0, lsl #2
 380:	00000b0b 	andeq	r0, r0, fp, lsl #22
 384:	3f002e12 	svccc	0x00002e12
 388:	3a0e0319 	bcc	380ff4 <_start-0x7fc7f00c>
 38c:	270b3b0b 	strcs	r3, [fp, -fp, lsl #22]
 390:	12011119 	andne	r1, r1, #1073741830	; 0x40000006
 394:	96184006 	ldrls	r4, [r8], -r6
 398:	00001942 	andeq	r1, r0, r2, asr #18
 39c:	03003413 	movweq	r3, #1043	; 0x413
 3a0:	3b0b3a0e 	blcc	2cebe0 <_start-0x7fd31420>
 3a4:	3f13490b 	svccc	0x0013490b
 3a8:	00193c19 	andseq	r3, r9, r9, lsl ip
 3ac:	11010000 	mrsne	r0, (UNDEF: 1)
 3b0:	130e2501 	movwne	r2, #58625	; 0xe501
 3b4:	1b0e030b 	blne	380fe8 <_start-0x7fc7f018>
 3b8:	1201110e 	andne	r1, r1, #-2147483645	; 0x80000003
 3bc:	00171006 	andseq	r1, r7, r6
 3c0:	00160200 	andseq	r0, r6, r0, lsl #4
 3c4:	0b3a0e03 	bleq	e83bd8 <_start-0x7f17c428>
 3c8:	13490b3b 	movtne	r0, #39739	; 0x9b3b
 3cc:	24030000 	strcs	r0, [r3], #-0
 3d0:	3e0b0b00 	vmlacc.f64	d0, d11, d0
 3d4:	000e030b 	andeq	r0, lr, fp, lsl #6
 3d8:	00240400 	eoreq	r0, r4, r0, lsl #8
 3dc:	0b3e0b0b 	bleq	f83010 <_start-0x7f07cff0>
 3e0:	00000803 	andeq	r0, r0, r3, lsl #16
 3e4:	0b010405 	bleq	41400 <_start-0x7ffbec00>
 3e8:	3b0b3a0b 	blcc	2cec1c <_start-0x7fd313e4>
 3ec:	0013010b 	andseq	r0, r3, fp, lsl #2
 3f0:	00280600 	eoreq	r0, r8, r0, lsl #12
 3f4:	0d1c0803 	ldceq	8, cr0, [ip, #-12]
 3f8:	28070000 	stmdacs	r7, {}	; <UNPREDICTABLE>
 3fc:	1c0e0300 	stcne	3, cr0, [lr], {-0}
 400:	0800000d 	stmdaeq	r0, {r0, r2, r3}
 404:	193f012e 	ldmdbne	pc!, {r1, r2, r3, r5, r8}	; <UNPREDICTABLE>
 408:	0b3a0e03 	bleq	e83c1c <_start-0x7f17c3e4>
 40c:	01110b3b 	tsteq	r1, fp, lsr fp
 410:	18400612 	stmdane	r0, {r1, r4, r9, sl}^
 414:	01194296 			; <UNDEFINED> instruction: 0x01194296
 418:	09000013 	stmdbeq	r0, {r0, r1, r4}
 41c:	0e030034 	mcreq	0, 0, r0, cr3, cr4, {1}
 420:	0b3b0b3a 	bleq	ec3110 <_start-0x7f13cef0>
 424:	18021349 	stmdane	r2, {r0, r3, r6, r8, r9, ip}
 428:	2e0a0000 	cdpcs	0, 0, cr0, cr10, cr0, {0}
 42c:	03193f01 	tsteq	r9, #1, 30
 430:	3b0b3a0e 	blcc	2cec70 <_start-0x7fd31390>
 434:	1119270b 	tstne	r9, fp, lsl #14
 438:	40061201 	andmi	r1, r6, r1, lsl #4
 43c:	19429718 	stmdbne	r2, {r3, r4, r8, r9, sl, ip, pc}^
 440:	00001301 	andeq	r1, r0, r1, lsl #6
 444:	0300050b 	movweq	r0, #1291	; 0x50b
 448:	3b0b3a0e 	blcc	2cec88 <_start-0x7fd31378>
 44c:	0213490b 	andseq	r4, r3, #180224	; 0x2c000
 450:	0c000018 	stceq	0, cr0, [r0], {24}
 454:	08030034 	stmdaeq	r3, {r2, r4, r5}
 458:	0b3b0b3a 	bleq	ec3148 <_start-0x7f13ceb8>
 45c:	18021349 	stmdane	r2, {r0, r3, r6, r8, r9, ip}
 460:	2e0d0000 	cdpcs	0, 0, cr0, cr13, cr0, {0}
 464:	03193f01 	tsteq	r9, #1, 30
 468:	3b0b3a0e 	blcc	2ceca8 <_start-0x7fd31358>
 46c:	1119270b 	tstne	r9, fp, lsl #14
 470:	40061201 	andmi	r1, r6, r1, lsl #4
 474:	19429618 	stmdbne	r2, {r3, r4, r9, sl, ip, pc}^
 478:	00001301 	andeq	r1, r0, r1, lsl #6
 47c:	0300050e 	movweq	r0, #1294	; 0x50e
 480:	3b0b3a08 	blcc	2ceca8 <_start-0x7fd31358>
 484:	0213490b 	andseq	r4, r3, #180224	; 0x2c000
 488:	0f000018 	svceq	0x00000018
 48c:	193f002e 	ldmdbne	pc!, {r1, r2, r3, r5}	; <UNPREDICTABLE>
 490:	0b3a0e03 	bleq	e83ca4 <_start-0x7f17c35c>
 494:	13490b3b 	movtne	r0, #39739	; 0x9b3b
 498:	06120111 			; <UNDEFINED> instruction: 0x06120111
 49c:	42971840 	addsmi	r1, r7, #64, 16	; 0x400000
 4a0:	10000019 	andne	r0, r0, r9, lsl r0
 4a4:	193f012e 	ldmdbne	pc!, {r1, r2, r3, r5, r8}	; <UNPREDICTABLE>
 4a8:	0b3a0e03 	bleq	e83cbc <_start-0x7f17c344>
 4ac:	19270b3b 	stmdbne	r7!, {r0, r1, r3, r4, r5, r8, r9, fp}
 4b0:	01111349 	tsteq	r1, r9, asr #6
 4b4:	18400612 	stmdane	r0, {r1, r4, r9, sl}^
 4b8:	01194296 			; <UNDEFINED> instruction: 0x01194296
 4bc:	11000013 	tstne	r0, r3, lsl r0
 4c0:	0111010b 	tsteq	r1, fp, lsl #2
 4c4:	00000612 	andeq	r0, r0, r2, lsl r6
 4c8:	0b000f12 	bleq	4118 <_start-0x7fffbee8>
 4cc:	0013490b 	andseq	r4, r3, fp, lsl #18
 4d0:	00341300 	eorseq	r1, r4, r0, lsl #6
 4d4:	0b3a0e03 	bleq	e83ce8 <_start-0x7f17c318>
 4d8:	13490b3b 	movtne	r0, #39739	; 0x9b3b
 4dc:	1802193f 	stmdane	r2, {r0, r1, r2, r3, r4, r5, r8, fp, ip}
 4e0:	01000000 	mrseq	r0, (UNDEF: 0)
 4e4:	0e250111 	mcreq	1, 1, r0, cr5, cr1, {0}
 4e8:	0e030b13 	vmoveq.32	d3[0], r0
 4ec:	01110e1b 	tsteq	r1, fp, lsl lr
 4f0:	17100612 			; <UNDEFINED> instruction: 0x17100612
 4f4:	16020000 	strne	r0, [r2], -r0
 4f8:	3a0e0300 	bcc	381100 <_start-0x7fc7ef00>
 4fc:	490b3b0b 	stmdbmi	fp, {r0, r1, r3, r8, r9, fp, ip, sp}
 500:	03000013 	movweq	r0, #19
 504:	0b0b000f 	bleq	2c0548 <_start-0x7fd3fab8>
 508:	00001349 	andeq	r1, r0, r9, asr #6
 50c:	27011504 	strcs	r1, [r1, -r4, lsl #10]
 510:	00130119 	andseq	r0, r3, r9, lsl r1
 514:	00050500 	andeq	r0, r5, r0, lsl #10
 518:	00001349 	andeq	r1, r0, r9, asr #6
 51c:	0b002406 	bleq	953c <_start-0x7fff6ac4>
 520:	030b3e0b 	movweq	r3, #48651	; 0xbe0b
 524:	0700000e 	streq	r0, [r0, -lr]
 528:	0e03012e 	adfeqsp	f0, f3, #0.5
 52c:	0b3b0b3a 	bleq	ec321c <_start-0x7f13cde4>
 530:	01111927 	tsteq	r1, r7, lsr #18
 534:	18400612 	stmdane	r0, {r1, r4, r9, sl}^
 538:	01194296 			; <UNDEFINED> instruction: 0x01194296
 53c:	08000013 	stmdaeq	r0, {r0, r1, r4}
 540:	08030005 	stmdaeq	r3, {r0, r2}
 544:	0b3b0b3a 	bleq	ec3234 <_start-0x7f13cdcc>
 548:	18021349 	stmdane	r2, {r0, r3, r6, r8, r9, ip}
 54c:	05090000 	streq	r0, [r9, #-0]
 550:	3a0e0300 	bcc	381158 <_start-0x7fc7eea8>
 554:	490b3b0b 	stmdbmi	fp, {r0, r1, r3, r8, r9, fp, ip, sp}
 558:	00180213 	andseq	r0, r8, r3, lsl r2
 55c:	00340a00 	eorseq	r0, r4, r0, lsl #20
 560:	0b3a0803 	bleq	e82574 <_start-0x7f17da8c>
 564:	13490b3b 	movtne	r0, #39739	; 0x9b3b
 568:	00001802 	andeq	r1, r0, r2, lsl #16
 56c:	0300340b 	movweq	r3, #1035	; 0x40b
 570:	3b0b3a0e 	blcc	2cedb0 <_start-0x7fd31250>
 574:	0213490b 	andseq	r4, r3, #180224	; 0x2c000
 578:	0c000018 	stceq	0, cr0, [r0], {24}
 57c:	13490026 	movtne	r0, #36902	; 0x9026
 580:	240d0000 	strcs	r0, [sp], #-0
 584:	3e0b0b00 	vmlacc.f64	d0, d11, d0
 588:	0008030b 	andeq	r0, r8, fp, lsl #6
 58c:	010b0e00 	tsteq	fp, r0, lsl #28
 590:	06120111 			; <UNDEFINED> instruction: 0x06120111
 594:	2e0f0000 	cdpcs	0, 0, cr0, cr15, cr0, {0}
 598:	03193f01 	tsteq	r9, #1, 30
 59c:	3b0b3a0e 	blcc	2ceddc <_start-0x7fd31224>
 5a0:	1119270b 	tstne	r9, fp, lsl #14
 5a4:	40061201 	andmi	r1, r6, r1, lsl #4
 5a8:	19429618 	stmdbne	r2, {r3, r4, r9, sl, ip, pc}^
 5ac:	00001301 	andeq	r1, r0, r1, lsl #6
 5b0:	03000a10 	movweq	r0, #2576	; 0xa10
 5b4:	3b0b3a0e 	blcc	2cedf4 <_start-0x7fd3120c>
 5b8:	0001110b 	andeq	r1, r1, fp, lsl #2
 5bc:	010b1100 	mrseq	r1, (UNDEF: 27)
 5c0:	06120111 			; <UNDEFINED> instruction: 0x06120111
 5c4:	00001301 	andeq	r1, r0, r1, lsl #6
 5c8:	03011312 	movweq	r1, #4882	; 0x1312
 5cc:	3a0b0b0e 	bcc	2c320c <_start-0x7fd3cdf4>
 5d0:	010b3b0b 	tsteq	fp, fp, lsl #22
 5d4:	13000013 	movwne	r0, #19
 5d8:	0e03000d 	cdpeq	0, 0, cr0, cr3, cr13, {0}
 5dc:	0b381349 	bleq	e05308 <_start-0x7f1facf8>
 5e0:	00001934 	andeq	r1, r0, r4, lsr r9
 5e4:	0b000f14 	bleq	423c <_start-0x7fffbdc4>
 5e8:	0000000b 	andeq	r0, r0, fp
 5ec:	25011101 	strcs	r1, [r1, #-257]	; 0x101
 5f0:	030b130e 	movweq	r1, #45838	; 0xb30e
 5f4:	110e1b0e 	tstne	lr, lr, lsl #22
 5f8:	10061201 	andne	r1, r6, r1, lsl #4
 5fc:	02000017 	andeq	r0, r0, #23
 600:	193f012e 	ldmdbne	pc!, {r1, r2, r3, r5, r8}	; <UNPREDICTABLE>
 604:	0b3a0e03 	bleq	e83e18 <_start-0x7f17c1e8>
 608:	19270b3b 	stmdbne	r7!, {r0, r1, r3, r4, r5, r8, r9, fp}
 60c:	01111349 	tsteq	r1, r9, asr #6
 610:	18400612 	stmdane	r0, {r1, r4, r9, sl}^
 614:	01194297 			; <UNDEFINED> instruction: 0x01194297
 618:	03000013 	movweq	r0, #19
 61c:	08030005 	stmdaeq	r3, {r0, r2}
 620:	0b3b0b3a 	bleq	ec3310 <_start-0x7f13ccf0>
 624:	18021349 	stmdane	r2, {r0, r3, r6, r8, r9, ip}
 628:	34040000 	strcc	r0, [r4], #-0
 62c:	3a080300 	bcc	201234 <_start-0x7fdfedcc>
 630:	490b3b0b 	stmdbmi	fp, {r0, r1, r3, r8, r9, fp, ip, sp}
 634:	00180213 	andseq	r0, r8, r3, lsl r2
 638:	00240500 	eoreq	r0, r4, r0, lsl #10
 63c:	0b3e0b0b 	bleq	f83270 <_start-0x7f07cd90>
 640:	00000803 	andeq	r0, r0, r3, lsl #16
 644:	0b000f06 	bleq	4264 <_start-0x7fffbd9c>
 648:	0013490b 	andseq	r4, r3, fp, lsl #18
 64c:	00260700 	eoreq	r0, r6, r0, lsl #14
 650:	26080000 	strcs	r0, [r8], -r0
 654:	00134900 	andseq	r4, r3, r0, lsl #18
 658:	00240900 	eoreq	r0, r4, r0, lsl #18
 65c:	0b3e0b0b 	bleq	f83290 <_start-0x7f07cd70>
 660:	00000e03 	andeq	r0, r0, r3, lsl #28
 664:	3f012e0a 	svccc	0x00012e0a
 668:	3a0e0319 	bcc	3812d4 <_start-0x7fc7ed2c>
 66c:	270b3b0b 	strcs	r3, [fp, -fp, lsl #22]
 670:	11134919 	tstne	r3, r9, lsl r9
 674:	40061201 	andmi	r1, r6, r1, lsl #4
 678:	19429618 	stmdbne	r2, {r3, r4, r9, sl, ip, pc}^
 67c:	00001301 	andeq	r1, r0, r1, lsl #6
 680:	3f012e0b 	svccc	0x00012e0b
 684:	3a0e0319 	bcc	3812f0 <_start-0x7fc7ed10>
 688:	270b3b0b 	strcs	r3, [fp, -fp, lsl #22]
 68c:	11134919 	tstne	r3, r9, lsl r9
 690:	40061201 	andmi	r1, r6, r1, lsl #4
 694:	19429718 	stmdbne	r2, {r3, r4, r8, r9, sl, ip, pc}^
 698:	340c0000 	strcc	r0, [ip], #-0
 69c:	3a0e0300 	bcc	3812a4 <_start-0x7fc7ed5c>
 6a0:	490b3b0b 	stmdbmi	fp, {r0, r1, r3, r8, r9, fp, ip, sp}
 6a4:	00180213 	andseq	r0, r8, r3, lsl r2
	...

Disassembly of section .debug_aranges:

00000000 <.debug_aranges>:
   0:	0000001c 	andeq	r0, r0, ip, lsl r0
   4:	00000002 	andeq	r0, r0, r2
   8:	00040000 	andeq	r0, r4, r0
   c:	00000000 	andeq	r0, r0, r0
  10:	8000003c 	andhi	r0, r0, ip, lsr r0
  14:	00000068 	andeq	r0, r0, r8, rrx
	...
  20:	0000001c 	andeq	r0, r0, ip, lsl r0
  24:	00830002 	addeq	r0, r3, r2
  28:	00040000 	andeq	r0, r4, r0
  2c:	00000000 	andeq	r0, r0, r0
  30:	800000a4 	andhi	r0, r0, r4, lsr #1
  34:	00000148 	andeq	r0, r0, r8, asr #2
	...
  40:	0000001c 	andeq	r0, r0, ip, lsl r0
  44:	04f30002 	ldrbteq	r0, [r3], #2
  48:	00040000 	andeq	r0, r4, r0
  4c:	00000000 	andeq	r0, r0, r0
  50:	800001ec 	andhi	r0, r0, ip, ror #3
  54:	000000e8 	andeq	r0, r0, r8, ror #1
	...
  60:	0000001c 	andeq	r0, r0, ip, lsl r0
  64:	0bf90002 	bleq	ffe40074 <value+0x7fe3eb74>
  68:	00040000 	andeq	r0, r4, r0
  6c:	00000000 	andeq	r0, r0, r0
  70:	800002d4 	ldrdhi	r0, [r0], -r4
  74:	000000e0 	andeq	r0, r0, r0, ror #1
	...
  80:	0000001c 	andeq	r0, r0, ip, lsl r0
  84:	0cde0002 	ldcleq	0, cr0, [lr], {2}
  88:	00040000 	andeq	r0, r4, r0
  8c:	00000000 	andeq	r0, r0, r0
  90:	800003b4 			; <UNDEFINED> instruction: 0x800003b4
  94:	000000fc 	strdeq	r0, [r0], -ip
	...
  a0:	0000001c 	andeq	r0, r0, ip, lsl r0
  a4:	0e140002 	cdpeq	0, 1, cr0, cr4, cr2, {0}
  a8:	00040000 	andeq	r0, r4, r0
  ac:	00000000 	andeq	r0, r0, r0
  b0:	800004b0 			; <UNDEFINED> instruction: 0x800004b0
  b4:	00000408 	andeq	r0, r0, r8, lsl #8
	...
  c0:	0000001c 	andeq	r0, r0, ip, lsl r0
  c4:	14fe0002 	ldrbtne	r0, [lr], #2
  c8:	00040000 	andeq	r0, r4, r0
  cc:	00000000 	andeq	r0, r0, r0
  d0:	800008b8 			; <UNDEFINED> instruction: 0x800008b8
  d4:	000006a0 	andeq	r0, r0, r0, lsr #13
	...
  e0:	0000001c 	andeq	r0, r0, ip, lsl r0
  e4:	17930002 	ldrne	r0, [r3, r2]
  e8:	00040000 	andeq	r0, r4, r0
  ec:	00000000 	andeq	r0, r0, r0
  f0:	80000f58 	andhi	r0, r0, r8, asr pc
  f4:	00000554 	andeq	r0, r0, r4, asr r5
	...

Disassembly of section .debug_line:

00000000 <.debug_line>:
   0:	00000041 	andeq	r0, r0, r1, asr #32
   4:	00280002 	eoreq	r0, r8, r2
   8:	01020000 	mrseq	r0, (UNDEF: 2)
   c:	000d0efb 	strdeq	r0, [sp], -fp
  10:	01010101 	tsteq	r1, r1, lsl #2
  14:	01000000 	mrseq	r0, (UNDEF: 0)
  18:	00010000 	andeq	r0, r1, r0
  1c:	4f495047 	svcmi	0x00495047
  20:	0000632e 	andeq	r6, r0, lr, lsr #6
  24:	79740000 	ldmdbvc	r4!, {}^	; <UNPREDICTABLE>
  28:	2e736570 	mrccs	5, 3, r6, cr3, cr0, {3}
  2c:	00000068 	andeq	r0, r0, r8, rrx
  30:	05000000 	streq	r0, [r0, #-0]
  34:	00003c02 	andeq	r3, r0, r2, lsl #24
  38:	9f6b1580 	svcls	0x006b1580
  3c:	83846783 	orrhi	r6, r4, #34340864	; 0x20c0000
  40:	01000602 	tsteq	r0, r2, lsl #12
  44:	00005c01 	andeq	r5, r0, r1, lsl #24
  48:	34000200 	strcc	r0, [r0], #-512	; 0x200
  4c:	02000000 	andeq	r0, r0, #0
  50:	0d0efb01 	vstreq	d15, [lr, #-4]
  54:	01010100 	mrseq	r0, (UNDEF: 17)
  58:	00000001 	andeq	r0, r0, r1
  5c:	01000001 	tsteq	r0, r1
  60:	6f6c6300 	svcvs	0x006c6300
  64:	632e6b63 	teqvs	lr, #101376	; 0x18c00
  68:	00000000 	andeq	r0, r0, r0
  6c:	65707974 	ldrbvs	r7, [r0, #-2420]!	; 0x974
  70:	00682e73 	rsbeq	r2, r8, r3, ror lr
  74:	63000000 	movwvs	r0, #0
  78:	6b636f6c 	blvs	18dbe30 <_start-0x7e7241d0>
  7c:	0000682e 	andeq	r6, r0, lr, lsr #16
  80:	00000000 	andeq	r0, r0, r0
  84:	00a40205 	adceq	r0, r4, r5, lsl #4
  88:	d8158000 	ldmdale	r5, {pc}
  8c:	83bb699f 			; <UNDEFINED> instruction: 0x83bb699f
  90:	679f6a85 	ldrvs	r6, [pc, r5, lsl #21]
  94:	679fa167 	ldrvs	sl, [pc, r7, ror #2]
  98:	679fa167 	ldrvs	sl, [pc, r7, ror #2]
  9c:	9e0c0367 	cdpls	3, 0, cr0, cr12, cr7, {3}
  a0:	01000402 	tsteq	r0, r2, lsl #8
  a4:	00006801 	andeq	r6, r0, r1, lsl #16
  a8:	46000200 	strmi	r0, [r0], -r0, lsl #4
  ac:	02000000 	andeq	r0, r0, #0
  b0:	0d0efb01 	vstreq	d15, [lr, #-4]
  b4:	01010100 	mrseq	r0, (UNDEF: 17)
  b8:	00000001 	andeq	r0, r0, r1
  bc:	01000001 	tsteq	r0, r1
  c0:	6e6f6300 	cdpvs	3, 6, cr6, cr15, cr0, {0}
  c4:	6c6f7274 	sfmvs	f7, 2, [pc], #-464	; fffffefc <value+0x7fffe9fc>
  c8:	646f6d5f 	strbtvs	r6, [pc], #-3423	; d0 <_start-0x7fffff30>
  cc:	2e656c75 	mcrcs	12, 3, r6, cr5, cr5, {3}
  d0:	00000063 	andeq	r0, r0, r3, rrx
  d4:	70797400 	rsbsvc	r7, r9, r0, lsl #8
  d8:	682e7365 	stmdavs	lr!, {r0, r2, r5, r6, r8, r9, ip, sp, lr}
  dc:	00000000 	andeq	r0, r0, r0
  e0:	746e6f63 	strbtvc	r6, [lr], #-3939	; 0xf63
  e4:	5f6c6f72 	svcpl	0x006c6f72
  e8:	75646f6d 	strbvc	r6, [r4, #-3949]!	; 0xf6d
  ec:	682e656c 	stmdavs	lr!, {r2, r3, r5, r6, r8, sl, sp, lr}
  f0:	00000000 	andeq	r0, r0, r0
  f4:	02050000 	andeq	r0, r5, #0
  f8:	800001ec 	andhi	r0, r0, ip, ror #3
  fc:	699fbc15 	ldmibvs	pc, {r0, r2, r4, sl, fp, ip, sp, pc}	; <UNPREDICTABLE>
 100:	bb85839f 	bllt	fe160f84 <value+0x7e15fa84>
 104:	85836767 	strhi	r6, [r3, #1895]	; 0x767
 108:	6b674c52 	blvs	19d3258 <_start-0x7e62cda8>
 10c:	01000202 	tsteq	r0, r2, lsl #4
 110:	00004801 	andeq	r4, r0, r1, lsl #16
 114:	1c000200 	sfmne	f0, 4, [r0], {-0}
 118:	02000000 	andeq	r0, r0, #0
 11c:	0d0efb01 	vstreq	d15, [lr, #-4]
 120:	01010100 	mrseq	r0, (UNDEF: 17)
 124:	00000001 	andeq	r0, r0, r1
 128:	01000001 	tsteq	r0, r1
 12c:	76696400 	strbtvc	r6, [r9], -r0, lsl #8
 130:	0000632e 	andeq	r6, r0, lr, lsr #6
 134:	00000000 	andeq	r0, r0, r0
 138:	02d40205 	sbcseq	r0, r4, #1342177280	; 0x50000000
 13c:	bc148000 	ldclt	0, cr8, [r4], {-0}
 140:	00832f4c 	addeq	r2, r3, ip, asr #30
 144:	64010402 	strvs	r0, [r1], #-1026	; 0x402
 148:	834c4b87 	movthi	r4, #52103	; 0xcb87
 14c:	2f4c9f84 	svccs	0x004c9f84
 150:	04020083 	streq	r0, [r2], #-131	; 0x83
 154:	2f876401 	svccs	0x00876401
 158:	01000802 	tsteq	r0, r2, lsl #16
 15c:	0000a901 	andeq	sl, r0, r1, lsl #18
 160:	71000200 	mrsvc	r0, R8_usr
 164:	02000000 	andeq	r0, r0, #0
 168:	0d0efb01 	vstreq	d15, [lr, #-4]
 16c:	01010100 	mrseq	r0, (UNDEF: 17)
 170:	00000001 	andeq	r0, r0, r1
 174:	01000001 	tsteq	r0, r1
 178:	2e2e2f2e 	cdpcs	15, 2, cr2, cr14, cr14, {1}
 17c:	6e696d2f 	cdpvs	13, 6, cr6, cr9, cr15, {1}
 180:	6c756d69 	ldclvs	13, cr6, [r5], #-420	; 0xfffffe5c
 184:	6c5f635f 	mrrcvs	3, 5, r6, pc, cr15	; <UNPREDICTABLE>
 188:	6d2f6269 	sfmvs	f6, 4, [pc, #-420]!	; ffffffec <value+0x7fffeaec>
 18c:	2f637369 	svccs	0x00637369
 190:	6c636e69 	stclvs	14, cr6, [r3], #-420	; 0xfffffe5c
 194:	00656475 	rsbeq	r6, r5, r5, ror r4
 198:	69616d00 	stmdbvs	r1!, {r8, sl, fp, sp, lr}^
 19c:	00632e6e 	rsbeq	r2, r3, lr, ror #28
 1a0:	75000000 	strvc	r0, [r0, #-0]
 1a4:	5f747261 	svcpl	0x00747261
 1a8:	736e6f63 	cmnvc	lr, #396	; 0x18c
 1ac:	5f656c6f 	svcpl	0x00656c6f
 1b0:	64616568 	strbtvs	r6, [r1], #-1384	; 0x568
 1b4:	682e7265 	stmdavs	lr!, {r0, r2, r5, r6, r9, ip, sp, lr}
 1b8:	00000000 	andeq	r0, r0, r0
 1bc:	5f737973 	svcpl	0x00737973
 1c0:	2e676f6c 	cdpcs	15, 6, cr6, cr7, cr12, {3}
 1c4:	00010068 	andeq	r0, r1, r8, rrx
 1c8:	75623c00 	strbvc	r3, [r2, #-3072]!	; 0xc00
 1cc:	2d746c69 	ldclcs	12, cr6, [r4, #-420]!	; 0xfffffe5c
 1d0:	003e6e69 	eorseq	r6, lr, r9, ror #28
 1d4:	00000000 	andeq	r0, r0, r0
 1d8:	b4020500 	strlt	r0, [r2], #-1280	; 0x500
 1dc:	03800003 	orreq	r0, r0, #3
 1e0:	6883010a 	stmvs	r3, {r1, r3, r8}
 1e4:	4b85844b 	blmi	fe161318 <value+0x7e15fe18>
 1e8:	674bbb2f 	strbvs	fp, [fp, -pc, lsr #22]
 1ec:	67676767 	strbvs	r6, [r7, -r7, ror #14]!
 1f0:	04020067 	streq	r0, [r2], #-103	; 0x67
 1f4:	0200d801 	andeq	sp, r0, #65536	; 0x10000
 1f8:	00670104 	rsbeq	r0, r7, r4, lsl #2
 1fc:	83010402 	movwhi	r0, #5122	; 0x1402
 200:	01040200 	mrseq	r0, R12_usr
 204:	0002024b 	andeq	r0, r2, fp, asr #4
 208:	00ee0101 	rsceq	r0, lr, r1, lsl #2
 20c:	00020000 	andeq	r0, r2, r0
 210:	0000005e 	andeq	r0, r0, lr, asr r0
 214:	0efb0102 	cdpeq	1, 15, cr0, cr11, cr2, {0}
 218:	0101000d 	tsteq	r1, sp
 21c:	00000101 	andeq	r0, r0, r1, lsl #2
 220:	00000100 	andeq	r0, r0, r0, lsl #2
 224:	61750001 	cmnvs	r5, r1
 228:	635f7472 	cmpvs	pc, #1912602624	; 0x72000000
 22c:	6f736e6f 	svcvs	0x00736e6f
 230:	632e656c 	teqvs	lr, #108, 10	; 0x1b000000
 234:	00000000 	andeq	r0, r0, r0
 238:	65707974 	ldrbvs	r7, [r0, #-2420]!	; 0x974
 23c:	00682e73 	rsbeq	r2, r8, r3, ror lr
 240:	75000000 	strvc	r0, [r0, #-0]
 244:	2e747261 	cdpcs	2, 7, cr7, cr4, cr1, {3}
 248:	00000068 	andeq	r0, r0, r8, rrx
 24c:	72617500 	rsbvc	r7, r1, #0, 10
 250:	6f635f74 	svcvs	0x00635f74
 254:	6c6f736e 	stclvs	3, cr7, [pc], #-440	; a4 <_start-0x7fffff5c>
 258:	65685f65 	strbvs	r5, [r8, #-3941]!	; 0xf65
 25c:	72656461 	rsbvc	r6, r5, #1627389952	; 0x61000000
 260:	0000682e 	andeq	r6, r0, lr, lsr #16
 264:	6c630000 	stclvs	0, cr0, [r3], #-0
 268:	2e6b636f 	cdpcs	3, 6, cr6, cr11, cr15, {3}
 26c:	00000068 	andeq	r0, r0, r8, rrx
 270:	05000000 	streq	r0, [r0, #-0]
 274:	0004b002 	andeq	fp, r4, r2
 278:	67671a80 	strbvs	r1, [r7, -r0, lsl #21]!
 27c:	0402009f 	streq	r0, [r2], #-159	; 0x9f
 280:	062e0601 	strteq	r0, [lr], -r1, lsl #12
 284:	838450f4 	orrhi	r5, r4, #244	; 0xf4
 288:	02008367 	andeq	r8, r0, #-1677721599	; 0x9c000001
 28c:	2e060104 	adfcss	f0, f6, f4
 290:	679fbb06 	ldrvs	fp, [pc, r6, lsl #22]
 294:	040200a2 	streq	r0, [r2], #-162	; 0xa2
 298:	062e0601 	strteq	r0, [lr], -r1, lsl #12
 29c:	848383bd 	strhi	r8, [r3], #957	; 0x3bd
 2a0:	838383f3 	orrhi	r8, r3, #-872415229	; 0xcc000003
 2a4:	3d088a83 	vstrcc	s16, [r8, #-524]	; 0xfffffdf4
 2a8:	f49f8383 			; <UNDEFINED> instruction: 0xf49f8383
 2ac:	dba18483 	blle	fe8614c0 <value+0x7e85ffc0>
 2b0:	4d4b3131 	stfmie	f3, [fp, #-196]	; 0xffffff3c
 2b4:	004c67a0 	subeq	r6, ip, r0, lsr #15
 2b8:	06010402 	streq	r0, [r1], -r2, lsl #8
 2bc:	83d9064a 	bicshi	r0, r9, #77594624	; 0x4a00000
 2c0:	02004b4c 	andeq	r4, r0, #76, 22	; 0x13000
 2c4:	2e060104 	adfcss	f0, f6, f4
 2c8:	8583d706 	strhi	sp, [r3, #1798]	; 0x706
 2cc:	02006783 	andeq	r6, r0, #34340864	; 0x20c0000
 2d0:	00680204 	rsbeq	r0, r8, r4, lsl #4
 2d4:	b8020402 	stmdalt	r2, {r1, sl}
 2d8:	01040200 	mrseq	r0, R12_usr
 2dc:	86066606 	strhi	r6, [r6], -r6, lsl #12
 2e0:	6783692f 	strvs	r6, [r3, pc, lsr #18]
 2e4:	02040200 	andeq	r0, r4, #0, 4
 2e8:	04020068 	streq	r0, [r2], #-104	; 0x68
 2ec:	0200b802 	andeq	fp, r0, #131072	; 0x20000
 2f0:	66060104 	strvs	r0, [r6], -r4, lsl #2
 2f4:	022f8606 	eoreq	r8, pc, #6291456	; 0x600000
 2f8:	01010006 	tsteq	r1, r6
 2fc:	00000135 	andeq	r0, r0, r5, lsr r1
 300:	004a0002 	subeq	r0, sl, r2
 304:	01020000 	mrseq	r0, (UNDEF: 2)
 308:	000d0efb 	strdeq	r0, [sp], -fp
 30c:	01010101 	tsteq	r1, r1, lsl #2
 310:	01000000 	mrseq	r0, (UNDEF: 0)
 314:	2e010000 	cdpcs	0, 0, cr0, cr1, cr0, {0}
 318:	6372732f 	cmnvs	r2, #-1140850688	; 0xbc000000
 31c:	692f2e00 	stmdbvs	pc!, {r9, sl, fp, sp}	; <UNPREDICTABLE>
 320:	756c636e 	strbvc	r6, [ip, #-878]!	; 0x36e
 324:	00006564 	andeq	r6, r0, r4, ror #10
 328:	6e697270 	mcrvs	2, 3, r7, cr9, cr0, {3}
 32c:	632e6b74 	teqvs	lr, #116, 22	; 0x1d000
 330:	00000100 	andeq	r0, r0, r0, lsl #2
 334:	5f737973 	svcpl	0x00737973
 338:	2e676f6c 	cdpcs	15, 6, cr6, cr7, cr12, {3}
 33c:	00020068 	andeq	r0, r2, r8, rrx
 340:	75623c00 	strbvc	r3, [r2, #-3072]!	; 0xc00
 344:	2d746c69 	ldclcs	12, cr6, [r4, #-420]!	; 0xfffffe5c
 348:	003e6e69 	eorseq	r6, lr, r9, ror #28
 34c:	00000000 	andeq	r0, r0, r0
 350:	b8020500 	stmdalt	r2, {r8, sl}
 354:	03800008 	orreq	r0, r0, #8
 358:	67db0115 	bfivs	r0, r5, #2, #26
 35c:	674d4b4b 	strbvs	r4, [sp, -fp, asr #22]
 360:	02004b4d 	andeq	r4, r0, #78848	; 0x13400
 364:	66060104 	strvs	r0, [r6], -r4, lsl #2
 368:	084b8306 	stmdaeq	fp, {r1, r2, r8, r9, pc}^
 36c:	02008391 	andeq	r8, r0, #1140850690	; 0x44000002
 370:	66060104 	strvs	r0, [r6], -r4, lsl #2
 374:	02040200 	andeq	r0, r4, #0, 4
 378:	0402004a 	streq	r0, [r2], #-74	; 0x4a
 37c:	68062e03 	stmdavs	r6, {r0, r1, r9, sl, fp, sp}
 380:	0200f367 	andeq	pc, r0, #-1677721599	; 0x9c000001
 384:	77030104 	strvc	r0, [r3, -r4, lsl #2]
 388:	660b03f2 			; <UNDEFINED> instruction: 0x660b03f2
 38c:	4a0e03d7 	bmi	3812f0 <_start-0x7fc7ed10>
 390:	4c4b4bd7 	mcrrmi	11, 13, r4, fp, cr7
 394:	0200f42f 	andeq	pc, r0, #788529152	; 0x2f000000
 398:	66060104 	strvs	r0, [r6], -r4, lsl #2
 39c:	004bbb06 	subeq	fp, fp, r6, lsl #22
 3a0:	06010402 	streq	r0, [r1], -r2, lsl #8
 3a4:	04020066 	streq	r0, [r2], #-102	; 0x66
 3a8:	02004a02 	andeq	r4, r0, #8192	; 0x2000
 3ac:	002e0304 	eoreq	r0, lr, r4, lsl #6
 3b0:	06030402 	streq	r0, [r3], -r2, lsl #8
 3b4:	04020067 	streq	r0, [r2], #-103	; 0x67
 3b8:	bb318303 	bllt	c60fcc <_start-0x7f39f034>
 3bc:	01040200 	mrseq	r0, R12_usr
 3c0:	02006606 	andeq	r6, r0, #6291456	; 0x600000
 3c4:	004a0204 	subeq	r0, sl, r4, lsl #4
 3c8:	2e030402 	cdpcs	4, 0, cr0, cr3, cr2, {0}
 3cc:	66750306 	ldrbtvs	r0, [r5], -r6, lsl #6
 3d0:	01040200 	mrseq	r0, R12_usr
 3d4:	03066606 	movweq	r6, #26118	; 0x6606
 3d8:	0e03660e 	cfmadd32eq	mvax0, mvfx6, mvfx3, mvfx14
 3dc:	4b4bbb4a 	blmi	12ef10c <_start-0x7ed10ef4>
 3e0:	83672f4e 	cmnhi	r7, #312	; 0x138
 3e4:	694b4bbc 	stmdbvs	fp, {r2, r3, r4, r5, r7, r8, r9, fp, lr}^
 3e8:	1401b802 	strne	fp, [r1], #-2050	; 0x802
 3ec:	01040200 	mrseq	r0, R12_usr
 3f0:	67066606 	strvs	r6, [r6, -r6, lsl #12]
 3f4:	8667324b 	strbthi	r3, [r7], -fp, asr #4
 3f8:	365a082c 	ldrbcc	r0, [sl], -ip, lsr #16
 3fc:	676767a0 	strbvs	r6, [r7, -r0, lsr #15]!
 400:	a031bc68 	eorsge	fp, r1, r8, ror #24
 404:	686731a0 	stmdavs	r7!, {r5, r7, r8, ip, sp}^
 408:	a0a04e4b 	adcge	r4, r0, fp, asr #28
 40c:	002fa031 	eoreq	sl, pc, r1, lsr r0	; <UNPREDICTABLE>
 410:	d5010402 	strle	r0, [r1, #-1026]	; 0x402
 414:	9fa03184 	svcls	0x00a03184
 418:	67316731 			; <UNDEFINED> instruction: 0x67316731
 41c:	4603309f 			; <UNDEFINED> instruction: 0x4603309f
 420:	2e3d0366 	cdpcs	3, 3, cr0, cr13, cr6, {3}
 424:	01040200 	mrseq	r0, R12_usr
 428:	667fa703 	ldrbtvs	sl, [pc], -r3, lsl #14
 42c:	8200db03 	andhi	sp, r0, #3072	; 0xc00
 430:	01000402 	tsteq	r0, r2, lsl #8
 434:	00010501 	andeq	r0, r1, r1, lsl #10
 438:	25000200 	strcs	r0, [r0, #-512]	; 0x200
 43c:	02000000 	andeq	r0, r0, #0
 440:	0d0efb01 	vstreq	d15, [lr, #-4]
 444:	01010100 	mrseq	r0, (UNDEF: 17)
 448:	00000001 	andeq	r0, r0, r1
 44c:	01000001 	tsteq	r0, r1
 450:	72732f2e 	rsbsvc	r2, r3, #46, 30	; 0xb8
 454:	73000063 	movwvc	r0, #99	; 0x63
 458:	6e697274 	mcrvs	2, 3, r7, cr9, cr4, {3}
 45c:	00632e67 	rsbeq	r2, r3, r7, ror #28
 460:	00000001 	andeq	r0, r0, r1
 464:	58020500 	stmdapl	r2, {r8, sl}
 468:	0380000f 	orreq	r0, r0, #15
 46c:	4bbb010a 	blmi	feec089c <value+0x7eebf39c>
 470:	004c674b 	subeq	r6, ip, fp, asr #14
 474:	06010402 	streq	r0, [r1], -r2, lsl #8
 478:	0402002e 	streq	r0, [r2], #-46	; 0x2e
 47c:	08069e02 	stmdaeq	r6, {r1, r9, sl, fp, ip, pc}
 480:	8384bb3f 	orrhi	fp, r4, #64512	; 0xfc00
 484:	02002f4b 	andeq	r2, r0, #300	; 0x12c
 488:	bc650104 	stflte	f0, [r5], #-16
 48c:	4b9f852f 	blmi	fe7e1950 <value+0x7e7e0450>
 490:	01040200 	mrseq	r0, R12_usr
 494:	08062e06 	stmdaeq	r6, {r1, r2, r9, sl, fp, sp}
 498:	bb862f59 	bllt	fe18c204 <value+0x7e18ad04>
 49c:	0402004b 	streq	r0, [r2], #-75	; 0x4b
 4a0:	002e0601 	eoreq	r0, lr, r1, lsl #12
 4a4:	9e020402 	cdpls	4, 0, cr0, cr2, cr2, {0}
 4a8:	2f590806 	svccs	0x00590806
 4ac:	0402009f 	streq	r0, [r2], #-159	; 0x9f
 4b0:	2f6a6401 	svccs	0x006a6401
 4b4:	00679f84 	rsbeq	r9, r7, r4, lsl #31
 4b8:	06010402 	streq	r0, [r1], -r2, lsl #8
 4bc:	9208062e 	andls	r0, r8, #48234496	; 0x2e00000
 4c0:	67bb682f 	ldrvs	r6, [fp, pc, lsr #16]!
 4c4:	01040200 	mrseq	r0, R12_usr
 4c8:	02002e06 	andeq	r2, r0, #6, 28	; 0x60
 4cc:	069e0204 	ldreq	r0, [lr], r4, lsl #4
 4d0:	d72f9108 	strle	r9, [pc, -r8, lsl #2]!
 4d4:	01040200 	mrseq	r0, R12_usr
 4d8:	69306a64 	ldmdbvs	r0!, {r2, r5, r6, r9, fp, sp, lr}
 4dc:	2fbb2f9f 	svccs	0x00bb2f9f
 4e0:	04020067 	streq	r0, [r2], #-103	; 0x67
 4e4:	02006201 	andeq	r6, r0, #268435456	; 0x10000000
 4e8:	82060204 	andhi	r0, r6, #4, 4	; 0x40000000
 4ec:	86bc8806 	ldrthi	r8, [ip], r6, lsl #16
 4f0:	2fbb2fbc 	svccs	0x00bb2fbc
 4f4:	02006767 	andeq	r6, r0, #27000832	; 0x19c0000
 4f8:	00610104 	rsbeq	r0, r1, r4, lsl #2
 4fc:	06020402 	streq	r0, [r2], -r2, lsl #8
 500:	04020082 	streq	r0, [r2], #-130	; 0x82
 504:	6d068201 	sfmvs	f0, 1, [r6, #-4]
 508:	4b9f84bb 	blmi	fe7e17fc <value+0x7e7e02fc>
 50c:	04020030 	streq	r0, [r2], #-48	; 0x30
 510:	02006401 	andeq	r6, r0, #16777216	; 0x1000000
 514:	82060204 	andhi	r0, r6, #4, 4	; 0x40000000
 518:	0200a206 	andeq	sl, r0, #1610612736	; 0x60000000
 51c:	82060104 	andhi	r0, r6, #4, 2
 520:	02040200 	andeq	r0, r4, #0, 4
 524:	0402004a 	streq	r0, [r2], #-74	; 0x4a
 528:	842f0603 	strthi	r0, [pc], #-1539	; 530 <_start-0x7ffffad0>
 52c:	2f4b4b9f 	svccs	0x004b4b9f
 530:	02004b9f 	andeq	r4, r0, #162816	; 0x27c00
 534:	87630104 	strbhi	r0, [r3, -r4, lsl #2]!
 538:	0008022f 	andeq	r0, r8, pc, lsr #4
 53c:	Address 0x000000000000053c is out of bounds.


Disassembly of section .debug_str:

00000000 <.debug_str>:
       0:	5f44454c 	svcpl	0x0044454c
       4:	74696e69 	strbtvc	r6, [r9], #-3689	; 0xe69
       8:	554e4700 	strbpl	r4, [lr, #-1792]	; 0x700
       c:	34204320 	strtcc	r4, [r0], #-800	; 0x320
      10:	322e382e 	eorcc	r3, lr, #3014656	; 0x2e0000
      14:	666d2d20 	strbtvs	r2, [sp], -r0, lsr #26
      18:	6e3d7570 	mrcvs	5, 1, r7, cr13, cr0, {3}
      1c:	206e6f65 	rsbcs	r6, lr, r5, ror #30
      20:	6c666d2d 	stclvs	13, cr6, [r6], #-180	; 0xffffff4c
      24:	2d74616f 	ldfcse	f6, [r4, #-444]!	; 0xfffffe44
      28:	3d696261 	sfmcc	f6, 2, [r9, #-388]!	; 0xfffffe7c
      2c:	64726168 	ldrbtvs	r6, [r2], #-360	; 0x168
      30:	636d2d20 	cmnvs	sp, #32, 26	; 0x800
      34:	633d7570 	teqvs	sp, #112, 10	; 0x1c000000
      38:	6574726f 	ldrbvs	r7, [r4, #-623]!	; 0x26f
      3c:	38612d78 	stmdacc	r1!, {r3, r4, r5, r6, r8, sl, fp, sp}^
      40:	20672d20 	rsbcs	r2, r7, r0, lsr #26
      44:	6474732d 	ldrbtvs	r7, [r4], #-813	; 0x32d
      48:	756e673d 	strbvc	r6, [lr, #-1853]!	; 0x73d
      4c:	73003939 	movwvc	r3, #2361	; 0x939
      50:	74726f68 	ldrbtvc	r6, [r2], #-3944	; 0xf68
      54:	736e7520 	cmnvc	lr, #32, 10	; 0x8000000
      58:	656e6769 	strbvs	r6, [lr, #-1897]!	; 0x769
      5c:	6e692064 	cdpvs	0, 6, cr2, cr9, cr4, {3}
      60:	69750074 	ldmdbvs	r5!, {r2, r4, r5, r6}^
      64:	3233746e 	eorscc	r7, r3, #1845493760	; 0x6e000000
      68:	7300745f 	movwvc	r7, #1119	; 0x45f
      6c:	74726f68 	ldrbtvc	r6, [r2], #-3944	; 0xf68
      70:	746e6920 	strbtvc	r6, [lr], #-2336	; 0x920
      74:	49504700 	ldmdbmi	r0, {r8, r9, sl, lr}^
      78:	00632e4f 	rsbeq	r2, r3, pc, asr #28
      7c:	69736e75 	ldmdbvs	r3!, {r0, r2, r4, r5, r6, r9, sl, fp, sp, lr}^
      80:	64656e67 	strbtvs	r6, [r5], #-3687	; 0xe67
      84:	61686320 	cmnvs	r8, r0, lsr #6
      88:	682f0072 	stmdavs	pc!, {r1, r4, r5, r6}	; <UNPREDICTABLE>
      8c:	2f656d6f 	svccs	0x00656d6f
      90:	73616873 	cmnvc	r1, #7536640	; 0x730000
      94:	532f6968 	teqpl	pc, #104, 18	; 0x1a0000
      98:	68736168 	ldmdavs	r3!, {r3, r5, r6, r8, sp, lr}^
      9c:	65422f69 	strbvs	r2, [r2, #-3945]	; 0xf69
      a0:	656c6761 	strbvs	r6, [ip, #-1889]!	; 0x761
      a4:	656e6f42 	strbvs	r6, [lr, #-3906]!	; 0xf42
      a8:	63616c42 	cmnvs	r1, #16896	; 0x4200
      ac:	41552f6b 	cmpmi	r5, fp, ror #30
      b0:	43005452 	movwmi	r5, #1106	; 0x452
      b4:	45505f4d 	ldrbmi	r5, [r0, #-3917]	; 0xf4d
      b8:	334c5f52 	movtcc	r5, #53074	; 0xcf52
      bc:	4b4c435f 	blmi	1310e40 <_start-0x7ecef1c0>
      c0:	54435453 	strbpl	r5, [r3], #-1107	; 0x453
      c4:	43004c52 	movwmi	r4, #3154	; 0xc52
      c8:	45505f4d 	ldrbmi	r5, [r0, #-3917]	; 0xf4d
      cc:	434d5f52 	movtmi	r5, #57170	; 0xdf52
      d0:	30505341 	subscc	r5, r0, r1, asr #6
      d4:	4b4c435f 	blmi	1310e58 <_start-0x7ecef1a8>
      d8:	4c525443 	cfldrdmi	mvd5, [r2], {67}	; 0x43
      dc:	5f4d4300 	svcpl	0x004d4300
      e0:	5f524550 	svcpl	0x00524550
      e4:	30495053 	subcc	r5, r9, r3, asr r0
      e8:	4b4c435f 	blmi	1310e6c <_start-0x7ecef194>
      ec:	4c525443 	cfldrdmi	mvd5, [r2], {67}	; 0x43
      f0:	5f4d4300 	svcpl	0x004d4300
      f4:	5f524550 	svcpl	0x00524550
      f8:	5348344c 	movtpl	r3, #33868	; 0x844c
      fc:	4b4c435f 	blmi	1310e80 <_start-0x7ecef180>
     100:	54435453 	strbpl	r5, [r3], #-1107	; 0x453
     104:	43004c52 	movwmi	r4, #3154	; 0xc52
     108:	45505f4d 	ldrbmi	r5, [r0, #-3917]	; 0xf4d
     10c:	41555f52 	cmpmi	r5, r2, asr pc
     110:	5f345452 	svcpl	0x00345452
     114:	434b4c43 	movtmi	r4, #48195	; 0xbc43
     118:	004c5254 	subeq	r5, ip, r4, asr r2
     11c:	505f4d43 	subspl	r4, pc, r3, asr #26
     120:	4d5f5245 	lfmmi	f5, 2, [pc, #-276]	; 14 <_start-0x7fffffec>
     124:	50534143 	subspl	r4, r3, r3, asr #2
     128:	4c435f31 	mcrrmi	15, 3, r5, r3, cr1
     12c:	5254434b 	subspl	r4, r4, #738197505	; 0x2c000001
     130:	4d43004c 	stclmi	0, cr0, [r3, #-304]	; 0xfffffed0
     134:	5245505f 	subpl	r5, r5, #95	; 0x5f
     138:	5450545f 	ldrbpl	r5, [r0], #-1119	; 0x45f
     13c:	435f3043 	cmpmi	pc, #67	; 0x43
     140:	54434b4c 	strbpl	r4, [r3], #-2892	; 0xb4c
     144:	43004c52 	movwmi	r4, #3154	; 0xc52
     148:	45505f4d 	ldrbmi	r5, [r0, #-3917]	; 0xf4d
     14c:	344c5f52 	strbcc	r5, [ip], #-3922	; 0xf52
     150:	435f5746 	cmpmi	pc, #18350080	; 0x1180000
     154:	54534b4c 	ldrbpl	r4, [r3], #-2892	; 0xb4c
     158:	4c525443 	cfldrdmi	mvd5, [r2], {67}	; 0x43
     15c:	5f4d4300 	svcpl	0x004d4300
     160:	5f435353 	svcpl	0x00435353
     164:	46444f4d 	strbmi	r4, [r4], -sp, asr #30
     168:	44514552 	ldrbmi	r4, [r1], #-1362	; 0x552
     16c:	445f5649 	ldrbmi	r5, [pc], #-1609	; 174 <_start-0x7ffffe8c>
     170:	5f4c4c50 	svcpl	0x004c4c50
     174:	00524444 	subseq	r4, r2, r4, asr #8
     178:	74696e49 	strbtvc	r6, [r9], #-3657	; 0xe49
     17c:	5241555f 	subpl	r5, r1, #398458880	; 0x17c00000
     180:	435f3054 	cmpmi	pc, #84	; 0x54
     184:	43006b6c 	movwmi	r6, #2924	; 0xb6c
     188:	45505f4d 	ldrbmi	r5, [r0, #-3917]	; 0xf4d
     18c:	41555f52 	cmpmi	r5, r2, asr pc
     190:	5f355452 	svcpl	0x00355452
     194:	434b4c43 	movtmi	r4, #48195	; 0xbc43
     198:	004c5254 	subeq	r5, ip, r4, asr r2
     19c:	535f4d43 	cmppl	pc, #4288	; 0x10c0
     1a0:	445f4353 	ldrbmi	r4, [pc], #-851	; 1a8 <_start-0x7ffffe58>
     1a4:	41544c45 	cmpmi	r4, r5, asr #24
     1a8:	4554534d 	ldrbmi	r5, [r4, #-845]	; 0x34d
     1ac:	50445f50 	subpl	r5, r4, r0, asr pc
     1b0:	445f4c4c 	ldrbmi	r4, [pc], #-3148	; 1b8 <_start-0x7ffffe48>
     1b4:	00505349 	subseq	r5, r0, r9, asr #6
     1b8:	706d6574 	rsbvc	r6, sp, r4, ror r5
     1bc:	5f4d4300 	svcpl	0x004d4300
     1c0:	454c4449 	strbmi	r4, [ip, #-1097]	; 0x449
     1c4:	445f5453 	ldrbmi	r5, [pc], #-1107	; 1cc <_start-0x7ffffe34>
     1c8:	5f4c4c50 	svcpl	0x004c4c50
     1cc:	00524444 	subseq	r4, r2, r4, asr #8
     1d0:	415f4d43 	cmpmi	pc, r3, asr #26
     1d4:	494f5455 	stmdbmi	pc, {r0, r2, r4, r6, sl, ip, lr}^	; <UNPREDICTABLE>
     1d8:	5f454c44 	svcpl	0x00454c44
     1dc:	4c4c5044 	mcrrmi	0, 4, r5, ip, cr4
     1e0:	5245505f 	subpl	r5, r5, #95	; 0x5f
     1e4:	5f4d4300 	svcpl	0x004d4300
     1e8:	5f564944 	svcpl	0x00564944
     1ec:	445f354d 	ldrbmi	r3, [pc], #-1357	; 1f4 <_start-0x7ffffe0c>
     1f0:	5f4c4c50 	svcpl	0x004c4c50
     1f4:	45524f43 	ldrbmi	r4, [r2, #-3907]	; 0xf43
     1f8:	5f4d4300 	svcpl	0x004d4300
     1fc:	5f435353 	svcpl	0x00435353
     200:	544c4544 	strbpl	r4, [ip], #-1348	; 0x544
     204:	54534d41 	ldrbpl	r4, [r3], #-3393	; 0xd41
     208:	445f5045 	ldrbmi	r5, [pc], #-69	; 210 <_start-0x7ffffdf0>
     20c:	5f4c4c50 	svcpl	0x004c4c50
     210:	00524550 	subseq	r4, r2, r0, asr r5
     214:	756c6176 	strbvc	r6, [ip, #-374]!	; 0x176
     218:	4d430065 	stclmi	0, cr0, [r3, #-404]	; 0xfffffe6c
     21c:	5245505f 	subpl	r5, r5, #95	; 0x5f
     220:	4b4c435f 	blmi	1310fa4 <_start-0x7ecef05c>
     224:	33564944 	cmpcc	r6, #68, 18	; 0x110000
     228:	435f4b32 	cmpmi	pc, #51200	; 0xc800
     22c:	54434b4c 	strbpl	r4, [r3], #-2892	; 0xb4c
     230:	43004c52 	movwmi	r4, #3154	; 0xc52
     234:	55415f4d 	strbpl	r5, [r1, #-3917]	; 0xf4d
     238:	44494f54 	strbmi	r4, [r9], #-3924	; 0xf54
     23c:	445f454c 	ldrbmi	r4, [pc], #-1356	; 244 <_start-0x7ffffdbc>
     240:	5f4c4c50 	svcpl	0x004c4c50
     244:	45524f43 	ldrbmi	r4, [r2, #-3907]	; 0xf43
     248:	5f4d4300 	svcpl	0x004d4300
     24c:	5f564944 	svcpl	0x00564944
     250:	445f324d 	ldrbmi	r3, [pc], #-589	; 258 <_start-0x7ffffda8>
     254:	5f4c4c50 	svcpl	0x004c4c50
     258:	0055504d 	subseq	r5, r5, sp, asr #32
     25c:	505f4d43 	subspl	r4, pc, r3, asr #26
     260:	445f5245 	ldrbmi	r5, [pc], #-581	; 268 <_start-0x7ffffd98>
     264:	304e4143 	subcc	r4, lr, r3, asr #2
     268:	4b4c435f 	blmi	1310fec <_start-0x7ecef014>
     26c:	4c525443 	cfldrdmi	mvd5, [r2], {67}	; 0x43
     270:	5f4d4300 	svcpl	0x004d4300
     274:	5f524550 	svcpl	0x00524550
     278:	5746344c 	strbpl	r3, [r6, -ip, asr #8]
     27c:	4b4c435f 	blmi	1311000 <_start-0x7ecef000>
     280:	4c525443 	cfldrdmi	mvd5, [r2], {67}	; 0x43
     284:	5f4d4300 	svcpl	0x004d4300
     288:	00435452 	subeq	r5, r3, r2, asr r4
     28c:	505f4d43 	subspl	r4, pc, r3, asr #26
     290:	4d5f5245 	lfmmi	f5, 2, [pc, #-276]	; 184 <_start-0x7ffffe7c>
     294:	5f30434d 	svcpl	0x0030434d
     298:	434b4c43 	movtmi	r4, #48195	; 0xbc43
     29c:	004c5254 	subeq	r5, ip, r4, asr r2
     2a0:	435f4d43 	cmpmi	pc, #4288	; 0x10c0
     2a4:	45534b4c 	ldrbmi	r4, [r3, #-2892]	; 0xb4c
     2a8:	50445f4c 	subpl	r5, r4, ip, asr #30
     2ac:	435f4c4c 	cmpmi	pc, #76, 24	; 0x4c00
     2b0:	0045524f 	subeq	r5, r5, pc, asr #4
     2b4:	505f4d43 	subspl	r4, pc, r3, asr #26
     2b8:	495f5245 	ldmdbmi	pc, {r0, r2, r6, r9, ip, lr}^	; <UNPREDICTABLE>
     2bc:	5f314332 	svcpl	0x00314332
     2c0:	434b4c43 	movtmi	r4, #48195	; 0xbc43
     2c4:	004c5254 	subeq	r5, ip, r4, asr r2
     2c8:	445f4d43 	ldrbmi	r4, [pc], #-3395	; 2d0 <_start-0x7ffffd30>
     2cc:	4d5f5649 	ldclmi	6, cr5, [pc, #-292]	; 1b0 <_start-0x7ffffe50>
     2d0:	50445f34 	subpl	r5, r4, r4, lsr pc
     2d4:	435f4c4c 	cmpmi	pc, #76, 24	; 0x4c00
     2d8:	0045524f 	subeq	r5, r5, pc, asr #4
     2dc:	505f4d43 	subspl	r4, pc, r3, asr #26
     2e0:	495f5245 	ldmdbmi	pc, {r0, r2, r6, r9, ip, lr}^	; <UNPREDICTABLE>
     2e4:	35454545 	strbcc	r4, [r5, #-1349]	; 0x545
     2e8:	5f303030 	svcpl	0x00303030
     2ec:	434b4c43 	movtmi	r4, #48195	; 0xbc43
     2f0:	004c5254 	subeq	r5, ip, r4, asr r2
     2f4:	505f4d43 	subspl	r4, pc, r3, asr #26
     2f8:	545f5245 	ldrbpl	r5, [pc], #-581	; 300 <_start-0x7ffffd00>
     2fc:	52454d49 	subpl	r4, r5, #4672	; 0x1240
     300:	4c435f32 	mcrrmi	15, 3, r5, r3, cr2
     304:	5254434b 	subspl	r4, r4, #738197505	; 0x2c000001
     308:	4d43004c 	stclmi	0, cr0, [r3, #-304]	; 0xfffffed0
     30c:	5245505f 	subpl	r5, r5, #95	; 0x5f
     310:	434d4d5f 	movtmi	r4, #56671	; 0xdd5f
     314:	4c435f31 	mcrrmi	15, 3, r5, r3, cr1
     318:	5254434b 	subspl	r4, r4, #738197505	; 0x2c000001
     31c:	4d43004c 	stclmi	0, cr0, [r3, #-304]	; 0xfffffed0
     320:	4353535f 	cmpmi	r3, #2080374785	; 0x7c000001
     324:	444f4d5f 	strbmi	r4, [pc], #-3423	; 32c <_start-0x7ffffcd4>
     328:	51455246 	cmppl	r5, r6, asr #4
     32c:	5f564944 	svcpl	0x00564944
     330:	4c4c5044 	mcrrmi	0, 4, r5, ip, cr4
     334:	55504d5f 	ldrbpl	r4, [r0, #-3423]	; 0xd5f
     338:	5f4d4300 	svcpl	0x004d4300
     33c:	5f524550 	svcpl	0x00524550
     340:	32433249 	subcc	r3, r3, #-1879048188	; 0x90000004
     344:	4b4c435f 	blmi	13110c8 <_start-0x7eceef38>
     348:	4c525443 	cfldrdmi	mvd5, [r2], {67}	; 0x43
     34c:	5f4d4300 	svcpl	0x004d4300
     350:	5f524550 	svcpl	0x00524550
     354:	54524155 	ldrbpl	r4, [r2], #-341	; 0x155
     358:	4c435f33 	mcrrmi	15, 3, r5, r3, cr3
     35c:	5254434b 	subspl	r4, r4, #738197505	; 0x2c000001
     360:	4d43004c 	stclmi	0, cr0, [r3, #-304]	; 0xfffffed0
     364:	5245505f 	subpl	r5, r5, #95	; 0x5f
     368:	4d49545f 	cfstrdmi	mvd5, [r9, #-380]	; 0xfffffe84
     36c:	5f335245 	svcpl	0x00335245
     370:	434b4c43 	movtmi	r4, #48195	; 0xbc43
     374:	004c5254 	subeq	r5, ip, r4, asr r2
     378:	505f4d43 	subspl	r4, pc, r3, asr #26
     37c:	4d5f5245 	lfmmi	f5, 2, [pc, #-276]	; 270 <_start-0x7ffffd90>
     380:	5f32434d 	svcpl	0x0032434d
     384:	434b4c43 	movtmi	r4, #48195	; 0xbc43
     388:	004c5254 	subeq	r5, ip, r4, asr r2
     38c:	505f4d43 	subspl	r4, pc, r3, asr #26
     390:	535f5245 	cmppl	pc, #1342177284	; 0x50000004
     394:	4c4e4950 	mcrrmi	9, 5, r4, lr, cr0
     398:	5f4b434f 	svcpl	0x004b434f
     39c:	434b4c43 	movtmi	r4, #48195	; 0xbc43
     3a0:	004c5254 	subeq	r5, ip, r4, asr r2
     3a4:	505f4d43 	subspl	r4, pc, r3, asr #26
     3a8:	525f5245 	subspl	r5, pc, #1342177284	; 0x50000004
     3ac:	43004745 	movwmi	r4, #1861	; 0x745
     3b0:	4b575f4d 	blmi	15d80ec <_start-0x7ea27f14>
     3b4:	575f5055 			; <UNDEFINED> instruction: 0x575f5055
     3b8:	5f50554b 	svcpl	0x0050554b
     3bc:	435f334d 	cmpmi	pc, #872415233	; 0x34000001
     3c0:	54434b4c 	strbpl	r4, [r3], #-2892	; 0xb4c
     3c4:	43004c52 	movwmi	r4, #3154	; 0xc52
     3c8:	4c435f4d 	mcrrmi	15, 4, r5, r3, cr13
     3cc:	444f4d4b 	strbmi	r4, [pc], #-3403	; 3d4 <_start-0x7ffffc2c>
     3d0:	50445f45 	subpl	r5, r4, r5, asr #30
     3d4:	435f4c4c 	cmpmi	pc, #76, 24	; 0x4c00
     3d8:	0045524f 	subeq	r5, r5, pc, asr #4
     3dc:	535f4d43 	cmppl	pc, #4288	; 0x10c0
     3e0:	6c437465 	cfstrdvs	mvd7, [r3], {101}	; 0x65
     3e4:	4d43006b 	stclmi	0, cr0, [r3, #-428]	; 0xfffffe54
     3e8:	5245505f 	subpl	r5, r5, #95	; 0x5f
     3ec:	4d49545f 	cfstrdmi	mvd5, [r9, #-380]	; 0xfffffe84
     3f0:	5f345245 	svcpl	0x00345245
     3f4:	434b4c43 	movtmi	r4, #48195	; 0xbc43
     3f8:	004c5254 	subeq	r5, ip, r4, asr r2
     3fc:	575f4d43 	ldrbpl	r4, [pc, -r3, asr #26]
     400:	5f50554b 	svcpl	0x0050554b
     404:	544e4f43 	strbpl	r4, [lr], #-3907	; 0xf43
     408:	5f4c4f52 	svcpl	0x004c4f52
     40c:	434b4c43 	movtmi	r4, #48195	; 0xbc43
     410:	004c5254 	subeq	r5, ip, r4, asr r2
     414:	575f4d43 	ldrbpl	r4, [pc, -r3, asr #26]
     418:	5f50554b 	svcpl	0x0050554b
     41c:	31544457 	cmpcc	r4, r7, asr r4
     420:	4b4c435f 	blmi	13111a4 <_start-0x7eceee5c>
     424:	4c525443 	cfldrdmi	mvd5, [r2], {67}	; 0x43
     428:	5f4d4300 	svcpl	0x004d4300
     42c:	5f524550 	svcpl	0x00524550
     430:	454d4954 	strbmi	r4, [sp, #-2388]	; 0x954
     434:	435f3552 	cmpmi	pc, #343932928	; 0x14800000
     438:	54434b4c 	strbpl	r4, [r3], #-2892	; 0xb4c
     43c:	43004c52 	movwmi	r4, #3154	; 0xc52
     440:	45505f4d 	ldrbmi	r5, [r0, #-3917]	; 0xf4d
     444:	50535f52 	subspl	r5, r3, r2, asr pc
     448:	435f3149 	cmpmi	pc, #1073741842	; 0x40000012
     44c:	54434b4c 	strbpl	r4, [r3], #-2892	; 0xb4c
     450:	43004c52 	movwmi	r4, #3154	; 0xc52
     454:	45505f4d 	ldrbmi	r5, [r0, #-3917]	; 0xf4d
     458:	334c5f52 	movtcc	r5, #53074	; 0xcf52
     45c:	4b4c435f 	blmi	13111e0 <_start-0x7eceee20>
     460:	4c525443 	cfldrdmi	mvd5, [r2], {67}	; 0x43
     464:	5f4d4300 	svcpl	0x004d4300
     468:	5f524550 	svcpl	0x00524550
     46c:	4e414344 	cdpmi	3, 4, cr4, cr1, cr4, {2}
     470:	4c435f31 	mcrrmi	15, 3, r5, r3, cr1
     474:	5254434b 	subspl	r4, r4, #738197505	; 0x2c000001
     478:	4d43004c 	stclmi	0, cr0, [r3, #-304]	; 0xfffffed0
     47c:	5245505f 	subpl	r5, r5, #95	; 0x5f
     480:	5750455f 			; <UNDEFINED> instruction: 0x5750455f
     484:	3053534d 	subscc	r5, r3, sp, asr #6
     488:	4b4c435f 	blmi	131120c <_start-0x7eceedf4>
     48c:	4c525443 	cfldrdmi	mvd5, [r2], {67}	; 0x43
     490:	5f4d4300 	svcpl	0x004d4300
     494:	5f524550 	svcpl	0x00524550
     498:	5f555250 	svcpl	0x00555250
     49c:	53534349 	cmppl	r3, #603979777	; 0x24000001
     4a0:	4b4c435f 	blmi	1311224 <_start-0x7eceeddc>
     4a4:	4c525443 	cfldrdmi	mvd5, [r2], {67}	; 0x43
     4a8:	5f4d4300 	svcpl	0x004d4300
     4ac:	50554b57 	subspl	r4, r5, r7, asr fp
     4b0:	4950475f 	ldmdbmi	r0, {r0, r1, r2, r3, r4, r6, r8, r9, sl, lr}^
     4b4:	435f304f 	cmpmi	pc, #79	; 0x4f
     4b8:	54434b4c 	strbpl	r4, [r3], #-2892	; 0xb4c
     4bc:	43004c52 	movwmi	r4, #3154	; 0xc52
     4c0:	45505f4d 	ldrbmi	r5, [r0, #-3917]	; 0xf4d
     4c4:	50435f52 	subpl	r5, r3, r2, asr pc
     4c8:	43414d47 	movtmi	r4, #7495	; 0x1d47
     4cc:	4c435f30 	mcrrmi	15, 3, r5, r3, cr0
     4d0:	5254434b 	subspl	r4, r4, #738197505	; 0x2c000001
     4d4:	4d43004c 	stclmi	0, cr0, [r3, #-304]	; 0xfffffed0
     4d8:	4353535f 	cmpmi	r3, #2080374785	; 0x7c000001
     4dc:	4c45445f 	cfstrdmi	mvd4, [r5], {95}	; 0x5f
     4e0:	534d4154 	movtpl	r4, #53588	; 0xd154
     4e4:	5f504554 	svcpl	0x00504554
     4e8:	4c4c5044 	mcrrmi	0, 4, r5, ip, cr4
     4ec:	524f435f 	subpl	r4, pc, #2080374785	; 0x7c000001
     4f0:	4d430045 	stclmi	0, cr0, [r3, #-276]	; 0xfffffeec
     4f4:	5245505f 	subpl	r5, r5, #95	; 0x5f
     4f8:	4d49545f 	cfstrdmi	mvd5, [r9, #-380]	; 0xfffffe84
     4fc:	5f375245 	svcpl	0x00375245
     500:	434b4c43 	movtmi	r4, #48195	; 0xbc43
     504:	004c5254 	subeq	r5, ip, r4, asr r2
     508:	535f4d43 	cmppl	pc, #4288	; 0x10c0
     50c:	445f4353 	ldrbmi	r4, [pc], #-851	; 514 <_start-0x7ffffaec>
     510:	41544c45 	cmpmi	r4, r5, asr #24
     514:	4554534d 	ldrbmi	r5, [r4, #-845]	; 0x34d
     518:	50445f50 	subpl	r5, r4, r0, asr pc
     51c:	4d5f4c4c 	ldclmi	12, cr4, [pc, #-304]	; 3f4 <_start-0x7ffffc0c>
     520:	43005550 	movwmi	r5, #1360	; 0x550
     524:	45505f4d 	ldrbmi	r5, [r0, #-3917]	; 0xf4d
     528:	434f5f52 	movtmi	r5, #65362	; 0xff52
     52c:	5f505750 	svcpl	0x00505750
     530:	434b4c43 	movtmi	r4, #48195	; 0xbc43
     534:	004c5254 	subeq	r5, ip, r4, asr r2
     538:	505f4d43 	subspl	r4, pc, r3, asr #26
     53c:	545f5245 	ldrbpl	r5, [pc], #-581	; 544 <_start-0x7ffffabc>
     540:	52454d49 	subpl	r4, r5, #4672	; 0x1240
     544:	4c435f36 	mcrrmi	15, 3, r5, r3, cr6
     548:	5254434b 	subspl	r4, r4, #738197505	; 0x2c000001
     54c:	4d43004c 	stclmi	0, cr0, [r3, #-304]	; 0xfffffed0
     550:	554b575f 	strbpl	r5, [fp, #-1887]	; 0x75f
     554:	4d535f50 	ldclmi	15, cr5, [r3, #-320]	; 0xfffffec0
     558:	52545241 	subspl	r5, r4, #268435460	; 0x10000004
     55c:	454c4645 	strbmi	r4, [ip, #-1605]	; 0x645
     560:	435f3058 	cmpmi	pc, #88	; 0x58
     564:	54434b4c 	strbpl	r4, [r3], #-2892	; 0xb4c
     568:	43004c52 	movwmi	r4, #3154	; 0xc52
     56c:	45505f4d 	ldrbmi	r5, [r0, #-3917]	; 0xf4d
     570:	50455f52 	subpl	r5, r5, r2, asr pc
     574:	53534d57 	cmppl	r3, #5568	; 0x15c0
     578:	4c435f32 	mcrrmi	15, 3, r5, r3, cr2
     57c:	5254434b 	subspl	r4, r4, #738197505	; 0x2c000001
     580:	4d43004c 	stclmi	0, cr0, [r3, #-304]	; 0xfffffed0
     584:	554b575f 	strbpl	r5, [fp, #-1887]	; 0x75f
     588:	41555f50 	cmpmi	r5, r0, asr pc
     58c:	5f305452 	svcpl	0x00305452
     590:	434b4c43 	movtmi	r4, #48195	; 0xbc43
     594:	004c5254 	subeq	r5, ip, r4, asr r2
     598:	435f4d43 	cmpmi	pc, #4288	; 0x10c0
     59c:	45534b4c 	ldrbmi	r4, [r3, #-2892]	; 0xb4c
     5a0:	50445f4c 	subpl	r5, r4, ip, asr #30
     5a4:	505f4c4c 	subspl	r4, pc, ip, asr #24
     5a8:	50495245 	subpl	r5, r9, r5, asr #4
     5ac:	4d430048 	stclmi	0, cr0, [r3, #-288]	; 0xfffffee0
     5b0:	5245505f 	subpl	r5, r5, #95	; 0x5f
     5b4:	4c344c5f 	ldcmi	12, cr4, [r4], #-380	; 0xfffffe84
     5b8:	4c435f53 	mcrrmi	15, 5, r5, r3, cr3
     5bc:	5254434b 	subspl	r4, r4, #738197505	; 0x2c000001
     5c0:	4d43004c 	stclmi	0, cr0, [r3, #-304]	; 0xfffffed0
     5c4:	5245505f 	subpl	r5, r5, #95	; 0x5f
     5c8:	53334c5f 	teqpl	r3, #24320	; 0x5f00
     5cc:	4b4c435f 	blmi	1311350 <_start-0x7eceecb0>
     5d0:	54435453 	strbpl	r5, [r3], #-1107	; 0x453
     5d4:	43004c52 	movwmi	r4, #3154	; 0xc52
     5d8:	4c435f4d 	mcrrmi	15, 4, r5, r3, cr13
     5dc:	444f4d4b 	strbmi	r4, [pc], #-3403	; 5e4 <_start-0x7ffffa1c>
     5e0:	50445f45 	subpl	r5, r4, r5, asr #30
     5e4:	445f4c4c 	ldrbmi	r4, [pc], #-3148	; 5ec <_start-0x7ffffa14>
     5e8:	43005244 	movwmi	r5, #580	; 0x244
     5ec:	4b575f4d 	blmi	15d8328 <_start-0x7ea27cd8>
     5f0:	535f5055 	cmppl	pc, #85	; 0x55
     5f4:	5452414d 	ldrbpl	r4, [r2], #-333	; 0x14d
     5f8:	4c464552 	cfstr64mi	mvdx4, [r6], {82}	; 0x52
     5fc:	5f315845 	svcpl	0x00315845
     600:	434b4c43 	movtmi	r4, #48195	; 0xbc43
     604:	004c5254 	subeq	r5, ip, r4, asr r2
     608:	435f4d43 	cmpmi	pc, #4288	; 0x10c0
     60c:	45534b4c 	ldrbmi	r4, [r3, #-2892]	; 0xb4c
     610:	50445f4c 	subpl	r5, r4, ip, asr #30
     614:	445f4c4c 	ldrbmi	r4, [pc], #-3148	; 61c <_start-0x7ffff9e4>
     618:	00505349 	subseq	r5, r0, r9, asr #6
     61c:	505f4d43 	subspl	r4, pc, r3, asr #26
     620:	43005245 	movwmi	r5, #581	; 0x245
     624:	45505f4d 	ldrbmi	r5, [r0, #-3917]	; 0xf4d
     628:	4c435f52 	mcrrmi	15, 5, r5, r3, cr2
     62c:	34325f4b 	ldrtcc	r5, [r2], #-3915	; 0xf4b
     630:	5f5a484d 	svcpl	0x005a484d
     634:	534b4c43 	movtpl	r4, #48195	; 0xbc43
     638:	52544354 	subspl	r4, r4, #84, 6	; 0x50000001
     63c:	4d43004c 	stclmi	0, cr0, [r3, #-304]	; 0xfffffed0
     640:	5245505f 	subpl	r5, r5, #95	; 0x5f
     644:	4253555f 	subsmi	r5, r3, #398458880	; 0x17c00000
     648:	4c435f30 	mcrrmi	15, 3, r5, r3, cr0
     64c:	5254434b 	subspl	r4, r4, #738197505	; 0x2c000001
     650:	4d43004c 	stclmi	0, cr0, [r3, #-304]	; 0xfffffed0
     654:	5245505f 	subpl	r5, r5, #95	; 0x5f
     658:	49414d5f 	stmdbmi	r1, {r0, r1, r2, r3, r4, r6, r8, sl, fp, lr}^
     65c:	584f424c 	stmdapl	pc, {r2, r3, r6, r9, lr}^	; <UNPREDICTABLE>
     660:	4c435f30 	mcrrmi	15, 3, r5, r3, cr0
     664:	5254434b 	subspl	r4, r4, #738197505	; 0x2c000001
     668:	4d43004c 	stclmi	0, cr0, [r3, #-304]	; 0xfffffed0
     66c:	4645435f 			; <UNDEFINED> instruction: 0x4645435f
     670:	00455355 	subeq	r5, r5, r5, asr r3
     674:	475f4d43 	ldrbmi	r4, [pc, -r3, asr #26]
     678:	6c437465 	cfstrdvs	mvd7, [r3], {101}	; 0x65
     67c:	4d43006b 	stclmi	0, cr0, [r3, #-428]	; 0xfffffe54
     680:	5649445f 			; <UNDEFINED> instruction: 0x5649445f
     684:	5f364d5f 	svcpl	0x00364d5f
     688:	4c4c5044 	mcrrmi	0, 4, r5, ip, cr4
     68c:	524f435f 	subpl	r4, pc, #2080374785	; 0x7c000001
     690:	4d430045 	stclmi	0, cr0, [r3, #-276]	; 0xfffffeec
     694:	554b575f 	strbpl	r5, [fp, #-1887]	; 0x75f
     698:	4d430050 	stclmi	0, cr0, [r3, #-320]	; 0xfffffec0
     69c:	4c44495f 	mcrrmi	9, 5, r4, r4, cr15
     6a0:	5f545345 	svcpl	0x00545345
     6a4:	4c4c5044 	mcrrmi	0, 4, r5, ip, cr4
     6a8:	524f435f 	subpl	r4, pc, #2080374785	; 0x7c000001
     6ac:	4d430045 	stclmi	0, cr0, [r3, #-276]	; 0xfffffeec
     6b0:	4c44495f 	mcrrmi	9, 5, r4, r4, cr15
     6b4:	5f545345 	svcpl	0x00545345
     6b8:	4c4c5044 	mcrrmi	0, 4, r5, ip, cr4
     6bc:	5245505f 	subpl	r5, r5, #95	; 0x5f
     6c0:	5f4d4300 	svcpl	0x004d4300
     6c4:	4d4b4c43 	stclmi	12, cr4, [fp, #-268]	; 0xfffffef4
     6c8:	5f45444f 	svcpl	0x0045444f
     6cc:	4c4c5044 	mcrrmi	0, 4, r5, ip, cr4
     6d0:	5245505f 	subpl	r5, r5, #95	; 0x5f
     6d4:	5f4d4300 	svcpl	0x004d4300
     6d8:	5f524550 	svcpl	0x00524550
     6dc:	4f495047 	svcmi	0x00495047
     6e0:	4c435f31 	mcrrmi	15, 3, r5, r3, cr1
     6e4:	5254434b 	subspl	r4, r4, #738197505	; 0x2c000001
     6e8:	4d43004c 	stclmi	0, cr0, [r3, #-304]	; 0xfffffed0
     6ec:	4b4c435f 	blmi	1311470 <_start-0x7eceeb90>
     6f0:	4c4f4344 	mcrrmi	3, 4, r4, pc, cr4
     6f4:	445f4f44 	ldrbmi	r4, [pc], #-3908	; 6fc <_start-0x7ffff904>
     6f8:	5f4c4c50 	svcpl	0x004c4c50
     6fc:	00524550 	subseq	r4, r2, r0, asr r5
     700:	505f4d43 	subspl	r4, pc, r3, asr #26
     704:	475f5245 	ldrbmi	r5, [pc, -r5, asr #4]
     708:	324f4950 	subcc	r4, pc, #80, 18	; 0x140000
     70c:	4b4c435f 	blmi	1311490 <_start-0x7eceeb70>
     710:	4c525443 	cfldrdmi	mvd5, [r2], {67}	; 0x43
     714:	5f4d4300 	svcpl	0x004d4300
     718:	5f524550 	svcpl	0x00524550
     71c:	46494d45 	strbmi	r4, [r9], -r5, asr #26
     720:	4b4c435f 	blmi	13114a4 <_start-0x7eceeb5c>
     724:	4c525443 	cfldrdmi	mvd5, [r2], {67}	; 0x43
     728:	5f4d4300 	svcpl	0x004d4300
     72c:	5f524550 	svcpl	0x00524550
     730:	5f4d4c45 	svcpl	0x004d4c45
     734:	434b4c43 	movtmi	r4, #48195	; 0xbc43
     738:	004c5254 	subeq	r5, ip, r4, asr r2
     73c:	435f4d43 	cmpmi	pc, #4288	; 0x10c0
     740:	4f4d4b4c 	svcmi	0x004d4b4c
     744:	445f4544 	ldrbmi	r4, [pc], #-1348	; 74c <_start-0x7ffff8b4>
     748:	5f4c4c50 	svcpl	0x004c4c50
     74c:	0055504d 	subseq	r5, r5, sp, asr #32
     750:	445f4d43 	ldrbmi	r4, [pc], #-3395	; 758 <_start-0x7ffff8a8>
     754:	004c4c50 	subeq	r4, ip, r0, asr ip
     758:	505f4d43 	subspl	r4, pc, r3, asr #26
     75c:	475f5245 	ldrbmi	r5, [pc, -r5, asr #4]
     760:	334f4950 	movtcc	r4, #63824	; 0xf950
     764:	4b4c435f 	blmi	13114e8 <_start-0x7eceeb18>
     768:	4c525443 	cfldrdmi	mvd5, [r2], {67}	; 0x43
     76c:	5f4d4300 	svcpl	0x004d4300
     770:	5f524550 	svcpl	0x00524550
     774:	534c344c 	movtpl	r3, #50252	; 0xc44c
     778:	4b4c435f 	blmi	13114fc <_start-0x7eceeb04>
     77c:	54435453 	strbpl	r5, [r3], #-1107	; 0x453
     780:	43004c52 	movwmi	r4, #3154	; 0xc52
     784:	45505f4d 	ldrbmi	r5, [r0, #-3917]	; 0xf4d
     788:	50545f52 	subspl	r5, r4, r2, asr pc
     78c:	5f314354 	svcpl	0x00314354
     790:	434b4c43 	movtmi	r4, #48195	; 0xbc43
     794:	004c5254 	subeq	r5, ip, r4, asr r2
     798:	415f4d43 	cmpmi	pc, r3, asr #26
     79c:	494f5455 	stmdbmi	pc, {r0, r2, r4, r6, sl, ip, lr}^	; <UNPREDICTABLE>
     7a0:	5f454c44 	svcpl	0x00454c44
     7a4:	4c4c5044 	mcrrmi	0, 4, r5, ip, cr4
     7a8:	5244445f 	subpl	r4, r4, #1593835520	; 0x5f000000
     7ac:	5f4d4300 	svcpl	0x004d4300
     7b0:	415f334c 	cmpmi	pc, ip, asr #6
     7b4:	435f4e4f 	cmpmi	pc, #1264	; 0x4f0
     7b8:	54534b4c 	ldrbpl	r4, [r3], #-2892	; 0xb4c
     7bc:	4c525443 	cfldrdmi	mvd5, [r2], {67}	; 0x43
     7c0:	5f4d4300 	svcpl	0x004d4300
     7c4:	534b4c43 	movtpl	r4, #48195	; 0xbc43
     7c8:	445f4c45 	ldrbmi	r4, [pc], #-3141	; 7d0 <_start-0x7ffff830>
     7cc:	5f4c4c50 	svcpl	0x004c4c50
     7d0:	00524444 	subseq	r4, r2, r4, asr #8
     7d4:	535f4d43 	cmppl	pc, #4288	; 0x10c0
     7d8:	4d5f4353 	ldclmi	3, cr4, [pc, #-332]	; 694 <_start-0x7ffff96c>
     7dc:	5246444f 	subpl	r4, r6, #1325400064	; 0x4f000000
     7e0:	49445145 	stmdbmi	r4, {r0, r2, r6, r8, ip, lr}^
     7e4:	50445f56 	subpl	r5, r4, r6, asr pc
     7e8:	435f4c4c 	cmpmi	pc, #76, 24	; 0x4c00
     7ec:	0045524f 	subeq	r5, r5, pc, asr #4
     7f0:	505f4d43 	subspl	r4, pc, r3, asr #26
     7f4:	545f5245 	ldrbpl	r5, [pc], #-581	; 7fc <_start-0x7ffff804>
     7f8:	32435450 	subcc	r5, r3, #80, 8	; 0x50000000
     7fc:	4b4c435f 	blmi	1311580 <_start-0x7eceea80>
     800:	4c525443 	cfldrdmi	mvd5, [r2], {67}	; 0x43
     804:	5f4d4300 	svcpl	0x004d4300
     808:	5f524550 	svcpl	0x00524550
     80c:	434d434f 	movtmi	r4, #54095	; 0xd34f
     810:	5f4d4152 	svcpl	0x004d4152
     814:	434b4c43 	movtmi	r4, #48195	; 0xbc43
     818:	004c5254 	subeq	r5, ip, r4, asr r2
     81c:	505f4d43 	subspl	r4, pc, r3, asr #26
     820:	4c5f5245 	lfmmi	f5, 2, [pc], {69}	; 0x45
     824:	5f434443 	svcpl	0x00434443
     828:	434b4c43 	movtmi	r4, #48195	; 0xbc43
     82c:	004c5254 	subeq	r5, ip, r4, asr r2
     830:	495f4d43 	ldmdbmi	pc, {r0, r1, r6, r8, sl, fp, lr}^	; <UNPREDICTABLE>
     834:	53454c44 	movtpl	r4, #23620	; 0x5c44
     838:	50445f54 	subpl	r5, r4, r4, asr pc
     83c:	4d5f4c4c 	ldclmi	12, cr4, [pc, #-304]	; 714 <_start-0x7ffff8ec>
     840:	43005550 	movwmi	r5, #1360	; 0x550
     844:	4c435f4d 	mcrrmi	15, 4, r5, r3, cr13
     848:	444f4d4b 	strbmi	r4, [pc], #-3403	; 850 <_start-0x7ffff7b0>
     84c:	50445f45 	subpl	r5, r4, r5, asr #30
     850:	445f4c4c 	ldrbmi	r4, [pc], #-3148	; 858 <_start-0x7ffff7a8>
     854:	00505349 	subseq	r5, r0, r9, asr #6
     858:	445f4d43 	ldrbmi	r4, [pc], #-3395	; 860 <_start-0x7ffff7a0>
     85c:	43495645 	movtmi	r5, #38469	; 0x9645
     860:	4d430045 	stclmi	0, cr0, [r3, #-276]	; 0xfffffeec
     864:	55504d5f 	ldrbpl	r4, [r0, #-3423]	; 0xd5f
     868:	5f4d4300 	svcpl	0x004d4300
     86c:	5f524550 	svcpl	0x00524550
     870:	57535043 	ldrbpl	r5, [r3, -r3, asr #32]
     874:	4b4c435f 	blmi	13115f8 <_start-0x7eceea08>
     878:	54435453 	strbpl	r5, [r3], #-1107	; 0x453
     87c:	43004c52 	movwmi	r4, #3154	; 0xc52
     880:	53535f4d 	cmppl	r3, #308	; 0x134
     884:	45445f43 	strbmi	r5, [r4, #-3907]	; 0xf43
     888:	4d41544c 	cfstrdmi	mvd5, [r1, #-304]	; 0xfffffed0
     88c:	50455453 	subpl	r5, r5, r3, asr r4
     890:	4c50445f 	cfldrdmi	mvd4, [r0], {95}	; 0x5f
     894:	44445f4c 	strbmi	r5, [r4], #-3916	; 0xf4c
     898:	4d430052 	stclmi	0, cr0, [r3, #-328]	; 0xfffffeb8
     89c:	554b575f 	strbpl	r5, [fp, #-1887]	; 0x75f
     8a0:	45445f50 	strbmi	r5, [r4, #-3920]	; 0xf50
     8a4:	53475542 	movtpl	r5, #30018	; 0x7542
     8a8:	4c435f53 	mcrrmi	15, 5, r5, r3, cr3
     8ac:	5254434b 	subspl	r4, r4, #738197505	; 0x2c000001
     8b0:	4d43004c 	stclmi	0, cr0, [r3, #-304]	; 0xfffffed0
     8b4:	4c44495f 	mcrrmi	9, 5, r4, r4, cr15
     8b8:	5f545345 	svcpl	0x00545345
     8bc:	4c4c5044 	mcrrmi	0, 4, r5, ip, cr4
     8c0:	5349445f 	movtpl	r4, #37983	; 0x945f
     8c4:	4d430050 	stclmi	0, cr0, [r3, #-320]	; 0xfffffec0
     8c8:	5846475f 	stmdapl	r6, {r0, r1, r2, r3, r4, r6, r8, r9, sl, lr}^
     8cc:	5f4d4300 	svcpl	0x004d4300
     8d0:	575f344c 	ldrbpl	r3, [pc, -ip, asr #8]
     8d4:	5f50554b 	svcpl	0x0050554b
     8d8:	5f4e4f41 	svcpl	0x004e4f41
     8dc:	534b4c43 	movtpl	r4, #48195	; 0xbc43
     8e0:	52544354 	subspl	r4, r4, #84, 6	; 0x50000001
     8e4:	4d43004c 	stclmi	0, cr0, [r3, #-304]	; 0xfffffed0
     8e8:	5245505f 	subpl	r5, r5, #95	; 0x5f
     8ec:	4350545f 	cmpmi	r0, #1593835520	; 0x5f000000
     8f0:	4c435f43 	mcrrmi	15, 4, r5, r3, cr3
     8f4:	5254434b 	subspl	r4, r4, #738197505	; 0x2c000001
     8f8:	4d43004c 	stclmi	0, cr0, [r3, #-304]	; 0xfffffed0
     8fc:	5649445f 			; <UNDEFINED> instruction: 0x5649445f
     900:	5f324d5f 	svcpl	0x00324d5f
     904:	4c4c5044 	mcrrmi	0, 4, r5, ip, cr4
     908:	5349445f 	movtpl	r4, #37983	; 0x945f
     90c:	4d430050 	stclmi	0, cr0, [r3, #-320]	; 0xfffffec0
     910:	5245505f 	subpl	r5, r5, #95	; 0x5f
     914:	48344c5f 	ldmdami	r4!, {r0, r1, r2, r3, r4, r6, sl, fp, lr}
     918:	4c435f53 	mcrrmi	15, 5, r5, r3, cr3
     91c:	5254434b 	subspl	r4, r4, #738197505	; 0x2c000001
     920:	4d43004c 	stclmi	0, cr0, [r3, #-304]	; 0xfffffed0
     924:	5455415f 	ldrbpl	r4, [r5], #-351	; 0x15f
     928:	4c44494f 	mcrrmi	9, 4, r4, r4, cr15
     92c:	50445f45 	subpl	r5, r4, r5, asr #30
     930:	4d5f4c4c 	ldclmi	12, cr4, [pc, #-304]	; 808 <_start-0x7ffff7f8>
     934:	43005550 	movwmi	r5, #1360	; 0x550
     938:	45505f4d 	ldrbmi	r5, [r0, #-3917]	; 0xf4d
     93c:	4d455f52 	stclmi	15, cr5, [r5, #-328]	; 0xfffffeb8
     940:	465f4649 	ldrbmi	r4, [pc], -r9, asr #12
     944:	4c435f57 	mcrrmi	15, 5, r5, r3, cr7
     948:	5254434b 	subspl	r4, r4, #738197505	; 0x2c000001
     94c:	4d43004c 	stclmi	0, cr0, [r3, #-304]	; 0xfffffed0
     950:	4b4c435f 	blmi	13116d4 <_start-0x7ecee92c>
     954:	5f4c4553 	svcpl	0x004c4553
     958:	4c4c5044 	mcrrmi	0, 4, r5, ip, cr4
     95c:	55504d5f 	ldrbpl	r4, [r0, #-3423]	; 0xd5f
     960:	6f6c6300 	svcvs	0x006c6300
     964:	632e6b63 	teqvs	lr, #101376	; 0x18c00
     968:	5f4d4300 	svcpl	0x004d4300
     96c:	50554b57 	subspl	r4, r5, r7, asr fp
     970:	4b4c435f 	blmi	13116f4 <_start-0x7ecee90c>
     974:	54435453 	strbpl	r5, [r3], #-1107	; 0x453
     978:	43004c52 	movwmi	r4, #3154	; 0xc52
     97c:	49445f4d 	stmdbmi	r4, {r0, r2, r3, r6, r8, r9, sl, fp, ip, lr}^
     980:	324d5f56 	subcc	r5, sp, #344	; 0x158
     984:	4c50445f 	cfldrdmi	mvd4, [r0], {95}	; 0x5f
     988:	45505f4c 	ldrbmi	r5, [r0, #-3916]	; 0xf4c
     98c:	4d430052 	stclmi	0, cr0, [r3, #-328]	; 0xfffffeb8
     990:	554b575f 	strbpl	r5, [fp, #-1887]	; 0x75f
     994:	49545f50 	ldmdbmi	r4, {r4, r6, r8, r9, sl, fp, ip, lr}^
     998:	3052454d 	subscc	r4, r2, sp, asr #10
     99c:	4b4c435f 	blmi	1311720 <_start-0x7ecee8e0>
     9a0:	4c525443 	cfldrdmi	mvd5, [r2], {67}	; 0x43
     9a4:	5f4d4300 	svcpl	0x004d4300
     9a8:	5f524550 	svcpl	0x00524550
     9ac:	434d5047 	movtmi	r5, #53319	; 0xd047
     9b0:	4b4c435f 	blmi	1311734 <_start-0x7ecee8cc>
     9b4:	4c525443 	cfldrdmi	mvd5, [r2], {67}	; 0x43
     9b8:	5f4d4300 	svcpl	0x004d4300
     9bc:	5f524550 	svcpl	0x00524550
     9c0:	5750434f 	ldrbpl	r4, [r0, -pc, asr #6]
     9c4:	334c5f50 	movtcc	r5, #53072	; 0xcf50
     9c8:	4b4c435f 	blmi	131174c <_start-0x7ecee8b4>
     9cc:	54435453 	strbpl	r5, [r3], #-1107	; 0x453
     9d0:	43004c52 	movwmi	r4, #3154	; 0xc52
     9d4:	4b575f4d 	blmi	15d8710 <_start-0x7ea278f0>
     9d8:	545f5055 	ldrbpl	r5, [pc], #-85	; 9e0 <_start-0x7ffff620>
     9dc:	52454d49 	subpl	r4, r5, #4672	; 0x1240
     9e0:	4c435f31 	mcrrmi	15, 3, r5, r3, cr1
     9e4:	5254434b 	subspl	r4, r4, #738197505	; 0x2c000001
     9e8:	4d43004c 	stclmi	0, cr0, [r3, #-304]	; 0xfffffed0
     9ec:	5245505f 	subpl	r5, r5, #95	; 0x5f
     9f0:	44434c5f 	strbmi	r4, [r3], #-3167	; 0xc5f
     9f4:	4c435f43 	mcrrmi	15, 4, r5, r3, cr3
     9f8:	4354534b 	cmpmi	r4, #738197505	; 0x2c000001
     9fc:	004c5254 	subeq	r5, ip, r4, asr r2
     a00:	505f4d43 	subspl	r4, pc, r3, asr #26
     a04:	505f5245 	subspl	r5, pc, r5, asr #4
     a08:	495f5552 	ldmdbmi	pc, {r1, r4, r6, r8, sl, ip, lr}^	; <UNPREDICTABLE>
     a0c:	5f535343 	svcpl	0x00535343
     a10:	534b4c43 	movtpl	r4, #48195	; 0xbc43
     a14:	52544354 	subspl	r4, r4, #84, 6	; 0x50000001
     a18:	4d43004c 	stclmi	0, cr0, [r3, #-304]	; 0xfffffed0
     a1c:	5245505f 	subpl	r5, r5, #95	; 0x5f
     a20:	5241555f 	subpl	r5, r1, #398458880	; 0x17c00000
     a24:	435f3154 	cmpmi	pc, #84, 2
     a28:	54434b4c 	strbpl	r4, [r3], #-2892	; 0xb4c
     a2c:	43004c52 	movwmi	r4, #3154	; 0xc52
     a30:	55415f4d 	strbpl	r5, [r1, #-3917]	; 0xf4d
     a34:	44494f54 	strbmi	r4, [r9], #-3924	; 0xf54
     a38:	445f454c 	ldrbmi	r4, [pc], #-1356	; a40 <_start-0x7ffff5c0>
     a3c:	5f4c4c50 	svcpl	0x004c4c50
     a40:	50534944 	subspl	r4, r3, r4, asr #18
     a44:	5f4d4300 	svcpl	0x004d4300
     a48:	5f435353 	svcpl	0x00435353
     a4c:	46444f4d 	strbmi	r4, [r4], -sp, asr #30
     a50:	44514552 	ldrbmi	r4, [r1], #-1362	; 0x552
     a54:	445f5649 	ldrbmi	r5, [pc], #-1609	; a5c <_start-0x7ffff5a4>
     a58:	5f4c4c50 	svcpl	0x004c4c50
     a5c:	00524550 	subseq	r4, r2, r0, asr r5
     a60:	575f4d43 	ldrbpl	r4, [pc, -r3, asr #26]
     a64:	5f50554b 	svcpl	0x0050554b
     a68:	5f434441 	svcpl	0x00434441
     a6c:	5f435354 	svcpl	0x00435354
     a70:	434b4c43 	movtmi	r4, #48195	; 0xbc43
     a74:	004c5254 	subeq	r5, ip, r4, asr r2
     a78:	535f4d43 	cmppl	pc, #4288	; 0x10c0
     a7c:	4d5f4353 	ldclmi	3, cr4, [pc, #-332]	; 938 <_start-0x7ffff6c8>
     a80:	5246444f 	subpl	r4, r6, #1325400064	; 0x4f000000
     a84:	49445145 	stmdbmi	r4, {r0, r2, r6, r8, ip, lr}^
     a88:	50445f56 	subpl	r5, r4, r6, asr pc
     a8c:	445f4c4c 	ldrbmi	r4, [pc], #-3148	; a94 <_start-0x7ffff56c>
     a90:	00505349 	subseq	r5, r0, r9, asr #6
     a94:	505f4d43 	subspl	r4, pc, r3, asr #26
     a98:	455f5245 	ldrbmi	r5, [pc, #-581]	; 85b <_start-0x7ffff7a5>
     a9c:	534d5750 	movtpl	r5, #55120	; 0xd750
     aa0:	435f3153 	cmpmi	pc, #-1073741804	; 0xc0000014
     aa4:	54434b4c 	strbpl	r4, [r3], #-2892	; 0xb4c
     aa8:	43004c52 	movwmi	r4, #3154	; 0xc52
     aac:	45505f4d 	ldrbmi	r5, [r0, #-3917]	; 0xf4d
     ab0:	334c5f52 	movtcc	r5, #53074	; 0xcf52
     ab4:	534e495f 	movtpl	r4, #59743	; 0xe95f
     ab8:	435f5254 	cmpmi	pc, #84, 4	; 0x40000005
     abc:	54434b4c 	strbpl	r4, [r3], #-2892	; 0xb4c
     ac0:	43004c52 	movwmi	r4, #3154	; 0xc52
     ac4:	45505f4d 	ldrbmi	r5, [r0, #-3917]	; 0xf4d
     ac8:	41555f52 	cmpmi	r5, r2, asr pc
     acc:	5f325452 	svcpl	0x00325452
     ad0:	434b4c43 	movtmi	r4, #48195	; 0xbc43
     ad4:	004c5254 	subeq	r5, ip, r4, asr r2
     ad8:	575f4d43 	ldrbpl	r4, [pc, -r3, asr #26]
     adc:	5f50554b 	svcpl	0x0050554b
     ae0:	4b57344c 	blmi	15cdc18 <_start-0x7ea323e8>
     ae4:	435f5055 	cmpmi	pc, #85	; 0x55
     ae8:	54434b4c 	strbpl	r4, [r3], #-2892	; 0xb4c
     aec:	43004c52 	movwmi	r4, #3154	; 0xc52
     af0:	4d5f4b4c 	vldrmi	d20, [pc, #-304]	; 9c8 <_start-0x7ffff638>
     af4:	4c55444f 	cfldrdmi	mvd4, [r5], {79}	; 0x4f
     af8:	00745f45 	rsbseq	r5, r4, r5, asr #30
     afc:	575f4d43 	ldrbpl	r4, [pc, -r3, asr #26]
     b00:	5f50554b 	svcpl	0x0050554b
     b04:	30433249 	subcc	r3, r3, r9, asr #4
     b08:	4b4c435f 	blmi	131188c <_start-0x7ecee774>
     b0c:	4c525443 	cfldrdmi	mvd5, [r2], {67}	; 0x43
     b10:	5f4d4300 	svcpl	0x004d4300
     b14:	5f564944 	svcpl	0x00564944
     b18:	445f324d 	ldrbmi	r3, [pc], #-589	; b20 <_start-0x7ffff4e0>
     b1c:	5f4c4c50 	svcpl	0x004c4c50
     b20:	00524444 	subseq	r4, r2, r4, asr #8
     b24:	635f4d43 	cmpvs	pc, #4288	; 0x10c0
     b28:	5f666e6f 	svcpl	0x00666e6f
     b2c:	636d7067 	cmnvs	sp, #103	; 0x67
     b30:	0030615f 	eorseq	r6, r0, pc, asr r1
     b34:	635f4d43 	cmpvs	pc, #4288	; 0x10c0
     b38:	5f666e6f 	svcpl	0x00666e6f
     b3c:	636d7067 	cmnvs	sp, #103	; 0x67
     b40:	0031615f 	eorseq	r6, r1, pc, asr r1
     b44:	635f4d43 	cmpvs	pc, #4288	; 0x10c0
     b48:	5f666e6f 	svcpl	0x00666e6f
     b4c:	636d7067 	cmnvs	sp, #103	; 0x67
     b50:	0032615f 	eorseq	r6, r2, pc, asr r1
     b54:	635f4d43 	cmpvs	pc, #4288	; 0x10c0
     b58:	5f666e6f 	svcpl	0x00666e6f
     b5c:	636d7067 	cmnvs	sp, #103	; 0x67
     b60:	0033615f 	eorseq	r6, r3, pc, asr r1
     b64:	635f4d43 	cmpvs	pc, #4288	; 0x10c0
     b68:	5f666e6f 	svcpl	0x00666e6f
     b6c:	636d7067 	cmnvs	sp, #103	; 0x67
     b70:	0034615f 	eorseq	r6, r4, pc, asr r1
     b74:	635f4d43 	cmpvs	pc, #4288	; 0x10c0
     b78:	5f666e6f 	svcpl	0x00666e6f
     b7c:	636d7067 	cmnvs	sp, #103	; 0x67
     b80:	0035615f 	eorseq	r6, r5, pc, asr r1
     b84:	635f4d43 	cmpvs	pc, #4288	; 0x10c0
     b88:	5f666e6f 	svcpl	0x00666e6f
     b8c:	636d7067 	cmnvs	sp, #103	; 0x67
     b90:	0036615f 	eorseq	r6, r6, pc, asr r1
     b94:	635f4d43 	cmpvs	pc, #4288	; 0x10c0
     b98:	5f666e6f 	svcpl	0x00666e6f
     b9c:	636d7067 	cmnvs	sp, #103	; 0x67
     ba0:	0037615f 	eorseq	r6, r7, pc, asr r1
     ba4:	635f4d43 	cmpvs	pc, #4288	; 0x10c0
     ba8:	5f666e6f 	svcpl	0x00666e6f
     bac:	636d7067 	cmnvs	sp, #103	; 0x67
     bb0:	0039615f 	eorseq	r6, r9, pc, asr r1
     bb4:	746e6f63 	strbtvc	r6, [lr], #-3939	; 0xf63
     bb8:	5f6c6f72 	svcpl	0x006c6f72
     bbc:	75646f6d 	strbvc	r6, [r4, #-3949]!	; 0xf6d
     bc0:	632e656c 	teqvs	lr, #108, 10	; 0x1b000000
     bc4:	5f4d4300 	svcpl	0x004d4300
     bc8:	666e6f63 	strbtvs	r6, [lr], -r3, ror #30
     bcc:	69696d5f 	stmdbvs	r9!, {r0, r1, r2, r3, r4, r6, r8, sl, fp, sp, lr}^
     bd0:	72635f31 	rsbvc	r5, r3, #49, 30	; 0xc4
     bd4:	4d430073 	stclmi	0, cr0, [r3, #-460]	; 0xfffffe34
     bd8:	6e6f635f 	mcrvs	3, 3, r6, cr15, cr15, {2}
     bdc:	70745f66 	rsbsvc	r5, r4, r6, ror #30
     be0:	655f6363 	ldrbvs	r6, [pc, #-867]	; 885 <_start-0x7ffff77b>
     be4:	6d5f7476 	cfldrdvs	mvd7, [pc, #-472]	; a14 <_start-0x7ffff5ec>
     be8:	325f7875 	subscc	r7, pc, #7667712	; 0x750000
     bec:	33325f30 	teqcc	r2, #48, 30	; 0xc0
     bf0:	5f4d4300 	svcpl	0x004d4300
     bf4:	736d7770 	cmnvc	sp, #112, 14	; 0x1c00000
     bf8:	74635f73 	strbtvc	r5, [r3], #-3955	; 0xf73
     bfc:	43006c72 	movwmi	r6, #3186	; 0xc72
     c00:	65735f4d 	ldrbvs	r5, [r3, #-3917]!	; 0xf4d
     c04:	72744374 	rsbsvc	r4, r4, #116, 6	; 0xd0000001
     c08:	646f4d6c 	strbtvs	r4, [pc], #-3436	; c10 <_start-0x7ffff3f0>
     c0c:	00656c75 	rsbeq	r6, r5, r5, ror ip
     c10:	655f4d43 	ldrbvs	r4, [pc, #-3395]	; fffffed5 <value+0x7fffe9d5>
     c14:	65737566 	ldrbvs	r7, [r3, #-1382]!	; 0x566
     c18:	616d735f 	cmnvs	sp, pc, asr r3
     c1c:	5f4d4300 	svcpl	0x004d4300
     c20:	666e6f63 	strbtvs	r6, [lr], -r3, ror #30
     c24:	6d70675f 	ldclvs	7, cr6, [r0, #-380]!	; 0xfffffe84
     c28:	73635f63 	cmnvc	r3, #396	; 0x18c
     c2c:	4300316e 	movwmi	r3, #366	; 0x16e
     c30:	6f635f4d 	svcvs	0x00635f4d
     c34:	675f666e 	ldrbvs	r6, [pc, -lr, ror #12]
     c38:	5f636d70 	svcpl	0x00636d70
     c3c:	326e7363 	rsbcc	r7, lr, #-1946157055	; 0x8c000001
     c40:	5f4d4300 	svcpl	0x004d4300
     c44:	666e6f63 	strbtvs	r6, [lr], -r3, ror #30
     c48:	6d70675f 	ldclvs	7, cr6, [r0, #-380]!	; 0xfffffe84
     c4c:	73635f63 	cmnvc	r3, #396	; 0x18c
     c50:	4300336e 	movwmi	r3, #878	; 0x36e
     c54:	6f635f4d 	svcvs	0x00635f4d
     c58:	675f666e 	ldrbvs	r6, [pc, -lr, ror #12]
     c5c:	5f636d70 	svcpl	0x00636d70
     c60:	74696177 	strbtvc	r6, [r9], #-375	; 0x177
     c64:	4d430030 	stclmi	0, cr0, [r3, #-192]	; 0xffffff40
     c68:	6e6f635f 	mcrvs	3, 3, r6, cr15, cr15, {2}
     c6c:	70675f66 	rsbvc	r5, r7, r6, ror #30
     c70:	615f636d 	cmpvs	pc, sp, ror #6
     c74:	43003064 	movwmi	r3, #100	; 0x64
     c78:	6f635f4d 	svcvs	0x00635f4d
     c7c:	675f666e 	ldrbvs	r6, [pc, -lr, ror #12]
     c80:	5f636d70 	svcpl	0x00636d70
     c84:	00316461 	eorseq	r6, r1, r1, ror #8
     c88:	635f4d43 	cmpvs	pc, #4288	; 0x10c0
     c8c:	5f666e6f 	svcpl	0x00666e6f
     c90:	636d7067 	cmnvs	sp, #103	; 0x67
     c94:	3264615f 	rsbcc	r6, r4, #-1073741801	; 0xc0000017
     c98:	5f4d4300 	svcpl	0x004d4300
     c9c:	666e6f63 	strbtvs	r6, [lr], -r3, ror #30
     ca0:	6d70675f 	ldclvs	7, cr6, [r0, #-380]!	; 0xfffffe84
     ca4:	64615f63 	strbtvs	r5, [r1], #-3939	; 0xf63
     ca8:	4d430033 	stclmi	0, cr0, [r3, #-204]	; 0xffffff34
     cac:	6e6f635f 	mcrvs	3, 3, r6, cr15, cr15, {2}
     cb0:	70675f66 	rsbvc	r5, r7, r6, ror #30
     cb4:	615f636d 	cmpvs	pc, sp, ror #6
     cb8:	43003464 	movwmi	r3, #1124	; 0x464
     cbc:	6f635f4d 	svcvs	0x00635f4d
     cc0:	675f666e 	ldrbvs	r6, [pc, -lr, ror #12]
     cc4:	5f636d70 	svcpl	0x00636d70
     cc8:	00356461 	eorseq	r6, r5, r1, ror #8
     ccc:	635f4d43 	cmpvs	pc, #4288	; 0x10c0
     cd0:	5f666e6f 	svcpl	0x00666e6f
     cd4:	636d7067 	cmnvs	sp, #103	; 0x67
     cd8:	3664615f 			; <UNDEFINED> instruction: 0x3664615f
     cdc:	5f4d4300 	svcpl	0x004d4300
     ce0:	666e6f63 	strbtvs	r6, [lr], -r3, ror #30
     ce4:	6d70675f 	ldclvs	7, cr6, [r0, #-380]!	; 0xfffffe84
     ce8:	64615f63 	strbtvs	r5, [r1], #-3939	; 0xf63
     cec:	4d430037 	stclmi	0, cr0, [r3, #-220]	; 0xffffff24
     cf0:	6e6f635f 	mcrvs	3, 3, r6, cr15, cr15, {2}
     cf4:	70675f66 	rsbvc	r5, r7, r6, ror #30
     cf8:	615f636d 	cmpvs	pc, sp, ror #6
     cfc:	43003864 	movwmi	r3, #2148	; 0x864
     d00:	6f635f4d 	svcvs	0x00635f4d
     d04:	675f666e 	ldrbvs	r6, [pc, -lr, ror #12]
     d08:	5f636d70 	svcpl	0x00636d70
     d0c:	00396461 	eorseq	r6, r9, r1, ror #8
     d10:	635f4d43 	cmpvs	pc, #4288	; 0x10c0
     d14:	5f666e6f 	svcpl	0x00666e6f
     d18:	63637074 	cmnvs	r3, #116	; 0x74
     d1c:	7476655f 	ldrbtvc	r6, [r6], #-1375	; 0x55f
     d20:	78756d5f 	ldmdavc	r5!, {r0, r1, r2, r3, r4, r6, r8, sl, fp, sp, lr}^
     d24:	335f305f 	cmpcc	pc, #95	; 0x5f
     d28:	5f4d4300 	svcpl	0x004d4300
     d2c:	666e6f63 	strbtvs	r6, [lr], -r3, ror #30
     d30:	6163655f 	cmnvs	r3, pc, asr r5
     d34:	695f3070 	ldmdbvs	pc, {r4, r5, r6, ip, sp}^	; <UNPREDICTABLE>
     d38:	77705f6e 	ldrbvc	r5, [r0, -lr, ror #30]!
     d3c:	6f5f306d 	svcvs	0x005f306d
     d40:	43007475 	movwmi	r7, #1141	; 0x475
     d44:	6f635f4d 	svcvs	0x00635f4d
     d48:	675f666e 	ldrbvs	r6, [pc, -lr, ror #12]
     d4c:	5f636d70 	svcpl	0x00636d70
     d50:	55003861 	strpl	r3, [r0, #-2145]	; 0x861
     d54:	30747261 	rsbscc	r7, r4, r1, ror #4
     d58:	78754d5f 	ldmdavc	r5!, {r0, r1, r2, r3, r4, r6, r8, sl, fp, lr}^
     d5c:	5f4d4300 	svcpl	0x004d4300
     d60:	646e6162 	strbtvs	r6, [lr], #-354	; 0x162
     d64:	5f706167 	svcpl	0x00706167
     d68:	6c727463 	cfldrdvs	mvd7, [r2], #-396	; 0xfffffe74
     d6c:	5f4d4300 	svcpl	0x004d4300
     d70:	666e6f63 	strbtvs	r6, [lr], -r3, ror #30
     d74:	64636c5f 	strbtvs	r6, [r3], #-3167	; 0xc5f
     d78:	7461645f 	strbtvc	r6, [r1], #-1119	; 0x45f
     d7c:	00303161 	eorseq	r3, r0, r1, ror #2
     d80:	635f4d43 	cmpvs	pc, #4288	; 0x10c0
     d84:	5f666e6f 	svcpl	0x00666e6f
     d88:	5f64636c 	svcpl	0x0064636c
     d8c:	61746164 	cmnvs	r4, r4, ror #2
     d90:	43003131 	movwmi	r3, #305	; 0x131
     d94:	6f635f4d 	svcvs	0x00635f4d
     d98:	6c5f666e 	mrrcvs	6, 6, r6, pc, cr14	; <UNPREDICTABLE>
     d9c:	645f6463 	ldrbvs	r6, [pc], #-1123	; da4 <_start-0x7ffff25c>
     da0:	31617461 	cmncc	r1, r1, ror #8
     da4:	4d430032 	stclmi	0, cr0, [r3, #-200]	; 0xffffff38
     da8:	6e6f635f 	mcrvs	3, 3, r6, cr15, cr15, {2}
     dac:	636c5f66 	cmnvs	ip, #408	; 0x198
     db0:	61645f64 	cmnvs	r4, r4, ror #30
     db4:	33316174 	teqcc	r1, #116, 2
     db8:	5f4d4300 	svcpl	0x004d4300
     dbc:	6765726d 	strbvs	r7, [r5, -sp, ror #4]!
     dc0:	6f697270 	svcvs	0x00697270
     dc4:	4300305f 	movwmi	r3, #95	; 0x5f
     dc8:	6f635f4d 	svcvs	0x00635f4d
     dcc:	6c5f666e 	mrrcvs	6, 6, r6, pc, cr14	; <UNPREDICTABLE>
     dd0:	645f6463 	ldrbvs	r6, [pc], #-1123	; dd8 <_start-0x7ffff228>
     dd4:	31617461 	cmncc	r1, r1, ror #8
     dd8:	4d430035 	stclmi	0, cr0, [r3, #-212]	; 0xffffff2c
     ddc:	6e6f635f 	mcrvs	3, 3, r6, cr15, cr15, {2}
     de0:	6e6e5f66 	cdpvs	15, 6, cr5, cr14, cr6, {3}
     de4:	4300696d 	movwmi	r6, #2413	; 0x96d
     de8:	6f635f4d 	svcvs	0x00635f4d
     dec:	745f666e 	ldrbvc	r6, [pc], #-1646	; df4 <_start-0x7ffff20c>
     df0:	5f636370 	svcpl	0x00636370
     df4:	5f747665 	svcpl	0x00747665
     df8:	5f78756d 	svcpl	0x0078756d
     dfc:	335f3633 	cmpcc	pc, #53477376	; 0x3300000
     e00:	4d430039 	stclmi	0, cr0, [r3, #-228]	; 0xffffff1c
     e04:	6e6f635f 	mcrvs	3, 3, r6, cr15, cr15, {2}
     e08:	70745f66 	rsbsvc	r5, r4, r6, ror #30
     e0c:	655f6363 	ldrbvs	r6, [pc, #-867]	; ab1 <_start-0x7ffff54f>
     e10:	6d5f7476 	cfldrdvs	mvd7, [pc, #-472]	; c40 <_start-0x7ffff3c0>
     e14:	315f7875 	cmpcc	pc, r5, ror r8	; <UNPREDICTABLE>
     e18:	39315f36 	ldmdbcc	r1!, {r1, r2, r4, r5, r8, r9, sl, fp, ip, lr}
     e1c:	5f4d4300 	svcpl	0x004d4300
     e20:	735f6262 	cmpvc	pc, #536870918	; 0x20000006
     e24:	656c6163 	strbvs	r6, [ip, #-355]!	; 0x163
     e28:	5f4d4300 	svcpl	0x004d4300
     e2c:	666e6f63 	strbtvs	r6, [lr], -r3, ror #30
     e30:	6d69745f 	cfstrdvs	mvd7, [r9, #-380]!	; 0xfffffe84
     e34:	655f7265 	ldrbvs	r7, [pc, #-613]	; bd7 <_start-0x7ffff429>
     e38:	635f7476 	cmpvs	pc, #1979711488	; 0x76000000
     e3c:	00747061 	rsbseq	r7, r4, r1, rrx
     e40:	635f4d43 	cmpvs	pc, #4288	; 0x10c0
     e44:	5f666e6f 	svcpl	0x00666e6f
     e48:	65736572 	ldrbvs	r6, [r3, #-1394]!	; 0x572
     e4c:	73695f74 	cmnvc	r9, #116, 30	; 0x1d0
     e50:	4150006f 	cmpmi	r0, pc, rrx
     e54:	65735f44 	ldrbvs	r5, [r3, #-3908]!	; 0xf44
     e58:	646f4d74 	strbtvs	r4, [pc], #-3444	; e60 <_start-0x7ffff1a0>
     e5c:	4d430065 	stclmi	0, cr0, [r3, #-404]	; 0xfffffe6c
     e60:	6e6f635f 	mcrvs	3, 3, r6, cr15, cr15, {2}
     e64:	636c5f66 	cmnvs	ip, #408	; 0x198
     e68:	61645f64 	cmnvs	r4, r4, ror #30
     e6c:	00306174 	eorseq	r6, r0, r4, ror r1
     e70:	635f4d43 	cmpvs	pc, #4288	; 0x10c0
     e74:	5f666e6f 	svcpl	0x00666e6f
     e78:	5f64636c 	svcpl	0x0064636c
     e7c:	61746164 	cmnvs	r4, r4, ror #2
     e80:	4d430031 	stclmi	0, cr0, [r3, #-196]	; 0xffffff3c
     e84:	6e6f635f 	mcrvs	3, 3, r6, cr15, cr15, {2}
     e88:	636c5f66 	cmnvs	ip, #408	; 0x198
     e8c:	61645f64 	cmnvs	r4, r4, ror #30
     e90:	00326174 	eorseq	r6, r2, r4, ror r1
     e94:	635f4d43 	cmpvs	pc, #4288	; 0x10c0
     e98:	5f666e6f 	svcpl	0x00666e6f
     e9c:	5f64636c 	svcpl	0x0064636c
     ea0:	61746164 	cmnvs	r4, r4, ror #2
     ea4:	4d430033 	stclmi	0, cr0, [r3, #-204]	; 0xffffff34
     ea8:	6e6f635f 	mcrvs	3, 3, r6, cr15, cr15, {2}
     eac:	636c5f66 	cmnvs	ip, #408	; 0x198
     eb0:	61645f64 	cmnvs	r4, r4, ror #30
     eb4:	00346174 	eorseq	r6, r4, r4, ror r1
     eb8:	635f4d43 	cmpvs	pc, #4288	; 0x10c0
     ebc:	5f666e6f 	svcpl	0x00666e6f
     ec0:	5f64636c 	svcpl	0x0064636c
     ec4:	61746164 	cmnvs	r4, r4, ror #2
     ec8:	4d430035 	stclmi	0, cr0, [r3, #-212]	; 0xffffff2c
     ecc:	6e6f635f 	mcrvs	3, 3, r6, cr15, cr15, {2}
     ed0:	636c5f66 	cmnvs	ip, #408	; 0x198
     ed4:	61645f64 	cmnvs	r4, r4, ror #30
     ed8:	00366174 	eorseq	r6, r6, r4, ror r1
     edc:	635f4d43 	cmpvs	pc, #4288	; 0x10c0
     ee0:	5f666e6f 	svcpl	0x00666e6f
     ee4:	5f64636c 	svcpl	0x0064636c
     ee8:	61746164 	cmnvs	r4, r4, ror #2
     eec:	4d430037 	stclmi	0, cr0, [r3, #-220]	; 0xffffff24
     ef0:	726d735f 	rsbvc	r7, sp, #2080374785	; 0x7c000001
     ef4:	74635f74 	strbtvc	r5, [r3], #-3956	; 0xf74
     ef8:	43006c72 	movwmi	r6, #3186	; 0xc72
     efc:	6f635f4d 	svcvs	0x00635f4d
     f00:	6c5f666e 	mrrcvs	6, 6, r6, pc, cr14	; <UNPREDICTABLE>
     f04:	645f6463 	ldrbvs	r6, [pc], #-1123	; f0c <_start-0x7ffff0f4>
     f08:	39617461 	stmdbcc	r1!, {r0, r5, r6, sl, ip, sp, lr}^
     f0c:	5f4d4300 	svcpl	0x004d4300
     f10:	666e6f63 	strbtvs	r6, [lr], -r3, ror #30
     f14:	7261755f 	rsbvc	r7, r1, #398458880	; 0x17c00000
     f18:	725f3074 	subsvc	r3, pc, #116	; 0x74
     f1c:	006e7374 	rsbeq	r7, lr, r4, ror r3
     f20:	635f4d43 	cmpvs	pc, #4288	; 0x10c0
     f24:	5f666e6f 	svcpl	0x00666e6f
     f28:	5f726464 	svcpl	0x00726464
     f2c:	61746164 	cmnvs	r4, r4, ror #2
     f30:	6f695f31 	svcvs	0x00695f31
     f34:	6c727463 	cfldrdvs	mvd7, [r2], #-396	; 0xfffffe74
     f38:	5f4d4300 	svcpl	0x004d4300
     f3c:	666e6f63 	strbtvs	r6, [lr], -r3, ror #30
     f40:	6d70675f 	ldclvs	7, cr6, [r0, #-380]!	; 0xfffffe84
     f44:	64615f63 	strbtvs	r5, [r1], #-3939	; 0xf63
     f48:	615f6e76 	cmpvs	pc, r6, ror lr	; <UNPREDICTABLE>
     f4c:	4300656c 	movwmi	r6, #1388	; 0x56c
     f50:	6f635f4d 	svcvs	0x00635f4d
     f54:	695f666e 	ldmdbvs	pc, {r1, r2, r3, r5, r6, r9, sl, sp, lr}^	; <UNPREDICTABLE>
     f58:	6d5f6370 	ldclvs	3, cr6, [pc, #-448]	; da0 <_start-0x7ffff260>
     f5c:	725f6773 	subsvc	r6, pc, #30146560	; 0x1cc0000
     f60:	00376765 	eorseq	r6, r7, r5, ror #14
     f64:	645f4d43 	ldrbvs	r4, [pc], #-3395	; f6c <_start-0x7ffff094>
     f68:	5f6c6c70 	svcpl	0x006c6c70
     f6c:	5f727770 	svcpl	0x00727770
     f70:	735f7773 	cmpvc	pc, #30146560	; 0x1cc0000
     f74:	75746174 	ldrbvc	r6, [r4, #-372]!	; 0x174
     f78:	4d430073 	stclmi	0, cr0, [r3, #-460]	; 0xfffffe34
     f7c:	696e695f 	stmdbvs	lr!, {r0, r1, r2, r3, r4, r6, r8, fp, sp, lr}^
     f80:	72705f74 	rsbsvc	r5, r0, #116, 30	; 0x1d0
     f84:	69726f69 	ldmdbvs	r2!, {r0, r3, r5, r6, r8, r9, sl, fp, sp, lr}^
     f88:	305f7974 	subscc	r7, pc, r4, ror r9	; <UNPREDICTABLE>
     f8c:	5f4d4300 	svcpl	0x004d4300
     f90:	666e6f63 	strbtvs	r6, [lr], -r3, ror #30
     f94:	63646d5f 	cmnvs	r4, #6080	; 0x17c0
     f98:	5f4d4300 	svcpl	0x004d4300
     f9c:	666e6f63 	strbtvs	r6, [lr], -r3, ror #30
     fa0:	69696d5f 	stmdbvs	r9!, {r0, r1, r2, r3, r4, r6, r8, sl, fp, sp, lr}^
     fa4:	78745f31 	ldmdavc	r4!, {r0, r4, r5, r8, r9, sl, fp, ip, lr}^
     fa8:	6b6c635f 	blvs	1b19d2c <_start-0x7e4e62d4>
     fac:	5f4d4300 	svcpl	0x004d4300
     fb0:	5f75706d 	svcpl	0x0075706d
     fb4:	6f646c73 	svcvs	0x00646c73
     fb8:	7274635f 	rsbsvc	r6, r4, #2080374785	; 0x7c000001
     fbc:	4d43006c 	stclmi	0, cr0, [r3, #-432]	; 0xfffffe50
     fc0:	6e6f635f 	mcrvs	3, 3, r6, cr15, cr15, {2}
     fc4:	6d655f66 	stclvs	15, cr5, [r5, #-408]!	; 0xfffffe68
     fc8:	43003075 	movwmi	r3, #117	; 0x75
     fcc:	6f635f4d 	svcvs	0x00635f4d
     fd0:	655f666e 	ldrbvs	r6, [pc, #-1646]	; 96a <_start-0x7ffff696>
     fd4:	0031756d 	eorseq	r7, r1, sp, ror #10
     fd8:	544e4f43 	strbpl	r4, [lr], #-3907	; 0xf43
     fdc:	5f4c4f52 	svcpl	0x004c4f52
     fe0:	55444f4d 	strbpl	r4, [r4, #-3917]	; 0xf4d
     fe4:	525f454c 	subspl	r4, pc, #76, 10	; 0x13000000
     fe8:	745f4745 	ldrbvc	r4, [pc], #-1861	; ff0 <_start-0x7ffff010>
     fec:	5f4d4300 	svcpl	0x004d4300
     ff0:	666e6f63 	strbtvs	r6, [lr], -r3, ror #30
     ff4:	64636c5f 	strbtvs	r6, [r3], #-3167	; 0xc5f
     ff8:	6c63705f 	stclvs	0, cr7, [r3], #-380	; 0xfffffe84
     ffc:	4d43006b 	stclmi	0, cr0, [r3, #-428]	; 0xfffffe54
    1000:	6e6f635f 	mcrvs	3, 3, r6, cr15, cr15, {2}
    1004:	74725f66 	ldrbtvc	r5, [r2], #-3942	; 0xf66
    1008:	616b5f63 	cmnvs	fp, r3, ror #30
    100c:	5f6f646c 	svcpl	0x006f646c
    1010:	006e6e65 	rsbeq	r6, lr, r5, ror #28
    1014:	635f4d43 	cmpvs	pc, #4288	; 0x10c0
    1018:	5f666e6f 	svcpl	0x00666e6f
    101c:	63637074 	cmnvs	r3, #116	; 0x74
    1020:	7476655f 	ldrbtvc	r6, [r6], #-1375	; 0x55f
    1024:	78756d5f 	ldmdavc	r5!, {r0, r1, r2, r3, r4, r6, r8, sl, fp, sp, lr}^
    1028:	5f38325f 	svcpl	0x0038325f
    102c:	43003133 	movwmi	r3, #307	; 0x133
    1030:	6f635f4d 	svcvs	0x00635f4d
    1034:	6d5f666e 	ldclvs	6, cr6, [pc, #-440]	; e84 <_start-0x7ffff17c>
    1038:	5f30636d 	svcpl	0x0030636d
    103c:	30746164 	rsbscc	r6, r4, r4, ror #2
    1040:	5f4d4300 	svcpl	0x004d4300
    1044:	666e6f63 	strbtvs	r6, [lr], -r3, ror #30
    1048:	636d6d5f 	cmnvs	sp, #6080	; 0x17c0
    104c:	61645f30 	cmnvs	r4, r0, lsr pc
    1050:	43003174 	movwmi	r3, #372	; 0x174
    1054:	77685f4d 	strbvc	r5, [r8, -sp, asr #30]!
    1058:	6576655f 	ldrbvs	r6, [r6, #-1375]!	; 0x55f
    105c:	735f746e 	cmpvc	pc, #1845493760	; 0x6e000000
    1060:	675f6c65 	ldrbvs	r6, [pc, -r5, ror #24]
    1064:	00317072 	eorseq	r7, r1, r2, ror r0
    1068:	685f4d43 	ldmdavs	pc, {r0, r1, r6, r8, sl, fp, lr}^	; <UNPREDICTABLE>
    106c:	76655f77 	uqsub16vc	r5, r5, r7
    1070:	5f746e65 	svcpl	0x00746e65
    1074:	5f6c6573 	svcpl	0x006c6573
    1078:	32707267 	rsbscc	r7, r0, #1879048198	; 0x70000006
    107c:	5f4d4300 	svcpl	0x004d4300
    1080:	655f7768 	ldrbvs	r7, [pc, #-1896]	; 920 <_start-0x7ffff6e0>
    1084:	746e6576 	strbtvc	r6, [lr], #-1398	; 0x576
    1088:	6c65735f 	stclvs	3, cr7, [r5], #-380	; 0xfffffe84
    108c:	7072675f 	rsbsvc	r6, r2, pc, asr r7
    1090:	4d430033 	stclmi	0, cr0, [r3, #-204]	; 0xffffff34
    1094:	5f77685f 	svcpl	0x0077685f
    1098:	6e657665 	cdpvs	6, 6, cr7, cr5, cr5, {3}
    109c:	65735f74 	ldrbvs	r5, [r3, #-3956]!	; 0xf74
    10a0:	72675f6c 	rsbvc	r5, r7, #108, 30	; 0x1b0
    10a4:	43003470 	movwmi	r3, #1136	; 0x470
    10a8:	65645f4d 	strbvs	r5, [r4, #-3917]!	; 0xf4d
    10ac:	6c737065 	ldclvs	0, cr7, [r3], #-404	; 0xfffffe6c
    10b0:	5f706565 	svcpl	0x00706565
    10b4:	6c727463 	cfldrdvs	mvd7, [r2], #-396	; 0xfffffe74
    10b8:	5f4d4300 	svcpl	0x004d4300
    10bc:	666e6f63 	strbtvs	r6, [lr], -r3, ror #30
    10c0:	6d70675f 	ldclvs	7, cr6, [r0, #-380]!	; 0xfffffe84
    10c4:	70775f63 	rsbsvc	r5, r7, r3, ror #30
    10c8:	4d43006e 	stclmi	0, cr0, [r3, #-440]	; 0xfffffe48
    10cc:	6e6f635f 	mcrvs	3, 3, r6, cr15, cr15, {2}
    10d0:	6d705f66 	ldclvs	15, cr5, [r0, #-408]!	; 0xfffffe68
    10d4:	705f6369 	subsvc	r6, pc, r9, ror #6
    10d8:	7265776f 	rsbvc	r7, r5, #29097984	; 0x1bc0000
    10dc:	006e655f 	rsbeq	r6, lr, pc, asr r5
    10e0:	635f4d43 	cmpvs	pc, #4288	; 0x10c0
    10e4:	5f666e6f 	svcpl	0x00666e6f
    10e8:	74726175 	ldrbtvc	r6, [r2], #-373	; 0x175
    10ec:	74725f31 	ldrbtvc	r5, [r2], #-3889	; 0xf31
    10f0:	43006e73 	movwmi	r6, #3699	; 0xe73
    10f4:	6f635f4d 	svcvs	0x00635f4d
    10f8:	775f666e 	ldrbvc	r6, [pc, -lr, ror #12]
    10fc:	726d7261 	rsbvc	r7, sp, #268435462	; 0x10000006
    1100:	006e7473 	rsbeq	r7, lr, r3, ror r4
    1104:	635f4d43 	cmpvs	pc, #4288	; 0x10c0
    1108:	5f666e6f 	svcpl	0x00666e6f
    110c:	30636d6d 	rsbcc	r6, r3, sp, ror #26
    1110:	6b6c635f 	blvs	1b19e94 <_start-0x7e4e616c>
    1114:	5f4d4300 	svcpl	0x004d4300
    1118:	666e6f63 	strbtvs	r6, [lr], -r3, ror #30
    111c:	736d745f 	cmnvc	sp, #1593835520	; 0x5f000000
    1120:	5f4d4300 	svcpl	0x004d4300
    1124:	43746567 	cmnmi	r4, #432013312	; 0x19c00000
    1128:	4d6c7274 	sfmmi	f7, 2, [ip, #-464]!	; 0xfffffe30
    112c:	6c75646f 	cfldrdvs	mvd6, [r5], #-444	; 0xfffffe44
    1130:	4d430065 	stclmi	0, cr0, [r3, #-404]	; 0xfffffe6c
    1134:	6e6f635f 	mcrvs	3, 3, r6, cr15, cr15, {2}
    1138:	64615f66 	strbtvs	r5, [r1], #-3942	; 0xf66
    113c:	76655f63 	strbtvc	r5, [r5], -r3, ror #30
    1140:	61635f74 	smcvs	13812	; 0x35f4
    1144:	43007470 	movwmi	r7, #1136	; 0x470
    1148:	6f635f4d 	svcvs	0x00635f4d
    114c:	675f666e 	ldrbvs	r6, [pc, -lr, ror #12]
    1150:	5f636d70 	svcpl	0x00636d70
    1154:	006e6577 	rsbeq	r6, lr, r7, ror r5
    1158:	635f4d43 	cmpvs	pc, #4288	; 0x10c0
    115c:	5f666e6f 	svcpl	0x00666e6f
    1160:	636d7067 	cmnvs	sp, #103	; 0x67
    1164:	6e73635f 	mrcvs	3, 3, r6, cr3, cr15, {2}
    1168:	4d430030 	stclmi	0, cr0, [r3, #-192]	; 0xffffff40
    116c:	6e6f635f 	mcrvs	3, 3, r6, cr15, cr15, {2}
    1170:	70675f66 	rsbvc	r5, r7, r6, ror #30
    1174:	615f636d 	cmpvs	pc, sp, ror #6
    1178:	43003031 	movwmi	r3, #49	; 0x31
    117c:	6f635f4d 	svcvs	0x00635f4d
    1180:	675f666e 	ldrbvs	r6, [pc, -lr, ror #12]
    1184:	5f636d70 	svcpl	0x00636d70
    1188:	00313161 	eorseq	r3, r1, r1, ror #2
    118c:	635f4d43 	cmpvs	pc, #4288	; 0x10c0
    1190:	5f666e6f 	svcpl	0x00666e6f
    1194:	5f726464 	svcpl	0x00726464
    1198:	61746164 	cmnvs	r4, r4, ror #2
    119c:	6f695f30 	svcvs	0x00695f30
    11a0:	6c727463 	cfldrdvs	mvd7, [r2], #-396	; 0xfffffe74
    11a4:	5f4d4300 	svcpl	0x004d4300
    11a8:	74726f63 	ldrbtvc	r6, [r2], #-3939	; 0xf63
    11ac:	765f7865 	ldrbvc	r7, [pc], -r5, ror #16
    11b0:	646c6262 	strbtvs	r6, [ip], #-610	; 0x262
    11b4:	74635f6f 	strbtvc	r5, [r3], #-3951	; 0xf6f
    11b8:	43006c72 	movwmi	r6, #3186	; 0xc72
    11bc:	64765f4d 	ldrbtvs	r5, [r6], #-3917	; 0xf4d
    11c0:	706d5f64 	rsbvc	r5, sp, r4, ror #30
    11c4:	706f5f75 	rsbvc	r5, pc, r5, ror pc	; <UNPREDICTABLE>
    11c8:	35305f70 	ldrcc	r5, [r0, #-3952]!	; 0xf70
    11cc:	4d430030 	stclmi	0, cr0, [r3, #-192]	; 0xffffff40
    11d0:	6e6f635f 	mcrvs	3, 3, r6, cr15, cr15, {2}
    11d4:	61755f66 	cmnvs	r5, r6, ror #30
    11d8:	5f317472 	svcpl	0x00317472
    11dc:	00647874 	rsbeq	r7, r4, r4, ror r8
    11e0:	635f4d43 	cmpvs	pc, #4288	; 0x10c0
    11e4:	5f666e6f 	svcpl	0x00666e6f
    11e8:	63637074 	cmnvs	r3, #116	; 0x74
    11ec:	7476655f 	ldrbtvc	r6, [r6], #-1375	; 0x55f
    11f0:	78756d5f 	ldmdavc	r5!, {r0, r1, r2, r3, r4, r6, r8, sl, fp, sp, lr}^
    11f4:	315f385f 	cmpcc	pc, pc, asr r8	; <UNPREDICTABLE>
    11f8:	4d430031 	stclmi	0, cr0, [r3, #-196]	; 0xffffff3c
    11fc:	63616d5f 	cmnvs	r1, #6080	; 0x17c0
    1200:	3164695f 	cmncc	r4, pc, asr r9
    1204:	006f6c5f 	rsbeq	r6, pc, pc, asr ip	; <UNPREDICTABLE>
    1208:	635f4d43 	cmpvs	pc, #4288	; 0x10c0
    120c:	5f666e6f 	svcpl	0x00666e6f
    1210:	7361636d 	cmnvc	r1, #-1275068415	; 0xb4000001
    1214:	665f3070 			; <UNDEFINED> instruction: 0x665f3070
    1218:	43007273 	movwmi	r7, #627	; 0x273
    121c:	64765f4d 	ldrbtvs	r5, [r6], #-3917	; 0xf4d
    1220:	6f635f64 	svcvs	0x00635f64
    1224:	6f5f6572 	svcvs	0x005f6572
    1228:	305f7070 	subscc	r7, pc, r0, ror r0	; <UNPREDICTABLE>
    122c:	43003035 	movwmi	r3, #53	; 0x35
    1230:	61625f4d 	cmnvs	r2, sp, asr #30
    1234:	6167646e 	cmnvs	r7, lr, ror #8
    1238:	72745f70 	rsbsvc	r5, r4, #112, 30	; 0x1c0
    123c:	43006d69 	movwmi	r6, #3433	; 0xd69
    1240:	6f635f4d 	svcvs	0x00635f4d
    1244:	645f666e 	ldrbvs	r6, [pc], #-1646	; 124c <_start-0x7fffedb4>
    1248:	695f7264 	ldmdbvs	pc, {r2, r5, r6, r9, ip, sp, lr}^	; <UNPREDICTABLE>
    124c:	74635f6f 	strbtvc	r5, [r3], #-3951	; 0xf6f
    1250:	43006c72 	movwmi	r6, #3186	; 0xc72
    1254:	6f635f4d 	svcvs	0x00635f4d
    1258:	6d5f666e 	ldclvs	6, cr6, [pc, #-440]	; 10a8 <_start-0x7fffef58>
    125c:	70736163 	rsbsvc	r6, r3, r3, ror #2
    1260:	73665f30 	cmnvc	r6, #48, 30	; 0xc0
    1264:	4d430078 	stclmi	0, cr0, [r3, #-480]	; 0xfffffe20
    1268:	7470745f 	ldrbtvc	r7, [r0], #-1119	; 0x45f
    126c:	66635f63 	strbtvs	r5, [r3], -r3, ror #30
    1270:	4d430067 	stclmi	0, cr0, [r3, #-412]	; 0xfffffe64
    1274:	6e6f635f 	mcrvs	3, 3, r6, cr15, cr15, {2}
    1278:	6d6d5f66 	stclvs	15, cr5, [sp, #-408]!	; 0xfffffe68
    127c:	635f3063 	cmpvs	pc, #99	; 0x63
    1280:	4300646d 	movwmi	r6, #1133	; 0x46d
    1284:	6f635f4d 	svcvs	0x00635f4d
    1288:	725f666e 	subsvc	r6, pc, #115343360	; 0x6e00000
    128c:	705f6374 	subsvc	r6, pc, r4, ror r3	; <UNPREDICTABLE>
    1290:	6e6f7277 	mcrvs	2, 3, r7, cr15, cr7, {3}
    1294:	6e747372 	mrcvs	3, 3, r7, cr4, cr2, {3}
    1298:	5f4d4300 	svcpl	0x004d4300
    129c:	5f63616d 	svcpl	0x0063616d
    12a0:	5f316469 	svcpl	0x00316469
    12a4:	43006968 	movwmi	r6, #2408	; 0x968
    12a8:	6f635f4d 	svcvs	0x00635f4d
    12ac:	655f666e 	ldrbvs	r6, [pc, #-1646]	; c46 <_start-0x7ffff3ba>
    12b0:	775f7478 			; <UNDEFINED> instruction: 0x775f7478
    12b4:	75656b61 	strbvc	r6, [r5, #-2913]!	; 0xb61
    12b8:	4d430070 	stclmi	0, cr0, [r3, #-448]	; 0xfffffe40
    12bc:	6e6f635f 	mcrvs	3, 3, r6, cr15, cr15, {2}
    12c0:	696d5f66 	stmdbvs	sp!, {r1, r2, r5, r6, r8, r9, sl, fp, ip, lr}^
    12c4:	725f3169 	subsvc	r3, pc, #1073741850	; 0x4000001a
    12c8:	76645f78 	uqsub16vc	r5, r4, r8
    12cc:	5f4d4300 	svcpl	0x004d4300
    12d0:	666e6f63 	strbtvs	r6, [lr], -r3, ror #30
    12d4:	7264645f 	rsbvc	r6, r4, #1593835520	; 0x5f000000
    12d8:	646d635f 	strbtvs	r6, [sp], #-863	; 0x35f
    12dc:	6f695f32 	svcvs	0x00695f32
    12e0:	6c727463 	cfldrdvs	mvd7, [r2], #-396	; 0xfffffe74
    12e4:	5f4d4300 	svcpl	0x004d4300
    12e8:	7375706d 	cmnvc	r5, #109	; 0x6d
    12ec:	77685f73 			; <UNDEFINED> instruction: 0x77685f73
    12f0:	6265645f 	rsbvs	r6, r5, #1593835520	; 0x5f000000
    12f4:	735f6775 	cmpvc	pc, #30670848	; 0x1d40000
    12f8:	43006c65 	movwmi	r6, #3173	; 0xc65
    12fc:	6f635f4d 	svcvs	0x00635f4d
    1300:	6d5f666e 	ldclvs	6, cr6, [pc, #-440]	; 1150 <_start-0x7fffeeb0>
    1304:	5f316969 	svcpl	0x00316969
    1308:	32647872 	rsbcc	r7, r4, #7471104	; 0x720000
    130c:	5f4d4300 	svcpl	0x004d4300
    1310:	666e6f63 	strbtvs	r6, [lr], -r3, ror #30
    1314:	6d70675f 	ldclvs	7, cr6, [r0, #-380]!	; 0xfffffe84
    1318:	65625f63 	strbvs	r5, [r2, #-3939]!	; 0xf63
    131c:	635f306e 	cmpvs	pc, #110	; 0x6e
    1320:	4300656c 	movwmi	r6, #1388	; 0x56c
    1324:	6f635f4d 	svcvs	0x00635f4d
    1328:	735f666e 	cmpvc	pc, #115343360	; 0x6e00000
    132c:	5f306970 	svcpl	0x00306970
    1330:	00307363 	eorseq	r7, r0, r3, ror #6
    1334:	635f4d43 	cmpvs	pc, #4288	; 0x10c0
    1338:	5f666e6f 	svcpl	0x00666e6f
    133c:	30697073 	rsbcc	r7, r9, r3, ror r0
    1340:	3173635f 	cmncc	r3, pc, asr r3
    1344:	5f4d4300 	svcpl	0x004d4300
    1348:	7375706d 	cmnvc	r5, #109	; 0x6d
    134c:	77685f73 			; <UNDEFINED> instruction: 0x77685f73
    1350:	6762645f 			; <UNDEFINED> instruction: 0x6762645f
    1354:	666e695f 			; <UNDEFINED> instruction: 0x666e695f
    1358:	4d43006f 	stclmi	0, cr0, [r3, #-444]	; 0xfffffe44
    135c:	63616d5f 	cmnvs	r1, #6080	; 0x17c0
    1360:	3064695f 	rsbcc	r6, r4, pc, asr r9
    1364:	006f6c5f 	rsbeq	r6, pc, pc, asr ip	; <UNPREDICTABLE>
    1368:	635f4d43 	cmpvs	pc, #4288	; 0x10c0
    136c:	5f666e6f 	svcpl	0x00666e6f
    1370:	745f336d 	ldrbvc	r3, [pc], #-877	; 1378 <_start-0x7fffec88>
    1374:	5f766578 	svcpl	0x00766578
    1378:	00696f65 	rsbeq	r6, r9, r5, ror #30
    137c:	635f4d43 	cmpvs	pc, #4288	; 0x10c0
    1380:	72746e6f 	rsbsvc	r6, r4, #1776	; 0x6f0
    1384:	685f6c6f 	ldmdavs	pc, {r0, r1, r2, r3, r5, r6, sl, fp, sp, lr}^	; <UNPREDICTABLE>
    1388:	666e6977 			; <UNDEFINED> instruction: 0x666e6977
    138c:	4d43006f 	stclmi	0, cr0, [r3, #-444]	; 0xfffffe44
    1390:	6e6f635f 	mcrvs	3, 3, r6, cr15, cr15, {2}
    1394:	636c5f66 	cmnvs	ip, #408	; 0x198
    1398:	63615f64 	cmnvs	r1, #100, 30	; 0x190
    139c:	6169625f 	cmnvs	r9, pc, asr r2
    13a0:	6e655f73 	mcrvs	15, 3, r5, cr5, cr3, {3}
    13a4:	5f4d4300 	svcpl	0x004d4300
    13a8:	666e6f63 	strbtvs	r6, [lr], -r3, ror #30
    13ac:	6163655f 	cmnvs	r3, pc, asr r5
    13b0:	76655f70 	uqsub16vc	r5, r5, r0
    13b4:	61635f74 	smcvs	13812	; 0x35f4
    13b8:	43007470 	movwmi	r7, #1136	; 0x470
    13bc:	64765f4d 	ldrbtvs	r5, [r6], #-3917	; 0xf4d
    13c0:	706d5f64 	rsbvc	r5, sp, r4, ror #30
    13c4:	706f5f75 	rsbvc	r5, pc, r5, ror pc	; <UNPREDICTABLE>
    13c8:	30315f70 	eorscc	r5, r1, r0, ror pc
    13cc:	4d430030 	stclmi	0, cr0, [r3, #-192]	; 0xffffff40
    13d0:	7665645f 			; <UNDEFINED> instruction: 0x7665645f
    13d4:	5f656369 	svcpl	0x00656369
    13d8:	43006469 	movwmi	r6, #1129	; 0x469
    13dc:	6f635f4d 	svcvs	0x00635f4d
    13e0:	645f666e 	ldrbvs	r6, [pc], #-1646	; 13e8 <_start-0x7fffec18>
    13e4:	635f7264 	cmpvs	pc, #100, 4	; 0x40000006
    13e8:	5f31646d 	svcpl	0x0031646d
    13ec:	74636f69 	strbtvc	r6, [r3], #-3945	; 0xf69
    13f0:	43006c72 	movwmi	r6, #3186	; 0xc72
    13f4:	6f635f4d 	svcvs	0x00635f4d
    13f8:	745f666e 	ldrbvc	r6, [pc], #-1646	; 1400 <_start-0x7fffec00>
    13fc:	6e747372 	mrcvs	3, 3, r7, cr4, cr2, {3}
    1400:	5f4d4300 	svcpl	0x004d4300
    1404:	666e6f63 	strbtvs	r6, [lr], -r3, ror #30
    1408:	6370745f 	cmnvs	r0, #1593835520	; 0x5f000000
    140c:	76655f63 	strbtvc	r5, [r5], -r3, ror #30
    1410:	756d5f74 	strbvc	r5, [sp, #-3956]!	; 0xf74
    1414:	32355f78 	eorscc	r5, r5, #120, 30	; 0x1e0
    1418:	0035355f 	eorseq	r3, r5, pc, asr r5
    141c:	635f4d43 	cmpvs	pc, #4288	; 0x10c0
    1420:	5f666e6f 	svcpl	0x00666e6f
    1424:	63637074 	cmnvs	r3, #116	; 0x74
    1428:	7476655f 	ldrbtvc	r6, [r6], #-1375	; 0x55f
    142c:	78756d5f 	ldmdavc	r5!, {r0, r1, r2, r3, r4, r6, r8, sl, fp, sp, lr}^
    1430:	5f30345f 	svcpl	0x0030345f
    1434:	43003334 	movwmi	r3, #820	; 0x334
    1438:	64765f4d 	ldrbtvs	r5, [r6], #-3917	; 0xf4d
    143c:	6f635f64 	svcvs	0x00635f64
    1440:	6f5f6572 	svcvs	0x005f6572
    1444:	315f7070 	cmpcc	pc, r0, ror r0	; <UNPREDICTABLE>
    1448:	43003030 	movwmi	r3, #48	; 0x30
    144c:	6f635f4d 	svcvs	0x00635f4d
    1450:	6d5f666e 	ldclvs	6, cr6, [pc, #-440]	; 12a0 <_start-0x7fffed60>
    1454:	5f316969 	svcpl	0x00316969
    1458:	635f7872 	cmpvs	pc, #7471104	; 0x720000
    145c:	43006b6c 	movwmi	r6, #2924	; 0xb6c
    1460:	726d5f4d 	rsbvc	r5, sp, #308	; 0x134
    1464:	72707165 	rsbsvc	r7, r0, #1073741849	; 0x40000019
    1468:	315f6f69 	cmpcc	pc, r9, ror #30
    146c:	5f4d4300 	svcpl	0x004d4300
    1470:	666e6f63 	strbtvs	r6, [lr], -r3, ror #30
    1474:	6370745f 	cmnvs	r0, #1593835520	; 0x5f000000
    1478:	76655f63 	strbtvc	r5, [r5], -r3, ror #30
    147c:	756d5f74 	strbvc	r5, [sp, #-3956]!	; 0xf74
    1480:	32335f78 	eorscc	r5, r3, #120, 30	; 0x1e0
    1484:	0035335f 	eorseq	r3, r5, pc, asr r3
    1488:	635f4d43 	cmpvs	pc, #4288	; 0x10c0
    148c:	5f666e6f 	svcpl	0x00666e6f
    1490:	63637074 	cmnvs	r3, #116	; 0x74
    1494:	7476655f 	ldrbtvc	r6, [r6], #-1375	; 0x55f
    1498:	78756d5f 	ldmdavc	r5!, {r0, r1, r2, r3, r4, r6, r8, sl, fp, sp, lr}^
    149c:	5f32315f 	svcpl	0x0032315f
    14a0:	43003531 	movwmi	r3, #1329	; 0x531
    14a4:	6f635f4d 	svcvs	0x00635f4d
    14a8:	635f666e 	cmpvs	pc, #115343360	; 0x6e00000
    14ac:	74656471 	strbtvc	r6, [r5], #-1137	; 0x471
    14b0:	5f746365 	svcpl	0x00746365
    14b4:	74617473 	strbtvc	r7, [r1], #-1139	; 0x473
    14b8:	43007375 	movwmi	r7, #885	; 0x375
    14bc:	6f635f4d 	svcvs	0x00635f4d
    14c0:	755f666e 	ldrbvc	r6, [pc, #-1646]	; e5a <_start-0x7ffff1a6>
    14c4:	30747261 	rsbscc	r7, r4, r1, ror #4
    14c8:	6478725f 	ldrbtvs	r7, [r8], #-607	; 0x25f
    14cc:	5f4d4300 	svcpl	0x004d4300
    14d0:	666e6f63 	strbtvs	r6, [lr], -r3, ror #30
    14d4:	69696d5f 	stmdbvs	r9!, {r0, r1, r2, r3, r4, r6, r8, sl, fp, sp, lr}^
    14d8:	78725f31 	ldmdavc	r2!, {r0, r4, r5, r8, r9, sl, fp, ip, lr}^
    14dc:	0072655f 	rsbseq	r6, r2, pc, asr r5
    14e0:	635f4d43 	cmpvs	pc, #4288	; 0x10c0
    14e4:	5f666e6f 	svcpl	0x00666e6f
    14e8:	30636d6d 	rsbcc	r6, r3, sp, ror #26
    14ec:	7461645f 	strbtvc	r6, [r1], #-1119	; 0x45f
    14f0:	4d430032 	stclmi	0, cr0, [r3, #-200]	; 0xffffff38
    14f4:	6e6f635f 	mcrvs	3, 3, r6, cr15, cr15, {2}
    14f8:	6d6d5f66 	stclvs	15, cr5, [sp, #-408]!	; 0xfffffe68
    14fc:	645f3063 	ldrbvs	r3, [pc], #-99	; 1504 <_start-0x7fffeafc>
    1500:	00337461 	eorseq	r7, r3, r1, ror #8
    1504:	635f4d43 	cmpvs	pc, #4288	; 0x10c0
    1508:	5f666e6f 	svcpl	0x00666e6f
    150c:	63637074 	cmnvs	r3, #116	; 0x74
    1510:	7476655f 	ldrbtvc	r6, [r6], #-1375	; 0x55f
    1514:	78756d5f 	ldmdavc	r5!, {r0, r1, r2, r3, r4, r6, r8, sl, fp, sp, lr}^
    1518:	5f34325f 	svcpl	0x0034325f
    151c:	43003732 	movwmi	r3, #1842	; 0x732
    1520:	6f635f4d 	svcvs	0x00635f4d
    1524:	6d5f666e 	ldclvs	6, cr6, [pc, #-440]	; 1374 <_start-0x7fffec8c>
    1528:	70736163 	rsbsvc	r6, r3, r3, ror #2
    152c:	68615f30 	stmdavs	r1!, {r4, r5, r8, r9, sl, fp, ip, lr}^
    1530:	726b6c63 	rsbvc	r6, fp, #25344	; 0x6300
    1534:	5f4d4300 	svcpl	0x004d4300
    1538:	666e6f63 	strbtvs	r6, [lr], -r3, ror #30
    153c:	64636c5f 	strbtvs	r6, [r3], #-3167	; 0xc5f
    1540:	7973685f 	ldmdbvc	r3!, {r0, r1, r2, r3, r4, r6, fp, sp, lr}^
    1544:	4300636e 	movwmi	r6, #878	; 0x36e
    1548:	6f6d5f4d 	svcvs	0x006d5f4d
    154c:	635f6373 	cmpvs	pc, #-872415231	; 0xcc000001
    1550:	006c7274 	rsbeq	r7, ip, r4, ror r2
    1554:	635f4d43 	cmpvs	pc, #4288	; 0x10c0
    1558:	5f666e6f 	svcpl	0x00666e6f
    155c:	3169696d 	cmncc	r9, sp, ror #18
    1560:	6c6f635f 	stclvs	3, cr6, [pc], #-380	; 13ec <_start-0x7fffec14>
    1564:	5f4d4300 	svcpl	0x004d4300
    1568:	666e6f63 	strbtvs	r6, [lr], -r3, ror #30
    156c:	61636d5f 	cmnvs	r3, pc, asr sp
    1570:	5f307073 	svcpl	0x00307073
    1574:	6c636861 	stclvs	8, cr6, [r3], #-388	; 0xfffffe7c
    1578:	4300786b 	movwmi	r7, #2155	; 0x86b
    157c:	6f635f4d 	svcvs	0x00635f4d
    1580:	645f666e 	ldrbvs	r6, [pc], #-1646	; 1588 <_start-0x7fffea78>
    1584:	635f7264 	cmpvs	pc, #100, 4	; 0x40000006
    1588:	635f656b 	cmpvs	pc, #448790528	; 0x1ac00000
    158c:	006c7274 	rsbeq	r7, ip, r4, ror r2
    1590:	765f4d43 	ldrbvc	r4, [pc], -r3, asr #26
    1594:	6d5f6464 	cfldrdvs	mvd6, [pc, #-400]	; 140c <_start-0x7fffebf4>
    1598:	6f5f7570 	svcvs	0x005f7570
    159c:	745f7070 	ldrbvc	r7, [pc], #-112	; 15a4 <_start-0x7fffea5c>
    15a0:	6f627275 	svcvs	0x00627275
    15a4:	5f4d4300 	svcpl	0x004d4300
    15a8:	666e6f63 	strbtvs	r6, [lr], -r3, ror #30
    15ac:	6370695f 	cmnvs	r0, #1556480	; 0x17c000
    15b0:	67736d5f 			; <UNDEFINED> instruction: 0x67736d5f
    15b4:	6765725f 			; <UNDEFINED> instruction: 0x6765725f
    15b8:	4d430031 	stclmi	0, cr0, [r3, #-196]	; 0xffffff3c
    15bc:	6e6f635f 	mcrvs	3, 3, r6, cr15, cr15, {2}
    15c0:	61755f66 	cmnvs	r5, r6, ror #30
    15c4:	5f317472 	svcpl	0x00317472
    15c8:	00647872 	rsbeq	r7, r4, r2, ror r8
    15cc:	635f4d43 	cmpvs	pc, #4288	; 0x10c0
    15d0:	5f666e6f 	svcpl	0x00666e6f
    15d4:	5f637069 	svcpl	0x00637069
    15d8:	5f67736d 	svcpl	0x0067736d
    15dc:	33676572 	cmncc	r7, #478150656	; 0x1c800000
    15e0:	5f4d4300 	svcpl	0x004d4300
    15e4:	666e6f63 	strbtvs	r6, [lr], -r3, ror #30
    15e8:	6370695f 	cmnvs	r0, #1556480	; 0x17c000
    15ec:	67736d5f 			; <UNDEFINED> instruction: 0x67736d5f
    15f0:	6765725f 			; <UNDEFINED> instruction: 0x6765725f
    15f4:	4d430034 	stclmi	0, cr0, [r3, #-208]	; 0xffffff30
    15f8:	6e6f635f 	mcrvs	3, 3, r6, cr15, cr15, {2}
    15fc:	61755f66 	cmnvs	r5, r6, ror #30
    1600:	5f307472 	svcpl	0x00307472
    1604:	00647874 	rsbeq	r7, r4, r4, ror r8
    1608:	635f4d43 	cmpvs	pc, #4288	; 0x10c0
    160c:	5f666e6f 	svcpl	0x00666e6f
    1610:	63637074 	cmnvs	r3, #116	; 0x74
    1614:	7476655f 	ldrbtvc	r6, [r6], #-1375	; 0x55f
    1618:	78756d5f 	ldmdavc	r5!, {r0, r1, r2, r3, r4, r6, r8, sl, fp, sp, lr}^
    161c:	5f36355f 	svcpl	0x0036355f
    1620:	43003935 	movwmi	r3, #2357	; 0x935
    1624:	6f635f4d 	svcvs	0x00635f4d
    1628:	675f666e 	ldrbvs	r6, [pc, -lr, ror #12]
    162c:	5f636d70 	svcpl	0x00636d70
    1630:	006b6c63 	rsbeq	r6, fp, r3, ror #24
    1634:	645f4d43 	ldrbvs	r4, [pc], #-3395	; 163c <_start-0x7fffe9c4>
    1638:	5f6e6163 	svcpl	0x006e6163
    163c:	696d6172 	stmdbvs	sp!, {r1, r4, r5, r6, r8, sp, lr}^
    1640:	0074696e 	rsbseq	r6, r4, lr, ror #18
    1644:	635f4d43 	cmpvs	pc, #4288	; 0x10c0
    1648:	5f666e6f 	svcpl	0x00666e6f
    164c:	31627375 	smccc	10037	; 0x2735
    1650:	7672645f 			; <UNDEFINED> instruction: 0x7672645f
    1654:	73756276 	cmnvc	r5, #1610612743	; 0x60000007
    1658:	5f4d4300 	svcpl	0x004d4300
    165c:	666e6f63 	strbtvs	r6, [lr], -r3, ror #30
    1660:	6d70675f 	ldclvs	7, cr6, [r0, #-380]!	; 0xfffffe84
    1664:	656f5f63 	strbvs	r5, [pc, #-3939]!	; 709 <_start-0x7ffff8f7>
    1668:	65725f6e 	ldrbvs	r5, [r2, #-3950]!	; 0xf6e
    166c:	4d43006e 	stclmi	0, cr0, [r3, #-440]	; 0xfffffe48
    1670:	6e6f635f 	mcrvs	3, 3, r6, cr15, cr15, {2}
    1674:	696d5f66 	stmdbvs	sp!, {r1, r2, r5, r6, r8, r9, sl, fp, ip, lr}^
    1678:	745f3169 	ldrbvc	r3, [pc], #-361	; 1680 <_start-0x7fffe980>
    167c:	00306478 	eorseq	r6, r0, r8, ror r4
    1680:	635f4d43 	cmpvs	pc, #4288	; 0x10c0
    1684:	5f666e6f 	svcpl	0x00666e6f
    1688:	3169696d 	cmncc	r9, sp, ror #18
    168c:	6478745f 	ldrbtvs	r7, [r8], #-1119	; 0x45f
    1690:	4d430031 	stclmi	0, cr0, [r3, #-196]	; 0xffffff3c
    1694:	6e6f635f 	mcrvs	3, 3, r6, cr15, cr15, {2}
    1698:	696d5f66 	stmdbvs	sp!, {r1, r2, r5, r6, r8, r9, sl, fp, ip, lr}^
    169c:	745f3169 	ldrbvc	r3, [pc], #-361	; 16a4 <_start-0x7fffe95c>
    16a0:	00326478 	eorseq	r6, r2, r8, ror r4
    16a4:	635f4d43 	cmpvs	pc, #4288	; 0x10c0
    16a8:	5f666e6f 	svcpl	0x00666e6f
    16ac:	3169696d 	cmncc	r9, sp, ror #18
    16b0:	6478745f 	ldrbtvs	r7, [r8], #-1119	; 0x45f
    16b4:	4d430033 	stclmi	0, cr0, [r3, #-204]	; 0xffffff34
    16b8:	6e6f635f 	mcrvs	3, 3, r6, cr15, cr15, {2}
    16bc:	70675f66 	rsbvc	r5, r7, r6, ror #30
    16c0:	625f636d 	subsvs	r6, pc, #-1275068415	; 0xb4000001
    16c4:	00316e65 	eorseq	r6, r1, r5, ror #28
    16c8:	635f4d43 	cmpvs	pc, #4288	; 0x10c0
    16cc:	5f666e6f 	svcpl	0x00666e6f
    16d0:	66657276 			; <UNDEFINED> instruction: 0x66657276
    16d4:	7274635f 	rsbsvc	r6, r4, #2080374785	; 0x7c000001
    16d8:	4d43006c 	stclmi	0, cr0, [r3, #-432]	; 0xfffffe50
    16dc:	6e6f635f 	mcrvs	3, 3, r6, cr15, cr15, {2}
    16e0:	6d735f66 	ldclvs	15, cr5, [r3, #-408]!	; 0xfffffe68
    16e4:	43003261 	movwmi	r3, #609	; 0x261
    16e8:	6f635f4d 	svcvs	0x00635f4d
    16ec:	735f666e 	cmpvc	pc, #115343360	; 0x6e00000
    16f0:	5f306970 	svcpl	0x00306970
    16f4:	6b6c6373 	blvs	1b1a4c8 <_start-0x7e4e5b38>
    16f8:	5f4d4300 	svcpl	0x004d4300
    16fc:	666e6f63 	strbtvs	r6, [lr], -r3, ror #30
    1700:	6370695f 	cmnvs	r0, #1556480	; 0x17c000
    1704:	67736d5f 			; <UNDEFINED> instruction: 0x67736d5f
    1708:	6765725f 			; <UNDEFINED> instruction: 0x6765725f
    170c:	4d430030 	stclmi	0, cr0, [r3, #-192]	; 0xffffff40
    1710:	696d675f 	stmdbvs	sp!, {r0, r1, r2, r3, r4, r6, r8, r9, sl, sp, lr}^
    1714:	65735f69 	ldrbvs	r5, [r3, #-3945]!	; 0xf69
    1718:	4d43006c 	stclmi	0, cr0, [r3, #-432]	; 0xfffffe50
    171c:	6e6f635f 	mcrvs	3, 3, r6, cr15, cr15, {2}
    1720:	70695f66 	rsbvc	r5, r9, r6, ror #30
    1724:	736d5f63 	cmnvc	sp, #396	; 0x18c
    1728:	65725f67 	ldrbvs	r5, [r2, #-3943]!	; 0xf67
    172c:	43003267 	movwmi	r3, #615	; 0x267
    1730:	6c635f4d 	stclvs	15, cr5, [r3], #-308	; 0xfffffecc
    1734:	6b32336b 	blvs	c8e4e8 <_start-0x7f371b18>
    1738:	72766964 	rsbsvc	r6, r6, #100, 18	; 0x190000
    173c:	6f697461 	svcvs	0x00697461
    1740:	7274635f 	rsbsvc	r6, r4, #2080374785	; 0x7c000001
    1744:	4d43006c 	stclmi	0, cr0, [r3, #-432]	; 0xfffffe50
    1748:	6e6f635f 	mcrvs	3, 3, r6, cr15, cr15, {2}
    174c:	73755f66 	cmnvc	r5, #408	; 0x198
    1750:	645f3062 	ldrbvs	r3, [pc], #-98	; 1758 <_start-0x7fffe8a8>
    1754:	62767672 	rsbsvs	r7, r6, #119537664	; 0x7200000
    1758:	43007375 	movwmi	r7, #885	; 0x375
    175c:	6f635f4d 	svcvs	0x00635f4d
    1760:	695f666e 	ldmdbvs	pc, {r1, r2, r3, r5, r6, r9, sl, sp, lr}^	; <UNPREDICTABLE>
    1764:	6d5f6370 	ldclvs	3, cr6, [pc, #-448]	; 15ac <_start-0x7fffea54>
    1768:	725f6773 	subsvc	r6, pc, #30146560	; 0x1cc0000
    176c:	00356765 	eorseq	r6, r5, r5, ror #14
    1770:	635f4d43 	cmpvs	pc, #4288	; 0x10c0
    1774:	5f666e6f 	svcpl	0x00666e6f
    1778:	5f637069 	svcpl	0x00637069
    177c:	5f67736d 	svcpl	0x0067736d
    1780:	36676572 			; <UNDEFINED> instruction: 0x36676572
    1784:	5f4d4300 	svcpl	0x004d4300
    1788:	5f766564 	svcpl	0x00766564
    178c:	74616566 	strbtvc	r6, [r1], #-1382	; 0x566
    1790:	00657275 	rsbeq	r7, r5, r5, ror r2
    1794:	635f4d43 	cmpvs	pc, #4288	; 0x10c0
    1798:	72746e6f 	rsbsvc	r6, r4, #1776	; 0x6f0
    179c:	6d5f6c6f 	ldclvs	12, cr6, [pc, #-444]	; 15e8 <_start-0x7fffea18>
    17a0:	6c75646f 	cfldrdvs	mvd6, [r5], #-444	; 0xfffffe44
    17a4:	6f6d0065 	svcvs	0x006d0065
    17a8:	43006564 	movwmi	r6, #1380	; 0x564
    17ac:	6e695f4d 	cdpvs	15, 6, cr5, cr9, cr13, {2}
    17b0:	705f7469 	subsvc	r7, pc, r9, ror #8
    17b4:	726f6972 	rsbvc	r6, pc, #1867776	; 0x1c8000
    17b8:	5f797469 	svcpl	0x00797469
    17bc:	4d430031 	stclmi	0, cr0, [r3, #-196]	; 0xffffff3c
    17c0:	6273755f 	rsbsvs	r7, r3, #398458880	; 0x17c00000
    17c4:	7374735f 	cmnvc	r4, #2080374785	; 0x7c000001
    17c8:	4d430030 	stclmi	0, cr0, [r3, #-192]	; 0xffffff40
    17cc:	6273755f 	rsbsvs	r7, r3, #398458880	; 0x17c00000
    17d0:	7374735f 	cmnvc	r4, #2080374785	; 0x7c000001
    17d4:	4d430031 	stclmi	0, cr0, [r3, #-196]	; 0xffffff3c
    17d8:	6e6f635f 	mcrvs	3, 3, r6, cr15, cr15, {2}
    17dc:	636c5f66 	cmnvs	ip, #408	; 0x198
    17e0:	61645f64 	cmnvs	r4, r4, ror #30
    17e4:	34316174 	ldrtcc	r6, [r1], #-372	; 0x174
    17e8:	5f4d4300 	svcpl	0x004d4300
    17ec:	5f646476 	svcpl	0x00646476
    17f0:	5f75706d 	svcpl	0x0075706d
    17f4:	5f70706f 	svcpl	0x0070706f
    17f8:	00303231 	eorseq	r3, r0, r1, lsr r2
    17fc:	635f4d43 	cmpvs	pc, #4288	; 0x10c0
    1800:	5f666e6f 	svcpl	0x00666e6f
    1804:	6c6c7064 	stclvs	0, cr7, [ip], #-400	; 0xfffffe70
    1808:	7277705f 	rsbsvc	r7, r7, #95	; 0x5f
    180c:	5f77735f 	svcpl	0x0077735f
    1810:	6c727463 	cfldrdvs	mvd7, [r2], #-396	; 0xfffffe74
    1814:	5f4d4300 	svcpl	0x004d4300
    1818:	666e6f63 	strbtvs	r6, [lr], -r3, ror #30
    181c:	6d64785f 	stclvs	8, cr7, [r4, #-380]!	; 0xfffffe84
    1820:	76655f61 	strbtvc	r5, [r5], -r1, ror #30
    1824:	5f746e65 	svcpl	0x00746e65
    1828:	72746e69 	rsbsvc	r6, r4, #1680	; 0x690
    182c:	4d430030 	stclmi	0, cr0, [r3, #-192]	; 0xffffff40
    1830:	6e6f635f 	mcrvs	3, 3, r6, cr15, cr15, {2}
    1834:	64785f66 	ldrbtvs	r5, [r8], #-3942	; 0xf66
    1838:	655f616d 	ldrbvs	r6, [pc, #-365]	; 16d3 <_start-0x7fffe92d>
    183c:	746e6576 	strbtvc	r6, [lr], #-1398	; 0x576
    1840:	746e695f 	strbtvc	r6, [lr], #-2399	; 0x95f
    1844:	43003172 	movwmi	r3, #370	; 0x172
    1848:	6f635f4d 	svcvs	0x00635f4d
    184c:	745f666e 	ldrbvc	r6, [pc], #-1646	; 1854 <_start-0x7fffe7ac>
    1850:	5f636370 	svcpl	0x00636370
    1854:	5f747665 	svcpl	0x00747665
    1858:	5f78756d 	svcpl	0x0078756d
    185c:	00375f34 	eorseq	r5, r7, r4, lsr pc
    1860:	635f4d43 	cmpvs	pc, #4288	; 0x10c0
    1864:	5f666e6f 	svcpl	0x00666e6f
    1868:	63637074 	cmnvs	r3, #116	; 0x74
    186c:	7476655f 	ldrbtvc	r6, [r6], #-1375	; 0x55f
    1870:	78756d5f 	ldmdavc	r5!, {r0, r1, r2, r3, r4, r6, r8, sl, fp, sp, lr}^
    1874:	5f38345f 	svcpl	0x0038345f
    1878:	43003135 	movwmi	r3, #309	; 0x135
    187c:	6f635f4d 	svcvs	0x00635f4d
    1880:	735f666e 	cmpvc	pc, #115343360	; 0x6e00000
    1884:	5f306970 	svcpl	0x00306970
    1888:	43003064 	movwmi	r3, #100	; 0x64
    188c:	6f635f4d 	svcvs	0x00635f4d
    1890:	645f666e 	ldrbvs	r6, [pc], #-1646	; 1898 <_start-0x7fffe768>
    1894:	635f7264 	cmpvs	pc, #100, 4	; 0x40000006
    1898:	5f30646d 	svcpl	0x0030646d
    189c:	74636f69 	strbtvc	r6, [r3], #-3945	; 0xf69
    18a0:	43006c72 	movwmi	r6, #3186	; 0xc72
    18a4:	6f635f4d 	svcvs	0x00635f4d
    18a8:	6d5f666e 	ldclvs	6, cr6, [pc, #-440]	; 16f8 <_start-0x7fffe908>
    18ac:	70736163 	rsbsvc	r6, r3, r3, ror #2
    18b0:	78615f30 	stmdavc	r1!, {r4, r5, r8, r9, sl, fp, ip, lr}^
    18b4:	43003072 	movwmi	r3, #114	; 0x72
    18b8:	6f635f4d 	svcvs	0x00635f4d
    18bc:	6d5f666e 	ldclvs	6, cr6, [pc, #-440]	; 170c <_start-0x7fffe8f4>
    18c0:	70736163 	rsbsvc	r6, r3, r3, ror #2
    18c4:	78615f30 	stmdavc	r1!, {r4, r5, r8, r9, sl, fp, ip, lr}^
    18c8:	43003172 	movwmi	r3, #370	; 0x172
    18cc:	6f635f4d 	svcvs	0x00635f4d
    18d0:	6f72746e 	svcvs	0x0072746e
    18d4:	79735f6c 	ldmdbvc	r3!, {r2, r3, r5, r6, r8, r9, sl, fp, ip, lr}^
    18d8:	6e6f6373 	mcrvs	3, 3, r6, cr15, cr3, {3}
    18dc:	00676966 	rsbeq	r6, r7, r6, ror #18
    18e0:	635f4d43 	cmpvs	pc, #4288	; 0x10c0
    18e4:	5f666e6f 	svcpl	0x00666e6f
    18e8:	5f64636c 	svcpl	0x0064636c
    18ec:	61746164 	cmnvs	r4, r4, ror #2
    18f0:	4d430038 	stclmi	0, cr0, [r3, #-224]	; 0xffffff20
    18f4:	6e6f635f 	mcrvs	3, 3, r6, cr15, cr15, {2}
    18f8:	696d5f66 	stmdbvs	sp!, {r1, r2, r5, r6, r8, r9, sl, fp, ip, lr}^
    18fc:	745f3169 	ldrbvc	r3, [pc], #-361	; 1904 <_start-0x7fffe6fc>
    1900:	6e655f78 	mcrvs	15, 3, r5, cr5, cr8, {3}
    1904:	5f4d4300 	svcpl	0x004d4300
    1908:	666e6f63 	strbtvs	r6, [lr], -r3, ror #30
    190c:	6b63745f 	blvs	18dea90 <_start-0x7e721570>
    1910:	5f4d4300 	svcpl	0x004d4300
    1914:	666e6f63 	strbtvs	r6, [lr], -r3, ror #30
    1918:	7261755f 	rsbvc	r7, r1, #398458880	; 0x17c00000
    191c:	635f3074 	cmpvs	pc, #116	; 0x74
    1920:	006e7374 	rsbeq	r7, lr, r4, ror r3
    1924:	755f4d43 	ldrbvc	r4, [pc, #-3395]	; be9 <_start-0x7ffff417>
    1928:	635f6273 	cmpvs	pc, #805306375	; 0x30000007
    192c:	306c7274 	rsbcc	r7, ip, r4, ror r2
    1930:	5f4d4300 	svcpl	0x004d4300
    1934:	5f627375 	svcpl	0x00627375
    1938:	6c727463 	cfldrdvs	mvd7, [r2], #-396	; 0xfffffe74
    193c:	4d430031 	stclmi	0, cr0, [r3, #-196]	; 0xffffff3c
    1940:	6273755f 	rsbsvs	r7, r3, #398458880	; 0x17c00000
    1944:	6469765f 	strbtvs	r7, [r9], #-1631	; 0x65f
    1948:	6469705f 	strbtvs	r7, [r9], #-95	; 0x5f
    194c:	5f4d4300 	svcpl	0x004d4300
    1950:	666e6f63 	strbtvs	r6, [lr], -r3, ror #30
    1954:	6332695f 	teqvs	r2, #1556480	; 0x17c000
    1958:	63735f30 	cmnvs	r3, #48, 30	; 0xc0
    195c:	4d43006c 	stclmi	0, cr0, [r3, #-432]	; 0xfffffe50
    1960:	6273755f 	rsbsvs	r7, r3, #398458880	; 0x17c00000
    1964:	756b775f 	strbvc	r7, [fp, #-1887]!	; 0x75f
    1968:	74635f70 	strbtvc	r5, [r3], #-3952	; 0xf70
    196c:	43006c72 	movwmi	r6, #3186	; 0xc72
    1970:	6f635f4d 	svcvs	0x00635f4d
    1974:	6d5f666e 	ldclvs	6, cr6, [pc, #-440]	; 17c4 <_start-0x7fffe83c>
    1978:	5f316969 	svcpl	0x00316969
    197c:	30647872 	rsbcc	r7, r4, r2, ror r8
    1980:	5f4d4300 	svcpl	0x004d4300
    1984:	666e6f63 	strbtvs	r6, [lr], -r3, ror #30
    1988:	69696d5f 	stmdbvs	r9!, {r0, r1, r2, r3, r4, r6, r8, sl, fp, sp, lr}^
    198c:	78725f31 	ldmdavc	r2!, {r0, r4, r5, r8, r9, sl, fp, ip, lr}^
    1990:	43003164 	movwmi	r3, #356	; 0x164
    1994:	6d6d5f4d 	stclvs	15, cr5, [sp, #-308]!	; 0xfffffecc
    1998:	66635f75 	uqsub16vs	r5, r3, r5
    199c:	4d430067 	stclmi	0, cr0, [r3, #-412]	; 0xfffffe64
    19a0:	6e6f635f 	mcrvs	3, 3, r6, cr15, cr15, {2}
    19a4:	696d5f66 	stmdbvs	sp!, {r1, r2, r5, r6, r8, r9, sl, fp, ip, lr}^
    19a8:	725f3169 	subsvc	r3, pc, #1073741850	; 0x4000001a
    19ac:	00336478 	eorseq	r6, r3, r8, ror r4
    19b0:	635f4d43 	cmpvs	pc, #4288	; 0x10c0
    19b4:	5f666e6f 	svcpl	0x00666e6f
    19b8:	00696474 	rsbeq	r6, r9, r4, ror r4
    19bc:	635f4d43 	cmpvs	pc, #4288	; 0x10c0
    19c0:	5f666e6f 	svcpl	0x00666e6f
    19c4:	63637074 	cmnvs	r3, #116	; 0x74
    19c8:	7476655f 	ldrbtvc	r6, [r6], #-1375	; 0x55f
    19cc:	78756d5f 	ldmdavc	r5!, {r0, r1, r2, r3, r4, r6, r8, sl, fp, sp, lr}^
    19d0:	5f30365f 	svcpl	0x0030365f
    19d4:	43003336 	movwmi	r3, #822	; 0x336
    19d8:	6c705f4d 	ldclvs	15, cr5, [r0], #-308	; 0xfffffecc
    19dc:	6c635f6c 	stclvs	15, cr5, [r3], #-432	; 0xfffffe50
    19e0:	706e696b 	rsbvc	r6, lr, fp, ror #18
    19e4:	776f6c75 			; <UNDEFINED> instruction: 0x776f6c75
    19e8:	7274635f 	rsbsvc	r6, r4, #2080374785	; 0x7c000001
    19ec:	4d43006c 	stclmi	0, cr0, [r3, #-432]	; 0xfffffe50
    19f0:	6e6f635f 	mcrvs	3, 3, r6, cr15, cr15, {2}
    19f4:	74765f66 	ldrbtvc	r5, [r6], #-3942	; 0xf66
    19f8:	74635f70 	strbtvc	r5, [r3], #-3952	; 0xf70
    19fc:	43006c72 	movwmi	r6, #3186	; 0xc72
    1a00:	6f635f4d 	svcvs	0x00635f4d
    1a04:	6d5f666e 	ldclvs	6, cr6, [pc, #-440]	; 1854 <_start-0x7fffe7ac>
    1a08:	70736163 	rsbsvc	r6, r3, r3, ror #2
    1a0c:	63615f30 	cmnvs	r1, #48, 30	; 0xc0
    1a10:	00726b6c 	rsbseq	r6, r2, ip, ror #22
    1a14:	635f4d43 	cmpvs	pc, #4288	; 0x10c0
    1a18:	5f666e6f 	svcpl	0x00666e6f
    1a1c:	636d7067 	cmnvs	sp, #103	; 0x67
    1a20:	3164615f 	cmncc	r4, pc, asr r1
    1a24:	4d430032 	stclmi	0, cr0, [r3, #-200]	; 0xffffff38
    1a28:	6e6f635f 	mcrvs	3, 3, r6, cr15, cr15, {2}
    1a2c:	6d725f66 	ldclvs	15, cr5, [r2, #-408]!	; 0xfffffe68
    1a30:	5f316969 	svcpl	0x00316969
    1a34:	5f666572 	svcpl	0x00666572
    1a38:	006b6c63 	rsbeq	r6, fp, r3, ror #24
    1a3c:	635f4d43 	cmpvs	pc, #4288	; 0x10c0
    1a40:	5f666e6f 	svcpl	0x00666e6f
    1a44:	7361636d 	cmnvc	r1, #-1275068415	; 0xb4000001
    1a48:	615f3070 	cmpvs	pc, r0, ror r0	; <UNPREDICTABLE>
    1a4c:	786b6c63 	stmdavc	fp!, {r0, r1, r5, r6, sl, fp, sp, lr}^
    1a50:	5f4d4300 	svcpl	0x004d4300
    1a54:	666e6f63 	strbtvs	r6, [lr], -r3, ror #30
    1a58:	6d70675f 	ldclvs	7, cr6, [r0, #-380]!	; 0xfffffe84
    1a5c:	64615f63 	strbtvs	r5, [r1], #-3939	; 0xf63
    1a60:	43003031 	movwmi	r3, #49	; 0x31
    1a64:	6f635f4d 	svcvs	0x00635f4d
    1a68:	675f666e 	ldrbvs	r6, [pc, -lr, ror #12]
    1a6c:	5f636d70 	svcpl	0x00636d70
    1a70:	31316461 	teqcc	r1, r1, ror #8
    1a74:	5f4d4300 	svcpl	0x004d4300
    1a78:	746e6f63 	strbtvc	r6, [lr], #-3939	; 0xf63
    1a7c:	5f6c6f72 	svcpl	0x006c6f72
    1a80:	74617473 	strbtvc	r7, [r1], #-1139	; 0x473
    1a84:	43007375 	movwmi	r7, #885	; 0x375
    1a88:	6f635f4d 	svcvs	0x00635f4d
    1a8c:	675f666e 	ldrbvs	r6, [pc, -lr, ror #12]
    1a90:	5f636d70 	svcpl	0x00636d70
    1a94:	33316461 	teqcc	r1, #1627389952	; 0x61000000
    1a98:	5f4d4300 	svcpl	0x004d4300
    1a9c:	666e6f63 	strbtvs	r6, [lr], -r3, ror #30
    1aa0:	6d70675f 	ldclvs	7, cr6, [r0, #-380]!	; 0xfffffe84
    1aa4:	64615f63 	strbtvs	r5, [r1], #-3939	; 0xf63
    1aa8:	43003431 	movwmi	r3, #1073	; 0x431
    1aac:	6f635f4d 	svcvs	0x00635f4d
    1ab0:	675f666e 	ldrbvs	r6, [pc, -lr, ror #12]
    1ab4:	5f636d70 	svcpl	0x00636d70
    1ab8:	35316461 	ldrcc	r6, [r1, #-1121]!	; 0x461
    1abc:	5f4d4300 	svcpl	0x004d4300
    1ac0:	65726f63 	ldrbvs	r6, [r2, #-3939]!	; 0xf63
    1ac4:	646c735f 	strbtvs	r7, [ip], #-863	; 0x35f
    1ac8:	74635f6f 	strbtvc	r5, [r3], #-3951	; 0xf6f
    1acc:	43006c72 	movwmi	r6, #3186	; 0xc72
    1ad0:	6f635f4d 	svcvs	0x00635f4d
    1ad4:	755f666e 	ldrbvc	r6, [pc, #-1646]	; 146e <_start-0x7fffeb92>
    1ad8:	31747261 	cmncc	r4, r1, ror #4
    1adc:	7374635f 	cmnvc	r4, #2080374785	; 0x7c000001
    1ae0:	4d43006e 	stclmi	0, cr0, [r3, #-440]	; 0xfffffe48
    1ae4:	63616d5f 	cmnvs	r1, #6080	; 0x17c0
    1ae8:	3064695f 	rsbcc	r6, r4, pc, asr r9
    1aec:	0069685f 	rsbeq	r6, r9, pc, asr r8
    1af0:	635f4d43 	cmpvs	pc, #4288	; 0x10c0
    1af4:	72746e6f 	rsbsvc	r6, r4, #1776	; 0x6f0
    1af8:	655f6c6f 	ldrbvs	r6, [pc, #-3183]	; e91 <_start-0x7ffff16f>
    1afc:	5f66696d 	svcpl	0x0066696d
    1b00:	61726473 	cmnvs	r2, r3, ror r4
    1b04:	6f635f6d 	svcvs	0x00635f6d
    1b08:	6769666e 	strbvs	r6, [r9, -lr, ror #12]!
    1b0c:	5f4d4300 	svcpl	0x004d4300
    1b10:	666e6f63 	strbtvs	r6, [lr], -r3, ror #30
    1b14:	64636c5f 	strbtvs	r6, [r3], #-3167	; 0xc5f
    1b18:	7973765f 	ldmdbvc	r3!, {r0, r1, r2, r3, r4, r6, r9, sl, ip, sp, lr}^
    1b1c:	4300636e 	movwmi	r6, #878	; 0x36e
    1b20:	6f635f4d 	svcvs	0x00635f4d
    1b24:	735f666e 	cmpvc	pc, #115343360	; 0x6e00000
    1b28:	5f306970 	svcpl	0x00306970
    1b2c:	43003164 	movwmi	r3, #356	; 0x164
    1b30:	6f635f4d 	svcvs	0x00635f4d
    1b34:	745f666e 	ldrbvc	r6, [pc], #-1646	; 1b3c <_start-0x7fffe4c4>
    1b38:	43006f64 	movwmi	r6, #3940	; 0xf64
    1b3c:	6f635f4d 	svcvs	0x00635f4d
    1b40:	695f666e 	ldmdbvs	pc, {r1, r2, r3, r5, r6, r9, sl, sp, lr}^	; <UNPREDICTABLE>
    1b44:	5f306332 	svcpl	0x00306332
    1b48:	00616473 	rsbeq	r6, r1, r3, ror r4
    1b4c:	635f4d43 	cmpvs	pc, #4288	; 0x10c0
    1b50:	5f666e6f 	svcpl	0x00666e6f
    1b54:	6f69646d 	svcvs	0x0069646d
    1b58:	5f4d4300 	svcpl	0x004d4300
    1b5c:	666e6f63 	strbtvs	r6, [lr], -r3, ror #30
    1b60:	6370745f 	cmnvs	r0, #1593835520	; 0x5f000000
    1b64:	76655f63 	strbtvc	r5, [r5], -r3, ror #30
    1b68:	756d5f74 	strbvc	r5, [sp, #-3956]!	; 0xf74
    1b6c:	34345f78 	ldrtcc	r5, [r4], #-3960	; 0xf78
    1b70:	0037345f 	eorseq	r3, r7, pc, asr r4
    1b74:	746f7571 	strbtvc	r7, [pc], #-1393	; 1b7c <_start-0x7fffe484>
    1b78:	615f5f00 	cmpvs	pc, r0, lsl #30
    1b7c:	69626165 	stmdbvs	r2!, {r0, r2, r5, r6, r8, sp, lr}^
    1b80:	6964695f 	stmdbvs	r4!, {r0, r1, r2, r3, r4, r6, r8, fp, sp, lr}^
    1b84:	646f6d76 	strbtvs	r6, [pc], #-3446	; 1b8c <_start-0x7fffe474>
    1b88:	6e656400 	cdpvs	4, 6, cr6, cr5, cr0, {0}
    1b8c:	5f006d6f 	svcpl	0x00006d6f
    1b90:	6165615f 	cmnvs	r5, pc, asr r1
    1b94:	695f6962 	ldmdbvs	pc, {r1, r5, r6, r8, fp, sp, lr}^	; <UNPREDICTABLE>
    1b98:	00766964 	rsbseq	r6, r6, r4, ror #18
    1b9c:	2e766964 	cdpcs	9, 7, cr6, cr6, cr4, {3}
    1ba0:	64690063 	strbtvs	r0, [r9], #-99	; 0x63
    1ba4:	725f7669 	subsvc	r7, pc, #110100480	; 0x6900000
    1ba8:	72757465 	rsbsvc	r7, r5, #1694498816	; 0x65000000
    1bac:	6d5f006e 	ldclvs	0, cr0, [pc, #-440]	; 19fc <_start-0x7fffe604>
    1bb0:	006e6961 	rsbeq	r6, lr, r1, ror #18
    1bb4:	6e69616d 	powvsez	f6, f1, #5.0
    1bb8:	5300632e 	movwpl	r6, #814	; 0x32e
    1bbc:	31504f54 	cmpcc	r0, r4, asr pc
    1bc0:	5f00355f 	svcpl	0x0000355f
    1bc4:	5f61765f 	svcpl	0x0061765f
    1bc8:	7473696c 	ldrbtvc	r6, [r3], #-2412	; 0x96c
    1bcc:	72617500 	rsbvc	r7, r1, #0, 10
    1bd0:	75705f74 	ldrbvc	r5, [r0, #-3956]!	; 0xf74
    1bd4:	50006674 	andpl	r6, r0, r4, ror r6
    1bd8:	54495241 	strbpl	r5, [r9], #-577	; 0x241
    1bdc:	56455f59 			; <UNDEFINED> instruction: 0x56455f59
    1be0:	46004e45 	strmi	r4, [r0], -r5, asr #28
    1be4:	5f574f4c 	svcpl	0x00574f4c
    1be8:	0046464f 	subeq	r4, r6, pc, asr #12
    1bec:	504f5453 	subpl	r5, pc, r3, asr r4	; <UNPREDICTABLE>
    1bf0:	54530031 	ldrbpl	r0, [r3], #-49	; 0x31
    1bf4:	0032504f 	eorseq	r5, r2, pc, asr #32
    1bf8:	574f4c46 	strbpl	r4, [pc, -r6, asr #24]
    1bfc:	004e4f5f 	subeq	r4, lr, pc, asr pc
    1c00:	5f74756f 	svcpl	0x0074756f
    1c04:	636e7566 	cmnvs	lr, #427819008	; 0x19800000
    1c08:	5000745f 	andpl	r7, r0, pc, asr r4
    1c0c:	54495241 	strbpl	r5, [r9], #-577	; 0x241
    1c10:	444f5f59 	strbmi	r5, [pc], #-3929	; 1c18 <_start-0x7fffe3e8>
    1c14:	41500044 	cmpmi	r0, r4, asr #32
    1c18:	59544952 	ldmdbpl	r4, {r1, r4, r6, r8, fp, lr}^
    1c1c:	4e4f4e5f 	mcrmi	14, 2, r4, cr15, cr15, {2}
    1c20:	5f5f0045 	svcpl	0x005f0045
    1c24:	49007061 	stmdbmi	r0, {r0, r5, r6, ip, sp, lr}
    1c28:	00325253 	eorseq	r5, r2, r3, asr r2
    1c2c:	64756162 	ldrbtvs	r6, [r5], #-354	; 0x162
    1c30:	65746172 	ldrbvs	r6, [r4, #-370]!	; 0x172
    1c34:	46585400 	ldrbmi	r5, [r8], -r0, lsl #8
    1c38:	5f4f4649 	svcpl	0x004f4649
    1c3c:	004c564c 	subeq	r5, ip, ip, asr #12
    1c40:	45524341 	ldrbmi	r4, [r2, #-833]	; 0x341
    1c44:	46530047 	ldrbmi	r0, [r3], -r7, asr #32
    1c48:	0052534c 	subseq	r5, r2, ip, asr #6
    1c4c:	4f495047 	svcmi	0x00495047
    1c50:	696e695f 	stmdbvs	lr!, {r0, r1, r2, r3, r4, r6, r8, fp, sp, lr}^
    1c54:	61750074 	cmnvs	r5, r4, ror r0
    1c58:	635f7472 	cmpvs	pc, #1912602624	; 0x72000000
    1c5c:	6f736e6f 	svcvs	0x00736e6f
    1c60:	632e656c 	teqvs	lr, #108, 10	; 0x1b000000
    1c64:	52415500 	subpl	r5, r1, #0, 10
    1c68:	75705f54 	ldrbvc	r5, [r0, #-3924]!	; 0xf54
    1c6c:	73004374 	movwvc	r4, #884	; 0x374
    1c70:	69747465 	ldmdbvs	r4!, {r0, r2, r5, r6, sl, ip, sp, lr}^
    1c74:	6600676e 	strvs	r6, [r0], -lr, ror #14
    1c78:	74616f6c 	strbtvc	r6, [r1], #-3948	; 0xf6c
    1c7c:	72615500 	rsbvc	r5, r1, #0, 10
    1c80:	525f3074 	subspl	r3, pc, #116	; 0x74
    1c84:	74657365 	strbtvc	r7, [r5], #-869	; 0x365
    1c88:	52415500 	subpl	r5, r1, #0, 10
    1c8c:	65675f54 	strbvs	r5, [r7, #-3924]!	; 0xf54
    1c90:	72745374 	rsbsvc	r5, r4, #116, 6	; 0xd0000001
    1c94:	00676e69 	rsbeq	r6, r7, r9, ror #28
    1c98:	43535953 	cmpmi	r3, #1359872	; 0x14c000
    1c9c:	46585400 	ldrbmi	r5, [r8], -r0, lsl #8
    1ca0:	5400484c 	strpl	r4, [r0], #-2124	; 0x84c
    1ca4:	4c4c4658 	mcrrmi	6, 5, r4, ip, cr8
    1ca8:	53595300 	cmppl	r9, #0, 6
    1cac:	6e690053 	mcrvs	0, 3, r0, cr9, cr3, {2}
    1cb0:	76696474 			; <UNDEFINED> instruction: 0x76696474
    1cb4:	50464300 	subpl	r4, r6, r0, lsl #6
    1cb8:	444d0053 	strbmi	r0, [sp], #-83	; 0x53
    1cbc:	4d003152 	stfmis	f3, [r0, #-328]	; 0xfffffeb8
    1cc0:	00325244 	eorseq	r5, r2, r4, asr #4
    1cc4:	3352444d 	cmpcc	r2, #1291845632	; 0x4d000000
    1cc8:	6e697500 	cdpvs	5, 6, cr7, cr9, cr0, {0}
    1ccc:	745f3874 	ldrbvc	r3, [pc], #-2164	; 1cd4 <_start-0x7fffe32c>
    1cd0:	52454900 	subpl	r4, r5, #0, 18
    1cd4:	58540032 	ldmdapl	r4, {r1, r4, r5}^
    1cd8:	00414d44 	subeq	r4, r1, r4, asr #26
    1cdc:	51455246 	cmppl	r5, r6, asr #4
    1ce0:	4c45535f 	mcrrmi	3, 5, r5, r5, cr15
    1ce4:	4c424500 	cfstr64mi	mvdx4, [r2], {-0}
    1ce8:	58520052 	ldmdapl	r2, {r1, r4, r6}^
    1cec:	4f464946 	svcmi	0x00464946
    1cf0:	4c564c5f 	mrrcmi	12, 5, r4, r6, cr15
    1cf4:	52415500 	subpl	r5, r1, #0, 10
    1cf8:	75705f54 	ldrbvc	r5, [r0, #-3924]!	; 0xf54
    1cfc:	72745374 	rsbsvc	r5, r4, #116, 6	; 0xd0000001
    1d00:	00676e69 	rsbeq	r6, r7, r9, ror #28
    1d04:	54524155 	ldrbpl	r4, [r2], #-341	; 0x155
    1d08:	7465675f 	strbtvc	r6, [r5], #-1887	; 0x75f
    1d0c:	61700043 	cmnvs	r0, r3, asr #32
    1d10:	79746972 	ldmdbvc	r4!, {r1, r4, r5, r6, r8, fp, sp, lr}^
    1d14:	4f545300 	svcmi	0x00545300
    1d18:	49425f50 	stmdbmi	r2, {r4, r6, r8, r9, sl, fp, ip, lr}^
    1d1c:	00745f54 	rsbseq	r5, r4, r4, asr pc
    1d20:	676e656c 	strbvs	r6, [lr, -ip, ror #10]!
    1d24:	55006874 	strpl	r6, [r0, #-2164]	; 0x874
    1d28:	5f545241 	svcpl	0x00545241
    1d2c:	74696e69 	strbtvc	r6, [r9], #-3689	; 0xe69
    1d30:	52465300 	subpl	r5, r6, #0, 6
    1d34:	00484745 	subeq	r4, r8, r5, asr #14
    1d38:	45524653 	ldrbmi	r4, [r2, #-1619]	; 0x653
    1d3c:	52004c47 	andpl	r4, r0, #18176	; 0x4700
    1d40:	4d555345 	ldclmi	3, cr5, [r5, #-276]	; 0xfffffeec
    1d44:	6c660045 	stclvs	0, cr0, [r6], #-276	; 0xfffffeec
    1d48:	6f43776f 	svcvs	0x0043776f
    1d4c:	6f72746e 	svcvs	0x0072746e
    1d50:	4c46006c 	mcrrmi	0, 6, r0, r6, cr12
    1d54:	745f574f 	ldrbvc	r5, [pc], #-1871	; 1d5c <_start-0x7fffe2a4>
    1d58:	6f747300 	svcvs	0x00747300
    1d5c:	74694270 	strbtvc	r4, [r9], #-624	; 0x270
    1d60:	52415000 	subpl	r5, r1, #0
    1d64:	5f595449 	svcpl	0x00595449
    1d68:	5f544942 	svcpl	0x00544942
    1d6c:	58520074 	ldmdapl	r2, {r2, r4, r5, r6}^
    1d70:	00484c46 	subeq	r4, r8, r6, asr #24
    1d74:	4c465852 	mcrrmi	8, 5, r5, r6, cr2
    1d78:	6973004c 	ldmdbvs	r3!, {r2, r3, r6}^
    1d7c:	2e00657a 	cfrshl64cs	mvdx0, mvdx10, r6
    1d80:	6372732f 	cmnvs	r2, #-1140850688	; 0xbc000000
    1d84:	6972702f 	ldmdbvs	r2!, {r0, r1, r2, r3, r5, ip, sp, lr}^
    1d88:	2e6b746e 	cdpcs	4, 6, cr7, cr11, cr14, {3}
    1d8c:	705f0063 	subsvc	r0, pc, r3, rrx
    1d90:	746e6972 	strbtvc	r6, [lr], #-2418	; 0x972
    1d94:	65645f6b 	strbvs	r5, [r4, #-3947]!	; 0xf6b
    1d98:	6c755f63 	ldclvs	15, cr5, [r5], #-396	; 0xfffffe74
    1d9c:	00676e6f 	rsbeq	r6, r7, pc, ror #28
    1da0:	676e6f6c 	strbvs	r6, [lr, -ip, ror #30]!
    1da4:	736e7520 	cmnvc	lr, #32, 10	; 0x8000000
    1da8:	656e6769 	strbvs	r6, [lr, #-1897]!	; 0x769
    1dac:	6e692064 	cdpvs	0, 6, cr2, cr9, cr4, {3}
    1db0:	65720074 	ldrbvs	r0, [r2, #-116]!	; 0x74
    1db4:	6e69616d 	powvsez	f6, f1, #5.0
    1db8:	00726564 	rsbseq	r6, r2, r4, ror #10
    1dbc:	6e756f66 	cdpvs	15, 7, cr6, cr5, cr6, {3}
    1dc0:	616c5f64 	cmnvs	ip, r4, ror #30
    1dc4:	73656772 	cmnvc	r5, #29884416	; 0x1c80000
    1dc8:	69645f74 	stmdbvs	r4!, {r2, r4, r5, r6, r8, r9, sl, fp, ip, lr}^
    1dcc:	00746967 	rsbseq	r6, r4, r7, ror #18
    1dd0:	7270765f 	rsbsvc	r7, r0, #99614720	; 0x5f00000
    1dd4:	6b746e69 	blvs	1d1d780 <_start-0x7e2e2880>
    1dd8:	6e696d00 	cdpvs	13, 6, cr6, cr9, cr0, {0}
    1ddc:	6469775f 	strbtvs	r7, [r9], #-1887	; 0x75f
    1de0:	2f006874 	svccs	0x00006874
    1de4:	656d6f68 	strbvs	r6, [sp, #-3944]!	; 0xf68
    1de8:	6168732f 	cmnvs	r8, pc, lsr #6
    1dec:	2f696873 	svccs	0x00696873
    1df0:	73616853 	cmnvc	r1, #5439488	; 0x530000
    1df4:	422f6968 	eormi	r6, pc, #104, 18	; 0x1a0000
    1df8:	6c676165 	stfvse	f6, [r7], #-404	; 0xfffffe6c
    1dfc:	6e6f4265 	cdpvs	2, 6, cr4, cr15, cr5, {3}
    1e00:	616c4265 	cmnvs	ip, r5, ror #4
    1e04:	6d2f6b63 	fstmdbxvs	pc!, {d6-d54}	;@ Deprecated
    1e08:	6d696e69 	stclvs	14, cr6, [r9, #-420]!	; 0xfffffe5c
    1e0c:	635f6c75 	cmpvs	pc, #29952	; 0x7500
    1e10:	62696c5f 	rsbvs	r6, r9, #24320	; 0x5f00
    1e14:	73696d2f 	cmnvc	r9, #3008	; 0xbc0
    1e18:	61700063 	cmnvs	r0, r3, rrx
    1e1c:	657a5f64 	ldrbvs	r5, [sl, #-3940]!	; 0xf64
    1e20:	5f006f72 	svcpl	0x00006f72
    1e24:	6e697270 	mcrvs	2, 3, r7, cr9, cr0, {3}
    1e28:	685f6b74 	ldmdavs	pc, {r2, r4, r5, r6, r8, r9, fp, sp, lr}^	; <UNPREDICTABLE>
    1e2c:	755f7865 	ldrbvc	r7, [pc, #-2149]	; 15cf <_start-0x7fffea31>
    1e30:	676e6f6c 	strbvs	r6, [lr, -ip, ror #30]!
    1e34:	69747300 	ldmdbvs	r4!, {r8, r9, ip, sp, lr}^
    1e38:	6d5f6c6c 	ldclvs	12, cr6, [pc, #-432]	; 1c90 <_start-0x7fffe370>
    1e3c:	74686769 	strbtvc	r6, [r8], #-1897	; 0x769
    1e40:	726f665f 	rsbvc	r6, pc, #99614720	; 0x5f00000
    1e44:	0074616d 	rsbseq	r6, r4, sp, ror #2
    1e48:	676e6f6c 	strbvs	r6, [lr, -ip, ror #30]!
    1e4c:	746e6920 	strbtvc	r6, [lr], #-2336	; 0x920
    1e50:	62696e00 	rsbvs	r6, r9, #0, 28
    1e54:	00656c62 	rsbeq	r6, r5, r2, ror #24
    1e58:	616d6572 	smcvs	54866	; 0xd652
    1e5c:	6e696e69 	cdpvs	14, 6, cr6, cr9, cr9, {3}
    1e60:	74730067 	ldrbtvc	r0, [r3], #-103	; 0x67
    1e64:	72686372 	rsbvc	r6, r8, #-939524095	; 0xc8000001
    1e68:	6d656d00 	stclvs	13, cr6, [r5, #-0]
    1e6c:	00706d63 	rsbseq	r6, r0, r3, ror #26
    1e70:	72732f2e 	rsbsvc	r2, r3, #46, 30	; 0xb8
    1e74:	74732f63 	ldrbtvc	r2, [r3], #-3939	; 0xf63
    1e78:	676e6972 			; <UNDEFINED> instruction: 0x676e6972
    1e7c:	7300632e 	movwvc	r6, #814	; 0x32e
    1e80:	636e7274 	cmnvs	lr, #116, 4	; 0x40000007
    1e84:	73007970 	movwvc	r7, #2416	; 0x970
    1e88:	61637274 	smcvs	14116	; 0x3724
    1e8c:	682f0074 	stmdavs	pc!, {r2, r4, r5, r6}	; <UNPREDICTABLE>
    1e90:	2f656d6f 	svccs	0x00656d6f
    1e94:	73616873 	cmnvc	r1, #7536640	; 0x730000
    1e98:	532f6968 	teqpl	pc, #104, 18	; 0x1a0000
    1e9c:	68736168 	ldmdavs	r3!, {r3, r5, r6, r8, sp, lr}^
    1ea0:	65422f69 	strbvs	r2, [r2, #-3945]	; 0xf69
    1ea4:	656c6761 	strbvs	r6, [ip, #-1889]!	; 0x761
    1ea8:	656e6f42 	strbvs	r6, [lr, #-3906]!	; 0xf42
    1eac:	63616c42 	cmnvs	r1, #16896	; 0x4200
    1eb0:	696d2f6b 	stmdbvs	sp!, {r0, r1, r3, r5, r6, r8, r9, sl, fp, sp}^
    1eb4:	756d696e 	strbvc	r6, [sp, #-2414]!	; 0x96e
    1eb8:	5f635f6c 	svcpl	0x00635f6c
    1ebc:	2f62696c 	svccs	0x0062696c
    1ec0:	69727473 	ldmdbvs	r2!, {r0, r1, r4, r5, r6, sl, ip, sp, lr}^
    1ec4:	7300676e 	movwvc	r6, #1902	; 0x76e
    1ec8:	70637274 	rsbvc	r7, r3, r4, ror r2
    1ecc:	74730079 	ldrbtvc	r0, [r3], #-121	; 0x79
    1ed0:	706d6372 	rsbvc	r6, sp, r2, ror r3
    1ed4:	72747300 	rsbsvc	r7, r4, #0, 6
    1ed8:	72686372 	rsbvc	r6, r8, #-939524095	; 0xc8000001
    1edc:	72747300 	rsbsvc	r7, r4, #0, 6
    1ee0:	7461636e 	strbtvc	r6, [r1], #-878	; 0x36e
    1ee4:	72747300 	rsbsvc	r7, r4, #0, 6
    1ee8:	706d636e 	rsbvc	r6, sp, lr, ror #6
    1eec:	72747300 	rsbsvc	r7, r4, #0, 6
    1ef0:	006e656c 	rsbeq	r6, lr, ip, ror #10

Disassembly of section .debug_frame:

00000000 <.debug_frame>:
   0:	0000000c 	andeq	r0, r0, ip
   4:	ffffffff 			; <UNDEFINED> instruction: 0xffffffff
   8:	7c020001 	stcvc	0, cr0, [r2], {1}
   c:	000d0c0e 	andeq	r0, sp, lr, lsl #24
  10:	00000014 	andeq	r0, r0, r4, lsl r0
  14:	00000000 	andeq	r0, r0, r0
  18:	8000003c 	andhi	r0, r0, ip, lsr r0
  1c:	00000068 	andeq	r0, r0, r8, rrx
  20:	8b040e42 	blhi	103930 <_start-0x7fefc6d0>
  24:	0b0d4201 	bleq	350830 <_start-0x7fcaf7d0>
  28:	0000000c 	andeq	r0, r0, ip
  2c:	ffffffff 			; <UNDEFINED> instruction: 0xffffffff
  30:	7c020001 	stcvc	0, cr0, [r2], {1}
  34:	000d0c0e 	andeq	r0, sp, lr, lsl #24
  38:	00000014 	andeq	r0, r0, r4, lsl r0
  3c:	00000028 	andeq	r0, r0, r8, lsr #32
  40:	800000a4 	andhi	r0, r0, r4, lsr #1
  44:	0000003c 	andeq	r0, r0, ip, lsr r0
  48:	8b040e42 	blhi	103958 <_start-0x7fefc6a8>
  4c:	0b0d4201 	bleq	350858 <_start-0x7fcaf7a8>
  50:	00000014 	andeq	r0, r0, r4, lsl r0
  54:	00000028 	andeq	r0, r0, r8, lsr #32
  58:	800000e0 	andhi	r0, r0, r0, ror #1
  5c:	00000038 	andeq	r0, r0, r8, lsr r0
  60:	8b040e42 	blhi	103970 <_start-0x7fefc690>
  64:	0b0d4201 	bleq	350870 <_start-0x7fcaf790>
  68:	00000018 	andeq	r0, r0, r8, lsl r0
  6c:	00000028 	andeq	r0, r0, r8, lsr #32
  70:	80000118 	andhi	r0, r0, r8, lsl r1
  74:	000000d4 	ldrdeq	r0, [r0], -r4
  78:	8b080e42 	blhi	203988 <_start-0x7fdfc678>
  7c:	42018e02 	andmi	r8, r1, #2, 28
  80:	00040b0c 	andeq	r0, r4, ip, lsl #22
  84:	0000000c 	andeq	r0, r0, ip
  88:	ffffffff 			; <UNDEFINED> instruction: 0xffffffff
  8c:	7c020001 	stcvc	0, cr0, [r2], {1}
  90:	000d0c0e 	andeq	r0, sp, lr, lsl #24
  94:	00000014 	andeq	r0, r0, r4, lsl r0
  98:	00000084 	andeq	r0, r0, r4, lsl #1
  9c:	800001ec 	andhi	r0, r0, ip, ror #3
  a0:	00000038 	andeq	r0, r0, r8, lsr r0
  a4:	8b040e42 	blhi	1039b4 <_start-0x7fefc64c>
  a8:	0b0d4201 	bleq	3508b4 <_start-0x7fcaf74c>
  ac:	00000014 	andeq	r0, r0, r4, lsl r0
  b0:	00000084 	andeq	r0, r0, r4, lsl #1
  b4:	80000224 	andhi	r0, r0, r4, lsr #4
  b8:	00000034 	andeq	r0, r0, r4, lsr r0
  bc:	8b040e42 	blhi	1039cc <_start-0x7fefc634>
  c0:	0b0d4201 	bleq	3508cc <_start-0x7fcaf734>
  c4:	00000018 	andeq	r0, r0, r8, lsl r0
  c8:	00000084 	andeq	r0, r0, r4, lsl #1
  cc:	80000258 	andhi	r0, r0, r8, asr r2
  d0:	00000058 	andeq	r0, r0, r8, asr r0
  d4:	8b080e42 	blhi	2039e4 <_start-0x7fdfc61c>
  d8:	42018e02 	andmi	r8, r1, #2, 28
  dc:	00040b0c 	andeq	r0, r4, ip, lsl #22
  e0:	00000018 	andeq	r0, r0, r8, lsl r0
  e4:	00000084 	andeq	r0, r0, r4, lsl #1
  e8:	800002b0 			; <UNDEFINED> instruction: 0x800002b0
  ec:	00000024 	andeq	r0, r0, r4, lsr #32
  f0:	8b080e42 	blhi	203a00 <_start-0x7fdfc600>
  f4:	42018e02 	andmi	r8, r1, #2, 28
  f8:	00040b0c 	andeq	r0, r4, ip, lsl #22
  fc:	0000000c 	andeq	r0, r0, ip
 100:	ffffffff 			; <UNDEFINED> instruction: 0xffffffff
 104:	7c020001 	stcvc	0, cr0, [r2], {1}
 108:	000d0c0e 	andeq	r0, sp, lr, lsl #24
 10c:	00000014 	andeq	r0, r0, r4, lsl r0
 110:	000000fc 	strdeq	r0, [r0], -ip
 114:	800002d4 	ldrdhi	r0, [r0], -r4
 118:	00000080 	andeq	r0, r0, r0, lsl #1
 11c:	8b040e42 	blhi	103a2c <_start-0x7fefc5d4>
 120:	0b0d4201 	bleq	35092c <_start-0x7fcaf6d4>
 124:	00000014 	andeq	r0, r0, r4, lsl r0
 128:	000000fc 	strdeq	r0, [r0], -ip
 12c:	80000354 	andhi	r0, r0, r4, asr r3
 130:	00000060 	andeq	r0, r0, r0, rrx
 134:	8b040e42 	blhi	103a44 <_start-0x7fefc5bc>
 138:	0b0d4201 	bleq	350944 <_start-0x7fcaf6bc>
 13c:	0000000c 	andeq	r0, r0, ip
 140:	ffffffff 			; <UNDEFINED> instruction: 0xffffffff
 144:	7c020001 	stcvc	0, cr0, [r2], {1}
 148:	000d0c0e 	andeq	r0, sp, lr, lsl #24
 14c:	00000024 	andeq	r0, r0, r4, lsr #32
 150:	0000013c 	andeq	r0, r0, ip, lsr r1
 154:	800003b4 			; <UNDEFINED> instruction: 0x800003b4
 158:	00000044 	andeq	r0, r0, r4, asr #32
 15c:	80100e42 	andshi	r0, r0, r2, asr #28
 160:	82038104 	andhi	r8, r3, #4, 2
 164:	42018302 	andmi	r8, r1, #134217728	; 0x8000000
 168:	068b180e 	streq	r1, [fp], lr, lsl #16
 16c:	0c42058e 	cfstr64eq	mvdx0, [r2], {142}	; 0x8e
 170:	0000140b 	andeq	r1, r0, fp, lsl #8
 174:	00000018 	andeq	r0, r0, r8, lsl r0
 178:	0000013c 	andeq	r0, r0, ip, lsr r1
 17c:	800003f8 	strdhi	r0, [r0], -r8
 180:	000000b8 	strheq	r0, [r0], -r8
 184:	8b080e42 	blhi	203a94 <_start-0x7fdfc56c>
 188:	42018e02 	andmi	r8, r1, #2, 28
 18c:	00040b0c 	andeq	r0, r4, ip, lsl #22
 190:	0000000c 	andeq	r0, r0, ip
 194:	ffffffff 			; <UNDEFINED> instruction: 0xffffffff
 198:	7c020001 	stcvc	0, cr0, [r2], {1}
 19c:	000d0c0e 	andeq	r0, sp, lr, lsl #24
 1a0:	00000018 	andeq	r0, r0, r8, lsl r0
 1a4:	00000190 	muleq	r0, r0, r1
 1a8:	800004b0 			; <UNDEFINED> instruction: 0x800004b0
 1ac:	00000058 	andeq	r0, r0, r8, asr r0
 1b0:	8b080e42 	blhi	203ac0 <_start-0x7fdfc540>
 1b4:	42018e02 	andmi	r8, r1, #2, 28
 1b8:	00040b0c 	andeq	r0, r4, ip, lsl #22
 1bc:	00000014 	andeq	r0, r0, r4, lsl r0
 1c0:	00000190 	muleq	r0, r0, r1
 1c4:	80000508 	andhi	r0, r0, r8, lsl #10
 1c8:	000001f8 	strdeq	r0, [r0], -r8
 1cc:	8b040e42 	blhi	103adc <_start-0x7fefc524>
 1d0:	0b0d4201 	bleq	3509dc <_start-0x7fcaf624>
 1d4:	00000018 	andeq	r0, r0, r8, lsl r0
 1d8:	00000190 	muleq	r0, r0, r1
 1dc:	80000700 	andhi	r0, r0, r0, lsl #14
 1e0:	00000034 	andeq	r0, r0, r4, lsr r0
 1e4:	8b080e42 	blhi	203af4 <_start-0x7fdfc50c>
 1e8:	42018e02 	andmi	r8, r1, #2, 28
 1ec:	00040b0c 	andeq	r0, r4, ip, lsl #22
 1f0:	00000018 	andeq	r0, r0, r8, lsl r0
 1f4:	00000190 	muleq	r0, r0, r1
 1f8:	80000734 	andhi	r0, r0, r4, lsr r7
 1fc:	00000064 	andeq	r0, r0, r4, rrx
 200:	8b080e42 	blhi	203b10 <_start-0x7fdfc4f0>
 204:	42018e02 	andmi	r8, r1, #2, 28
 208:	00040b0c 	andeq	r0, r4, ip, lsl #22
 20c:	00000014 	andeq	r0, r0, r4, lsl r0
 210:	00000190 	muleq	r0, r0, r1
 214:	80000798 	mulhi	r0, r8, r7
 218:	00000048 	andeq	r0, r0, r8, asr #32
 21c:	8b040e42 	blhi	103b2c <_start-0x7fefc4d4>
 220:	0b0d4201 	bleq	350a2c <_start-0x7fcaf5d4>
 224:	00000018 	andeq	r0, r0, r8, lsl r0
 228:	00000190 	muleq	r0, r0, r1
 22c:	800007e0 	andhi	r0, r0, r0, ror #15
 230:	0000006c 	andeq	r0, r0, ip, rrx
 234:	8b080e42 	blhi	203b44 <_start-0x7fdfc4bc>
 238:	42018e02 	andmi	r8, r1, #2, 28
 23c:	00040b0c 	andeq	r0, r4, ip, lsl #22
 240:	0000001c 	andeq	r0, r0, ip, lsl r0
 244:	00000190 	muleq	r0, r0, r1
 248:	8000084c 	andhi	r0, r0, ip, asr #16
 24c:	0000006c 	andeq	r0, r0, ip, rrx
 250:	840c0e42 	strhi	r0, [ip], #-3650	; 0xe42
 254:	8e028b03 	vmlahi.f64	d8, d2, d3
 258:	0b0c4201 	bleq	310a64 <_start-0x7fcef59c>
 25c:	00000004 	andeq	r0, r0, r4
 260:	0000000c 	andeq	r0, r0, ip
 264:	ffffffff 			; <UNDEFINED> instruction: 0xffffffff
 268:	7c020001 	stcvc	0, cr0, [r2], {1}
 26c:	000d0c0e 	andeq	r0, sp, lr, lsl #24
 270:	00000018 	andeq	r0, r0, r8, lsl r0
 274:	00000260 	andeq	r0, r0, r0, ror #4
 278:	800008b8 			; <UNDEFINED> instruction: 0x800008b8
 27c:	00000164 	andeq	r0, r0, r4, ror #2
 280:	8b080e42 	blhi	203b90 <_start-0x7fdfc470>
 284:	42018e02 	andmi	r8, r1, #2, 28
 288:	00040b0c 	andeq	r0, r4, ip, lsl #22
 28c:	00000018 	andeq	r0, r0, r8, lsl r0
 290:	00000260 	andeq	r0, r0, r0, ror #4
 294:	80000a1c 	andhi	r0, r0, ip, lsl sl
 298:	00000118 	andeq	r0, r0, r8, lsl r1
 29c:	8b080e42 	blhi	203bac <_start-0x7fdfc454>
 2a0:	42018e02 	andmi	r8, r1, #2, 28
 2a4:	00040b0c 	andeq	r0, r4, ip, lsl #22
 2a8:	00000018 	andeq	r0, r0, r8, lsl r0
 2ac:	00000260 	andeq	r0, r0, r0, ror #4
 2b0:	80000b34 	andhi	r0, r0, r4, lsr fp
 2b4:	00000424 	andeq	r0, r0, r4, lsr #8
 2b8:	8b080e42 	blhi	203bc8 <_start-0x7fdfc438>
 2bc:	42018e02 	andmi	r8, r1, #2, 28
 2c0:	00040b0c 	andeq	r0, r4, ip, lsl #22
 2c4:	0000000c 	andeq	r0, r0, ip
 2c8:	ffffffff 			; <UNDEFINED> instruction: 0xffffffff
 2cc:	7c020001 	stcvc	0, cr0, [r2], {1}
 2d0:	000d0c0e 	andeq	r0, sp, lr, lsl #24
 2d4:	00000014 	andeq	r0, r0, r4, lsl r0
 2d8:	000002c4 	andeq	r0, r0, r4, asr #5
 2dc:	80000f58 	andhi	r0, r0, r8, asr pc
 2e0:	000000a4 	andeq	r0, r0, r4, lsr #1
 2e4:	8b040e42 	blhi	103bf4 <_start-0x7fefc40c>
 2e8:	0b0d4201 	bleq	350af4 <_start-0x7fcaf50c>
 2ec:	00000014 	andeq	r0, r0, r4, lsl r0
 2f0:	000002c4 	andeq	r0, r0, r4, asr #5
 2f4:	80000ffc 	strdhi	r0, [r0], -ip
 2f8:	00000054 	andeq	r0, r0, r4, asr r0
 2fc:	8b040e42 	blhi	103c0c <_start-0x7fefc3f4>
 300:	0b0d4201 	bleq	350b0c <_start-0x7fcaf4f4>
 304:	00000014 	andeq	r0, r0, r4, lsl r0
 308:	000002c4 	andeq	r0, r0, r4, asr #5
 30c:	80001050 	andhi	r1, r0, r0, asr r0
 310:	00000060 	andeq	r0, r0, r0, rrx
 314:	8b040e42 	blhi	103c24 <_start-0x7fefc3dc>
 318:	0b0d4201 	bleq	350b24 <_start-0x7fcaf4dc>
 31c:	00000014 	andeq	r0, r0, r4, lsl r0
 320:	000002c4 	andeq	r0, r0, r4, asr #5
 324:	800010b0 	strhhi	r1, [r0], -r0
 328:	000000a8 	andeq	r0, r0, r8, lsr #1
 32c:	8b040e42 	blhi	103c3c <_start-0x7fefc3c4>
 330:	0b0d4201 	bleq	350b3c <_start-0x7fcaf4c4>
 334:	00000018 	andeq	r0, r0, r8, lsl r0
 338:	000002c4 	andeq	r0, r0, r4, asr #5
 33c:	80001158 	andhi	r1, r0, r8, asr r1
 340:	00000068 	andeq	r0, r0, r8, rrx
 344:	8b080e42 	blhi	203c54 <_start-0x7fdfc3ac>
 348:	42018e02 	andmi	r8, r1, #2, 28
 34c:	00040b0c 	andeq	r0, r4, ip, lsl #22
 350:	00000018 	andeq	r0, r0, r8, lsl r0
 354:	000002c4 	andeq	r0, r0, r4, asr #5
 358:	800011c0 	andhi	r1, r0, r0, asr #3
 35c:	000000b8 	strheq	r0, [r0], -r8
 360:	8b080e42 	blhi	203c70 <_start-0x7fdfc390>
 364:	42018e02 	andmi	r8, r1, #2, 28
 368:	00040b0c 	andeq	r0, r4, ip, lsl #22
 36c:	00000014 	andeq	r0, r0, r4, lsl r0
 370:	000002c4 	andeq	r0, r0, r4, asr #5
 374:	80001278 	andhi	r1, r0, r8, ror r2
 378:	00000094 	muleq	r0, r4, r0
 37c:	8b040e42 	blhi	103c8c <_start-0x7fefc374>
 380:	0b0d4201 	bleq	350b8c <_start-0x7fcaf474>
 384:	00000014 	andeq	r0, r0, r4, lsl r0
 388:	000002c4 	andeq	r0, r0, r4, asr #5
 38c:	8000130c 	andhi	r1, r0, ip, lsl #6
 390:	000000b0 	strheq	r0, [r0], -r0	; <UNPREDICTABLE>
 394:	8b040e42 	blhi	103ca4 <_start-0x7fefc35c>
 398:	0b0d4201 	bleq	350ba4 <_start-0x7fcaf45c>
 39c:	00000014 	andeq	r0, r0, r4, lsl r0
 3a0:	000002c4 	andeq	r0, r0, r4, asr #5
 3a4:	800013bc 			; <UNDEFINED> instruction: 0x800013bc
 3a8:	0000007c 	andeq	r0, r0, ip, ror r0
 3ac:	8b040e42 	blhi	103cbc <_start-0x7fefc344>
 3b0:	0b0d4201 	bleq	350bbc <_start-0x7fcaf444>
 3b4:	00000014 	andeq	r0, r0, r4, lsl r0
 3b8:	000002c4 	andeq	r0, r0, r4, asr #5
 3bc:	80001438 	andhi	r1, r0, r8, lsr r4
 3c0:	00000074 	andeq	r0, r0, r4, ror r0
 3c4:	8b040e42 	blhi	103cd4 <_start-0x7fefc32c>
 3c8:	0b0d4201 	bleq	350bd4 <_start-0x7fcaf42c>
