
runtime:     file format elf32-littlearm


Disassembly of section .text:

402f0400 <_start>:
402f0400:	e59fd050 	ldr	r13, [pc, #80]	; 402f0458 <_start+0x58>
402f0404:	e24d1c01 	sub	r1, r13, #256	; 0x100
402f0408:	e10f3000 	mrs	r3, CPSR
402f040c:	e3a0201b 	mov	r2, #27
402f0410:	e12ff002 	msr	CPSR_fsxc, r2
402f0414:	e1a0d001 	mov	r13, r1
402f0418:	e24d1c01 	sub	r1, r13, #256	; 0x100
402f041c:	e3a02012 	mov	r2, #18
402f0420:	e12ff002 	msr	CPSR_fsxc, r2
402f0424:	e1a0d001 	mov	r13, r1
402f0428:	e24d1c01 	sub	r1, r13, #256	; 0x100
402f042c:	e12ff003 	msr	CPSR_fsxc, r3
402f0430:	e1a03000 	mov	r3, r0
402f0434:	e59f0020 	ldr	r0, [pc, #32]	; 402f045c <_start+0x5c>
402f0438:	e59f1020 	ldr	r1, [pc, #32]	; 402f0460 <_start+0x60>
402f043c:	e0811000 	add	r1, r1, r0
402f0440:	e3a02000 	mov	r2, #0
402f0444:	e1500001 	cmp	r0, r1
402f0448:	b4802004 	strlt	r2, [r0], #4
402f044c:	bafffffc 	blt	402f0444 <_start+0x44>
402f0450:	e1a00003 	mov	r0, r3
402f0454:	ea000044 	b	402f056c <main>
402f0458:	4030cdfc 	ldrshtmi	r12, [r0], -r12
402f045c:	402f0c54 	eormi	r0, r15, r4, asr r12	; <UNPREDICTABLE>
402f0460:	0000001c 	andeq	r0, r0, r12, lsl r0

402f0464 <handler_irq_entry>:
402f0464:	e92d480f 	push	{r0, r1, r2, r3, r11, r14}
402f0468:	e14fb000 	mrs	r11, SPSR
402f046c:	eb000022 	bl	402f04fc <handler_irq>
402f0470:	e59f00f0 	ldr	r0, [pc, #240]	; 402f0568 <handler_irq+0x6c>
402f0474:	e3a01001 	mov	r1, #1
402f0478:	e5801048 	str	r1, [r0, #72]	; 0x48
402f047c:	f57ff04f 	dsb	sy
402f0480:	e169f00b 	msr	SPSR_fc, r11
402f0484:	e8bd480f 	pop	{r0, r1, r2, r3, r11, r14}
402f0488:	e25ef004 	subs	r15, r14, #4

402f048c <handler_undefined_entry>:
402f048c:	f96d051b 	srsdb	r13!, #27
402f0490:	e3000b24 	movw	r0, #2852	; 0xb24
402f0494:	e344002f 	movt	r0, #16431	; 0x402f
402f0498:	eb000138 	bl	402f0980 <uart_putf>
402f049c:	f8bd0a00 	rfeia	r13!

402f04a0 <timer_init>:
402f04a0:	e92d4008 	push	{r3, r14}
402f04a4:	e3a03000 	mov	r3, #0
402f04a8:	e34434e0 	movt	r3, #17632	; 0x44e0
402f04ac:	e3a02002 	mov	r2, #2
402f04b0:	e3a00003 	mov	r0, #3
402f04b4:	e583207c 	str	r2, [r3, #124]	; 0x7c
402f04b8:	eb0000a8 	bl	402f0760 <leds_set>
402f04bc:	e3a03a0a 	mov	r3, #40960	; 0xa000
402f04c0:	e3443804 	movt	r3, #18436	; 0x4804
402f04c4:	e3a02003 	mov	r2, #3
402f04c8:	e5832038 	str	r2, [r3, #56]	; 0x38
402f04cc:	e8bd8008 	pop	{r3, r15}

402f04d0 <sleep>:
402f04d0:	e3a02a0a 	mov	r2, #40960	; 0xa000
402f04d4:	e3442804 	movt	r2, #18436	; 0x4804
402f04d8:	e592103c 	ldr	r1, [r2, #60]	; 0x3c
402f04dc:	e592303c 	ldr	r3, [r2, #60]	; 0x3c
402f04e0:	e0613003 	rsb	r3, r1, r3
402f04e4:	e3530401 	cmp	r3, #16777216	; 0x1000000
402f04e8:	3afffffb 	bcc	402f04dc <sleep+0xc>
402f04ec:	e12fff1e 	bx	r14

402f04f0 <handler_undefined>:
402f04f0:	e3000b24 	movw	r0, #2852	; 0xb24
402f04f4:	e344002f 	movt	r0, #16431	; 0x402f
402f04f8:	ea000120 	b	402f0980 <uart_putf>

402f04fc <handler_irq>:
402f04fc:	e3a03000 	mov	r3, #0
402f0500:	e3443820 	movt	r3, #18464	; 0x4820
402f0504:	e5933040 	ldr	r3, [r3, #64]	; 0x40
402f0508:	e3d3207f 	bics	r2, r3, #127	; 0x7f
402f050c:	112fff1e 	bxne	r14
402f0510:	e353004b 	cmp	r3, #75	; 0x4b
402f0514:	112fff1e 	bxne	r14
402f0518:	e3002c54 	movw	r2, #3156	; 0xc54
402f051c:	e3a03a0e 	mov	r3, #57344	; 0xe000
402f0520:	e344202f 	movt	r2, #16431	; 0x402f
402f0524:	e34434e3 	movt	r3, #17635	; 0x44e3
402f0528:	e592c000 	ldr	r12, [r2]
402f052c:	e3000c60 	movw	r0, #3168	; 0xc60
402f0530:	e344002f 	movt	r0, #16431	; 0x402f
402f0534:	e3001c5c 	movw	r1, #3164	; 0xc5c
402f0538:	e28cc001 	add	r12, r12, #1
402f053c:	e582c000 	str	r12, [r2]
402f0540:	e593c000 	ldr	r12, [r3]
402f0544:	e344102f 	movt	r1, #16431	; 0x402f
402f0548:	e3002c58 	movw	r2, #3160	; 0xc58
402f054c:	e344202f 	movt	r2, #16431	; 0x402f
402f0550:	e580c000 	str	r12, [r0]
402f0554:	e5930004 	ldr	r0, [r3, #4]
402f0558:	e5810000 	str	r0, [r1]
402f055c:	e5933008 	ldr	r3, [r3, #8]
402f0560:	e5823000 	str	r3, [r2]
402f0564:	e12fff1e 	bx	r14
402f0568:	48200000 	stmdami	r0!, {}	; <UNPREDICTABLE>

402f056c <main>:
402f056c:	e92d4ff0 	push	{r4, r5, r6, r7, r8, r9, r10, r11, r14}
402f0570:	e24dd01c 	sub	r13, r13, #28
402f0574:	e1a04000 	mov	r4, r0
402f0578:	eb00006d 	bl	402f0734 <leds_init>
402f057c:	e3a03000 	mov	r3, #0
402f0580:	e3a02002 	mov	r2, #2
402f0584:	e34434e0 	movt	r3, #17632	; 0x44e0
402f0588:	e3a00003 	mov	r0, #3
402f058c:	e583207c 	str	r2, [r3, #124]	; 0x7c
402f0590:	eb000072 	bl	402f0760 <leds_set>
402f0594:	e3a03a0a 	mov	r3, #40960	; 0xa000
402f0598:	e3443804 	movt	r3, #18436	; 0x4804
402f059c:	e3a02003 	mov	r2, #3
402f05a0:	e5832038 	str	r2, [r3, #56]	; 0x38
402f05a4:	eb0000a2 	bl	402f0834 <uart_init>
402f05a8:	e3000b48 	movw	r0, #2888	; 0xb48
402f05ac:	e344002f 	movt	r0, #16431	; 0x402f
402f05b0:	eb0000f2 	bl	402f0980 <uart_putf>
402f05b4:	ee105f10 	mrc	15, 0, r5, cr0, cr0, {0}
402f05b8:	e3000b58 	movw	r0, #2904	; 0xb58
402f05bc:	e1a01005 	mov	r1, r5
402f05c0:	e344002f 	movt	r0, #16431	; 0x402f
402f05c4:	eb0000ed 	bl	402f0980 <uart_putf>
402f05c8:	f1080080 	cpsie	i
402f05cc:	e10f5000 	mrs	r5, CPSR
402f05d0:	e3000b70 	movw	r0, #2928	; 0xb70
402f05d4:	e1a01005 	mov	r1, r5
402f05d8:	e344002f 	movt	r0, #16431	; 0x402f
402f05dc:	e3a05000 	mov	r5, #0
402f05e0:	eb0000e6 	bl	402f0980 <uart_putf>
402f05e4:	e3a03a2b 	mov	r3, #176128	; 0x2b000
402f05e8:	e3000b84 	movw	r0, #2948	; 0xb84
402f05ec:	e5931ffc 	ldr	r1, [r3, #4092]	; 0xffc
402f05f0:	e344002f 	movt	r0, #16431	; 0x402f
402f05f4:	e34454e1 	movt	r5, #17633	; 0x44e1
402f05f8:	eb0000e0 	bl	402f0980 <uart_putf>
402f05fc:	e3000b9c 	movw	r0, #2972	; 0xb9c
402f0600:	e5951040 	ldr	r1, [r5, #64]	; 0x40
402f0604:	e344002f 	movt	r0, #16431	; 0x402f
402f0608:	eb0000dc 	bl	402f0980 <uart_putf>
402f060c:	e5952040 	ldr	r2, [r5, #64]	; 0x40
402f0610:	e3003c44 	movw	r3, #3140	; 0xc44
402f0614:	e3000bb4 	movw	r0, #2996	; 0xbb4
402f0618:	e7e12b52 	ubfx	r2, r2, #22, #2
402f061c:	e344302f 	movt	r3, #16431	; 0x402f
402f0620:	e344002f 	movt	r0, #16431	; 0x402f
402f0624:	e7931102 	ldr	r1, [r3, r2, lsl #2]
402f0628:	eb0000d4 	bl	402f0980 <uart_putf>
402f062c:	e5d4c009 	ldrb	r12, [r4, #9]
402f0630:	e3000bcc 	movw	r0, #3020	; 0xbcc
402f0634:	e5942004 	ldr	r2, [r4, #4]
402f0638:	e5d43008 	ldrb	r3, [r4, #8]
402f063c:	e1a01004 	mov	r1, r4
402f0640:	e58dc000 	str	r12, [r13]
402f0644:	e344002f 	movt	r0, #16431	; 0x402f
402f0648:	eb0000cc 	bl	402f0980 <uart_putf>
402f064c:	e3003c64 	movw	r3, #3172	; 0xc64
402f0650:	e344302f 	movt	r3, #16431	; 0x402f
402f0654:	e3a0c903 	mov	r12, #49152	; 0xc000
402f0658:	e8930007 	ldm	r3, {r0, r1, r2}
402f065c:	e344c030 	movt	r12, #16432	; 0x4030
402f0660:	e300e48c 	movw	r14, #1164	; 0x48c
402f0664:	e3003464 	movw	r3, #1124	; 0x464
402f0668:	e344e02f 	movt	r14, #16431	; 0x402f
402f066c:	e344302f 	movt	r3, #16431	; 0x402f
402f0670:	e8840007 	stm	r4, {r0, r1, r2}
402f0674:	e58cee24 	str	r14, [r12, #3620]	; 0xe24
402f0678:	e58c3e38 	str	r3, [r12, #3640]	; 0xe38
402f067c:	e7f000f0 	udf	#0
402f0680:	eb000040 	bl	402f0788 <rtc_init>
402f0684:	e3008c58 	movw	r8, #3160	; 0xc58
402f0688:	eb00005b 	bl	402f07fc <rtc_irq>
402f068c:	e3007c5c 	movw	r7, #3164	; 0xc5c
402f0690:	e3006c60 	movw	r6, #3168	; 0xc60
402f0694:	e3009c54 	movw	r9, #3156	; 0xc54
402f0698:	e3a04a0a 	mov	r4, #40960	; 0xa000
402f069c:	e344802f 	movt	r8, #16431	; 0x402f
402f06a0:	e344702f 	movt	r7, #16431	; 0x402f
402f06a4:	e344602f 	movt	r6, #16431	; 0x402f
402f06a8:	e344902f 	movt	r9, #16431	; 0x402f
402f06ac:	e3444804 	movt	r4, #18436	; 0x4804
402f06b0:	e3a05000 	mov	r5, #0
402f06b4:	e3a03001 	mov	r3, #1
402f06b8:	e2050003 	and	r0, r5, #3
402f06bc:	e1a00013 	lsl	r0, r3, r0
402f06c0:	e2855001 	add	r5, r5, #1
402f06c4:	eb000025 	bl	402f0760 <leds_set>
402f06c8:	e5981000 	ldr	r1, [r8]
402f06cc:	e5982000 	ldr	r2, [r8]
402f06d0:	e3000c04 	movw	r0, #3076	; 0xc04
402f06d4:	e5973000 	ldr	r3, [r7]
402f06d8:	e7e11251 	ubfx	r1, r1, #4, #2
402f06dc:	e597b000 	ldr	r11, [r7]
402f06e0:	e202200f 	and	r2, r2, #15
402f06e4:	e596e000 	ldr	r14, [r6]
402f06e8:	e7e23253 	ubfx	r3, r3, #4, #3
402f06ec:	e596c000 	ldr	r12, [r6]
402f06f0:	e20bb00f 	and	r11, r11, #15
402f06f4:	e599a000 	ldr	r10, [r9]
402f06f8:	e7e2e25e 	ubfx	r14, r14, #4, #3
402f06fc:	e20cc00f 	and	r12, r12, #15
402f0700:	e58d5010 	str	r5, [r13, #16]
402f0704:	e58db000 	str	r11, [r13]
402f0708:	e344002f 	movt	r0, #16431	; 0x402f
402f070c:	e58da00c 	str	r10, [r13, #12]
402f0710:	e58de004 	str	r14, [r13, #4]
402f0714:	e58dc008 	str	r12, [r13, #8]
402f0718:	eb000098 	bl	402f0980 <uart_putf>
402f071c:	e594203c 	ldr	r2, [r4, #60]	; 0x3c
402f0720:	e594303c 	ldr	r3, [r4, #60]	; 0x3c
402f0724:	e0623003 	rsb	r3, r2, r3
402f0728:	e3530401 	cmp	r3, #16777216	; 0x1000000
402f072c:	3afffffb 	bcc	402f0720 <main+0x1b4>
402f0730:	eaffffdf 	b	402f06b4 <main+0x148>

402f0734 <leds_init>:
402f0734:	e3a02000 	mov	r2, #0
402f0738:	e3a03903 	mov	r3, #49152	; 0xc000
402f073c:	e34424e0 	movt	r2, #17632	; 0x44e0
402f0740:	e3443804 	movt	r3, #18436	; 0x4804
402f0744:	e3a01002 	mov	r1, #2
402f0748:	e3401004 	movt	r1, #4
402f074c:	e58210ac 	str	r1, [r2, #172]	; 0xac
402f0750:	e5932134 	ldr	r2, [r3, #308]	; 0x134
402f0754:	e3c2261e 	bic	r2, r2, #31457280	; 0x1e00000
402f0758:	e5832134 	str	r2, [r3, #308]	; 0x134
402f075c:	e12fff1e 	bx	r14

402f0760 <leds_set>:
402f0760:	e200200f 	and	r2, r0, #15
402f0764:	e3a03903 	mov	r3, #49152	; 0xc000
402f0768:	e1e00000 	mvn	r0, r0
402f076c:	e200000f 	and	r0, r0, #15
402f0770:	e3443804 	movt	r3, #18436	; 0x4804
402f0774:	e1a02a82 	lsl	r2, r2, #21
402f0778:	e1a00a80 	lsl	r0, r0, #21
402f077c:	e5832194 	str	r2, [r3, #404]	; 0x194
402f0780:	e5830190 	str	r0, [r3, #400]	; 0x190
402f0784:	e12fff1e 	bx	r14

402f0788 <rtc_init>:
402f0788:	e3a01000 	mov	r1, #0
402f078c:	e3a02903 	mov	r2, #49152	; 0xc000
402f0790:	e3a03a0e 	mov	r3, #57344	; 0xe000
402f0794:	e3442804 	movt	r2, #18436	; 0x4804
402f0798:	e34434e3 	movt	r3, #17635	; 0x44e3
402f079c:	e34414e0 	movt	r1, #17632	; 0x44e0
402f07a0:	e300cb13 	movw	r12, #2835	; 0xb13
402f07a4:	e30f01e0 	movw	r0, #61920	; 0xf1e0
402f07a8:	e92d4030 	push	{r4, r5, r14}
402f07ac:	e348c3e7 	movt	r12, #33767	; 0x83e7
402f07b0:	e3a0e002 	mov	r14, #2
402f07b4:	e3a05602 	mov	r5, #2097152	; 0x200000
402f07b8:	e581e804 	str	r14, [r1, #2052]	; 0x804
402f07bc:	e3a04507 	mov	r4, #29360128	; 0x1c00000
402f07c0:	e5825194 	str	r5, [r2, #404]	; 0x194
402f07c4:	e34905a4 	movt	r0, #38308	; 0x95a4
402f07c8:	e5824190 	str	r4, [r2, #400]	; 0x190
402f07cc:	e3a05501 	mov	r5, #4194304	; 0x400000
402f07d0:	e581e800 	str	r14, [r1, #2048]	; 0x800
402f07d4:	e3a0461a 	mov	r4, #27262976	; 0x1a00000
402f07d8:	e5825194 	str	r5, [r2, #404]	; 0x194
402f07dc:	e3a01001 	mov	r1, #1
402f07e0:	e5824190 	str	r4, [r2, #400]	; 0x190
402f07e4:	e3a02048 	mov	r2, #72	; 0x48
402f07e8:	e583c06c 	str	r12, [r3, #108]	; 0x6c
402f07ec:	e5830070 	str	r0, [r3, #112]	; 0x70
402f07f0:	e5831040 	str	r1, [r3, #64]	; 0x40
402f07f4:	e5832054 	str	r2, [r3, #84]	; 0x54
402f07f8:	e8bd8030 	pop	{r4, r5, r15}

402f07fc <rtc_irq>:
402f07fc:	e3a01a0e 	mov	r1, #57344	; 0xe000
402f0800:	e34414e3 	movt	r1, #17635	; 0x44e3
402f0804:	e5912044 	ldr	r2, [r1, #68]	; 0x44
402f0808:	e3a03a0e 	mov	r3, #57344	; 0xe000
402f080c:	e34434e3 	movt	r3, #17635	; 0x44e3
402f0810:	e3120001 	tst	r2, #1
402f0814:	1afffffa 	bne	402f0804 <rtc_irq+0x8>
402f0818:	e3a02000 	mov	r2, #0
402f081c:	e3a01004 	mov	r1, #4
402f0820:	e3442820 	movt	r2, #18464	; 0x4820
402f0824:	e5831048 	str	r1, [r3, #72]	; 0x48
402f0828:	e3a03b02 	mov	r3, #2048	; 0x800
402f082c:	e58230c8 	str	r3, [r2, #200]	; 0xc8
402f0830:	e12fff1e 	bx	r14

402f0834 <uart_init>:
402f0834:	e3a02000 	mov	r2, #0
402f0838:	e3a00030 	mov	r0, #48	; 0x30
402f083c:	e1a03002 	mov	r3, r2
402f0840:	e34424e1 	movt	r2, #17633	; 0x44e1
402f0844:	e34434e0 	movt	r3, #17632	; 0x44e0
402f0848:	e3a01000 	mov	r1, #0
402f084c:	e52de004 	push	{r14}		; (str r14, [r13, #-4]!)
402f0850:	e5820970 	str	r0, [r2, #2416]	; 0x970
402f0854:	e3a00903 	mov	r0, #49152	; 0xc000
402f0858:	e5821974 	str	r1, [r2, #2420]	; 0x974
402f085c:	e3a02a09 	mov	r2, #36864	; 0x9000
402f0860:	e593e400 	ldr	r14, [r3, #1024]	; 0x400
402f0864:	e34424e0 	movt	r2, #17632	; 0x44e0
402f0868:	e593111c 	ldr	r1, [r3, #284]	; 0x11c
402f086c:	e3440804 	movt	r0, #18436	; 0x4804
402f0870:	e593c4b4 	ldr	r12, [r3, #1204]	; 0x4b4
402f0874:	e3cee003 	bic	r14, r14, #3
402f0878:	e3c11003 	bic	r1, r1, #3
402f087c:	e38ee002 	orr	r14, r14, #2
402f0880:	e3ccc003 	bic	r12, r12, #3
402f0884:	e583e400 	str	r14, [r3, #1024]	; 0x400
402f0888:	e3811002 	orr	r1, r1, #2
402f088c:	e38cc002 	orr	r12, r12, #2
402f0890:	e583111c 	str	r1, [r3, #284]	; 0x11c
402f0894:	e3a0160e 	mov	r1, #14680064	; 0xe00000
402f0898:	e583c4b4 	str	r12, [r3, #1204]	; 0x4b4
402f089c:	e3a03401 	mov	r3, #16777216	; 0x1000000
402f08a0:	e5801194 	str	r1, [r0, #404]	; 0x194
402f08a4:	e1a01002 	mov	r1, r2
402f08a8:	e5803190 	str	r3, [r0, #400]	; 0x190
402f08ac:	e5923054 	ldr	r3, [r2, #84]	; 0x54
402f08b0:	e3833002 	orr	r3, r3, #2
402f08b4:	e5823054 	str	r3, [r2, #84]	; 0x54
402f08b8:	e5912058 	ldr	r2, [r1, #88]	; 0x58
402f08bc:	e3a03a09 	mov	r3, #36864	; 0x9000
402f08c0:	e34434e0 	movt	r3, #17632	; 0x44e0
402f08c4:	e3120001 	tst	r2, #1
402f08c8:	0afffffa 	beq	402f08b8 <uart_init+0x84>
402f08cc:	e5932054 	ldr	r2, [r3, #84]	; 0x54
402f08d0:	e1a01003 	mov	r1, r3
402f08d4:	e3822008 	orr	r2, r2, #8
402f08d8:	e5832054 	str	r2, [r3, #84]	; 0x54
402f08dc:	e5d12014 	ldrb	r2, [r1, #20]
402f08e0:	e3a03a09 	mov	r3, #36864	; 0x9000
402f08e4:	e34434e0 	movt	r3, #17632	; 0x44e0
402f08e8:	e3120040 	tst	r2, #64	; 0x40
402f08ec:	0afffffa 	beq	402f08dc <uart_init+0xa8>
402f08f0:	e3a02000 	mov	r2, #0
402f08f4:	e3a01003 	mov	r1, #3
402f08f8:	e5c32004 	strb	r2, [r3, #4]
402f08fc:	e3a0c007 	mov	r12, #7
402f0900:	e3e0007c 	mvn	r0, #124	; 0x7c
402f0904:	e5c3c020 	strb	r12, [r3, #32]
402f0908:	e3a0e01a 	mov	r14, #26
402f090c:	e5c3000c 	strb	r0, [r3, #12]
402f0910:	e5c32000 	strb	r2, [r3]
402f0914:	e5c32004 	strb	r2, [r3, #4]
402f0918:	e5c3100c 	strb	r1, [r3, #12]
402f091c:	e5c31010 	strb	r1, [r3, #16]
402f0920:	e5c3c008 	strb	r12, [r3, #8]
402f0924:	e5c3000c 	strb	r0, [r3, #12]
402f0928:	e5c3e000 	strb	r14, [r3]
402f092c:	e5c32004 	strb	r2, [r3, #4]
402f0930:	e5c3100c 	strb	r1, [r3, #12]
402f0934:	e5c32020 	strb	r2, [r3, #32]
402f0938:	e49df004 	pop	{r15}		; (ldr r15, [r13], #4)

402f093c <uart_putc>:
402f093c:	e350000a 	cmp	r0, #10
402f0940:	e92d4010 	push	{r4, r14}
402f0944:	e1a04000 	mov	r4, r0
402f0948:	0a000009 	beq	402f0974 <uart_putc+0x38>
402f094c:	e3a01a09 	mov	r1, #36864	; 0x9000
402f0950:	e34414e0 	movt	r1, #17632	; 0x44e0
402f0954:	e5d12014 	ldrb	r2, [r1, #20]
402f0958:	e3a03a09 	mov	r3, #36864	; 0x9000
402f095c:	e34434e0 	movt	r3, #17632	; 0x44e0
402f0960:	e3120020 	tst	r2, #32
402f0964:	0afffffa 	beq	402f0954 <uart_putc+0x18>
402f0968:	e6ef4074 	uxtb	r4, r4
402f096c:	e5c34000 	strb	r4, [r3]
402f0970:	e8bd8010 	pop	{r4, r15}
402f0974:	e3a0000d 	mov	r0, #13
402f0978:	ebffffef 	bl	402f093c <uart_putc>
402f097c:	eafffff2 	b	402f094c <uart_putc+0x10>

402f0980 <uart_putf>:
402f0980:	e92d000f 	push	{r0, r1, r2, r3}
402f0984:	e92d4ff0 	push	{r4, r5, r6, r7, r8, r9, r10, r11, r14}
402f0988:	e28db020 	add	r11, r13, #32
402f098c:	e24dd014 	sub	r13, r13, #20
402f0990:	e59b6004 	ldr	r6, [r11, #4]
402f0994:	e3064667 	movw	r4, #26215	; 0x6667
402f0998:	e28b8008 	add	r8, r11, #8
402f099c:	e24b5026 	sub	r5, r11, #38	; 0x26
402f09a0:	e24b7025 	sub	r7, r11, #37	; 0x25
402f09a4:	e3464666 	movt	r4, #26214	; 0x6666
402f09a8:	e5d60000 	ldrb	r0, [r6]
402f09ac:	e3500000 	cmp	r0, #0
402f09b0:	0a00002c 	beq	402f0a68 <uart_putf+0xe8>
402f09b4:	e3500025 	cmp	r0, #37	; 0x25
402f09b8:	1a000056 	bne	402f0b18 <uart_putf+0x198>
402f09bc:	e5d63001 	ldrb	r3, [r6, #1]
402f09c0:	e2866002 	add	r6, r6, #2
402f09c4:	e2433063 	sub	r3, r3, #99	; 0x63
402f09c8:	e3530015 	cmp	r3, #21
402f09cc:	979ff103 	ldrls	r15, [r15, r3, lsl #2]
402f09d0:	ea00004d 	b	402f0b0c <uart_putf+0x18c>
402f09d4:	402f0af8 	strdmi	r0, [r15], -r8	; <UNPREDICTABLE>
402f09d8:	402f0aa0 	eormi	r0, r15, r0, lsr #21
402f09dc:	402f0b0c 	eormi	r0, r15, r12, lsl #22
402f09e0:	402f0b0c 	eormi	r0, r15, r12, lsl #22
402f09e4:	402f0b0c 	eormi	r0, r15, r12, lsl #22
402f09e8:	402f0b0c 	eormi	r0, r15, r12, lsl #22
402f09ec:	402f0b0c 	eormi	r0, r15, r12, lsl #22
402f09f0:	402f0b0c 	eormi	r0, r15, r12, lsl #22
402f09f4:	402f0b0c 	eormi	r0, r15, r12, lsl #22
402f09f8:	402f0b0c 	eormi	r0, r15, r12, lsl #22
402f09fc:	402f0b0c 	eormi	r0, r15, r12, lsl #22
402f0a00:	402f0b0c 	eormi	r0, r15, r12, lsl #22
402f0a04:	402f0b0c 	eormi	r0, r15, r12, lsl #22
402f0a08:	402f0b0c 	eormi	r0, r15, r12, lsl #22
402f0a0c:	402f0b0c 	eormi	r0, r15, r12, lsl #22
402f0a10:	402f0b0c 	eormi	r0, r15, r12, lsl #22
402f0a14:	402f0a78 	eormi	r0, r15, r8, ror r10	; <UNPREDICTABLE>
402f0a18:	402f0b0c 	eormi	r0, r15, r12, lsl #22
402f0a1c:	402f0b0c 	eormi	r0, r15, r12, lsl #22
402f0a20:	402f0b0c 	eormi	r0, r15, r12, lsl #22
402f0a24:	402f0b0c 	eormi	r0, r15, r12, lsl #22
402f0a28:	402f0a2c 	eormi	r0, r15, r12, lsr #20
402f0a2c:	e598a000 	ldr	r10, [r8]
402f0a30:	e2888004 	add	r8, r8, #4
402f0a34:	e3a0901c 	mov	r9, #28
402f0a38:	e1a0395a 	asr	r3, r10, r9
402f0a3c:	e2499004 	sub	r9, r9, #4
402f0a40:	e203300f 	and	r3, r3, #15
402f0a44:	e3530009 	cmp	r3, #9
402f0a48:	e2830030 	add	r0, r3, #48	; 0x30
402f0a4c:	c2830037 	addgt	r0, r3, #55	; 0x37
402f0a50:	ebffffb9 	bl	402f093c <uart_putc>
402f0a54:	e3790004 	cmn	r9, #4
402f0a58:	1afffff6 	bne	402f0a38 <uart_putf+0xb8>
402f0a5c:	e5d60000 	ldrb	r0, [r6]
402f0a60:	e3500000 	cmp	r0, #0
402f0a64:	1affffd2 	bne	402f09b4 <uart_putf+0x34>
402f0a68:	e24bd020 	sub	r13, r11, #32
402f0a6c:	e8bd4ff0 	pop	{r4, r5, r6, r7, r8, r9, r10, r11, r14}
402f0a70:	e28dd010 	add	r13, r13, #16
402f0a74:	e12fff1e 	bx	r14
402f0a78:	e5989000 	ldr	r9, [r8]
402f0a7c:	e2888004 	add	r8, r8, #4
402f0a80:	e5d90000 	ldrb	r0, [r9]
402f0a84:	e3500000 	cmp	r0, #0
402f0a88:	0affffc6 	beq	402f09a8 <uart_putf+0x28>
402f0a8c:	ebffffaa 	bl	402f093c <uart_putc>
402f0a90:	e5f90001 	ldrb	r0, [r9, #1]!
402f0a94:	e3500000 	cmp	r0, #0
402f0a98:	1afffffb 	bne	402f0a8c <uart_putf+0x10c>
402f0a9c:	eaffffc1 	b	402f09a8 <uart_putf+0x28>
402f0aa0:	e5982000 	ldr	r2, [r8]
402f0aa4:	e2888004 	add	r8, r8, #4
402f0aa8:	e1a01005 	mov	r1, r5
402f0aac:	e0c03294 	smull	r3, r0, r4, r2
402f0ab0:	e1a03fc2 	asr	r3, r2, #31
402f0ab4:	e1a09001 	mov	r9, r1
402f0ab8:	e0633140 	rsb	r3, r3, r0, asr #2
402f0abc:	e0830103 	add	r0, r3, r3, lsl #2
402f0ac0:	e0420080 	sub	r0, r2, r0, lsl #1
402f0ac4:	e2532000 	subs	r2, r3, #0
402f0ac8:	e2800030 	add	r0, r0, #48	; 0x30
402f0acc:	e6ef0070 	uxtb	r0, r0
402f0ad0:	e4410001 	strb	r0, [r1], #-1
402f0ad4:	1afffff4 	bne	402f0aac <uart_putf+0x12c>
402f0ad8:	e1590007 	cmp	r9, r7
402f0adc:	3a000001 	bcc	402f0ae8 <uart_putf+0x168>
402f0ae0:	eaffffb0 	b	402f09a8 <uart_putf+0x28>
402f0ae4:	e5f90001 	ldrb	r0, [r9, #1]!
402f0ae8:	ebffff93 	bl	402f093c <uart_putc>
402f0aec:	e1590005 	cmp	r9, r5
402f0af0:	1afffffb 	bne	402f0ae4 <uart_putf+0x164>
402f0af4:	eaffffab 	b	402f09a8 <uart_putf+0x28>
402f0af8:	e2889004 	add	r9, r8, #4
402f0afc:	e5980000 	ldr	r0, [r8]
402f0b00:	ebffff8d 	bl	402f093c <uart_putc>
402f0b04:	e1a08009 	mov	r8, r9
402f0b08:	eaffffa6 	b	402f09a8 <uart_putf+0x28>
402f0b0c:	e3a0003f 	mov	r0, #63	; 0x3f
402f0b10:	ebffff89 	bl	402f093c <uart_putc>
402f0b14:	eaffffa3 	b	402f09a8 <uart_putf+0x28>
402f0b18:	e2866001 	add	r6, r6, #1
402f0b1c:	ebffff86 	bl	402f093c <uart_putc>
402f0b20:	eaffffa0 	b	402f09a8 <uart_putf+0x28>

Disassembly of section .rodata.str1.4:

402f0b24 <.rodata.str1.4>:
402f0b24:	65646e75 	strbvs	r6, [r4, #-3701]!	; 0xe75
402f0b28:	656e6966 	strbvs	r6, [r14, #-2406]!	; 0x966
402f0b2c:	6e692064 	cdpvs	0, 6, cr2, cr9, cr4, {3}
402f0b30:	75727473 	ldrbvc	r7, [r2, #-1139]!	; 0x473
402f0b34:	6f697463 	svcvs	0x00697463
402f0b38:	73202c6e 	teqvc	r0, #28160	; 0x6e00
402f0b3c:	7070696b 	rsbsvc	r6, r0, r11, ror #18
402f0b40:	0a676e69 	beq	41ccc4ec <__bss_end__+0x19db87c>
402f0b44:	00000000 	andeq	r0, r0, r0
402f0b48:	6f420a0a 	svcvs	0x00420a0a
402f0b4c:	6e69746f 	cdpvs	4, 6, cr7, cr9, cr15, {3}
402f0b50:	2e2e2e67 	cdpcs	14, 2, cr2, cr14, cr7, {3}
402f0b54:	0000000a 	andeq	r0, r0, r10
402f0b58:	6e69616d 	powvsez	f6, f1, #5.0
402f0b5c:	20646920 	rsbcs	r6, r4, r0, lsr #18
402f0b60:	69676572 	stmdbvs	r7!, {r1, r4, r5, r6, r8, r10, r13, r14}^
402f0b64:	72657473 	rsbvc	r7, r5, #1929379840	; 0x73000000
402f0b68:	0a782520 	beq	420f9ff0 <__bss_end__+0x1e09380>
402f0b6c:	00000000 	andeq	r0, r0, r0
402f0b70:	52535043 	subspl	r5, r3, #67	; 0x43
402f0b74:	67657220 	strbvs	r7, [r5, -r0, lsr #4]!
402f0b78:	65747369 	ldrbvs	r7, [r4, #-873]!	; 0x369
402f0b7c:	78252072 	stmdavc	r5!, {r1, r4, r5, r6, r13}
402f0b80:	0000000a 	andeq	r0, r0, r10
402f0b84:	206d6f72 	rsbcs	r6, r13, r2, ror r15
402f0b88:	65646f63 	strbvs	r6, [r4, #-3939]!	; 0xf63
402f0b8c:	72657620 	rsbvc	r7, r5, #32, 12	; 0x2000000
402f0b90:	6e6f6973 	mcrvs	9, 3, r6, cr15, cr3, {3}
402f0b94:	25783020 	ldrbcs	r3, [r8, #-32]!
402f0b98:	00000a78 	andeq	r0, r0, r8, ror r10
402f0b9c:	746e6f63 	strbtvc	r6, [r14], #-3939	; 0xf63
402f0ba0:	5f6c6f72 	svcpl	0x006c6f72
402f0ba4:	74617473 	strbtvc	r7, [r1], #-1139	; 0x473
402f0ba8:	30207375 	eorcc	r7, r0, r5, ror r3
402f0bac:	0a782578 	beq	420fa194 <__bss_end__+0x1e09524>
402f0bb0:	00000000 	andeq	r0, r0, r0
402f0bb4:	73797263 	cmnvc	r9, #805306374	; 0x30000006
402f0bb8:	206c6174 	rsbcs	r6, r12, r4, ror r1
402f0bbc:	71657266 	cmnvc	r5, r6, ror #4
402f0bc0:	20732520 	rsbscs	r2, r3, r0, lsr #10
402f0bc4:	0a7a484d 	beq	42182d00 <__bss_end__+0x1e92090>
402f0bc8:	00000000 	andeq	r0, r0, r0
402f0bcc:	746f6f62 	strbtvc	r6, [pc], #-3938	; 402f0bd4 <__data_rom_start__+0xb0>
402f0bd0:	20676663 	rsbcs	r6, r7, r3, ror #12
402f0bd4:	78257830 	stmdavc	r5!, {r4, r5, r11, r12, r13, r14}
402f0bd8:	6564200a 	strbvs	r2, [r4, #-10]!
402f0bdc:	20206373 	eorcs	r6, r0, r3, ror r3
402f0be0:	7830203a 	ldmdavc	r0!, {r1, r3, r4, r5, r13}
402f0be4:	200a7825 	andcs	r7, r10, r5, lsr #16
402f0be8:	69766564 	ldmdbvs	r6!, {r2, r5, r6, r8, r10, r13, r14}^
402f0bec:	203a6563 	eorscs	r6, r10, r3, ror #10
402f0bf0:	78257830 	stmdavc	r5!, {r4, r5, r11, r12, r13, r14}
402f0bf4:	6572200a 	ldrbvs	r2, [r2, #-10]!
402f0bf8:	6e6f7361 	cdpvs	3, 6, cr7, cr15, cr1, {3}
402f0bfc:	7830203a 	ldmdavc	r0!, {r1, r3, r4, r5, r13}
402f0c00:	000a7825 	andeq	r7, r10, r5, lsr #16
402f0c04:	6d69740d 	cfstrdvs	mvd7, [r9, #-52]!	; 0xffffffcc
402f0c08:	64252065 	strtvs	r2, [r5], #-101	; 0x65
402f0c0c:	253a6425 	ldrcs	r6, [r10, #-1061]!	; 0x425
402f0c10:	3a642564 	bcc	41bfa1a8 <__bss_end__+0x1909538>
402f0c14:	64256425 	strtvs	r6, [r5], #-1061	; 0x425
402f0c18:	71726920 	cmnvc	r2, r0, lsr #18
402f0c1c:	756f635f 	strbvc	r6, [pc, #-863]!	; 402f08c5 <uart_init+0x91>
402f0c20:	5f3a746e 	svcpl	0x003a746e
402f0c24:	205f6425 	subscs	r6, r15, r5, lsr #8
402f0c28:	64253a69 	strtvs	r3, [r5], #-2665	; 0xa69
402f0c2c:	00000000 	andeq	r0, r0, r0
402f0c30:	322e3931 	eorcc	r3, r14, #802816	; 0xc4000
402f0c34:	00000000 	andeq	r0, r0, r0
402f0c38:	00003432 	andeq	r3, r0, r2, lsr r4
402f0c3c:	00003532 	andeq	r3, r0, r2, lsr r5
402f0c40:	00003632 	andeq	r3, r0, r2, lsr r6

Disassembly of section .data:

402f0c44 <CRYSTAL_FREQS>:
402f0c44:	402f0c30 	eormi	r0, r15, r0, lsr r12	; <UNPREDICTABLE>
402f0c48:	402f0c38 	eormi	r0, r15, r8, lsr r12	; <UNPREDICTABLE>
402f0c4c:	402f0c3c 	eormi	r0, r15, r12, lsr r12	; <UNPREDICTABLE>
402f0c50:	402f0c40 	eormi	r0, r15, r0, asr #24

Disassembly of section .bss:

402f0c54 <__bss_start__>:
402f0c54:	00000000 	andeq	r0, r0, r0

402f0c58 <hour>:
402f0c58:	00000000 	andeq	r0, r0, r0

402f0c5c <min>:
402f0c5c:	00000000 	andeq	r0, r0, r0

402f0c60 <sec>:
402f0c60:	00000000 	andeq	r0, r0, r0

402f0c64 <Empty_params>:
	...

Disassembly of section .ARM.attributes:

00000000 <.ARM.attributes>:
   0:	00003841 	andeq	r3, r0, r1, asr #16
   4:	61656100 	cmnvs	r5, r0, lsl #2
   8:	01006962 	tsteq	r0, r2, ror #18
   c:	0000002e 	andeq	r0, r0, r14, lsr #32
  10:	726f4305 	rsbvc	r4, r15, #335544320	; 0x14000000
  14:	2d786574 	cfldr64cs	mvdx6, [r8, #-464]!	; 0xfffffe30
  18:	06003841 	streq	r3, [r0], -r1, asr #16
  1c:	0841070a 	stmdaeq	r1, {r1, r3, r8, r9, r10}^
  20:	0a020901 	beq	8242c <STACK_SIZE+0x8232c>
  24:	14041204 	strne	r1, [r4], #-516	; 0x204
  28:	17011501 	strne	r1, [r1, -r1, lsl #10]
  2c:	1a011803 	bne	46040 <STACK_SIZE+0x45f40>
  30:	1c031b02 	stcne	11, cr1, [r3], {2}
  34:	44012201 	strmi	r2, [r1], #-513	; 0x201
  38:	Address 0x0000000000000038 is out of bounds.


Disassembly of section .comment:

00000000 <.comment>:
   0:	3a434347 	bcc	10d0d24 <STACK_SIZE+0x10d0c24>
   4:	62552820 	subsvs	r2, r5, #32, 16	; 0x200000
   8:	75746e75 	ldrbvc	r6, [r4, #-3701]!	; 0xe75
   c:	6e694c2f 	cdpvs	12, 6, cr4, cr9, cr15, {1}
  10:	206f7261 	rsbcs	r7, r15, r1, ror #4
  14:	2e382e34 	mrccs	14, 1, r2, cr8, cr4, {1}
  18:	75322d34 	ldrvc	r2, [r2, #-3380]!	; 0xd34
  1c:	746e7562 	strbtvc	r7, [r14], #-1378	; 0x562
  20:	317e3175 	cmncc	r14, r5, ror r1
  24:	34302e34 	ldrtcc	r2, [r0], #-3636	; 0xe34
  28:	2029312e 	eorcs	r3, r9, r14, lsr #2
  2c:	2e382e34 	mrccs	14, 1, r2, cr8, cr4, {1}
  30:	Address 0x0000000000000030 is out of bounds.

